
kernel.elf:     format de fichier elf32-i386


Déassemblage de la section .mbh :

00300000 <mbh>:
  300000:	02 b0 ad 1b 03 00    	add    0x31bad(%eax),%dh
  300006:	00 00                	add    %al,(%eax)
  300008:	fb                   	sti
  300009:	4f                   	dec    %edi
  30000a:	52                   	push   %edx
  30000b:	e4                   	.byte 0xe4

Déassemblage de la section .idt_jmp :

00302010 <idt_trampoline>:
  302010:	6a ff                	push   $0xffffffff
  302012:	6a 00                	push   $0x0
  302014:	e9 6d 1d 00 00       	jmp    303d86 <idt_common>
  302019:	8d b4 26 00 00 00 00 	lea    0x0(%esi,%eiz,1),%esi
  302020:	6a ff                	push   $0xffffffff
  302022:	6a 01                	push   $0x1
  302024:	e9 5d 1d 00 00       	jmp    303d86 <idt_common>
  302029:	8d b4 26 00 00 00 00 	lea    0x0(%esi,%eiz,1),%esi
  302030:	6a ff                	push   $0xffffffff
  302032:	6a 02                	push   $0x2
  302034:	e9 4d 1d 00 00       	jmp    303d86 <idt_common>
  302039:	8d b4 26 00 00 00 00 	lea    0x0(%esi,%eiz,1),%esi
  302040:	6a ff                	push   $0xffffffff
  302042:	6a 03                	push   $0x3
  302044:	e9 3d 1d 00 00       	jmp    303d86 <idt_common>
  302049:	8d b4 26 00 00 00 00 	lea    0x0(%esi,%eiz,1),%esi
  302050:	6a ff                	push   $0xffffffff
  302052:	6a 04                	push   $0x4
  302054:	e9 2d 1d 00 00       	jmp    303d86 <idt_common>
  302059:	8d b4 26 00 00 00 00 	lea    0x0(%esi,%eiz,1),%esi
  302060:	6a ff                	push   $0xffffffff
  302062:	6a 05                	push   $0x5
  302064:	e9 1d 1d 00 00       	jmp    303d86 <idt_common>
  302069:	8d b4 26 00 00 00 00 	lea    0x0(%esi,%eiz,1),%esi
  302070:	6a ff                	push   $0xffffffff
  302072:	6a 06                	push   $0x6
  302074:	e9 0d 1d 00 00       	jmp    303d86 <idt_common>
  302079:	8d b4 26 00 00 00 00 	lea    0x0(%esi,%eiz,1),%esi
  302080:	6a ff                	push   $0xffffffff
  302082:	6a 07                	push   $0x7
  302084:	e9 fd 1c 00 00       	jmp    303d86 <idt_common>
  302089:	8d b4 26 00 00 00 00 	lea    0x0(%esi,%eiz,1),%esi
  302090:	6a 08                	push   $0x8
  302092:	e9 ef 1c 00 00       	jmp    303d86 <idt_common>
  302097:	2e 8d b4 26 00 00 00 	lea    %cs:0x0(%esi,%eiz,1),%esi
  30209e:	00 
  30209f:	90                   	nop
  3020a0:	6a ff                	push   $0xffffffff
  3020a2:	6a 09                	push   $0x9
  3020a4:	e9 dd 1c 00 00       	jmp    303d86 <idt_common>
  3020a9:	8d b4 26 00 00 00 00 	lea    0x0(%esi,%eiz,1),%esi
  3020b0:	6a 0a                	push   $0xa
  3020b2:	e9 cf 1c 00 00       	jmp    303d86 <idt_common>
  3020b7:	2e 8d b4 26 00 00 00 	lea    %cs:0x0(%esi,%eiz,1),%esi
  3020be:	00 
  3020bf:	90                   	nop
  3020c0:	6a 0b                	push   $0xb
  3020c2:	e9 bf 1c 00 00       	jmp    303d86 <idt_common>
  3020c7:	2e 8d b4 26 00 00 00 	lea    %cs:0x0(%esi,%eiz,1),%esi
  3020ce:	00 
  3020cf:	90                   	nop
  3020d0:	6a 0c                	push   $0xc
  3020d2:	e9 af 1c 00 00       	jmp    303d86 <idt_common>
  3020d7:	2e 8d b4 26 00 00 00 	lea    %cs:0x0(%esi,%eiz,1),%esi
  3020de:	00 
  3020df:	90                   	nop
  3020e0:	6a 0d                	push   $0xd
  3020e2:	e9 9f 1c 00 00       	jmp    303d86 <idt_common>
  3020e7:	2e 8d b4 26 00 00 00 	lea    %cs:0x0(%esi,%eiz,1),%esi
  3020ee:	00 
  3020ef:	90                   	nop
  3020f0:	6a 0e                	push   $0xe
  3020f2:	e9 8f 1c 00 00       	jmp    303d86 <idt_common>
  3020f7:	2e 8d b4 26 00 00 00 	lea    %cs:0x0(%esi,%eiz,1),%esi
  3020fe:	00 
  3020ff:	90                   	nop
  302100:	6a ff                	push   $0xffffffff
  302102:	6a 0f                	push   $0xf
  302104:	e9 7d 1c 00 00       	jmp    303d86 <idt_common>
  302109:	8d b4 26 00 00 00 00 	lea    0x0(%esi,%eiz,1),%esi
  302110:	6a ff                	push   $0xffffffff
  302112:	6a 10                	push   $0x10
  302114:	e9 6d 1c 00 00       	jmp    303d86 <idt_common>
  302119:	8d b4 26 00 00 00 00 	lea    0x0(%esi,%eiz,1),%esi
  302120:	6a 11                	push   $0x11
  302122:	e9 5f 1c 00 00       	jmp    303d86 <idt_common>
  302127:	2e 8d b4 26 00 00 00 	lea    %cs:0x0(%esi,%eiz,1),%esi
  30212e:	00 
  30212f:	90                   	nop
  302130:	6a ff                	push   $0xffffffff
  302132:	6a 12                	push   $0x12
  302134:	e9 4d 1c 00 00       	jmp    303d86 <idt_common>
  302139:	8d b4 26 00 00 00 00 	lea    0x0(%esi,%eiz,1),%esi
  302140:	6a ff                	push   $0xffffffff
  302142:	6a 13                	push   $0x13
  302144:	e9 3d 1c 00 00       	jmp    303d86 <idt_common>
  302149:	8d b4 26 00 00 00 00 	lea    0x0(%esi,%eiz,1),%esi
  302150:	cf                   	iret
  302151:	2e 8d b4 26 00 00 00 	lea    %cs:0x0(%esi,%eiz,1),%esi
  302158:	00 
  302159:	8d b4 26 00 00 00 00 	lea    0x0(%esi,%eiz,1),%esi
  302160:	cf                   	iret
  302161:	2e 8d b4 26 00 00 00 	lea    %cs:0x0(%esi,%eiz,1),%esi
  302168:	00 
  302169:	8d b4 26 00 00 00 00 	lea    0x0(%esi,%eiz,1),%esi
  302170:	cf                   	iret
  302171:	2e 8d b4 26 00 00 00 	lea    %cs:0x0(%esi,%eiz,1),%esi
  302178:	00 
  302179:	8d b4 26 00 00 00 00 	lea    0x0(%esi,%eiz,1),%esi
  302180:	cf                   	iret
  302181:	2e 8d b4 26 00 00 00 	lea    %cs:0x0(%esi,%eiz,1),%esi
  302188:	00 
  302189:	8d b4 26 00 00 00 00 	lea    0x0(%esi,%eiz,1),%esi
  302190:	cf                   	iret
  302191:	2e 8d b4 26 00 00 00 	lea    %cs:0x0(%esi,%eiz,1),%esi
  302198:	00 
  302199:	8d b4 26 00 00 00 00 	lea    0x0(%esi,%eiz,1),%esi
  3021a0:	cf                   	iret
  3021a1:	2e 8d b4 26 00 00 00 	lea    %cs:0x0(%esi,%eiz,1),%esi
  3021a8:	00 
  3021a9:	8d b4 26 00 00 00 00 	lea    0x0(%esi,%eiz,1),%esi
  3021b0:	cf                   	iret
  3021b1:	2e 8d b4 26 00 00 00 	lea    %cs:0x0(%esi,%eiz,1),%esi
  3021b8:	00 
  3021b9:	8d b4 26 00 00 00 00 	lea    0x0(%esi,%eiz,1),%esi
  3021c0:	cf                   	iret
  3021c1:	2e 8d b4 26 00 00 00 	lea    %cs:0x0(%esi,%eiz,1),%esi
  3021c8:	00 
  3021c9:	8d b4 26 00 00 00 00 	lea    0x0(%esi,%eiz,1),%esi
  3021d0:	cf                   	iret
  3021d1:	2e 8d b4 26 00 00 00 	lea    %cs:0x0(%esi,%eiz,1),%esi
  3021d8:	00 
  3021d9:	8d b4 26 00 00 00 00 	lea    0x0(%esi,%eiz,1),%esi
  3021e0:	cf                   	iret
  3021e1:	2e 8d b4 26 00 00 00 	lea    %cs:0x0(%esi,%eiz,1),%esi
  3021e8:	00 
  3021e9:	8d b4 26 00 00 00 00 	lea    0x0(%esi,%eiz,1),%esi
  3021f0:	cf                   	iret
  3021f1:	2e 8d b4 26 00 00 00 	lea    %cs:0x0(%esi,%eiz,1),%esi
  3021f8:	00 
  3021f9:	8d b4 26 00 00 00 00 	lea    0x0(%esi,%eiz,1),%esi
  302200:	cf                   	iret
  302201:	2e 8d b4 26 00 00 00 	lea    %cs:0x0(%esi,%eiz,1),%esi
  302208:	00 
  302209:	8d b4 26 00 00 00 00 	lea    0x0(%esi,%eiz,1),%esi
  302210:	6a ff                	push   $0xffffffff
  302212:	6a 20                	push   $0x20
  302214:	e9 67 1b 00 00       	jmp    303d80 <ack_pic1>
  302219:	8d b4 26 00 00 00 00 	lea    0x0(%esi,%eiz,1),%esi
  302220:	6a ff                	push   $0xffffffff
  302222:	6a 21                	push   $0x21
  302224:	e9 57 1b 00 00       	jmp    303d80 <ack_pic1>
  302229:	8d b4 26 00 00 00 00 	lea    0x0(%esi,%eiz,1),%esi
  302230:	6a ff                	push   $0xffffffff
  302232:	6a 22                	push   $0x22
  302234:	e9 47 1b 00 00       	jmp    303d80 <ack_pic1>
  302239:	8d b4 26 00 00 00 00 	lea    0x0(%esi,%eiz,1),%esi
  302240:	6a ff                	push   $0xffffffff
  302242:	6a 23                	push   $0x23
  302244:	e9 37 1b 00 00       	jmp    303d80 <ack_pic1>
  302249:	8d b4 26 00 00 00 00 	lea    0x0(%esi,%eiz,1),%esi
  302250:	6a ff                	push   $0xffffffff
  302252:	6a 24                	push   $0x24
  302254:	e9 27 1b 00 00       	jmp    303d80 <ack_pic1>
  302259:	8d b4 26 00 00 00 00 	lea    0x0(%esi,%eiz,1),%esi
  302260:	6a ff                	push   $0xffffffff
  302262:	6a 25                	push   $0x25
  302264:	e9 17 1b 00 00       	jmp    303d80 <ack_pic1>
  302269:	8d b4 26 00 00 00 00 	lea    0x0(%esi,%eiz,1),%esi
  302270:	6a ff                	push   $0xffffffff
  302272:	6a 26                	push   $0x26
  302274:	e9 07 1b 00 00       	jmp    303d80 <ack_pic1>
  302279:	8d b4 26 00 00 00 00 	lea    0x0(%esi,%eiz,1),%esi
  302280:	6a ff                	push   $0xffffffff
  302282:	6a 27                	push   $0x27
  302284:	e9 f7 1a 00 00       	jmp    303d80 <ack_pic1>
  302289:	8d b4 26 00 00 00 00 	lea    0x0(%esi,%eiz,1),%esi
  302290:	6a ff                	push   $0xffffffff
  302292:	6a 28                	push   $0x28
  302294:	e9 e0 1a 00 00       	jmp    303d79 <ack_pic2>
  302299:	8d b4 26 00 00 00 00 	lea    0x0(%esi,%eiz,1),%esi
  3022a0:	6a ff                	push   $0xffffffff
  3022a2:	6a 29                	push   $0x29
  3022a4:	e9 d0 1a 00 00       	jmp    303d79 <ack_pic2>
  3022a9:	8d b4 26 00 00 00 00 	lea    0x0(%esi,%eiz,1),%esi
  3022b0:	6a ff                	push   $0xffffffff
  3022b2:	6a 2a                	push   $0x2a
  3022b4:	e9 c0 1a 00 00       	jmp    303d79 <ack_pic2>
  3022b9:	8d b4 26 00 00 00 00 	lea    0x0(%esi,%eiz,1),%esi
  3022c0:	6a ff                	push   $0xffffffff
  3022c2:	6a 2b                	push   $0x2b
  3022c4:	e9 b0 1a 00 00       	jmp    303d79 <ack_pic2>
  3022c9:	8d b4 26 00 00 00 00 	lea    0x0(%esi,%eiz,1),%esi
  3022d0:	6a ff                	push   $0xffffffff
  3022d2:	6a 2c                	push   $0x2c
  3022d4:	e9 a0 1a 00 00       	jmp    303d79 <ack_pic2>
  3022d9:	8d b4 26 00 00 00 00 	lea    0x0(%esi,%eiz,1),%esi
  3022e0:	6a ff                	push   $0xffffffff
  3022e2:	6a 2d                	push   $0x2d
  3022e4:	e9 90 1a 00 00       	jmp    303d79 <ack_pic2>
  3022e9:	8d b4 26 00 00 00 00 	lea    0x0(%esi,%eiz,1),%esi
  3022f0:	6a ff                	push   $0xffffffff
  3022f2:	6a 2e                	push   $0x2e
  3022f4:	e9 80 1a 00 00       	jmp    303d79 <ack_pic2>
  3022f9:	8d b4 26 00 00 00 00 	lea    0x0(%esi,%eiz,1),%esi
  302300:	6a ff                	push   $0xffffffff
  302302:	6a 2f                	push   $0x2f
  302304:	e9 70 1a 00 00       	jmp    303d79 <ack_pic2>
  302309:	8d b4 26 00 00 00 00 	lea    0x0(%esi,%eiz,1),%esi
  302310:	6a ff                	push   $0xffffffff
  302312:	6a 30                	push   $0x30
  302314:	e9 6d 1a 00 00       	jmp    303d86 <idt_common>
  302319:	8d b4 26 00 00 00 00 	lea    0x0(%esi,%eiz,1),%esi
  302320:	6a ff                	push   $0xffffffff
  302322:	6a 31                	push   $0x31
  302324:	e9 5d 1a 00 00       	jmp    303d86 <idt_common>
  302329:	8d b4 26 00 00 00 00 	lea    0x0(%esi,%eiz,1),%esi
  302330:	6a ff                	push   $0xffffffff
  302332:	6a 32                	push   $0x32
  302334:	e9 4d 1a 00 00       	jmp    303d86 <idt_common>
  302339:	8d b4 26 00 00 00 00 	lea    0x0(%esi,%eiz,1),%esi
  302340:	6a ff                	push   $0xffffffff
  302342:	6a 33                	push   $0x33
  302344:	e9 3d 1a 00 00       	jmp    303d86 <idt_common>
  302349:	8d b4 26 00 00 00 00 	lea    0x0(%esi,%eiz,1),%esi
  302350:	6a ff                	push   $0xffffffff
  302352:	6a 34                	push   $0x34
  302354:	e9 2d 1a 00 00       	jmp    303d86 <idt_common>
  302359:	8d b4 26 00 00 00 00 	lea    0x0(%esi,%eiz,1),%esi
  302360:	6a ff                	push   $0xffffffff
  302362:	6a 35                	push   $0x35
  302364:	e9 1d 1a 00 00       	jmp    303d86 <idt_common>
  302369:	8d b4 26 00 00 00 00 	lea    0x0(%esi,%eiz,1),%esi
  302370:	6a ff                	push   $0xffffffff
  302372:	6a 36                	push   $0x36
  302374:	e9 0d 1a 00 00       	jmp    303d86 <idt_common>
  302379:	8d b4 26 00 00 00 00 	lea    0x0(%esi,%eiz,1),%esi
  302380:	6a ff                	push   $0xffffffff
  302382:	6a 37                	push   $0x37
  302384:	e9 fd 19 00 00       	jmp    303d86 <idt_common>
  302389:	8d b4 26 00 00 00 00 	lea    0x0(%esi,%eiz,1),%esi
  302390:	6a ff                	push   $0xffffffff
  302392:	6a 38                	push   $0x38
  302394:	e9 ed 19 00 00       	jmp    303d86 <idt_common>
  302399:	8d b4 26 00 00 00 00 	lea    0x0(%esi,%eiz,1),%esi
  3023a0:	6a ff                	push   $0xffffffff
  3023a2:	6a 39                	push   $0x39
  3023a4:	e9 dd 19 00 00       	jmp    303d86 <idt_common>
  3023a9:	8d b4 26 00 00 00 00 	lea    0x0(%esi,%eiz,1),%esi
  3023b0:	6a ff                	push   $0xffffffff
  3023b2:	6a 3a                	push   $0x3a
  3023b4:	e9 cd 19 00 00       	jmp    303d86 <idt_common>
  3023b9:	8d b4 26 00 00 00 00 	lea    0x0(%esi,%eiz,1),%esi
  3023c0:	6a ff                	push   $0xffffffff
  3023c2:	6a 3b                	push   $0x3b
  3023c4:	e9 bd 19 00 00       	jmp    303d86 <idt_common>
  3023c9:	8d b4 26 00 00 00 00 	lea    0x0(%esi,%eiz,1),%esi
  3023d0:	6a ff                	push   $0xffffffff
  3023d2:	6a 3c                	push   $0x3c
  3023d4:	e9 ad 19 00 00       	jmp    303d86 <idt_common>
  3023d9:	8d b4 26 00 00 00 00 	lea    0x0(%esi,%eiz,1),%esi
  3023e0:	6a ff                	push   $0xffffffff
  3023e2:	6a 3d                	push   $0x3d
  3023e4:	e9 9d 19 00 00       	jmp    303d86 <idt_common>
  3023e9:	8d b4 26 00 00 00 00 	lea    0x0(%esi,%eiz,1),%esi
  3023f0:	6a ff                	push   $0xffffffff
  3023f2:	6a 3e                	push   $0x3e
  3023f4:	e9 8d 19 00 00       	jmp    303d86 <idt_common>
  3023f9:	8d b4 26 00 00 00 00 	lea    0x0(%esi,%eiz,1),%esi
  302400:	6a ff                	push   $0xffffffff
  302402:	6a 3f                	push   $0x3f
  302404:	e9 7d 19 00 00       	jmp    303d86 <idt_common>
  302409:	8d b4 26 00 00 00 00 	lea    0x0(%esi,%eiz,1),%esi
  302410:	6a ff                	push   $0xffffffff
  302412:	6a 40                	push   $0x40
  302414:	e9 6d 19 00 00       	jmp    303d86 <idt_common>
  302419:	8d b4 26 00 00 00 00 	lea    0x0(%esi,%eiz,1),%esi
  302420:	6a ff                	push   $0xffffffff
  302422:	6a 41                	push   $0x41
  302424:	e9 5d 19 00 00       	jmp    303d86 <idt_common>
  302429:	8d b4 26 00 00 00 00 	lea    0x0(%esi,%eiz,1),%esi
  302430:	6a ff                	push   $0xffffffff
  302432:	6a 42                	push   $0x42
  302434:	e9 4d 19 00 00       	jmp    303d86 <idt_common>
  302439:	8d b4 26 00 00 00 00 	lea    0x0(%esi,%eiz,1),%esi
  302440:	6a ff                	push   $0xffffffff
  302442:	6a 43                	push   $0x43
  302444:	e9 3d 19 00 00       	jmp    303d86 <idt_common>
  302449:	8d b4 26 00 00 00 00 	lea    0x0(%esi,%eiz,1),%esi
  302450:	6a ff                	push   $0xffffffff
  302452:	6a 44                	push   $0x44
  302454:	e9 2d 19 00 00       	jmp    303d86 <idt_common>
  302459:	8d b4 26 00 00 00 00 	lea    0x0(%esi,%eiz,1),%esi
  302460:	6a ff                	push   $0xffffffff
  302462:	6a 45                	push   $0x45
  302464:	e9 1d 19 00 00       	jmp    303d86 <idt_common>
  302469:	8d b4 26 00 00 00 00 	lea    0x0(%esi,%eiz,1),%esi
  302470:	6a ff                	push   $0xffffffff
  302472:	6a 46                	push   $0x46
  302474:	e9 0d 19 00 00       	jmp    303d86 <idt_common>
  302479:	8d b4 26 00 00 00 00 	lea    0x0(%esi,%eiz,1),%esi
  302480:	6a ff                	push   $0xffffffff
  302482:	6a 47                	push   $0x47
  302484:	e9 fd 18 00 00       	jmp    303d86 <idt_common>
  302489:	8d b4 26 00 00 00 00 	lea    0x0(%esi,%eiz,1),%esi
  302490:	6a ff                	push   $0xffffffff
  302492:	6a 48                	push   $0x48
  302494:	e9 ed 18 00 00       	jmp    303d86 <idt_common>
  302499:	8d b4 26 00 00 00 00 	lea    0x0(%esi,%eiz,1),%esi
  3024a0:	6a ff                	push   $0xffffffff
  3024a2:	6a 49                	push   $0x49
  3024a4:	e9 dd 18 00 00       	jmp    303d86 <idt_common>
  3024a9:	8d b4 26 00 00 00 00 	lea    0x0(%esi,%eiz,1),%esi
  3024b0:	6a ff                	push   $0xffffffff
  3024b2:	6a 4a                	push   $0x4a
  3024b4:	e9 cd 18 00 00       	jmp    303d86 <idt_common>
  3024b9:	8d b4 26 00 00 00 00 	lea    0x0(%esi,%eiz,1),%esi
  3024c0:	6a ff                	push   $0xffffffff
  3024c2:	6a 4b                	push   $0x4b
  3024c4:	e9 bd 18 00 00       	jmp    303d86 <idt_common>
  3024c9:	8d b4 26 00 00 00 00 	lea    0x0(%esi,%eiz,1),%esi
  3024d0:	6a ff                	push   $0xffffffff
  3024d2:	6a 4c                	push   $0x4c
  3024d4:	e9 ad 18 00 00       	jmp    303d86 <idt_common>
  3024d9:	8d b4 26 00 00 00 00 	lea    0x0(%esi,%eiz,1),%esi
  3024e0:	6a ff                	push   $0xffffffff
  3024e2:	6a 4d                	push   $0x4d
  3024e4:	e9 9d 18 00 00       	jmp    303d86 <idt_common>
  3024e9:	8d b4 26 00 00 00 00 	lea    0x0(%esi,%eiz,1),%esi
  3024f0:	6a ff                	push   $0xffffffff
  3024f2:	6a 4e                	push   $0x4e
  3024f4:	e9 8d 18 00 00       	jmp    303d86 <idt_common>
  3024f9:	8d b4 26 00 00 00 00 	lea    0x0(%esi,%eiz,1),%esi
  302500:	6a ff                	push   $0xffffffff
  302502:	6a 4f                	push   $0x4f
  302504:	e9 7d 18 00 00       	jmp    303d86 <idt_common>
  302509:	8d b4 26 00 00 00 00 	lea    0x0(%esi,%eiz,1),%esi
  302510:	6a ff                	push   $0xffffffff
  302512:	6a 50                	push   $0x50
  302514:	e9 6d 18 00 00       	jmp    303d86 <idt_common>
  302519:	8d b4 26 00 00 00 00 	lea    0x0(%esi,%eiz,1),%esi
  302520:	6a ff                	push   $0xffffffff
  302522:	6a 51                	push   $0x51
  302524:	e9 5d 18 00 00       	jmp    303d86 <idt_common>
  302529:	8d b4 26 00 00 00 00 	lea    0x0(%esi,%eiz,1),%esi
  302530:	6a ff                	push   $0xffffffff
  302532:	6a 52                	push   $0x52
  302534:	e9 4d 18 00 00       	jmp    303d86 <idt_common>
  302539:	8d b4 26 00 00 00 00 	lea    0x0(%esi,%eiz,1),%esi
  302540:	6a ff                	push   $0xffffffff
  302542:	6a 53                	push   $0x53
  302544:	e9 3d 18 00 00       	jmp    303d86 <idt_common>
  302549:	8d b4 26 00 00 00 00 	lea    0x0(%esi,%eiz,1),%esi
  302550:	6a ff                	push   $0xffffffff
  302552:	6a 54                	push   $0x54
  302554:	e9 2d 18 00 00       	jmp    303d86 <idt_common>
  302559:	8d b4 26 00 00 00 00 	lea    0x0(%esi,%eiz,1),%esi
  302560:	6a ff                	push   $0xffffffff
  302562:	6a 55                	push   $0x55
  302564:	e9 1d 18 00 00       	jmp    303d86 <idt_common>
  302569:	8d b4 26 00 00 00 00 	lea    0x0(%esi,%eiz,1),%esi
  302570:	6a ff                	push   $0xffffffff
  302572:	6a 56                	push   $0x56
  302574:	e9 0d 18 00 00       	jmp    303d86 <idt_common>
  302579:	8d b4 26 00 00 00 00 	lea    0x0(%esi,%eiz,1),%esi
  302580:	6a ff                	push   $0xffffffff
  302582:	6a 57                	push   $0x57
  302584:	e9 fd 17 00 00       	jmp    303d86 <idt_common>
  302589:	8d b4 26 00 00 00 00 	lea    0x0(%esi,%eiz,1),%esi
  302590:	6a ff                	push   $0xffffffff
  302592:	6a 58                	push   $0x58
  302594:	e9 ed 17 00 00       	jmp    303d86 <idt_common>
  302599:	8d b4 26 00 00 00 00 	lea    0x0(%esi,%eiz,1),%esi
  3025a0:	6a ff                	push   $0xffffffff
  3025a2:	6a 59                	push   $0x59
  3025a4:	e9 dd 17 00 00       	jmp    303d86 <idt_common>
  3025a9:	8d b4 26 00 00 00 00 	lea    0x0(%esi,%eiz,1),%esi
  3025b0:	6a ff                	push   $0xffffffff
  3025b2:	6a 5a                	push   $0x5a
  3025b4:	e9 cd 17 00 00       	jmp    303d86 <idt_common>
  3025b9:	8d b4 26 00 00 00 00 	lea    0x0(%esi,%eiz,1),%esi
  3025c0:	6a ff                	push   $0xffffffff
  3025c2:	6a 5b                	push   $0x5b
  3025c4:	e9 bd 17 00 00       	jmp    303d86 <idt_common>
  3025c9:	8d b4 26 00 00 00 00 	lea    0x0(%esi,%eiz,1),%esi
  3025d0:	6a ff                	push   $0xffffffff
  3025d2:	6a 5c                	push   $0x5c
  3025d4:	e9 ad 17 00 00       	jmp    303d86 <idt_common>
  3025d9:	8d b4 26 00 00 00 00 	lea    0x0(%esi,%eiz,1),%esi
  3025e0:	6a ff                	push   $0xffffffff
  3025e2:	6a 5d                	push   $0x5d
  3025e4:	e9 9d 17 00 00       	jmp    303d86 <idt_common>
  3025e9:	8d b4 26 00 00 00 00 	lea    0x0(%esi,%eiz,1),%esi
  3025f0:	6a ff                	push   $0xffffffff
  3025f2:	6a 5e                	push   $0x5e
  3025f4:	e9 8d 17 00 00       	jmp    303d86 <idt_common>
  3025f9:	8d b4 26 00 00 00 00 	lea    0x0(%esi,%eiz,1),%esi
  302600:	6a ff                	push   $0xffffffff
  302602:	6a 5f                	push   $0x5f
  302604:	e9 7d 17 00 00       	jmp    303d86 <idt_common>
  302609:	8d b4 26 00 00 00 00 	lea    0x0(%esi,%eiz,1),%esi
  302610:	6a ff                	push   $0xffffffff
  302612:	6a 60                	push   $0x60
  302614:	e9 6d 17 00 00       	jmp    303d86 <idt_common>
  302619:	8d b4 26 00 00 00 00 	lea    0x0(%esi,%eiz,1),%esi
  302620:	6a ff                	push   $0xffffffff
  302622:	6a 61                	push   $0x61
  302624:	e9 5d 17 00 00       	jmp    303d86 <idt_common>
  302629:	8d b4 26 00 00 00 00 	lea    0x0(%esi,%eiz,1),%esi
  302630:	6a ff                	push   $0xffffffff
  302632:	6a 62                	push   $0x62
  302634:	e9 4d 17 00 00       	jmp    303d86 <idt_common>
  302639:	8d b4 26 00 00 00 00 	lea    0x0(%esi,%eiz,1),%esi
  302640:	6a ff                	push   $0xffffffff
  302642:	6a 63                	push   $0x63
  302644:	e9 3d 17 00 00       	jmp    303d86 <idt_common>
  302649:	8d b4 26 00 00 00 00 	lea    0x0(%esi,%eiz,1),%esi
  302650:	6a ff                	push   $0xffffffff
  302652:	6a 64                	push   $0x64
  302654:	e9 2d 17 00 00       	jmp    303d86 <idt_common>
  302659:	8d b4 26 00 00 00 00 	lea    0x0(%esi,%eiz,1),%esi
  302660:	6a ff                	push   $0xffffffff
  302662:	6a 65                	push   $0x65
  302664:	e9 1d 17 00 00       	jmp    303d86 <idt_common>
  302669:	8d b4 26 00 00 00 00 	lea    0x0(%esi,%eiz,1),%esi
  302670:	6a ff                	push   $0xffffffff
  302672:	6a 66                	push   $0x66
  302674:	e9 0d 17 00 00       	jmp    303d86 <idt_common>
  302679:	8d b4 26 00 00 00 00 	lea    0x0(%esi,%eiz,1),%esi
  302680:	6a ff                	push   $0xffffffff
  302682:	6a 67                	push   $0x67
  302684:	e9 fd 16 00 00       	jmp    303d86 <idt_common>
  302689:	8d b4 26 00 00 00 00 	lea    0x0(%esi,%eiz,1),%esi
  302690:	6a ff                	push   $0xffffffff
  302692:	6a 68                	push   $0x68
  302694:	e9 ed 16 00 00       	jmp    303d86 <idt_common>
  302699:	8d b4 26 00 00 00 00 	lea    0x0(%esi,%eiz,1),%esi
  3026a0:	6a ff                	push   $0xffffffff
  3026a2:	6a 69                	push   $0x69
  3026a4:	e9 dd 16 00 00       	jmp    303d86 <idt_common>
  3026a9:	8d b4 26 00 00 00 00 	lea    0x0(%esi,%eiz,1),%esi
  3026b0:	6a ff                	push   $0xffffffff
  3026b2:	6a 6a                	push   $0x6a
  3026b4:	e9 cd 16 00 00       	jmp    303d86 <idt_common>
  3026b9:	8d b4 26 00 00 00 00 	lea    0x0(%esi,%eiz,1),%esi
  3026c0:	6a ff                	push   $0xffffffff
  3026c2:	6a 6b                	push   $0x6b
  3026c4:	e9 bd 16 00 00       	jmp    303d86 <idt_common>
  3026c9:	8d b4 26 00 00 00 00 	lea    0x0(%esi,%eiz,1),%esi
  3026d0:	6a ff                	push   $0xffffffff
  3026d2:	6a 6c                	push   $0x6c
  3026d4:	e9 ad 16 00 00       	jmp    303d86 <idt_common>
  3026d9:	8d b4 26 00 00 00 00 	lea    0x0(%esi,%eiz,1),%esi
  3026e0:	6a ff                	push   $0xffffffff
  3026e2:	6a 6d                	push   $0x6d
  3026e4:	e9 9d 16 00 00       	jmp    303d86 <idt_common>
  3026e9:	8d b4 26 00 00 00 00 	lea    0x0(%esi,%eiz,1),%esi
  3026f0:	6a ff                	push   $0xffffffff
  3026f2:	6a 6e                	push   $0x6e
  3026f4:	e9 8d 16 00 00       	jmp    303d86 <idt_common>
  3026f9:	8d b4 26 00 00 00 00 	lea    0x0(%esi,%eiz,1),%esi
  302700:	6a ff                	push   $0xffffffff
  302702:	6a 6f                	push   $0x6f
  302704:	e9 7d 16 00 00       	jmp    303d86 <idt_common>
  302709:	8d b4 26 00 00 00 00 	lea    0x0(%esi,%eiz,1),%esi
  302710:	6a ff                	push   $0xffffffff
  302712:	6a 70                	push   $0x70
  302714:	e9 6d 16 00 00       	jmp    303d86 <idt_common>
  302719:	8d b4 26 00 00 00 00 	lea    0x0(%esi,%eiz,1),%esi
  302720:	6a ff                	push   $0xffffffff
  302722:	6a 71                	push   $0x71
  302724:	e9 5d 16 00 00       	jmp    303d86 <idt_common>
  302729:	8d b4 26 00 00 00 00 	lea    0x0(%esi,%eiz,1),%esi
  302730:	6a ff                	push   $0xffffffff
  302732:	6a 72                	push   $0x72
  302734:	e9 4d 16 00 00       	jmp    303d86 <idt_common>
  302739:	8d b4 26 00 00 00 00 	lea    0x0(%esi,%eiz,1),%esi
  302740:	6a ff                	push   $0xffffffff
  302742:	6a 73                	push   $0x73
  302744:	e9 3d 16 00 00       	jmp    303d86 <idt_common>
  302749:	8d b4 26 00 00 00 00 	lea    0x0(%esi,%eiz,1),%esi
  302750:	6a ff                	push   $0xffffffff
  302752:	6a 74                	push   $0x74
  302754:	e9 2d 16 00 00       	jmp    303d86 <idt_common>
  302759:	8d b4 26 00 00 00 00 	lea    0x0(%esi,%eiz,1),%esi
  302760:	6a ff                	push   $0xffffffff
  302762:	6a 75                	push   $0x75
  302764:	e9 1d 16 00 00       	jmp    303d86 <idt_common>
  302769:	8d b4 26 00 00 00 00 	lea    0x0(%esi,%eiz,1),%esi
  302770:	6a ff                	push   $0xffffffff
  302772:	6a 76                	push   $0x76
  302774:	e9 0d 16 00 00       	jmp    303d86 <idt_common>
  302779:	8d b4 26 00 00 00 00 	lea    0x0(%esi,%eiz,1),%esi
  302780:	6a ff                	push   $0xffffffff
  302782:	6a 77                	push   $0x77
  302784:	e9 fd 15 00 00       	jmp    303d86 <idt_common>
  302789:	8d b4 26 00 00 00 00 	lea    0x0(%esi,%eiz,1),%esi
  302790:	6a ff                	push   $0xffffffff
  302792:	6a 78                	push   $0x78
  302794:	e9 ed 15 00 00       	jmp    303d86 <idt_common>
  302799:	8d b4 26 00 00 00 00 	lea    0x0(%esi,%eiz,1),%esi
  3027a0:	6a ff                	push   $0xffffffff
  3027a2:	6a 79                	push   $0x79
  3027a4:	e9 dd 15 00 00       	jmp    303d86 <idt_common>
  3027a9:	8d b4 26 00 00 00 00 	lea    0x0(%esi,%eiz,1),%esi
  3027b0:	6a ff                	push   $0xffffffff
  3027b2:	6a 7a                	push   $0x7a
  3027b4:	e9 cd 15 00 00       	jmp    303d86 <idt_common>
  3027b9:	8d b4 26 00 00 00 00 	lea    0x0(%esi,%eiz,1),%esi
  3027c0:	6a ff                	push   $0xffffffff
  3027c2:	6a 7b                	push   $0x7b
  3027c4:	e9 bd 15 00 00       	jmp    303d86 <idt_common>
  3027c9:	8d b4 26 00 00 00 00 	lea    0x0(%esi,%eiz,1),%esi
  3027d0:	6a ff                	push   $0xffffffff
  3027d2:	6a 7c                	push   $0x7c
  3027d4:	e9 ad 15 00 00       	jmp    303d86 <idt_common>
  3027d9:	8d b4 26 00 00 00 00 	lea    0x0(%esi,%eiz,1),%esi
  3027e0:	6a ff                	push   $0xffffffff
  3027e2:	6a 7d                	push   $0x7d
  3027e4:	e9 9d 15 00 00       	jmp    303d86 <idt_common>
  3027e9:	8d b4 26 00 00 00 00 	lea    0x0(%esi,%eiz,1),%esi
  3027f0:	6a ff                	push   $0xffffffff
  3027f2:	6a 7e                	push   $0x7e
  3027f4:	e9 8d 15 00 00       	jmp    303d86 <idt_common>
  3027f9:	8d b4 26 00 00 00 00 	lea    0x0(%esi,%eiz,1),%esi
  302800:	6a ff                	push   $0xffffffff
  302802:	6a 7f                	push   $0x7f
  302804:	e9 7d 15 00 00       	jmp    303d86 <idt_common>
  302809:	8d b4 26 00 00 00 00 	lea    0x0(%esi,%eiz,1),%esi
  302810:	6a ff                	push   $0xffffffff
  302812:	68 80 00 00 00       	push   $0x80
  302817:	e9 6a 15 00 00       	jmp    303d86 <idt_common>
  30281c:	8d 74 26 00          	lea    0x0(%esi,%eiz,1),%esi
  302820:	6a ff                	push   $0xffffffff
  302822:	68 81 00 00 00       	push   $0x81
  302827:	e9 5a 15 00 00       	jmp    303d86 <idt_common>
  30282c:	8d 74 26 00          	lea    0x0(%esi,%eiz,1),%esi
  302830:	6a ff                	push   $0xffffffff
  302832:	68 82 00 00 00       	push   $0x82
  302837:	e9 4a 15 00 00       	jmp    303d86 <idt_common>
  30283c:	8d 74 26 00          	lea    0x0(%esi,%eiz,1),%esi
  302840:	6a ff                	push   $0xffffffff
  302842:	68 83 00 00 00       	push   $0x83
  302847:	e9 3a 15 00 00       	jmp    303d86 <idt_common>
  30284c:	8d 74 26 00          	lea    0x0(%esi,%eiz,1),%esi
  302850:	6a ff                	push   $0xffffffff
  302852:	68 84 00 00 00       	push   $0x84
  302857:	e9 2a 15 00 00       	jmp    303d86 <idt_common>
  30285c:	8d 74 26 00          	lea    0x0(%esi,%eiz,1),%esi
  302860:	6a ff                	push   $0xffffffff
  302862:	68 85 00 00 00       	push   $0x85
  302867:	e9 1a 15 00 00       	jmp    303d86 <idt_common>
  30286c:	8d 74 26 00          	lea    0x0(%esi,%eiz,1),%esi
  302870:	6a ff                	push   $0xffffffff
  302872:	68 86 00 00 00       	push   $0x86
  302877:	e9 0a 15 00 00       	jmp    303d86 <idt_common>
  30287c:	8d 74 26 00          	lea    0x0(%esi,%eiz,1),%esi
  302880:	6a ff                	push   $0xffffffff
  302882:	68 87 00 00 00       	push   $0x87
  302887:	e9 fa 14 00 00       	jmp    303d86 <idt_common>
  30288c:	8d 74 26 00          	lea    0x0(%esi,%eiz,1),%esi
  302890:	6a ff                	push   $0xffffffff
  302892:	68 88 00 00 00       	push   $0x88
  302897:	e9 ea 14 00 00       	jmp    303d86 <idt_common>
  30289c:	8d 74 26 00          	lea    0x0(%esi,%eiz,1),%esi
  3028a0:	6a ff                	push   $0xffffffff
  3028a2:	68 89 00 00 00       	push   $0x89
  3028a7:	e9 da 14 00 00       	jmp    303d86 <idt_common>
  3028ac:	8d 74 26 00          	lea    0x0(%esi,%eiz,1),%esi
  3028b0:	6a ff                	push   $0xffffffff
  3028b2:	68 8a 00 00 00       	push   $0x8a
  3028b7:	e9 ca 14 00 00       	jmp    303d86 <idt_common>
  3028bc:	8d 74 26 00          	lea    0x0(%esi,%eiz,1),%esi
  3028c0:	6a ff                	push   $0xffffffff
  3028c2:	68 8b 00 00 00       	push   $0x8b
  3028c7:	e9 ba 14 00 00       	jmp    303d86 <idt_common>
  3028cc:	8d 74 26 00          	lea    0x0(%esi,%eiz,1),%esi
  3028d0:	6a ff                	push   $0xffffffff
  3028d2:	68 8c 00 00 00       	push   $0x8c
  3028d7:	e9 aa 14 00 00       	jmp    303d86 <idt_common>
  3028dc:	8d 74 26 00          	lea    0x0(%esi,%eiz,1),%esi
  3028e0:	6a ff                	push   $0xffffffff
  3028e2:	68 8d 00 00 00       	push   $0x8d
  3028e7:	e9 9a 14 00 00       	jmp    303d86 <idt_common>
  3028ec:	8d 74 26 00          	lea    0x0(%esi,%eiz,1),%esi
  3028f0:	6a ff                	push   $0xffffffff
  3028f2:	68 8e 00 00 00       	push   $0x8e
  3028f7:	e9 8a 14 00 00       	jmp    303d86 <idt_common>
  3028fc:	8d 74 26 00          	lea    0x0(%esi,%eiz,1),%esi
  302900:	6a ff                	push   $0xffffffff
  302902:	68 8f 00 00 00       	push   $0x8f
  302907:	e9 7a 14 00 00       	jmp    303d86 <idt_common>
  30290c:	8d 74 26 00          	lea    0x0(%esi,%eiz,1),%esi
  302910:	6a ff                	push   $0xffffffff
  302912:	68 90 00 00 00       	push   $0x90
  302917:	e9 6a 14 00 00       	jmp    303d86 <idt_common>
  30291c:	8d 74 26 00          	lea    0x0(%esi,%eiz,1),%esi
  302920:	6a ff                	push   $0xffffffff
  302922:	68 91 00 00 00       	push   $0x91
  302927:	e9 5a 14 00 00       	jmp    303d86 <idt_common>
  30292c:	8d 74 26 00          	lea    0x0(%esi,%eiz,1),%esi
  302930:	6a ff                	push   $0xffffffff
  302932:	68 92 00 00 00       	push   $0x92
  302937:	e9 4a 14 00 00       	jmp    303d86 <idt_common>
  30293c:	8d 74 26 00          	lea    0x0(%esi,%eiz,1),%esi
  302940:	6a ff                	push   $0xffffffff
  302942:	68 93 00 00 00       	push   $0x93
  302947:	e9 3a 14 00 00       	jmp    303d86 <idt_common>
  30294c:	8d 74 26 00          	lea    0x0(%esi,%eiz,1),%esi
  302950:	6a ff                	push   $0xffffffff
  302952:	68 94 00 00 00       	push   $0x94
  302957:	e9 2a 14 00 00       	jmp    303d86 <idt_common>
  30295c:	8d 74 26 00          	lea    0x0(%esi,%eiz,1),%esi
  302960:	6a ff                	push   $0xffffffff
  302962:	68 95 00 00 00       	push   $0x95
  302967:	e9 1a 14 00 00       	jmp    303d86 <idt_common>
  30296c:	8d 74 26 00          	lea    0x0(%esi,%eiz,1),%esi
  302970:	6a ff                	push   $0xffffffff
  302972:	68 96 00 00 00       	push   $0x96
  302977:	e9 0a 14 00 00       	jmp    303d86 <idt_common>
  30297c:	8d 74 26 00          	lea    0x0(%esi,%eiz,1),%esi
  302980:	6a ff                	push   $0xffffffff
  302982:	68 97 00 00 00       	push   $0x97
  302987:	e9 fa 13 00 00       	jmp    303d86 <idt_common>
  30298c:	8d 74 26 00          	lea    0x0(%esi,%eiz,1),%esi
  302990:	6a ff                	push   $0xffffffff
  302992:	68 98 00 00 00       	push   $0x98
  302997:	e9 ea 13 00 00       	jmp    303d86 <idt_common>
  30299c:	8d 74 26 00          	lea    0x0(%esi,%eiz,1),%esi
  3029a0:	6a ff                	push   $0xffffffff
  3029a2:	68 99 00 00 00       	push   $0x99
  3029a7:	e9 da 13 00 00       	jmp    303d86 <idt_common>
  3029ac:	8d 74 26 00          	lea    0x0(%esi,%eiz,1),%esi
  3029b0:	6a ff                	push   $0xffffffff
  3029b2:	68 9a 00 00 00       	push   $0x9a
  3029b7:	e9 ca 13 00 00       	jmp    303d86 <idt_common>
  3029bc:	8d 74 26 00          	lea    0x0(%esi,%eiz,1),%esi
  3029c0:	6a ff                	push   $0xffffffff
  3029c2:	68 9b 00 00 00       	push   $0x9b
  3029c7:	e9 ba 13 00 00       	jmp    303d86 <idt_common>
  3029cc:	8d 74 26 00          	lea    0x0(%esi,%eiz,1),%esi
  3029d0:	6a ff                	push   $0xffffffff
  3029d2:	68 9c 00 00 00       	push   $0x9c
  3029d7:	e9 aa 13 00 00       	jmp    303d86 <idt_common>
  3029dc:	8d 74 26 00          	lea    0x0(%esi,%eiz,1),%esi
  3029e0:	6a ff                	push   $0xffffffff
  3029e2:	68 9d 00 00 00       	push   $0x9d
  3029e7:	e9 9a 13 00 00       	jmp    303d86 <idt_common>
  3029ec:	8d 74 26 00          	lea    0x0(%esi,%eiz,1),%esi
  3029f0:	6a ff                	push   $0xffffffff
  3029f2:	68 9e 00 00 00       	push   $0x9e
  3029f7:	e9 8a 13 00 00       	jmp    303d86 <idt_common>
  3029fc:	8d 74 26 00          	lea    0x0(%esi,%eiz,1),%esi
  302a00:	6a ff                	push   $0xffffffff
  302a02:	68 9f 00 00 00       	push   $0x9f
  302a07:	e9 7a 13 00 00       	jmp    303d86 <idt_common>
  302a0c:	8d 74 26 00          	lea    0x0(%esi,%eiz,1),%esi
  302a10:	6a ff                	push   $0xffffffff
  302a12:	68 a0 00 00 00       	push   $0xa0
  302a17:	e9 6a 13 00 00       	jmp    303d86 <idt_common>
  302a1c:	8d 74 26 00          	lea    0x0(%esi,%eiz,1),%esi
  302a20:	6a ff                	push   $0xffffffff
  302a22:	68 a1 00 00 00       	push   $0xa1
  302a27:	e9 5a 13 00 00       	jmp    303d86 <idt_common>
  302a2c:	8d 74 26 00          	lea    0x0(%esi,%eiz,1),%esi
  302a30:	6a ff                	push   $0xffffffff
  302a32:	68 a2 00 00 00       	push   $0xa2
  302a37:	e9 4a 13 00 00       	jmp    303d86 <idt_common>
  302a3c:	8d 74 26 00          	lea    0x0(%esi,%eiz,1),%esi
  302a40:	6a ff                	push   $0xffffffff
  302a42:	68 a3 00 00 00       	push   $0xa3
  302a47:	e9 3a 13 00 00       	jmp    303d86 <idt_common>
  302a4c:	8d 74 26 00          	lea    0x0(%esi,%eiz,1),%esi
  302a50:	6a ff                	push   $0xffffffff
  302a52:	68 a4 00 00 00       	push   $0xa4
  302a57:	e9 2a 13 00 00       	jmp    303d86 <idt_common>
  302a5c:	8d 74 26 00          	lea    0x0(%esi,%eiz,1),%esi
  302a60:	6a ff                	push   $0xffffffff
  302a62:	68 a5 00 00 00       	push   $0xa5
  302a67:	e9 1a 13 00 00       	jmp    303d86 <idt_common>
  302a6c:	8d 74 26 00          	lea    0x0(%esi,%eiz,1),%esi
  302a70:	6a ff                	push   $0xffffffff
  302a72:	68 a6 00 00 00       	push   $0xa6
  302a77:	e9 0a 13 00 00       	jmp    303d86 <idt_common>
  302a7c:	8d 74 26 00          	lea    0x0(%esi,%eiz,1),%esi
  302a80:	6a ff                	push   $0xffffffff
  302a82:	68 a7 00 00 00       	push   $0xa7
  302a87:	e9 fa 12 00 00       	jmp    303d86 <idt_common>
  302a8c:	8d 74 26 00          	lea    0x0(%esi,%eiz,1),%esi
  302a90:	6a ff                	push   $0xffffffff
  302a92:	68 a8 00 00 00       	push   $0xa8
  302a97:	e9 ea 12 00 00       	jmp    303d86 <idt_common>
  302a9c:	8d 74 26 00          	lea    0x0(%esi,%eiz,1),%esi
  302aa0:	6a ff                	push   $0xffffffff
  302aa2:	68 a9 00 00 00       	push   $0xa9
  302aa7:	e9 da 12 00 00       	jmp    303d86 <idt_common>
  302aac:	8d 74 26 00          	lea    0x0(%esi,%eiz,1),%esi
  302ab0:	6a ff                	push   $0xffffffff
  302ab2:	68 aa 00 00 00       	push   $0xaa
  302ab7:	e9 ca 12 00 00       	jmp    303d86 <idt_common>
  302abc:	8d 74 26 00          	lea    0x0(%esi,%eiz,1),%esi
  302ac0:	6a ff                	push   $0xffffffff
  302ac2:	68 ab 00 00 00       	push   $0xab
  302ac7:	e9 ba 12 00 00       	jmp    303d86 <idt_common>
  302acc:	8d 74 26 00          	lea    0x0(%esi,%eiz,1),%esi
  302ad0:	6a ff                	push   $0xffffffff
  302ad2:	68 ac 00 00 00       	push   $0xac
  302ad7:	e9 aa 12 00 00       	jmp    303d86 <idt_common>
  302adc:	8d 74 26 00          	lea    0x0(%esi,%eiz,1),%esi
  302ae0:	6a ff                	push   $0xffffffff
  302ae2:	68 ad 00 00 00       	push   $0xad
  302ae7:	e9 9a 12 00 00       	jmp    303d86 <idt_common>
  302aec:	8d 74 26 00          	lea    0x0(%esi,%eiz,1),%esi
  302af0:	6a ff                	push   $0xffffffff
  302af2:	68 ae 00 00 00       	push   $0xae
  302af7:	e9 8a 12 00 00       	jmp    303d86 <idt_common>
  302afc:	8d 74 26 00          	lea    0x0(%esi,%eiz,1),%esi
  302b00:	6a ff                	push   $0xffffffff
  302b02:	68 af 00 00 00       	push   $0xaf
  302b07:	e9 7a 12 00 00       	jmp    303d86 <idt_common>
  302b0c:	8d 74 26 00          	lea    0x0(%esi,%eiz,1),%esi
  302b10:	6a ff                	push   $0xffffffff
  302b12:	68 b0 00 00 00       	push   $0xb0
  302b17:	e9 6a 12 00 00       	jmp    303d86 <idt_common>
  302b1c:	8d 74 26 00          	lea    0x0(%esi,%eiz,1),%esi
  302b20:	6a ff                	push   $0xffffffff
  302b22:	68 b1 00 00 00       	push   $0xb1
  302b27:	e9 5a 12 00 00       	jmp    303d86 <idt_common>
  302b2c:	8d 74 26 00          	lea    0x0(%esi,%eiz,1),%esi
  302b30:	6a ff                	push   $0xffffffff
  302b32:	68 b2 00 00 00       	push   $0xb2
  302b37:	e9 4a 12 00 00       	jmp    303d86 <idt_common>
  302b3c:	8d 74 26 00          	lea    0x0(%esi,%eiz,1),%esi
  302b40:	6a ff                	push   $0xffffffff
  302b42:	68 b3 00 00 00       	push   $0xb3
  302b47:	e9 3a 12 00 00       	jmp    303d86 <idt_common>
  302b4c:	8d 74 26 00          	lea    0x0(%esi,%eiz,1),%esi
  302b50:	6a ff                	push   $0xffffffff
  302b52:	68 b4 00 00 00       	push   $0xb4
  302b57:	e9 2a 12 00 00       	jmp    303d86 <idt_common>
  302b5c:	8d 74 26 00          	lea    0x0(%esi,%eiz,1),%esi
  302b60:	6a ff                	push   $0xffffffff
  302b62:	68 b5 00 00 00       	push   $0xb5
  302b67:	e9 1a 12 00 00       	jmp    303d86 <idt_common>
  302b6c:	8d 74 26 00          	lea    0x0(%esi,%eiz,1),%esi
  302b70:	6a ff                	push   $0xffffffff
  302b72:	68 b6 00 00 00       	push   $0xb6
  302b77:	e9 0a 12 00 00       	jmp    303d86 <idt_common>
  302b7c:	8d 74 26 00          	lea    0x0(%esi,%eiz,1),%esi
  302b80:	6a ff                	push   $0xffffffff
  302b82:	68 b7 00 00 00       	push   $0xb7
  302b87:	e9 fa 11 00 00       	jmp    303d86 <idt_common>
  302b8c:	8d 74 26 00          	lea    0x0(%esi,%eiz,1),%esi
  302b90:	6a ff                	push   $0xffffffff
  302b92:	68 b8 00 00 00       	push   $0xb8
  302b97:	e9 ea 11 00 00       	jmp    303d86 <idt_common>
  302b9c:	8d 74 26 00          	lea    0x0(%esi,%eiz,1),%esi
  302ba0:	6a ff                	push   $0xffffffff
  302ba2:	68 b9 00 00 00       	push   $0xb9
  302ba7:	e9 da 11 00 00       	jmp    303d86 <idt_common>
  302bac:	8d 74 26 00          	lea    0x0(%esi,%eiz,1),%esi
  302bb0:	6a ff                	push   $0xffffffff
  302bb2:	68 ba 00 00 00       	push   $0xba
  302bb7:	e9 ca 11 00 00       	jmp    303d86 <idt_common>
  302bbc:	8d 74 26 00          	lea    0x0(%esi,%eiz,1),%esi
  302bc0:	6a ff                	push   $0xffffffff
  302bc2:	68 bb 00 00 00       	push   $0xbb
  302bc7:	e9 ba 11 00 00       	jmp    303d86 <idt_common>
  302bcc:	8d 74 26 00          	lea    0x0(%esi,%eiz,1),%esi
  302bd0:	6a ff                	push   $0xffffffff
  302bd2:	68 bc 00 00 00       	push   $0xbc
  302bd7:	e9 aa 11 00 00       	jmp    303d86 <idt_common>
  302bdc:	8d 74 26 00          	lea    0x0(%esi,%eiz,1),%esi
  302be0:	6a ff                	push   $0xffffffff
  302be2:	68 bd 00 00 00       	push   $0xbd
  302be7:	e9 9a 11 00 00       	jmp    303d86 <idt_common>
  302bec:	8d 74 26 00          	lea    0x0(%esi,%eiz,1),%esi
  302bf0:	6a ff                	push   $0xffffffff
  302bf2:	68 be 00 00 00       	push   $0xbe
  302bf7:	e9 8a 11 00 00       	jmp    303d86 <idt_common>
  302bfc:	8d 74 26 00          	lea    0x0(%esi,%eiz,1),%esi
  302c00:	6a ff                	push   $0xffffffff
  302c02:	68 bf 00 00 00       	push   $0xbf
  302c07:	e9 7a 11 00 00       	jmp    303d86 <idt_common>
  302c0c:	8d 74 26 00          	lea    0x0(%esi,%eiz,1),%esi
  302c10:	6a ff                	push   $0xffffffff
  302c12:	68 c0 00 00 00       	push   $0xc0
  302c17:	e9 6a 11 00 00       	jmp    303d86 <idt_common>
  302c1c:	8d 74 26 00          	lea    0x0(%esi,%eiz,1),%esi
  302c20:	6a ff                	push   $0xffffffff
  302c22:	68 c1 00 00 00       	push   $0xc1
  302c27:	e9 5a 11 00 00       	jmp    303d86 <idt_common>
  302c2c:	8d 74 26 00          	lea    0x0(%esi,%eiz,1),%esi
  302c30:	6a ff                	push   $0xffffffff
  302c32:	68 c2 00 00 00       	push   $0xc2
  302c37:	e9 4a 11 00 00       	jmp    303d86 <idt_common>
  302c3c:	8d 74 26 00          	lea    0x0(%esi,%eiz,1),%esi
  302c40:	6a ff                	push   $0xffffffff
  302c42:	68 c3 00 00 00       	push   $0xc3
  302c47:	e9 3a 11 00 00       	jmp    303d86 <idt_common>
  302c4c:	8d 74 26 00          	lea    0x0(%esi,%eiz,1),%esi
  302c50:	6a ff                	push   $0xffffffff
  302c52:	68 c4 00 00 00       	push   $0xc4
  302c57:	e9 2a 11 00 00       	jmp    303d86 <idt_common>
  302c5c:	8d 74 26 00          	lea    0x0(%esi,%eiz,1),%esi
  302c60:	6a ff                	push   $0xffffffff
  302c62:	68 c5 00 00 00       	push   $0xc5
  302c67:	e9 1a 11 00 00       	jmp    303d86 <idt_common>
  302c6c:	8d 74 26 00          	lea    0x0(%esi,%eiz,1),%esi
  302c70:	6a ff                	push   $0xffffffff
  302c72:	68 c6 00 00 00       	push   $0xc6
  302c77:	e9 0a 11 00 00       	jmp    303d86 <idt_common>
  302c7c:	8d 74 26 00          	lea    0x0(%esi,%eiz,1),%esi
  302c80:	6a ff                	push   $0xffffffff
  302c82:	68 c7 00 00 00       	push   $0xc7
  302c87:	e9 fa 10 00 00       	jmp    303d86 <idt_common>
  302c8c:	8d 74 26 00          	lea    0x0(%esi,%eiz,1),%esi
  302c90:	6a ff                	push   $0xffffffff
  302c92:	68 c8 00 00 00       	push   $0xc8
  302c97:	e9 ea 10 00 00       	jmp    303d86 <idt_common>
  302c9c:	8d 74 26 00          	lea    0x0(%esi,%eiz,1),%esi
  302ca0:	6a ff                	push   $0xffffffff
  302ca2:	68 c9 00 00 00       	push   $0xc9
  302ca7:	e9 da 10 00 00       	jmp    303d86 <idt_common>
  302cac:	8d 74 26 00          	lea    0x0(%esi,%eiz,1),%esi
  302cb0:	6a ff                	push   $0xffffffff
  302cb2:	68 ca 00 00 00       	push   $0xca
  302cb7:	e9 ca 10 00 00       	jmp    303d86 <idt_common>
  302cbc:	8d 74 26 00          	lea    0x0(%esi,%eiz,1),%esi
  302cc0:	6a ff                	push   $0xffffffff
  302cc2:	68 cb 00 00 00       	push   $0xcb
  302cc7:	e9 ba 10 00 00       	jmp    303d86 <idt_common>
  302ccc:	8d 74 26 00          	lea    0x0(%esi,%eiz,1),%esi
  302cd0:	6a ff                	push   $0xffffffff
  302cd2:	68 cc 00 00 00       	push   $0xcc
  302cd7:	e9 aa 10 00 00       	jmp    303d86 <idt_common>
  302cdc:	8d 74 26 00          	lea    0x0(%esi,%eiz,1),%esi
  302ce0:	6a ff                	push   $0xffffffff
  302ce2:	68 cd 00 00 00       	push   $0xcd
  302ce7:	e9 9a 10 00 00       	jmp    303d86 <idt_common>
  302cec:	8d 74 26 00          	lea    0x0(%esi,%eiz,1),%esi
  302cf0:	6a ff                	push   $0xffffffff
  302cf2:	68 ce 00 00 00       	push   $0xce
  302cf7:	e9 8a 10 00 00       	jmp    303d86 <idt_common>
  302cfc:	8d 74 26 00          	lea    0x0(%esi,%eiz,1),%esi
  302d00:	6a ff                	push   $0xffffffff
  302d02:	68 cf 00 00 00       	push   $0xcf
  302d07:	e9 7a 10 00 00       	jmp    303d86 <idt_common>
  302d0c:	8d 74 26 00          	lea    0x0(%esi,%eiz,1),%esi
  302d10:	6a ff                	push   $0xffffffff
  302d12:	68 d0 00 00 00       	push   $0xd0
  302d17:	e9 6a 10 00 00       	jmp    303d86 <idt_common>
  302d1c:	8d 74 26 00          	lea    0x0(%esi,%eiz,1),%esi
  302d20:	6a ff                	push   $0xffffffff
  302d22:	68 d1 00 00 00       	push   $0xd1
  302d27:	e9 5a 10 00 00       	jmp    303d86 <idt_common>
  302d2c:	8d 74 26 00          	lea    0x0(%esi,%eiz,1),%esi
  302d30:	6a ff                	push   $0xffffffff
  302d32:	68 d2 00 00 00       	push   $0xd2
  302d37:	e9 4a 10 00 00       	jmp    303d86 <idt_common>
  302d3c:	8d 74 26 00          	lea    0x0(%esi,%eiz,1),%esi
  302d40:	6a ff                	push   $0xffffffff
  302d42:	68 d3 00 00 00       	push   $0xd3
  302d47:	e9 3a 10 00 00       	jmp    303d86 <idt_common>
  302d4c:	8d 74 26 00          	lea    0x0(%esi,%eiz,1),%esi
  302d50:	6a ff                	push   $0xffffffff
  302d52:	68 d4 00 00 00       	push   $0xd4
  302d57:	e9 2a 10 00 00       	jmp    303d86 <idt_common>
  302d5c:	8d 74 26 00          	lea    0x0(%esi,%eiz,1),%esi
  302d60:	6a ff                	push   $0xffffffff
  302d62:	68 d5 00 00 00       	push   $0xd5
  302d67:	e9 1a 10 00 00       	jmp    303d86 <idt_common>
  302d6c:	8d 74 26 00          	lea    0x0(%esi,%eiz,1),%esi
  302d70:	6a ff                	push   $0xffffffff
  302d72:	68 d6 00 00 00       	push   $0xd6
  302d77:	e9 0a 10 00 00       	jmp    303d86 <idt_common>
  302d7c:	8d 74 26 00          	lea    0x0(%esi,%eiz,1),%esi
  302d80:	6a ff                	push   $0xffffffff
  302d82:	68 d7 00 00 00       	push   $0xd7
  302d87:	e9 fa 0f 00 00       	jmp    303d86 <idt_common>
  302d8c:	8d 74 26 00          	lea    0x0(%esi,%eiz,1),%esi
  302d90:	6a ff                	push   $0xffffffff
  302d92:	68 d8 00 00 00       	push   $0xd8
  302d97:	e9 ea 0f 00 00       	jmp    303d86 <idt_common>
  302d9c:	8d 74 26 00          	lea    0x0(%esi,%eiz,1),%esi
  302da0:	6a ff                	push   $0xffffffff
  302da2:	68 d9 00 00 00       	push   $0xd9
  302da7:	e9 da 0f 00 00       	jmp    303d86 <idt_common>
  302dac:	8d 74 26 00          	lea    0x0(%esi,%eiz,1),%esi
  302db0:	6a ff                	push   $0xffffffff
  302db2:	68 da 00 00 00       	push   $0xda
  302db7:	e9 ca 0f 00 00       	jmp    303d86 <idt_common>
  302dbc:	8d 74 26 00          	lea    0x0(%esi,%eiz,1),%esi
  302dc0:	6a ff                	push   $0xffffffff
  302dc2:	68 db 00 00 00       	push   $0xdb
  302dc7:	e9 ba 0f 00 00       	jmp    303d86 <idt_common>
  302dcc:	8d 74 26 00          	lea    0x0(%esi,%eiz,1),%esi
  302dd0:	6a ff                	push   $0xffffffff
  302dd2:	68 dc 00 00 00       	push   $0xdc
  302dd7:	e9 aa 0f 00 00       	jmp    303d86 <idt_common>
  302ddc:	8d 74 26 00          	lea    0x0(%esi,%eiz,1),%esi
  302de0:	6a ff                	push   $0xffffffff
  302de2:	68 dd 00 00 00       	push   $0xdd
  302de7:	e9 9a 0f 00 00       	jmp    303d86 <idt_common>
  302dec:	8d 74 26 00          	lea    0x0(%esi,%eiz,1),%esi
  302df0:	6a ff                	push   $0xffffffff
  302df2:	68 de 00 00 00       	push   $0xde
  302df7:	e9 8a 0f 00 00       	jmp    303d86 <idt_common>
  302dfc:	8d 74 26 00          	lea    0x0(%esi,%eiz,1),%esi
  302e00:	6a ff                	push   $0xffffffff
  302e02:	68 df 00 00 00       	push   $0xdf
  302e07:	e9 7a 0f 00 00       	jmp    303d86 <idt_common>
  302e0c:	8d 74 26 00          	lea    0x0(%esi,%eiz,1),%esi
  302e10:	6a ff                	push   $0xffffffff
  302e12:	68 e0 00 00 00       	push   $0xe0
  302e17:	e9 6a 0f 00 00       	jmp    303d86 <idt_common>
  302e1c:	8d 74 26 00          	lea    0x0(%esi,%eiz,1),%esi
  302e20:	6a ff                	push   $0xffffffff
  302e22:	68 e1 00 00 00       	push   $0xe1
  302e27:	e9 5a 0f 00 00       	jmp    303d86 <idt_common>
  302e2c:	8d 74 26 00          	lea    0x0(%esi,%eiz,1),%esi
  302e30:	6a ff                	push   $0xffffffff
  302e32:	68 e2 00 00 00       	push   $0xe2
  302e37:	e9 4a 0f 00 00       	jmp    303d86 <idt_common>
  302e3c:	8d 74 26 00          	lea    0x0(%esi,%eiz,1),%esi
  302e40:	6a ff                	push   $0xffffffff
  302e42:	68 e3 00 00 00       	push   $0xe3
  302e47:	e9 3a 0f 00 00       	jmp    303d86 <idt_common>
  302e4c:	8d 74 26 00          	lea    0x0(%esi,%eiz,1),%esi
  302e50:	6a ff                	push   $0xffffffff
  302e52:	68 e4 00 00 00       	push   $0xe4
  302e57:	e9 2a 0f 00 00       	jmp    303d86 <idt_common>
  302e5c:	8d 74 26 00          	lea    0x0(%esi,%eiz,1),%esi
  302e60:	6a ff                	push   $0xffffffff
  302e62:	68 e5 00 00 00       	push   $0xe5
  302e67:	e9 1a 0f 00 00       	jmp    303d86 <idt_common>
  302e6c:	8d 74 26 00          	lea    0x0(%esi,%eiz,1),%esi
  302e70:	6a ff                	push   $0xffffffff
  302e72:	68 e6 00 00 00       	push   $0xe6
  302e77:	e9 0a 0f 00 00       	jmp    303d86 <idt_common>
  302e7c:	8d 74 26 00          	lea    0x0(%esi,%eiz,1),%esi
  302e80:	6a ff                	push   $0xffffffff
  302e82:	68 e7 00 00 00       	push   $0xe7
  302e87:	e9 fa 0e 00 00       	jmp    303d86 <idt_common>
  302e8c:	8d 74 26 00          	lea    0x0(%esi,%eiz,1),%esi
  302e90:	6a ff                	push   $0xffffffff
  302e92:	68 e8 00 00 00       	push   $0xe8
  302e97:	e9 ea 0e 00 00       	jmp    303d86 <idt_common>
  302e9c:	8d 74 26 00          	lea    0x0(%esi,%eiz,1),%esi
  302ea0:	6a ff                	push   $0xffffffff
  302ea2:	68 e9 00 00 00       	push   $0xe9
  302ea7:	e9 da 0e 00 00       	jmp    303d86 <idt_common>
  302eac:	8d 74 26 00          	lea    0x0(%esi,%eiz,1),%esi
  302eb0:	6a ff                	push   $0xffffffff
  302eb2:	68 ea 00 00 00       	push   $0xea
  302eb7:	e9 ca 0e 00 00       	jmp    303d86 <idt_common>
  302ebc:	8d 74 26 00          	lea    0x0(%esi,%eiz,1),%esi
  302ec0:	6a ff                	push   $0xffffffff
  302ec2:	68 eb 00 00 00       	push   $0xeb
  302ec7:	e9 ba 0e 00 00       	jmp    303d86 <idt_common>
  302ecc:	8d 74 26 00          	lea    0x0(%esi,%eiz,1),%esi
  302ed0:	6a ff                	push   $0xffffffff
  302ed2:	68 ec 00 00 00       	push   $0xec
  302ed7:	e9 aa 0e 00 00       	jmp    303d86 <idt_common>
  302edc:	8d 74 26 00          	lea    0x0(%esi,%eiz,1),%esi
  302ee0:	6a ff                	push   $0xffffffff
  302ee2:	68 ed 00 00 00       	push   $0xed
  302ee7:	e9 9a 0e 00 00       	jmp    303d86 <idt_common>
  302eec:	8d 74 26 00          	lea    0x0(%esi,%eiz,1),%esi
  302ef0:	6a ff                	push   $0xffffffff
  302ef2:	68 ee 00 00 00       	push   $0xee
  302ef7:	e9 8a 0e 00 00       	jmp    303d86 <idt_common>
  302efc:	8d 74 26 00          	lea    0x0(%esi,%eiz,1),%esi
  302f00:	6a ff                	push   $0xffffffff
  302f02:	68 ef 00 00 00       	push   $0xef
  302f07:	e9 7a 0e 00 00       	jmp    303d86 <idt_common>
  302f0c:	8d 74 26 00          	lea    0x0(%esi,%eiz,1),%esi
  302f10:	6a ff                	push   $0xffffffff
  302f12:	68 f0 00 00 00       	push   $0xf0
  302f17:	e9 6a 0e 00 00       	jmp    303d86 <idt_common>
  302f1c:	8d 74 26 00          	lea    0x0(%esi,%eiz,1),%esi
  302f20:	6a ff                	push   $0xffffffff
  302f22:	68 f1 00 00 00       	push   $0xf1
  302f27:	e9 5a 0e 00 00       	jmp    303d86 <idt_common>
  302f2c:	8d 74 26 00          	lea    0x0(%esi,%eiz,1),%esi
  302f30:	6a ff                	push   $0xffffffff
  302f32:	68 f2 00 00 00       	push   $0xf2
  302f37:	e9 4a 0e 00 00       	jmp    303d86 <idt_common>
  302f3c:	8d 74 26 00          	lea    0x0(%esi,%eiz,1),%esi
  302f40:	6a ff                	push   $0xffffffff
  302f42:	68 f3 00 00 00       	push   $0xf3
  302f47:	e9 3a 0e 00 00       	jmp    303d86 <idt_common>
  302f4c:	8d 74 26 00          	lea    0x0(%esi,%eiz,1),%esi
  302f50:	6a ff                	push   $0xffffffff
  302f52:	68 f4 00 00 00       	push   $0xf4
  302f57:	e9 2a 0e 00 00       	jmp    303d86 <idt_common>
  302f5c:	8d 74 26 00          	lea    0x0(%esi,%eiz,1),%esi
  302f60:	6a ff                	push   $0xffffffff
  302f62:	68 f5 00 00 00       	push   $0xf5
  302f67:	e9 1a 0e 00 00       	jmp    303d86 <idt_common>
  302f6c:	8d 74 26 00          	lea    0x0(%esi,%eiz,1),%esi
  302f70:	6a ff                	push   $0xffffffff
  302f72:	68 f6 00 00 00       	push   $0xf6
  302f77:	e9 0a 0e 00 00       	jmp    303d86 <idt_common>
  302f7c:	8d 74 26 00          	lea    0x0(%esi,%eiz,1),%esi
  302f80:	6a ff                	push   $0xffffffff
  302f82:	68 f7 00 00 00       	push   $0xf7
  302f87:	e9 fa 0d 00 00       	jmp    303d86 <idt_common>
  302f8c:	8d 74 26 00          	lea    0x0(%esi,%eiz,1),%esi
  302f90:	6a ff                	push   $0xffffffff
  302f92:	68 f8 00 00 00       	push   $0xf8
  302f97:	e9 ea 0d 00 00       	jmp    303d86 <idt_common>
  302f9c:	8d 74 26 00          	lea    0x0(%esi,%eiz,1),%esi
  302fa0:	6a ff                	push   $0xffffffff
  302fa2:	68 f9 00 00 00       	push   $0xf9
  302fa7:	e9 da 0d 00 00       	jmp    303d86 <idt_common>
  302fac:	8d 74 26 00          	lea    0x0(%esi,%eiz,1),%esi
  302fb0:	6a ff                	push   $0xffffffff
  302fb2:	68 fa 00 00 00       	push   $0xfa
  302fb7:	e9 ca 0d 00 00       	jmp    303d86 <idt_common>
  302fbc:	8d 74 26 00          	lea    0x0(%esi,%eiz,1),%esi
  302fc0:	6a ff                	push   $0xffffffff
  302fc2:	68 fb 00 00 00       	push   $0xfb
  302fc7:	e9 ba 0d 00 00       	jmp    303d86 <idt_common>
  302fcc:	8d 74 26 00          	lea    0x0(%esi,%eiz,1),%esi
  302fd0:	6a ff                	push   $0xffffffff
  302fd2:	68 fc 00 00 00       	push   $0xfc
  302fd7:	e9 aa 0d 00 00       	jmp    303d86 <idt_common>
  302fdc:	8d 74 26 00          	lea    0x0(%esi,%eiz,1),%esi
  302fe0:	6a ff                	push   $0xffffffff
  302fe2:	68 fd 00 00 00       	push   $0xfd
  302fe7:	e9 9a 0d 00 00       	jmp    303d86 <idt_common>
  302fec:	8d 74 26 00          	lea    0x0(%esi,%eiz,1),%esi
  302ff0:	6a ff                	push   $0xffffffff
  302ff2:	68 fe 00 00 00       	push   $0xfe
  302ff7:	e9 8a 0d 00 00       	jmp    303d86 <idt_common>
  302ffc:	8d 74 26 00          	lea    0x0(%esi,%eiz,1),%esi
  303000:	6a ff                	push   $0xffffffff
  303002:	68 ff 00 00 00       	push   $0xff
  303007:	e9 7a 0d 00 00       	jmp    303d86 <idt_common>

Déassemblage de la section .text :

00303010 <entry>:
  303010:	fa                   	cli
  303011:	bc 10 20 30 00       	mov    $0x302010,%esp
  303016:	6a 00                	push   $0x0
  303018:	9d                   	popf
  303019:	89 d8                	mov    %ebx,%eax
  30301b:	e8 03 00 00 00       	call   303023 <start>

00303020 <halt>:
  303020:	f4                   	hlt
  303021:	eb fd                	jmp    303020 <halt>

00303023 <start>:
  303023:	55                   	push   %ebp
  303024:	89 e5                	mov    %esp,%ebp
  303026:	83 ec 18             	sub    $0x18,%esp
  303029:	89 45 f4             	mov    %eax,-0xc(%ebp)
  30302c:	a1 e0 56 30 00       	mov    0x3056e0,%eax
  303031:	8b 55 f4             	mov    -0xc(%ebp),%edx
  303034:	89 10                	mov    %edx,(%eax)
  303036:	e8 09 0b 00 00       	call   303b44 <pic_init>
  30303b:	e8 8a 09 00 00       	call   3039ca <uart_init>
  303040:	e8 87 0b 00 00       	call   303bcc <intr_init>
  303045:	83 ec 0c             	sub    $0xc,%esp
  303048:	68 30 52 30 00       	push   $0x305230
  30304d:	e8 7e 00 00 00       	call   3030d0 <printf>
  303052:	83 c4 10             	add    $0x10,%esp
  303055:	e8 1c 1c 00 00       	call   304c76 <tp>
  30305a:	83 ec 0c             	sub    $0xc,%esp
  30305d:	68 53 52 30 00       	push   $0x305253
  303062:	e8 41 00 00 00       	call   3030a8 <panic>
  303067:	83 c4 10             	add    $0x10,%esp
  30306a:	90                   	nop
  30306b:	c9                   	leave
  30306c:	c3                   	ret

0030306d <__buf_add>:
  30306d:	55                   	push   %ebp
  30306e:	89 e5                	mov    %esp,%ebp
  303070:	53                   	push   %ebx
  303071:	83 ec 04             	sub    $0x4,%esp
  303074:	8b 45 10             	mov    0x10(%ebp),%eax
  303077:	88 45 f8             	mov    %al,-0x8(%ebp)
  30307a:	8b 45 08             	mov    0x8(%ebp),%eax
  30307d:	8b 40 08             	mov    0x8(%eax),%eax
  303080:	3b 45 0c             	cmp    0xc(%ebp),%eax
  303083:	73 1d                	jae    3030a2 <__buf_add+0x35>
  303085:	8b 45 08             	mov    0x8(%ebp),%eax
  303088:	8b 18                	mov    (%eax),%ebx
  30308a:	8b 45 08             	mov    0x8(%ebp),%eax
  30308d:	8b 40 08             	mov    0x8(%eax),%eax
  303090:	8d 48 01             	lea    0x1(%eax),%ecx
  303093:	8b 55 08             	mov    0x8(%ebp),%edx
  303096:	89 4a 08             	mov    %ecx,0x8(%edx)
  303099:	8d 14 03             	lea    (%ebx,%eax,1),%edx
  30309c:	0f b6 45 f8          	movzbl -0x8(%ebp),%eax
  3030a0:	88 02                	mov    %al,(%edx)
  3030a2:	90                   	nop
  3030a3:	8b 5d fc             	mov    -0x4(%ebp),%ebx
  3030a6:	c9                   	leave
  3030a7:	c3                   	ret

003030a8 <panic>:
  3030a8:	55                   	push   %ebp
  3030a9:	89 e5                	mov    %esp,%ebp
  3030ab:	83 ec 18             	sub    $0x18,%esp
  3030ae:	fa                   	cli
  3030af:	8d 45 0c             	lea    0xc(%ebp),%eax
  3030b2:	89 45 f4             	mov    %eax,-0xc(%ebp)
  3030b5:	8b 45 f4             	mov    -0xc(%ebp),%eax
  3030b8:	83 ec 08             	sub    $0x8,%esp
  3030bb:	50                   	push   %eax
  3030bc:	ff 75 08             	push   0x8(%ebp)
  3030bf:	e8 5b 00 00 00       	call   30311f <__vprintf>
  3030c4:	83 c4 10             	add    $0x10,%esp
  3030c7:	e8 37 0a 00 00       	call   303b03 <uart_flush>
  3030cc:	fa                   	cli
  3030cd:	f4                   	hlt
  3030ce:	eb fc                	jmp    3030cc <panic+0x24>

003030d0 <printf>:
  3030d0:	55                   	push   %ebp
  3030d1:	89 e5                	mov    %esp,%ebp
  3030d3:	83 ec 18             	sub    $0x18,%esp
  3030d6:	8d 45 0c             	lea    0xc(%ebp),%eax
  3030d9:	89 45 f0             	mov    %eax,-0x10(%ebp)
  3030dc:	8b 45 f0             	mov    -0x10(%ebp),%eax
  3030df:	83 ec 08             	sub    $0x8,%esp
  3030e2:	50                   	push   %eax
  3030e3:	ff 75 08             	push   0x8(%ebp)
  3030e6:	e8 34 00 00 00       	call   30311f <__vprintf>
  3030eb:	83 c4 10             	add    $0x10,%esp
  3030ee:	89 45 f4             	mov    %eax,-0xc(%ebp)
  3030f1:	8b 45 f4             	mov    -0xc(%ebp),%eax
  3030f4:	c9                   	leave
  3030f5:	c3                   	ret

003030f6 <snprintf>:
  3030f6:	55                   	push   %ebp
  3030f7:	89 e5                	mov    %esp,%ebp
  3030f9:	83 ec 18             	sub    $0x18,%esp
  3030fc:	8d 45 14             	lea    0x14(%ebp),%eax
  3030ff:	89 45 f0             	mov    %eax,-0x10(%ebp)
  303102:	8b 45 f0             	mov    -0x10(%ebp),%eax
  303105:	50                   	push   %eax
  303106:	ff 75 10             	push   0x10(%ebp)
  303109:	ff 75 0c             	push   0xc(%ebp)
  30310c:	ff 75 08             	push   0x8(%ebp)
  30310f:	e8 88 03 00 00       	call   30349c <__vsnprintf>
  303114:	83 c4 10             	add    $0x10,%esp
  303117:	89 45 f4             	mov    %eax,-0xc(%ebp)
  30311a:	8b 45 f4             	mov    -0xc(%ebp),%eax
  30311d:	c9                   	leave
  30311e:	c3                   	ret

0030311f <__vprintf>:
  30311f:	55                   	push   %ebp
  303120:	89 e5                	mov    %esp,%ebp
  303122:	83 ec 18             	sub    $0x18,%esp
  303125:	ff 75 0c             	push   0xc(%ebp)
  303128:	ff 75 08             	push   0x8(%ebp)
  30312b:	68 00 04 00 00       	push   $0x400
  303130:	68 a0 57 30 00       	push   $0x3057a0
  303135:	e8 62 03 00 00       	call   30349c <__vsnprintf>
  30313a:	83 c4 10             	add    $0x10,%esp
  30313d:	89 45 f4             	mov    %eax,-0xc(%ebp)
  303140:	8b 45 f4             	mov    -0xc(%ebp),%eax
  303143:	83 e8 01             	sub    $0x1,%eax
  303146:	83 ec 08             	sub    $0x8,%esp
  303149:	50                   	push   %eax
  30314a:	68 a0 57 30 00       	push   $0x3057a0
  30314f:	e8 83 09 00 00       	call   303ad7 <uart_write>
  303154:	83 c4 10             	add    $0x10,%esp
  303157:	8b 45 f4             	mov    -0xc(%ebp),%eax
  30315a:	c9                   	leave
  30315b:	c3                   	ret

0030315c <__format_add_str>:
  30315c:	55                   	push   %ebp
  30315d:	89 e5                	mov    %esp,%ebp
  30315f:	eb 1e                	jmp    30317f <__format_add_str+0x23>
  303161:	8b 45 10             	mov    0x10(%ebp),%eax
  303164:	8d 50 01             	lea    0x1(%eax),%edx
  303167:	89 55 10             	mov    %edx,0x10(%ebp)
  30316a:	0f b6 00             	movzbl (%eax),%eax
  30316d:	0f be c0             	movsbl %al,%eax
  303170:	50                   	push   %eax
  303171:	ff 75 0c             	push   0xc(%ebp)
  303174:	ff 75 08             	push   0x8(%ebp)
  303177:	e8 f1 fe ff ff       	call   30306d <__buf_add>
  30317c:	83 c4 0c             	add    $0xc,%esp
  30317f:	8b 45 10             	mov    0x10(%ebp),%eax
  303182:	0f b6 00             	movzbl (%eax),%eax
  303185:	84 c0                	test   %al,%al
  303187:	75 d8                	jne    303161 <__format_add_str+0x5>
  303189:	90                   	nop
  30318a:	90                   	nop
  30318b:	c9                   	leave
  30318c:	c3                   	ret

0030318d <__format_add_chr>:
  30318d:	55                   	push   %ebp
  30318e:	89 e5                	mov    %esp,%ebp
  303190:	8b 45 10             	mov    0x10(%ebp),%eax
  303193:	0f be c0             	movsbl %al,%eax
  303196:	50                   	push   %eax
  303197:	ff 75 0c             	push   0xc(%ebp)
  30319a:	ff 75 08             	push   0x8(%ebp)
  30319d:	e8 cb fe ff ff       	call   30306d <__buf_add>
  3031a2:	83 c4 0c             	add    $0xc,%esp
  3031a5:	90                   	nop
  3031a6:	c9                   	leave
  3031a7:	c3                   	ret

003031a8 <__format_add_bin>:
  3031a8:	55                   	push   %ebp
  3031a9:	89 e5                	mov    %esp,%ebp
  3031ab:	83 ec 18             	sub    $0x18,%esp
  3031ae:	8b 45 10             	mov    0x10(%ebp),%eax
  3031b1:	89 45 e8             	mov    %eax,-0x18(%ebp)
  3031b4:	8b 45 14             	mov    0x14(%ebp),%eax
  3031b7:	89 45 ec             	mov    %eax,-0x14(%ebp)
  3031ba:	c7 45 fc 00 00 00 00 	movl   $0x0,-0x4(%ebp)
  3031c1:	eb 48                	jmp    30320b <__format_add_bin+0x63>
  3031c3:	8b 45 18             	mov    0x18(%ebp),%eax
  3031c6:	2b 45 fc             	sub    -0x4(%ebp),%eax
  3031c9:	8d 48 ff             	lea    -0x1(%eax),%ecx
  3031cc:	8b 45 e8             	mov    -0x18(%ebp),%eax
  3031cf:	8b 55 ec             	mov    -0x14(%ebp),%edx
  3031d2:	0f ad d0             	shrd   %cl,%edx,%eax
  3031d5:	d3 ea                	shr    %cl,%edx
  3031d7:	f6 c1 20             	test   $0x20,%cl
  3031da:	74 04                	je     3031e0 <__format_add_bin+0x38>
  3031dc:	89 d0                	mov    %edx,%eax
  3031de:	31 d2                	xor    %edx,%edx
  3031e0:	83 e0 01             	and    $0x1,%eax
  3031e3:	89 45 f8             	mov    %eax,-0x8(%ebp)
  3031e6:	83 7d f8 00          	cmpl   $0x0,-0x8(%ebp)
  3031ea:	74 07                	je     3031f3 <__format_add_bin+0x4b>
  3031ec:	b8 31 00 00 00       	mov    $0x31,%eax
  3031f1:	eb 05                	jmp    3031f8 <__format_add_bin+0x50>
  3031f3:	b8 30 00 00 00       	mov    $0x30,%eax
  3031f8:	50                   	push   %eax
  3031f9:	ff 75 0c             	push   0xc(%ebp)
  3031fc:	ff 75 08             	push   0x8(%ebp)
  3031ff:	e8 69 fe ff ff       	call   30306d <__buf_add>
  303204:	83 c4 0c             	add    $0xc,%esp
  303207:	83 45 fc 01          	addl   $0x1,-0x4(%ebp)
  30320b:	8b 45 fc             	mov    -0x4(%ebp),%eax
  30320e:	3b 45 18             	cmp    0x18(%ebp),%eax
  303211:	72 b0                	jb     3031c3 <__format_add_bin+0x1b>
  303213:	90                   	nop
  303214:	90                   	nop
  303215:	c9                   	leave
  303216:	c3                   	ret

00303217 <__format_add_idec>:
  303217:	55                   	push   %ebp
  303218:	89 e5                	mov    %esp,%ebp
  30321a:	53                   	push   %ebx
  30321b:	83 ec 44             	sub    $0x44,%esp
  30321e:	8b 45 10             	mov    0x10(%ebp),%eax
  303221:	89 45 c0             	mov    %eax,-0x40(%ebp)
  303224:	8b 45 14             	mov    0x14(%ebp),%eax
  303227:	89 45 c4             	mov    %eax,-0x3c(%ebp)
  30322a:	8b 45 c0             	mov    -0x40(%ebp),%eax
  30322d:	0b 45 c4             	or     -0x3c(%ebp),%eax
  303230:	75 15                	jne    303247 <__format_add_idec+0x30>
  303232:	6a 30                	push   $0x30
  303234:	ff 75 0c             	push   0xc(%ebp)
  303237:	ff 75 08             	push   0x8(%ebp)
  30323a:	e8 2e fe ff ff       	call   30306d <__buf_add>
  30323f:	83 c4 0c             	add    $0xc,%esp
  303242:	e9 a9 00 00 00       	jmp    3032f0 <__format_add_idec+0xd9>
  303247:	8d 45 e0             	lea    -0x20(%ebp),%eax
  30324a:	89 45 d4             	mov    %eax,-0x2c(%ebp)
  30324d:	c7 45 dc 00 00 00 00 	movl   $0x0,-0x24(%ebp)
  303254:	83 7d c4 00          	cmpl   $0x0,-0x3c(%ebp)
  303258:	79 5f                	jns    3032b9 <__format_add_idec+0xa2>
  30325a:	6a 2d                	push   $0x2d
  30325c:	ff 75 0c             	push   0xc(%ebp)
  30325f:	ff 75 08             	push   0x8(%ebp)
  303262:	e8 06 fe ff ff       	call   30306d <__buf_add>
  303267:	83 c4 0c             	add    $0xc,%esp
  30326a:	f7 5d c0             	negl   -0x40(%ebp)
  30326d:	83 55 c4 00          	adcl   $0x0,-0x3c(%ebp)
  303271:	f7 5d c4             	negl   -0x3c(%ebp)
  303274:	eb 43                	jmp    3032b9 <__format_add_idec+0xa2>
  303276:	8b 45 c0             	mov    -0x40(%ebp),%eax
  303279:	8b 55 c4             	mov    -0x3c(%ebp),%edx
  30327c:	6a 00                	push   $0x0
  30327e:	6a 0a                	push   $0xa
  303280:	52                   	push   %edx
  303281:	50                   	push   %eax
  303282:	e8 a9 1b 00 00       	call   304e30 <__moddi3>
  303287:	83 c4 10             	add    $0x10,%esp
  30328a:	8d 58 30             	lea    0x30(%eax),%ebx
  30328d:	8b 4d d4             	mov    -0x2c(%ebp),%ecx
  303290:	8b 45 dc             	mov    -0x24(%ebp),%eax
  303293:	8d 50 01             	lea    0x1(%eax),%edx
  303296:	89 55 dc             	mov    %edx,-0x24(%ebp)
  303299:	01 c8                	add    %ecx,%eax
  30329b:	89 da                	mov    %ebx,%edx
  30329d:	88 10                	mov    %dl,(%eax)
  30329f:	8b 45 c0             	mov    -0x40(%ebp),%eax
  3032a2:	8b 55 c4             	mov    -0x3c(%ebp),%edx
  3032a5:	6a 00                	push   $0x0
  3032a7:	6a 0a                	push   $0xa
  3032a9:	52                   	push   %edx
  3032aa:	50                   	push   %eax
  3032ab:	e8 40 1a 00 00       	call   304cf0 <__divdi3>
  3032b0:	83 c4 10             	add    $0x10,%esp
  3032b3:	89 45 c0             	mov    %eax,-0x40(%ebp)
  3032b6:	89 55 c4             	mov    %edx,-0x3c(%ebp)
  3032b9:	8b 45 c0             	mov    -0x40(%ebp),%eax
  3032bc:	0b 45 c4             	or     -0x3c(%ebp),%eax
  3032bf:	75 b5                	jne    303276 <__format_add_idec+0x5f>
  3032c1:	eb 20                	jmp    3032e3 <__format_add_idec+0xcc>
  3032c3:	8b 55 d4             	mov    -0x2c(%ebp),%edx
  3032c6:	8b 45 dc             	mov    -0x24(%ebp),%eax
  3032c9:	01 d0                	add    %edx,%eax
  3032cb:	0f b6 00             	movzbl (%eax),%eax
  3032ce:	0f be c0             	movsbl %al,%eax
  3032d1:	83 ec 04             	sub    $0x4,%esp
  3032d4:	50                   	push   %eax
  3032d5:	ff 75 0c             	push   0xc(%ebp)
  3032d8:	ff 75 08             	push   0x8(%ebp)
  3032db:	e8 8d fd ff ff       	call   30306d <__buf_add>
  3032e0:	83 c4 10             	add    $0x10,%esp
  3032e3:	8b 45 dc             	mov    -0x24(%ebp),%eax
  3032e6:	8d 50 ff             	lea    -0x1(%eax),%edx
  3032e9:	89 55 dc             	mov    %edx,-0x24(%ebp)
  3032ec:	85 c0                	test   %eax,%eax
  3032ee:	75 d3                	jne    3032c3 <__format_add_idec+0xac>
  3032f0:	8b 5d fc             	mov    -0x4(%ebp),%ebx
  3032f3:	c9                   	leave
  3032f4:	c3                   	ret

003032f5 <__format_add_udec>:
  3032f5:	55                   	push   %ebp
  3032f6:	89 e5                	mov    %esp,%ebp
  3032f8:	53                   	push   %ebx
  3032f9:	83 ec 44             	sub    $0x44,%esp
  3032fc:	8b 45 10             	mov    0x10(%ebp),%eax
  3032ff:	89 45 c0             	mov    %eax,-0x40(%ebp)
  303302:	8b 45 14             	mov    0x14(%ebp),%eax
  303305:	89 45 c4             	mov    %eax,-0x3c(%ebp)
  303308:	8b 45 c0             	mov    -0x40(%ebp),%eax
  30330b:	0b 45 c4             	or     -0x3c(%ebp),%eax
  30330e:	75 15                	jne    303325 <__format_add_udec+0x30>
  303310:	6a 30                	push   $0x30
  303312:	ff 75 0c             	push   0xc(%ebp)
  303315:	ff 75 08             	push   0x8(%ebp)
  303318:	e8 50 fd ff ff       	call   30306d <__buf_add>
  30331d:	83 c4 0c             	add    $0xc,%esp
  303320:	e9 89 00 00 00       	jmp    3033ae <__format_add_udec+0xb9>
  303325:	8d 45 e0             	lea    -0x20(%ebp),%eax
  303328:	89 45 d4             	mov    %eax,-0x2c(%ebp)
  30332b:	c7 45 dc 00 00 00 00 	movl   $0x0,-0x24(%ebp)
  303332:	eb 43                	jmp    303377 <__format_add_udec+0x82>
  303334:	8b 45 c0             	mov    -0x40(%ebp),%eax
  303337:	8b 55 c4             	mov    -0x3c(%ebp),%edx
  30333a:	6a 00                	push   $0x0
  30333c:	6a 0a                	push   $0xa
  30333e:	52                   	push   %edx
  30333f:	50                   	push   %eax
  303340:	e8 ab 1d 00 00       	call   3050f0 <__umoddi3>
  303345:	83 c4 10             	add    $0x10,%esp
  303348:	8d 58 30             	lea    0x30(%eax),%ebx
  30334b:	8b 4d d4             	mov    -0x2c(%ebp),%ecx
  30334e:	8b 45 dc             	mov    -0x24(%ebp),%eax
  303351:	8d 50 01             	lea    0x1(%eax),%edx
  303354:	89 55 dc             	mov    %edx,-0x24(%ebp)
  303357:	01 c8                	add    %ecx,%eax
  303359:	89 da                	mov    %ebx,%edx
  30335b:	88 10                	mov    %dl,(%eax)
  30335d:	8b 45 c0             	mov    -0x40(%ebp),%eax
  303360:	8b 55 c4             	mov    -0x3c(%ebp),%edx
  303363:	6a 00                	push   $0x0
  303365:	6a 0a                	push   $0xa
  303367:	52                   	push   %edx
  303368:	50                   	push   %eax
  303369:	e8 62 1c 00 00       	call   304fd0 <__udivdi3>
  30336e:	83 c4 10             	add    $0x10,%esp
  303371:	89 45 c0             	mov    %eax,-0x40(%ebp)
  303374:	89 55 c4             	mov    %edx,-0x3c(%ebp)
  303377:	8b 45 c0             	mov    -0x40(%ebp),%eax
  30337a:	0b 45 c4             	or     -0x3c(%ebp),%eax
  30337d:	75 b5                	jne    303334 <__format_add_udec+0x3f>
  30337f:	eb 20                	jmp    3033a1 <__format_add_udec+0xac>
  303381:	8b 55 d4             	mov    -0x2c(%ebp),%edx
  303384:	8b 45 dc             	mov    -0x24(%ebp),%eax
  303387:	01 d0                	add    %edx,%eax
  303389:	0f b6 00             	movzbl (%eax),%eax
  30338c:	0f be c0             	movsbl %al,%eax
  30338f:	83 ec 04             	sub    $0x4,%esp
  303392:	50                   	push   %eax
  303393:	ff 75 0c             	push   0xc(%ebp)
  303396:	ff 75 08             	push   0x8(%ebp)
  303399:	e8 cf fc ff ff       	call   30306d <__buf_add>
  30339e:	83 c4 10             	add    $0x10,%esp
  3033a1:	8b 45 dc             	mov    -0x24(%ebp),%eax
  3033a4:	8d 50 ff             	lea    -0x1(%eax),%edx
  3033a7:	89 55 dc             	mov    %edx,-0x24(%ebp)
  3033aa:	85 c0                	test   %eax,%eax
  3033ac:	75 d3                	jne    303381 <__format_add_udec+0x8c>
  3033ae:	8b 5d fc             	mov    -0x4(%ebp),%ebx
  3033b1:	c9                   	leave
  3033b2:	c3                   	ret

003033b3 <uint64_to_hex>:
  3033b3:	55                   	push   %ebp
  3033b4:	89 e5                	mov    %esp,%ebp
  3033b6:	83 ec 28             	sub    $0x28,%esp
  3033b9:	8b 45 10             	mov    0x10(%ebp),%eax
  3033bc:	89 45 d8             	mov    %eax,-0x28(%ebp)
  3033bf:	8b 45 14             	mov    0x14(%ebp),%eax
  3033c2:	89 45 dc             	mov    %eax,-0x24(%ebp)
  3033c5:	c7 45 fc 00 00 00 00 	movl   $0x0,-0x4(%ebp)
  3033cc:	83 7d 18 00          	cmpl   $0x0,0x18(%ebp)
  3033d0:	74 06                	je     3033d8 <uint64_to_hex+0x25>
  3033d2:	83 7d 18 10          	cmpl   $0x10,0x18(%ebp)
  3033d6:	76 44                	jbe    30341c <uint64_to_hex+0x69>
  3033d8:	c7 45 18 ff ff ff ff 	movl   $0xffffffff,0x18(%ebp)
  3033df:	eb 3b                	jmp    30341c <uint64_to_hex+0x69>
  3033e1:	8b 45 d8             	mov    -0x28(%ebp),%eax
  3033e4:	8b 55 dc             	mov    -0x24(%ebp),%edx
  3033e7:	83 e0 0f             	and    $0xf,%eax
  3033ea:	ba 00 00 00 00       	mov    $0x0,%edx
  3033ef:	05 e4 56 30 00       	add    $0x3056e4,%eax
  3033f4:	0f b6 00             	movzbl (%eax),%eax
  3033f7:	8d 4d e8             	lea    -0x18(%ebp),%ecx
  3033fa:	8b 55 fc             	mov    -0x4(%ebp),%edx
  3033fd:	01 ca                	add    %ecx,%edx
  3033ff:	88 02                	mov    %al,(%edx)
  303401:	8b 45 d8             	mov    -0x28(%ebp),%eax
  303404:	8b 55 dc             	mov    -0x24(%ebp),%edx
  303407:	0f ac d0 04          	shrd   $0x4,%edx,%eax
  30340b:	c1 ea 04             	shr    $0x4,%edx
  30340e:	89 45 d8             	mov    %eax,-0x28(%ebp)
  303411:	89 55 dc             	mov    %edx,-0x24(%ebp)
  303414:	83 45 fc 01          	addl   $0x1,-0x4(%ebp)
  303418:	83 6d 18 01          	subl   $0x1,0x18(%ebp)
  30341c:	83 7d 18 00          	cmpl   $0x0,0x18(%ebp)
  303420:	74 14                	je     303436 <uint64_to_hex+0x83>
  303422:	83 7d 18 10          	cmpl   $0x10,0x18(%ebp)
  303426:	76 b9                	jbe    3033e1 <uint64_to_hex+0x2e>
  303428:	8b 45 d8             	mov    -0x28(%ebp),%eax
  30342b:	0b 45 dc             	or     -0x24(%ebp),%eax
  30342e:	75 b1                	jne    3033e1 <uint64_to_hex+0x2e>
  303430:	83 7d fc 00          	cmpl   $0x0,-0x4(%ebp)
  303434:	74 ab                	je     3033e1 <uint64_to_hex+0x2e>
  303436:	8b 45 fc             	mov    -0x4(%ebp),%eax
  303439:	89 45 f8             	mov    %eax,-0x8(%ebp)
  30343c:	eb 1d                	jmp    30345b <uint64_to_hex+0xa8>
  30343e:	8d 55 e8             	lea    -0x18(%ebp),%edx
  303441:	8b 45 fc             	mov    -0x4(%ebp),%eax
  303444:	01 d0                	add    %edx,%eax
  303446:	0f b6 00             	movzbl (%eax),%eax
  303449:	0f be c0             	movsbl %al,%eax
  30344c:	50                   	push   %eax
  30344d:	ff 75 0c             	push   0xc(%ebp)
  303450:	ff 75 08             	push   0x8(%ebp)
  303453:	e8 15 fc ff ff       	call   30306d <__buf_add>
  303458:	83 c4 0c             	add    $0xc,%esp
  30345b:	8b 45 fc             	mov    -0x4(%ebp),%eax
  30345e:	8d 50 ff             	lea    -0x1(%eax),%edx
  303461:	89 55 fc             	mov    %edx,-0x4(%ebp)
  303464:	85 c0                	test   %eax,%eax
  303466:	75 d6                	jne    30343e <uint64_to_hex+0x8b>
  303468:	8b 45 f8             	mov    -0x8(%ebp),%eax
  30346b:	c9                   	leave
  30346c:	c3                   	ret

0030346d <__format_add_hex>:
  30346d:	55                   	push   %ebp
  30346e:	89 e5                	mov    %esp,%ebp
  303470:	83 ec 08             	sub    $0x8,%esp
  303473:	8b 45 10             	mov    0x10(%ebp),%eax
  303476:	89 45 f8             	mov    %eax,-0x8(%ebp)
  303479:	8b 45 14             	mov    0x14(%ebp),%eax
  30347c:	89 45 fc             	mov    %eax,-0x4(%ebp)
  30347f:	83 ec 04             	sub    $0x4,%esp
  303482:	ff 75 18             	push   0x18(%ebp)
  303485:	ff 75 fc             	push   -0x4(%ebp)
  303488:	ff 75 f8             	push   -0x8(%ebp)
  30348b:	ff 75 0c             	push   0xc(%ebp)
  30348e:	ff 75 08             	push   0x8(%ebp)
  303491:	e8 1d ff ff ff       	call   3033b3 <uint64_to_hex>
  303496:	83 c4 18             	add    $0x18,%esp
  303499:	90                   	nop
  30349a:	c9                   	leave
  30349b:	c3                   	ret

0030349c <__vsnprintf>:
  30349c:	55                   	push   %ebp
  30349d:	89 e5                	mov    %esp,%ebp
  30349f:	83 ec 78             	sub    $0x78,%esp
  3034a2:	8b 45 08             	mov    0x8(%ebp),%eax
  3034a5:	89 45 94             	mov    %eax,-0x6c(%ebp)
  3034a8:	c7 45 9c 00 00 00 00 	movl   $0x0,-0x64(%ebp)
  3034af:	c7 45 f0 00 00 00 00 	movl   $0x0,-0x10(%ebp)
  3034b6:	c7 45 ec 00 00 00 00 	movl   $0x0,-0x14(%ebp)
  3034bd:	c7 45 f4 04 00 00 00 	movl   $0x4,-0xc(%ebp)
  3034c4:	83 7d 0c 00          	cmpl   $0x0,0xc(%ebp)
  3034c8:	0f 84 ad 03 00 00    	je     30387b <__vsnprintf+0x3df>
  3034ce:	83 6d 0c 01          	subl   $0x1,0xc(%ebp)
  3034d2:	e9 a4 03 00 00       	jmp    30387b <__vsnprintf+0x3df>
  3034d7:	8b 45 10             	mov    0x10(%ebp),%eax
  3034da:	8d 50 01             	lea    0x1(%eax),%edx
  3034dd:	89 55 10             	mov    %edx,0x10(%ebp)
  3034e0:	0f b6 00             	movzbl (%eax),%eax
  3034e3:	88 45 d7             	mov    %al,-0x29(%ebp)
  3034e6:	83 7d f0 00          	cmpl   $0x0,-0x10(%ebp)
  3034ea:	0f 84 5b 03 00 00    	je     30384b <__vsnprintf+0x3af>
  3034f0:	80 7d d7 6c          	cmpb   $0x6c,-0x29(%ebp)
  3034f4:	75 1e                	jne    303514 <__vsnprintf+0x78>
  3034f6:	83 7d ec 00          	cmpl   $0x0,-0x14(%ebp)
  3034fa:	74 0c                	je     303508 <__vsnprintf+0x6c>
  3034fc:	c7 45 f4 08 00 00 00 	movl   $0x8,-0xc(%ebp)
  303503:	e9 73 03 00 00       	jmp    30387b <__vsnprintf+0x3df>
  303508:	c7 45 ec 01 00 00 00 	movl   $0x1,-0x14(%ebp)
  30350f:	e9 67 03 00 00       	jmp    30387b <__vsnprintf+0x3df>
  303514:	80 7d d7 68          	cmpb   $0x68,-0x29(%ebp)
  303518:	75 0d                	jne    303527 <__vsnprintf+0x8b>
  30351a:	8b 45 f4             	mov    -0xc(%ebp),%eax
  30351d:	d1 e8                	shr    $1,%eax
  30351f:	89 45 f4             	mov    %eax,-0xc(%ebp)
  303522:	e9 54 03 00 00       	jmp    30387b <__vsnprintf+0x3df>
  303527:	80 7d d7 73          	cmpb   $0x73,-0x29(%ebp)
  30352b:	75 25                	jne    303552 <__vsnprintf+0xb6>
  30352d:	8b 45 14             	mov    0x14(%ebp),%eax
  303530:	8d 50 04             	lea    0x4(%eax),%edx
  303533:	89 55 14             	mov    %edx,0x14(%ebp)
  303536:	8b 00                	mov    (%eax),%eax
  303538:	89 45 a0             	mov    %eax,-0x60(%ebp)
  30353b:	ff 75 a0             	push   -0x60(%ebp)
  30353e:	ff 75 0c             	push   0xc(%ebp)
  303541:	8d 45 94             	lea    -0x6c(%ebp),%eax
  303544:	50                   	push   %eax
  303545:	e8 12 fc ff ff       	call   30315c <__format_add_str>
  30354a:	83 c4 0c             	add    $0xc,%esp
  30354d:	e9 e9 02 00 00       	jmp    30383b <__vsnprintf+0x39f>
  303552:	80 7d d7 63          	cmpb   $0x63,-0x29(%ebp)
  303556:	75 25                	jne    30357d <__vsnprintf+0xe1>
  303558:	8b 45 14             	mov    0x14(%ebp),%eax
  30355b:	8d 50 04             	lea    0x4(%eax),%edx
  30355e:	89 55 14             	mov    %edx,0x14(%ebp)
  303561:	8b 00                	mov    (%eax),%eax
  303563:	89 45 a4             	mov    %eax,-0x5c(%ebp)
  303566:	ff 75 a4             	push   -0x5c(%ebp)
  303569:	ff 75 0c             	push   0xc(%ebp)
  30356c:	8d 45 94             	lea    -0x6c(%ebp),%eax
  30356f:	50                   	push   %eax
  303570:	e8 18 fc ff ff       	call   30318d <__format_add_chr>
  303575:	83 c4 0c             	add    $0xc,%esp
  303578:	e9 be 02 00 00       	jmp    30383b <__vsnprintf+0x39f>
  30357d:	80 7d d7 62          	cmpb   $0x62,-0x29(%ebp)
  303581:	75 34                	jne    3035b7 <__vsnprintf+0x11b>
  303583:	8b 45 14             	mov    0x14(%ebp),%eax
  303586:	8d 50 04             	lea    0x4(%eax),%edx
  303589:	89 55 14             	mov    %edx,0x14(%ebp)
  30358c:	8b 00                	mov    (%eax),%eax
  30358e:	89 45 a8             	mov    %eax,-0x58(%ebp)
  303591:	c7 45 ac 00 00 00 00 	movl   $0x0,-0x54(%ebp)
  303598:	83 ec 04             	sub    $0x4,%esp
  30359b:	6a 20                	push   $0x20
  30359d:	ff 75 ac             	push   -0x54(%ebp)
  3035a0:	ff 75 a8             	push   -0x58(%ebp)
  3035a3:	ff 75 0c             	push   0xc(%ebp)
  3035a6:	8d 45 94             	lea    -0x6c(%ebp),%eax
  3035a9:	50                   	push   %eax
  3035aa:	e8 f9 fb ff ff       	call   3031a8 <__format_add_bin>
  3035af:	83 c4 18             	add    $0x18,%esp
  3035b2:	e9 84 02 00 00       	jmp    30383b <__vsnprintf+0x39f>
  3035b7:	80 7d d7 42          	cmpb   $0x42,-0x29(%ebp)
  3035bb:	75 33                	jne    3035f0 <__vsnprintf+0x154>
  3035bd:	8b 45 14             	mov    0x14(%ebp),%eax
  3035c0:	8d 50 08             	lea    0x8(%eax),%edx
  3035c3:	89 55 14             	mov    %edx,0x14(%ebp)
  3035c6:	8b 50 04             	mov    0x4(%eax),%edx
  3035c9:	8b 00                	mov    (%eax),%eax
  3035cb:	89 45 b0             	mov    %eax,-0x50(%ebp)
  3035ce:	89 55 b4             	mov    %edx,-0x4c(%ebp)
  3035d1:	83 ec 04             	sub    $0x4,%esp
  3035d4:	6a 40                	push   $0x40
  3035d6:	ff 75 b4             	push   -0x4c(%ebp)
  3035d9:	ff 75 b0             	push   -0x50(%ebp)
  3035dc:	ff 75 0c             	push   0xc(%ebp)
  3035df:	8d 45 94             	lea    -0x6c(%ebp),%eax
  3035e2:	50                   	push   %eax
  3035e3:	e8 c0 fb ff ff       	call   3031a8 <__format_add_bin>
  3035e8:	83 c4 18             	add    $0x18,%esp
  3035eb:	e9 4b 02 00 00       	jmp    30383b <__vsnprintf+0x39f>
  3035f0:	80 7d d7 64          	cmpb   $0x64,-0x29(%ebp)
  3035f4:	74 0a                	je     303600 <__vsnprintf+0x164>
  3035f6:	80 7d d7 69          	cmpb   $0x69,-0x29(%ebp)
  3035fa:	0f 85 80 00 00 00    	jne    303680 <__vsnprintf+0x1e4>
  303600:	83 7d f4 07          	cmpl   $0x7,-0xc(%ebp)
  303604:	76 16                	jbe    30361c <__vsnprintf+0x180>
  303606:	8b 45 14             	mov    0x14(%ebp),%eax
  303609:	8d 50 08             	lea    0x8(%eax),%edx
  30360c:	89 55 14             	mov    %edx,0x14(%ebp)
  30360f:	8b 50 04             	mov    0x4(%eax),%edx
  303612:	8b 00                	mov    (%eax),%eax
  303614:	89 45 e0             	mov    %eax,-0x20(%ebp)
  303617:	89 55 e4             	mov    %edx,-0x1c(%ebp)
  30361a:	eb 4a                	jmp    303666 <__vsnprintf+0x1ca>
  30361c:	83 7d f4 04          	cmpl   $0x4,-0xc(%ebp)
  303620:	75 14                	jne    303636 <__vsnprintf+0x19a>
  303622:	8b 45 14             	mov    0x14(%ebp),%eax
  303625:	8d 50 04             	lea    0x4(%eax),%edx
  303628:	89 55 14             	mov    %edx,0x14(%ebp)
  30362b:	8b 00                	mov    (%eax),%eax
  30362d:	99                   	cltd
  30362e:	89 45 e0             	mov    %eax,-0x20(%ebp)
  303631:	89 55 e4             	mov    %edx,-0x1c(%ebp)
  303634:	eb 30                	jmp    303666 <__vsnprintf+0x1ca>
  303636:	83 7d f4 02          	cmpl   $0x2,-0xc(%ebp)
  30363a:	75 15                	jne    303651 <__vsnprintf+0x1b5>
  30363c:	8b 45 14             	mov    0x14(%ebp),%eax
  30363f:	8d 50 04             	lea    0x4(%eax),%edx
  303642:	89 55 14             	mov    %edx,0x14(%ebp)
  303645:	8b 00                	mov    (%eax),%eax
  303647:	98                   	cwtl
  303648:	99                   	cltd
  303649:	89 45 e0             	mov    %eax,-0x20(%ebp)
  30364c:	89 55 e4             	mov    %edx,-0x1c(%ebp)
  30364f:	eb 15                	jmp    303666 <__vsnprintf+0x1ca>
  303651:	8b 45 14             	mov    0x14(%ebp),%eax
  303654:	8d 50 04             	lea    0x4(%eax),%edx
  303657:	89 55 14             	mov    %edx,0x14(%ebp)
  30365a:	8b 00                	mov    (%eax),%eax
  30365c:	0f be c0             	movsbl %al,%eax
  30365f:	99                   	cltd
  303660:	89 45 e0             	mov    %eax,-0x20(%ebp)
  303663:	89 55 e4             	mov    %edx,-0x1c(%ebp)
  303666:	ff 75 e4             	push   -0x1c(%ebp)
  303669:	ff 75 e0             	push   -0x20(%ebp)
  30366c:	ff 75 0c             	push   0xc(%ebp)
  30366f:	8d 45 94             	lea    -0x6c(%ebp),%eax
  303672:	50                   	push   %eax
  303673:	e8 9f fb ff ff       	call   303217 <__format_add_idec>
  303678:	83 c4 10             	add    $0x10,%esp
  30367b:	e9 bb 01 00 00       	jmp    30383b <__vsnprintf+0x39f>
  303680:	80 7d d7 75          	cmpb   $0x75,-0x29(%ebp)
  303684:	74 0a                	je     303690 <__vsnprintf+0x1f4>
  303686:	80 7d d7 78          	cmpb   $0x78,-0x29(%ebp)
  30368a:	0f 85 b0 00 00 00    	jne    303740 <__vsnprintf+0x2a4>
  303690:	83 7d f4 07          	cmpl   $0x7,-0xc(%ebp)
  303694:	76 16                	jbe    3036ac <__vsnprintf+0x210>
  303696:	8b 45 14             	mov    0x14(%ebp),%eax
  303699:	8d 50 08             	lea    0x8(%eax),%edx
  30369c:	89 55 14             	mov    %edx,0x14(%ebp)
  30369f:	8b 50 04             	mov    0x4(%eax),%edx
  3036a2:	8b 00                	mov    (%eax),%eax
  3036a4:	89 45 d8             	mov    %eax,-0x28(%ebp)
  3036a7:	89 55 dc             	mov    %edx,-0x24(%ebp)
  3036aa:	eb 55                	jmp    303701 <__vsnprintf+0x265>
  3036ac:	83 7d f4 04          	cmpl   $0x4,-0xc(%ebp)
  3036b0:	75 17                	jne    3036c9 <__vsnprintf+0x22d>
  3036b2:	8b 45 14             	mov    0x14(%ebp),%eax
  3036b5:	8d 50 04             	lea    0x4(%eax),%edx
  3036b8:	89 55 14             	mov    %edx,0x14(%ebp)
  3036bb:	8b 00                	mov    (%eax),%eax
  3036bd:	89 45 d8             	mov    %eax,-0x28(%ebp)
  3036c0:	c7 45 dc 00 00 00 00 	movl   $0x0,-0x24(%ebp)
  3036c7:	eb 38                	jmp    303701 <__vsnprintf+0x265>
  3036c9:	83 7d f4 02          	cmpl   $0x2,-0xc(%ebp)
  3036cd:	75 1a                	jne    3036e9 <__vsnprintf+0x24d>
  3036cf:	8b 45 14             	mov    0x14(%ebp),%eax
  3036d2:	8d 50 04             	lea    0x4(%eax),%edx
  3036d5:	89 55 14             	mov    %edx,0x14(%ebp)
  3036d8:	8b 00                	mov    (%eax),%eax
  3036da:	0f b7 c0             	movzwl %ax,%eax
  3036dd:	89 45 d8             	mov    %eax,-0x28(%ebp)
  3036e0:	c7 45 dc 00 00 00 00 	movl   $0x0,-0x24(%ebp)
  3036e7:	eb 18                	jmp    303701 <__vsnprintf+0x265>
  3036e9:	8b 45 14             	mov    0x14(%ebp),%eax
  3036ec:	8d 50 04             	lea    0x4(%eax),%edx
  3036ef:	89 55 14             	mov    %edx,0x14(%ebp)
  3036f2:	8b 00                	mov    (%eax),%eax
  3036f4:	0f b6 c0             	movzbl %al,%eax
  3036f7:	89 45 d8             	mov    %eax,-0x28(%ebp)
  3036fa:	c7 45 dc 00 00 00 00 	movl   $0x0,-0x24(%ebp)
  303701:	80 7d d7 75          	cmpb   $0x75,-0x29(%ebp)
  303705:	75 1a                	jne    303721 <__vsnprintf+0x285>
  303707:	ff 75 dc             	push   -0x24(%ebp)
  30370a:	ff 75 d8             	push   -0x28(%ebp)
  30370d:	ff 75 0c             	push   0xc(%ebp)
  303710:	8d 45 94             	lea    -0x6c(%ebp),%eax
  303713:	50                   	push   %eax
  303714:	e8 dc fb ff ff       	call   3032f5 <__format_add_udec>
  303719:	83 c4 10             	add    $0x10,%esp
  30371c:	e9 1a 01 00 00       	jmp    30383b <__vsnprintf+0x39f>
  303721:	83 ec 0c             	sub    $0xc,%esp
  303724:	6a 00                	push   $0x0
  303726:	ff 75 dc             	push   -0x24(%ebp)
  303729:	ff 75 d8             	push   -0x28(%ebp)
  30372c:	ff 75 0c             	push   0xc(%ebp)
  30372f:	8d 45 94             	lea    -0x6c(%ebp),%eax
  303732:	50                   	push   %eax
  303733:	e8 35 fd ff ff       	call   30346d <__format_add_hex>
  303738:	83 c4 20             	add    $0x20,%esp
  30373b:	e9 fb 00 00 00       	jmp    30383b <__vsnprintf+0x39f>
  303740:	80 7d d7 44          	cmpb   $0x44,-0x29(%ebp)
  303744:	75 2e                	jne    303774 <__vsnprintf+0x2d8>
  303746:	8b 45 14             	mov    0x14(%ebp),%eax
  303749:	8d 50 08             	lea    0x8(%eax),%edx
  30374c:	89 55 14             	mov    %edx,0x14(%ebp)
  30374f:	8b 50 04             	mov    0x4(%eax),%edx
  303752:	8b 00                	mov    (%eax),%eax
  303754:	89 45 b8             	mov    %eax,-0x48(%ebp)
  303757:	89 55 bc             	mov    %edx,-0x44(%ebp)
  30375a:	ff 75 bc             	push   -0x44(%ebp)
  30375d:	ff 75 b8             	push   -0x48(%ebp)
  303760:	ff 75 0c             	push   0xc(%ebp)
  303763:	8d 45 94             	lea    -0x6c(%ebp),%eax
  303766:	50                   	push   %eax
  303767:	e8 ab fa ff ff       	call   303217 <__format_add_idec>
  30376c:	83 c4 10             	add    $0x10,%esp
  30376f:	e9 c7 00 00 00       	jmp    30383b <__vsnprintf+0x39f>
  303774:	80 7d d7 58          	cmpb   $0x58,-0x29(%ebp)
  303778:	75 33                	jne    3037ad <__vsnprintf+0x311>
  30377a:	8b 45 14             	mov    0x14(%ebp),%eax
  30377d:	8d 50 08             	lea    0x8(%eax),%edx
  303780:	89 55 14             	mov    %edx,0x14(%ebp)
  303783:	8b 50 04             	mov    0x4(%eax),%edx
  303786:	8b 00                	mov    (%eax),%eax
  303788:	89 45 c0             	mov    %eax,-0x40(%ebp)
  30378b:	89 55 c4             	mov    %edx,-0x3c(%ebp)
  30378e:	83 ec 0c             	sub    $0xc,%esp
  303791:	6a 00                	push   $0x0
  303793:	ff 75 c4             	push   -0x3c(%ebp)
  303796:	ff 75 c0             	push   -0x40(%ebp)
  303799:	ff 75 0c             	push   0xc(%ebp)
  30379c:	8d 45 94             	lea    -0x6c(%ebp),%eax
  30379f:	50                   	push   %eax
  3037a0:	e8 c8 fc ff ff       	call   30346d <__format_add_hex>
  3037a5:	83 c4 20             	add    $0x20,%esp
  3037a8:	e9 8e 00 00 00       	jmp    30383b <__vsnprintf+0x39f>
  3037ad:	80 7d d7 70          	cmpb   $0x70,-0x29(%ebp)
  3037b1:	75 48                	jne    3037fb <__vsnprintf+0x35f>
  3037b3:	8b 45 14             	mov    0x14(%ebp),%eax
  3037b6:	8d 50 04             	lea    0x4(%eax),%edx
  3037b9:	89 55 14             	mov    %edx,0x14(%ebp)
  3037bc:	8b 00                	mov    (%eax),%eax
  3037be:	89 45 c8             	mov    %eax,-0x38(%ebp)
  3037c1:	c7 45 cc 00 00 00 00 	movl   $0x0,-0x34(%ebp)
  3037c8:	83 ec 04             	sub    $0x4,%esp
  3037cb:	68 5c 52 30 00       	push   $0x30525c
  3037d0:	ff 75 0c             	push   0xc(%ebp)
  3037d3:	8d 45 94             	lea    -0x6c(%ebp),%eax
  3037d6:	50                   	push   %eax
  3037d7:	e8 80 f9 ff ff       	call   30315c <__format_add_str>
  3037dc:	83 c4 10             	add    $0x10,%esp
  3037df:	83 ec 0c             	sub    $0xc,%esp
  3037e2:	6a 00                	push   $0x0
  3037e4:	ff 75 cc             	push   -0x34(%ebp)
  3037e7:	ff 75 c8             	push   -0x38(%ebp)
  3037ea:	ff 75 0c             	push   0xc(%ebp)
  3037ed:	8d 45 94             	lea    -0x6c(%ebp),%eax
  3037f0:	50                   	push   %eax
  3037f1:	e8 77 fc ff ff       	call   30346d <__format_add_hex>
  3037f6:	83 c4 20             	add    $0x20,%esp
  3037f9:	eb 40                	jmp    30383b <__vsnprintf+0x39f>
  3037fb:	80 7d d7 2f          	cmpb   $0x2f,-0x29(%ebp)
  3037ff:	7e 06                	jle    303807 <__vsnprintf+0x36b>
  303801:	80 7d d7 39          	cmpb   $0x39,-0x29(%ebp)
  303805:	7e 73                	jle    30387a <__vsnprintf+0x3de>
  303807:	80 7d d7 25          	cmpb   $0x25,-0x29(%ebp)
  30380b:	75 19                	jne    303826 <__vsnprintf+0x38a>
  30380d:	0f be 45 d7          	movsbl -0x29(%ebp),%eax
  303811:	83 ec 04             	sub    $0x4,%esp
  303814:	50                   	push   %eax
  303815:	ff 75 0c             	push   0xc(%ebp)
  303818:	8d 45 94             	lea    -0x6c(%ebp),%eax
  30381b:	50                   	push   %eax
  30381c:	e8 4c f8 ff ff       	call   30306d <__buf_add>
  303821:	83 c4 10             	add    $0x10,%esp
  303824:	eb 15                	jmp    30383b <__vsnprintf+0x39f>
  303826:	0f be 45 d7          	movsbl -0x29(%ebp),%eax
  30382a:	83 ec 08             	sub    $0x8,%esp
  30382d:	50                   	push   %eax
  30382e:	68 5f 52 30 00       	push   $0x30525f
  303833:	e8 70 f8 ff ff       	call   3030a8 <panic>
  303838:	83 c4 10             	add    $0x10,%esp
  30383b:	c7 45 f0 00 00 00 00 	movl   $0x0,-0x10(%ebp)
  303842:	c7 45 ec 00 00 00 00 	movl   $0x0,-0x14(%ebp)
  303849:	eb 30                	jmp    30387b <__vsnprintf+0x3df>
  30384b:	80 7d d7 25          	cmpb   $0x25,-0x29(%ebp)
  30384f:	75 10                	jne    303861 <__vsnprintf+0x3c5>
  303851:	c7 45 f0 01 00 00 00 	movl   $0x1,-0x10(%ebp)
  303858:	c7 45 f4 04 00 00 00 	movl   $0x4,-0xc(%ebp)
  30385f:	eb 1a                	jmp    30387b <__vsnprintf+0x3df>
  303861:	0f be 45 d7          	movsbl -0x29(%ebp),%eax
  303865:	83 ec 04             	sub    $0x4,%esp
  303868:	50                   	push   %eax
  303869:	ff 75 0c             	push   0xc(%ebp)
  30386c:	8d 45 94             	lea    -0x6c(%ebp),%eax
  30386f:	50                   	push   %eax
  303870:	e8 f8 f7 ff ff       	call   30306d <__buf_add>
  303875:	83 c4 10             	add    $0x10,%esp
  303878:	eb 01                	jmp    30387b <__vsnprintf+0x3df>
  30387a:	90                   	nop
  30387b:	8b 45 10             	mov    0x10(%ebp),%eax
  30387e:	0f b6 00             	movzbl (%eax),%eax
  303881:	84 c0                	test   %al,%al
  303883:	0f 85 4e fc ff ff    	jne    3034d7 <__vsnprintf+0x3b>
  303889:	8b 4d 94             	mov    -0x6c(%ebp),%ecx
  30388c:	8b 45 9c             	mov    -0x64(%ebp),%eax
  30388f:	8d 50 01             	lea    0x1(%eax),%edx
  303892:	89 55 9c             	mov    %edx,-0x64(%ebp)
  303895:	01 c8                	add    %ecx,%eax
  303897:	c6 00 00             	movb   $0x0,(%eax)
  30389a:	8b 45 9c             	mov    -0x64(%ebp),%eax
  30389d:	c9                   	leave
  30389e:	c3                   	ret

0030389f <__uart_flush_recv>:
  30389f:	55                   	push   %ebp
  3038a0:	89 e5                	mov    %esp,%ebp
  3038a2:	83 ec 14             	sub    $0x14,%esp
  3038a5:	8b 45 08             	mov    0x8(%ebp),%eax
  3038a8:	66 89 45 ec          	mov    %ax,-0x14(%ebp)
  3038ac:	eb 0a                	jmp    3038b8 <__uart_flush_recv+0x19>
  3038ae:	0f b7 45 ec          	movzwl -0x14(%ebp),%eax
  3038b2:	89 c2                	mov    %eax,%edx
  3038b4:	ec                   	in     (%dx),%al
  3038b5:	88 45 fe             	mov    %al,-0x2(%ebp)
  3038b8:	0f b7 45 ec          	movzwl -0x14(%ebp),%eax
  3038bc:	83 c0 05             	add    $0x5,%eax
  3038bf:	89 c2                	mov    %eax,%edx
  3038c1:	ec                   	in     (%dx),%al
  3038c2:	88 45 ff             	mov    %al,-0x1(%ebp)
  3038c5:	0f b6 45 ff          	movzbl -0x1(%ebp),%eax
  3038c9:	0f b6 c0             	movzbl %al,%eax
  3038cc:	83 e0 01             	and    $0x1,%eax
  3038cf:	85 c0                	test   %eax,%eax
  3038d1:	75 db                	jne    3038ae <__uart_flush_recv+0xf>
  3038d3:	90                   	nop
  3038d4:	90                   	nop
  3038d5:	c9                   	leave
  3038d6:	c3                   	ret

003038d7 <__uart_fifo_init>:
  3038d7:	55                   	push   %ebp
  3038d8:	89 e5                	mov    %esp,%ebp
  3038da:	83 ec 14             	sub    $0x14,%esp
  3038dd:	8b 45 08             	mov    0x8(%ebp),%eax
  3038e0:	66 89 45 ec          	mov    %ax,-0x14(%ebp)
  3038e4:	0f b7 45 ec          	movzwl -0x14(%ebp),%eax
  3038e8:	8d 50 03             	lea    0x3(%eax),%edx
  3038eb:	b8 bf 00 00 00       	mov    $0xbf,%eax
  3038f0:	ee                   	out    %al,(%dx)
  3038f1:	c6 45 fe 00          	movb   $0x0,-0x2(%ebp)
  3038f5:	0f b6 45 fe          	movzbl -0x2(%ebp),%eax
  3038f9:	83 c8 10             	or     $0x10,%eax
  3038fc:	88 45 fe             	mov    %al,-0x2(%ebp)
  3038ff:	0f b6 45 fe          	movzbl -0x2(%ebp),%eax
  303903:	0f b7 55 ec          	movzwl -0x14(%ebp),%edx
  303907:	83 c2 02             	add    $0x2,%edx
  30390a:	ee                   	out    %al,(%dx)
  30390b:	0f b6 45 ff          	movzbl -0x1(%ebp),%eax
  30390f:	83 e0 fe             	and    $0xfffffffe,%eax
  303912:	88 45 ff             	mov    %al,-0x1(%ebp)
  303915:	0f b6 45 ff          	movzbl -0x1(%ebp),%eax
  303919:	83 e0 f7             	and    $0xfffffff7,%eax
  30391c:	88 45 ff             	mov    %al,-0x1(%ebp)
  30391f:	0f b6 45 ff          	movzbl -0x1(%ebp),%eax
  303923:	0f b7 55 ec          	movzwl -0x14(%ebp),%edx
  303927:	83 c2 02             	add    $0x2,%edx
  30392a:	ee                   	out    %al,(%dx)
  30392b:	0f b7 45 ec          	movzwl -0x14(%ebp),%eax
  30392f:	8d 50 03             	lea    0x3(%eax),%edx
  303932:	b8 00 00 00 00       	mov    $0x0,%eax
  303937:	ee                   	out    %al,(%dx)
  303938:	c6 45 fe 00          	movb   $0x0,-0x2(%ebp)
  30393c:	0f b6 45 fe          	movzbl -0x2(%ebp),%eax
  303940:	83 c8 40             	or     $0x40,%eax
  303943:	88 45 fe             	mov    %al,-0x2(%ebp)
  303946:	0f b6 45 fe          	movzbl -0x2(%ebp),%eax
  30394a:	83 c8 80             	or     $0xffffff80,%eax
  30394d:	88 45 fe             	mov    %al,-0x2(%ebp)
  303950:	0f b6 45 fe          	movzbl -0x2(%ebp),%eax
  303954:	0f b7 55 ec          	movzwl -0x14(%ebp),%edx
  303958:	83 c2 02             	add    $0x2,%edx
  30395b:	ee                   	out    %al,(%dx)
  30395c:	90                   	nop
  30395d:	c9                   	leave
  30395e:	c3                   	ret

0030395f <__uart_common_init>:
  30395f:	55                   	push   %ebp
  303960:	89 e5                	mov    %esp,%ebp
  303962:	83 ec 14             	sub    $0x14,%esp
  303965:	8b 45 08             	mov    0x8(%ebp),%eax
  303968:	66 89 45 ec          	mov    %ax,-0x14(%ebp)
  30396c:	0f b7 45 ec          	movzwl -0x14(%ebp),%eax
  303970:	8d 50 03             	lea    0x3(%eax),%edx
  303973:	b8 80 00 00 00       	mov    $0x80,%eax
  303978:	ee                   	out    %al,(%dx)
  303979:	b8 01 00 00 00       	mov    $0x1,%eax
  30397e:	0f b7 55 ec          	movzwl -0x14(%ebp),%edx
  303982:	ee                   	out    %al,(%dx)
  303983:	0f b7 45 ec          	movzwl -0x14(%ebp),%eax
  303987:	8d 50 01             	lea    0x1(%eax),%edx
  30398a:	b8 00 00 00 00       	mov    $0x0,%eax
  30398f:	ee                   	out    %al,(%dx)
  303990:	c6 45 fe 00          	movb   $0x0,-0x2(%ebp)
  303994:	0f b6 45 fe          	movzbl -0x2(%ebp),%eax
  303998:	83 c8 03             	or     $0x3,%eax
  30399b:	88 45 fe             	mov    %al,-0x2(%ebp)
  30399e:	0f b6 45 fe          	movzbl -0x2(%ebp),%eax
  3039a2:	0f b7 55 ec          	movzwl -0x14(%ebp),%edx
  3039a6:	83 c2 03             	add    $0x3,%edx
  3039a9:	ee                   	out    %al,(%dx)
  3039aa:	c6 45 ff 00          	movb   $0x0,-0x1(%ebp)
  3039ae:	0f b6 45 ff          	movzbl -0x1(%ebp),%eax
  3039b2:	0f b7 55 ec          	movzwl -0x14(%ebp),%edx
  3039b6:	83 c2 01             	add    $0x1,%edx
  3039b9:	ee                   	out    %al,(%dx)
  3039ba:	0f b7 45 ec          	movzwl -0x14(%ebp),%eax
  3039be:	50                   	push   %eax
  3039bf:	e8 db fe ff ff       	call   30389f <__uart_flush_recv>
  3039c4:	83 c4 04             	add    $0x4,%esp
  3039c7:	90                   	nop
  3039c8:	c9                   	leave
  3039c9:	c3                   	ret

003039ca <uart_init>:
  3039ca:	55                   	push   %ebp
  3039cb:	89 e5                	mov    %esp,%ebp
  3039cd:	68 f8 03 00 00       	push   $0x3f8
  3039d2:	e8 00 ff ff ff       	call   3038d7 <__uart_fifo_init>
  3039d7:	83 c4 04             	add    $0x4,%esp
  3039da:	68 f8 03 00 00       	push   $0x3f8
  3039df:	e8 7b ff ff ff       	call   30395f <__uart_common_init>
  3039e4:	83 c4 04             	add    $0x4,%esp
  3039e7:	90                   	nop
  3039e8:	c9                   	leave
  3039e9:	c3                   	ret

003039ea <__uart_read>:
  3039ea:	55                   	push   %ebp
  3039eb:	89 e5                	mov    %esp,%ebp
  3039ed:	83 ec 14             	sub    $0x14,%esp
  3039f0:	8b 45 08             	mov    0x8(%ebp),%eax
  3039f3:	66 89 45 ec          	mov    %ax,-0x14(%ebp)
  3039f7:	eb 2c                	jmp    303a25 <__uart_read+0x3b>
  3039f9:	0f b7 45 ec          	movzwl -0x14(%ebp),%eax
  3039fd:	89 c2                	mov    %eax,%edx
  3039ff:	ec                   	in     (%dx),%al
  303a00:	88 45 fe             	mov    %al,-0x2(%ebp)
  303a03:	0f b6 45 fe          	movzbl -0x2(%ebp),%eax
  303a07:	8b 55 0c             	mov    0xc(%ebp),%edx
  303a0a:	8b 0a                	mov    (%edx),%ecx
  303a0c:	8b 55 0c             	mov    0xc(%ebp),%edx
  303a0f:	8b 52 08             	mov    0x8(%edx),%edx
  303a12:	01 ca                	add    %ecx,%edx
  303a14:	88 02                	mov    %al,(%edx)
  303a16:	8b 45 0c             	mov    0xc(%ebp),%eax
  303a19:	8b 40 08             	mov    0x8(%eax),%eax
  303a1c:	8d 50 01             	lea    0x1(%eax),%edx
  303a1f:	8b 45 0c             	mov    0xc(%ebp),%eax
  303a22:	89 50 08             	mov    %edx,0x8(%eax)
  303a25:	0f b7 45 ec          	movzwl -0x14(%ebp),%eax
  303a29:	83 c0 05             	add    $0x5,%eax
  303a2c:	89 c2                	mov    %eax,%edx
  303a2e:	ec                   	in     (%dx),%al
  303a2f:	88 45 ff             	mov    %al,-0x1(%ebp)
  303a32:	0f b6 45 ff          	movzbl -0x1(%ebp),%eax
  303a36:	0f b6 c0             	movzbl %al,%eax
  303a39:	83 e0 01             	and    $0x1,%eax
  303a3c:	85 c0                	test   %eax,%eax
  303a3e:	74 0b                	je     303a4b <__uart_read+0x61>
  303a40:	8b 45 0c             	mov    0xc(%ebp),%eax
  303a43:	8b 40 08             	mov    0x8(%eax),%eax
  303a46:	3b 45 10             	cmp    0x10(%ebp),%eax
  303a49:	72 ae                	jb     3039f9 <__uart_read+0xf>
  303a4b:	90                   	nop
  303a4c:	c9                   	leave
  303a4d:	c3                   	ret

00303a4e <__uart_write>:
  303a4e:	55                   	push   %ebp
  303a4f:	89 e5                	mov    %esp,%ebp
  303a51:	83 ec 14             	sub    $0x14,%esp
  303a54:	8b 45 08             	mov    0x8(%ebp),%eax
  303a57:	66 89 45 ec          	mov    %ax,-0x14(%ebp)
  303a5b:	eb 3f                	jmp    303a9c <__uart_write+0x4e>
  303a5d:	0f b7 45 ec          	movzwl -0x14(%ebp),%eax
  303a61:	83 c0 05             	add    $0x5,%eax
  303a64:	89 c2                	mov    %eax,%edx
  303a66:	ec                   	in     (%dx),%al
  303a67:	88 45 ff             	mov    %al,-0x1(%ebp)
  303a6a:	0f b6 45 ff          	movzbl -0x1(%ebp),%eax
  303a6e:	0f b6 c0             	movzbl %al,%eax
  303a71:	83 e0 20             	and    $0x20,%eax
  303a74:	85 c0                	test   %eax,%eax
  303a76:	74 24                	je     303a9c <__uart_write+0x4e>
  303a78:	8b 45 0c             	mov    0xc(%ebp),%eax
  303a7b:	8b 10                	mov    (%eax),%edx
  303a7d:	8b 45 0c             	mov    0xc(%ebp),%eax
  303a80:	8b 40 08             	mov    0x8(%eax),%eax
  303a83:	01 d0                	add    %edx,%eax
  303a85:	0f b6 00             	movzbl (%eax),%eax
  303a88:	0f b7 55 ec          	movzwl -0x14(%ebp),%edx
  303a8c:	ee                   	out    %al,(%dx)
  303a8d:	8b 45 0c             	mov    0xc(%ebp),%eax
  303a90:	8b 40 08             	mov    0x8(%eax),%eax
  303a93:	8d 50 01             	lea    0x1(%eax),%edx
  303a96:	8b 45 0c             	mov    0xc(%ebp),%eax
  303a99:	89 50 08             	mov    %edx,0x8(%eax)
  303a9c:	8b 45 0c             	mov    0xc(%ebp),%eax
  303a9f:	8b 40 08             	mov    0x8(%eax),%eax
  303aa2:	3b 45 10             	cmp    0x10(%ebp),%eax
  303aa5:	72 b6                	jb     303a5d <__uart_write+0xf>
  303aa7:	90                   	nop
  303aa8:	90                   	nop
  303aa9:	c9                   	leave
  303aaa:	c3                   	ret

00303aab <uart_read>:
  303aab:	55                   	push   %ebp
  303aac:	89 e5                	mov    %esp,%ebp
  303aae:	83 ec 10             	sub    $0x10,%esp
  303ab1:	8b 45 08             	mov    0x8(%ebp),%eax
  303ab4:	89 45 f4             	mov    %eax,-0xc(%ebp)
  303ab7:	c7 45 fc 00 00 00 00 	movl   $0x0,-0x4(%ebp)
  303abe:	ff 75 0c             	push   0xc(%ebp)
  303ac1:	8d 45 f4             	lea    -0xc(%ebp),%eax
  303ac4:	50                   	push   %eax
  303ac5:	68 f8 03 00 00       	push   $0x3f8
  303aca:	e8 1b ff ff ff       	call   3039ea <__uart_read>
  303acf:	83 c4 0c             	add    $0xc,%esp
  303ad2:	8b 45 fc             	mov    -0x4(%ebp),%eax
  303ad5:	c9                   	leave
  303ad6:	c3                   	ret

00303ad7 <uart_write>:
  303ad7:	55                   	push   %ebp
  303ad8:	89 e5                	mov    %esp,%ebp
  303ada:	83 ec 10             	sub    $0x10,%esp
  303add:	8b 45 08             	mov    0x8(%ebp),%eax
  303ae0:	89 45 f4             	mov    %eax,-0xc(%ebp)
  303ae3:	c7 45 fc 00 00 00 00 	movl   $0x0,-0x4(%ebp)
  303aea:	ff 75 0c             	push   0xc(%ebp)
  303aed:	8d 45 f4             	lea    -0xc(%ebp),%eax
  303af0:	50                   	push   %eax
  303af1:	68 f8 03 00 00       	push   $0x3f8
  303af6:	e8 53 ff ff ff       	call   303a4e <__uart_write>
  303afb:	83 c4 0c             	add    $0xc,%esp
  303afe:	8b 45 fc             	mov    -0x4(%ebp),%eax
  303b01:	c9                   	leave
  303b02:	c3                   	ret

00303b03 <uart_flush>:
  303b03:	55                   	push   %ebp
  303b04:	89 e5                	mov    %esp,%ebp
  303b06:	83 ec 10             	sub    $0x10,%esp
  303b09:	c7 45 fc 10 00 00 00 	movl   $0x10,-0x4(%ebp)
  303b10:	eb 28                	jmp    303b3a <uart_flush+0x37>
  303b12:	b8 fd 03 00 00       	mov    $0x3fd,%eax
  303b17:	89 c2                	mov    %eax,%edx
  303b19:	ec                   	in     (%dx),%al
  303b1a:	88 45 fb             	mov    %al,-0x5(%ebp)
  303b1d:	0f b6 45 fb          	movzbl -0x5(%ebp),%eax
  303b21:	0f b6 c0             	movzbl %al,%eax
  303b24:	83 e0 20             	and    $0x20,%eax
  303b27:	85 c0                	test   %eax,%eax
  303b29:	74 0f                	je     303b3a <uart_flush+0x37>
  303b2b:	b8 00 00 00 00       	mov    $0x0,%eax
  303b30:	ba f8 03 00 00       	mov    $0x3f8,%edx
  303b35:	ee                   	out    %al,(%dx)
  303b36:	83 6d fc 01          	subl   $0x1,-0x4(%ebp)
  303b3a:	83 7d fc 00          	cmpl   $0x0,-0x4(%ebp)
  303b3e:	75 d2                	jne    303b12 <uart_flush+0xf>
  303b40:	90                   	nop
  303b41:	90                   	nop
  303b42:	c9                   	leave
  303b43:	c3                   	ret

00303b44 <pic_init>:
  303b44:	55                   	push   %ebp
  303b45:	89 e5                	mov    %esp,%ebp
  303b47:	83 ec 10             	sub    $0x10,%esp
  303b4a:	c6 45 ff 11          	movb   $0x11,-0x1(%ebp)
  303b4e:	0f b6 45 ff          	movzbl -0x1(%ebp),%eax
  303b52:	ba 20 00 00 00       	mov    $0x20,%edx
  303b57:	ee                   	out    %al,(%dx)
  303b58:	0f b6 45 ff          	movzbl -0x1(%ebp),%eax
  303b5c:	ba a0 00 00 00       	mov    $0xa0,%edx
  303b61:	ee                   	out    %al,(%dx)
  303b62:	c6 45 fe 20          	movb   $0x20,-0x2(%ebp)
  303b66:	0f b6 45 fe          	movzbl -0x2(%ebp),%eax
  303b6a:	ba 21 00 00 00       	mov    $0x21,%edx
  303b6f:	ee                   	out    %al,(%dx)
  303b70:	c6 45 fe 28          	movb   $0x28,-0x2(%ebp)
  303b74:	0f b6 45 fe          	movzbl -0x2(%ebp),%eax
  303b78:	ba a1 00 00 00       	mov    $0xa1,%edx
  303b7d:	ee                   	out    %al,(%dx)
  303b7e:	c6 45 fd 00          	movb   $0x0,-0x3(%ebp)
  303b82:	0f b6 45 fd          	movzbl -0x3(%ebp),%eax
  303b86:	83 c8 04             	or     $0x4,%eax
  303b89:	88 45 fd             	mov    %al,-0x3(%ebp)
  303b8c:	0f b6 45 fd          	movzbl -0x3(%ebp),%eax
  303b90:	ba 21 00 00 00       	mov    $0x21,%edx
  303b95:	ee                   	out    %al,(%dx)
  303b96:	c6 45 fd 00          	movb   $0x0,-0x3(%ebp)
  303b9a:	0f b6 45 fd          	movzbl -0x3(%ebp),%eax
  303b9e:	83 e0 f8             	and    $0xfffffff8,%eax
  303ba1:	83 c8 02             	or     $0x2,%eax
  303ba4:	88 45 fd             	mov    %al,-0x3(%ebp)
  303ba7:	0f b6 45 fd          	movzbl -0x3(%ebp),%eax
  303bab:	ba a1 00 00 00       	mov    $0xa1,%edx
  303bb0:	ee                   	out    %al,(%dx)
  303bb1:	c6 45 fc 01          	movb   $0x1,-0x4(%ebp)
  303bb5:	0f b6 45 fc          	movzbl -0x4(%ebp),%eax
  303bb9:	ba 21 00 00 00       	mov    $0x21,%edx
  303bbe:	ee                   	out    %al,(%dx)
  303bbf:	0f b6 45 fc          	movzbl -0x4(%ebp),%eax
  303bc3:	ba a1 00 00 00       	mov    $0xa1,%edx
  303bc8:	ee                   	out    %al,(%dx)
  303bc9:	90                   	nop
  303bca:	c9                   	leave
  303bcb:	c3                   	ret

00303bcc <intr_init>:
  303bcc:	55                   	push   %ebp
  303bcd:	89 e5                	mov    %esp,%ebp
  303bcf:	83 ec 20             	sub    $0x20,%esp
  303bd2:	c7 45 fc 10 20 30 00 	movl   $0x302010,-0x4(%ebp)
  303bd9:	c7 45 f8 00 00 00 00 	movl   $0x0,-0x8(%ebp)
  303be0:	e9 8d 00 00 00       	jmp    303c72 <intr_init+0xa6>
  303be5:	8b 45 fc             	mov    -0x4(%ebp),%eax
  303be8:	89 45 ee             	mov    %eax,-0x12(%ebp)
  303beb:	0f b7 4d ee          	movzwl -0x12(%ebp),%ecx
  303bef:	0f b7 c1             	movzwl %cx,%eax
  303bf2:	ba 00 00 00 00       	mov    $0x0,%edx
  303bf7:	8b 4d f8             	mov    -0x8(%ebp),%ecx
  303bfa:	89 04 cd a0 5b 30 00 	mov    %eax,0x305ba0(,%ecx,8)
  303c01:	89 14 cd a4 5b 30 00 	mov    %edx,0x305ba4(,%ecx,8)
  303c08:	8b 45 f8             	mov    -0x8(%ebp),%eax
  303c0b:	0f b7 14 c5 a2 5b 30 	movzwl 0x305ba2(,%eax,8),%edx
  303c12:	00 
  303c13:	83 e2 00             	and    $0x0,%edx
  303c16:	83 ca 08             	or     $0x8,%edx
  303c19:	66 89 14 c5 a2 5b 30 	mov    %dx,0x305ba2(,%eax,8)
  303c20:	00 
  303c21:	8b 45 f8             	mov    -0x8(%ebp),%eax
  303c24:	0f b6 14 c5 a5 5b 30 	movzbl 0x305ba5(,%eax,8),%edx
  303c2b:	00 
  303c2c:	83 e2 f0             	and    $0xfffffff0,%edx
  303c2f:	83 ca 0e             	or     $0xe,%edx
  303c32:	88 14 c5 a5 5b 30 00 	mov    %dl,0x305ba5(,%eax,8)
  303c39:	0f b7 4d f0          	movzwl -0x10(%ebp),%ecx
  303c3d:	8b 45 f8             	mov    -0x8(%ebp),%eax
  303c40:	0f b7 14 c5 a6 5b 30 	movzwl 0x305ba6(,%eax,8),%edx
  303c47:	00 
  303c48:	83 e2 00             	and    $0x0,%edx
  303c4b:	09 ca                	or     %ecx,%edx
  303c4d:	66 89 14 c5 a6 5b 30 	mov    %dx,0x305ba6(,%eax,8)
  303c54:	00 
  303c55:	8b 45 f8             	mov    -0x8(%ebp),%eax
  303c58:	0f b6 14 c5 a5 5b 30 	movzbl 0x305ba5(,%eax,8),%edx
  303c5f:	00 
  303c60:	83 ca 80             	or     $0xffffff80,%edx
  303c63:	88 14 c5 a5 5b 30 00 	mov    %dl,0x305ba5(,%eax,8)
  303c6a:	83 45 f8 01          	addl   $0x1,-0x8(%ebp)
  303c6e:	83 45 fc 10          	addl   $0x10,-0x4(%ebp)
  303c72:	81 7d f8 ff 00 00 00 	cmpl   $0xff,-0x8(%ebp)
  303c79:	0f 86 66 ff ff ff    	jbe    303be5 <intr_init+0x19>
  303c7f:	c7 45 f4 a0 5b 30 00 	movl   $0x305ba0,-0xc(%ebp)
  303c86:	66 c7 45 f2 ff 07    	movw   $0x7ff,-0xe(%ebp)
  303c8c:	0f 01 5d f2          	lidtl  -0xe(%ebp)
  303c90:	90                   	nop
  303c91:	c9                   	leave
  303c92:	c3                   	ret

00303c93 <intr_hdlr>:
  303c93:	55                   	push   %ebp
  303c94:	89 e5                	mov    %esp,%ebp
  303c96:	57                   	push   %edi
  303c97:	56                   	push   %esi
  303c98:	53                   	push   %ebx
  303c99:	83 ec 4c             	sub    $0x4c,%esp
  303c9c:	89 45 d4             	mov    %eax,-0x2c(%ebp)
  303c9f:	8b 45 d4             	mov    -0x2c(%ebp),%eax
  303ca2:	8b 38                	mov    (%eax),%edi
  303ca4:	8b 45 d4             	mov    -0x2c(%ebp),%eax
  303ca7:	8b 40 04             	mov    0x4(%eax),%eax
  303caa:	89 45 d0             	mov    %eax,-0x30(%ebp)
  303cad:	8b 45 d4             	mov    -0x2c(%ebp),%eax
  303cb0:	8b 50 08             	mov    0x8(%eax),%edx
  303cb3:	89 55 cc             	mov    %edx,-0x34(%ebp)
  303cb6:	8b 45 d4             	mov    -0x2c(%ebp),%eax
  303cb9:	8b 48 0c             	mov    0xc(%eax),%ecx
  303cbc:	89 4d c8             	mov    %ecx,-0x38(%ebp)
  303cbf:	8b 45 d4             	mov    -0x2c(%ebp),%eax
  303cc2:	8b 58 10             	mov    0x10(%eax),%ebx
  303cc5:	89 5d c4             	mov    %ebx,-0x3c(%ebp)
  303cc8:	8b 45 d4             	mov    -0x2c(%ebp),%eax
  303ccb:	8b 70 14             	mov    0x14(%eax),%esi
  303cce:	89 75 c0             	mov    %esi,-0x40(%ebp)
  303cd1:	8b 45 d4             	mov    -0x2c(%ebp),%eax
  303cd4:	8b 40 18             	mov    0x18(%eax),%eax
  303cd7:	89 45 bc             	mov    %eax,-0x44(%ebp)
  303cda:	8b 45 d4             	mov    -0x2c(%ebp),%eax
  303cdd:	8b 50 1c             	mov    0x1c(%eax),%edx
  303ce0:	89 55 b8             	mov    %edx,-0x48(%ebp)
  303ce3:	8b 45 d4             	mov    -0x2c(%ebp),%eax
  303ce6:	8b 48 30             	mov    0x30(%eax),%ecx
  303ce9:	89 4d b4             	mov    %ecx,-0x4c(%ebp)
  303cec:	8b 45 d4             	mov    -0x2c(%ebp),%eax
  303cef:	8b 58 34             	mov    0x34(%eax),%ebx
  303cf2:	89 5d b0             	mov    %ebx,-0x50(%ebp)
  303cf5:	8b 45 d4             	mov    -0x2c(%ebp),%eax
  303cf8:	8b 70 38             	mov    0x38(%eax),%esi
  303cfb:	8b 45 d4             	mov    -0x2c(%ebp),%eax
  303cfe:	8b 58 28             	mov    0x28(%eax),%ebx
  303d01:	8b 45 d4             	mov    -0x2c(%ebp),%eax
  303d04:	8b 48 2c             	mov    0x2c(%eax),%ecx
  303d07:	8b 45 d4             	mov    -0x2c(%ebp),%eax
  303d0a:	8b 50 24             	mov    0x24(%eax),%edx
  303d0d:	8b 45 d4             	mov    -0x2c(%ebp),%eax
  303d10:	8b 40 20             	mov    0x20(%eax),%eax
  303d13:	57                   	push   %edi
  303d14:	ff 75 d0             	push   -0x30(%ebp)
  303d17:	ff 75 cc             	push   -0x34(%ebp)
  303d1a:	ff 75 c8             	push   -0x38(%ebp)
  303d1d:	ff 75 c4             	push   -0x3c(%ebp)
  303d20:	ff 75 c0             	push   -0x40(%ebp)
  303d23:	ff 75 bc             	push   -0x44(%ebp)
  303d26:	ff 75 b8             	push   -0x48(%ebp)
  303d29:	ff 75 b4             	push   -0x4c(%ebp)
  303d2c:	ff 75 b0             	push   -0x50(%ebp)
  303d2f:	56                   	push   %esi
  303d30:	53                   	push   %ebx
  303d31:	51                   	push   %ecx
  303d32:	52                   	push   %edx
  303d33:	50                   	push   %eax
  303d34:	68 7c 52 30 00       	push   $0x30527c
  303d39:	e8 92 f3 ff ff       	call   3030d0 <printf>
  303d3e:	83 c4 40             	add    $0x40,%esp
  303d41:	8b 45 d4             	mov    -0x2c(%ebp),%eax
  303d44:	0f b6 40 20          	movzbl 0x20(%eax),%eax
  303d48:	88 45 e7             	mov    %al,-0x19(%ebp)
  303d4b:	80 7d e7 1f          	cmpb   $0x1f,-0x19(%ebp)
  303d4f:	77 0a                	ja     303d5b <intr_hdlr+0xc8>
  303d51:	8b 45 d4             	mov    -0x2c(%ebp),%eax
  303d54:	e8 3a 00 00 00       	call   303d93 <excp_hdlr>
  303d59:	eb 15                	jmp    303d70 <intr_hdlr+0xdd>
  303d5b:	0f b6 45 e7          	movzbl -0x19(%ebp),%eax
  303d5f:	83 ec 08             	sub    $0x8,%esp
  303d62:	50                   	push   %eax
  303d63:	68 5b 53 30 00       	push   $0x30535b
  303d68:	e8 63 f3 ff ff       	call   3030d0 <printf>
  303d6d:	83 c4 10             	add    $0x10,%esp
  303d70:	90                   	nop
  303d71:	8d 65 f4             	lea    -0xc(%ebp),%esp
  303d74:	5b                   	pop    %ebx
  303d75:	5e                   	pop    %esi
  303d76:	5f                   	pop    %edi
  303d77:	5d                   	pop    %ebp
  303d78:	c3                   	ret

00303d79 <ack_pic2>:
  303d79:	50                   	push   %eax
  303d7a:	b0 20                	mov    $0x20,%al
  303d7c:	e6 a0                	out    %al,$0xa0
  303d7e:	eb 03                	jmp    303d83 <eoi_pic1>

00303d80 <ack_pic1>:
  303d80:	50                   	push   %eax
  303d81:	b0 20                	mov    $0x20,%al

00303d83 <eoi_pic1>:
  303d83:	e6 20                	out    %al,$0x20
  303d85:	58                   	pop    %eax

00303d86 <idt_common>:
  303d86:	60                   	pusha
  303d87:	89 e0                	mov    %esp,%eax
  303d89:	e8 05 ff ff ff       	call   303c93 <intr_hdlr>

00303d8e <resume_from_intr>:
  303d8e:	61                   	popa
  303d8f:	83 c4 08             	add    $0x8,%esp
  303d92:	cf                   	iret

00303d93 <excp_hdlr>:
  303d93:	55                   	push   %ebp
  303d94:	89 e5                	mov    %esp,%ebp
  303d96:	56                   	push   %esi
  303d97:	53                   	push   %ebx
  303d98:	83 ec 20             	sub    $0x20,%esp
  303d9b:	89 45 e4             	mov    %eax,-0x1c(%ebp)
  303d9e:	8b 45 e4             	mov    -0x1c(%ebp),%eax
  303da1:	0f b6 40 20          	movzbl 0x20(%eax),%eax
  303da5:	0f b6 c0             	movzbl %al,%eax
  303da8:	8b 04 85 00 57 30 00 	mov    0x305700(,%eax,4),%eax
  303daf:	83 ec 08             	sub    $0x8,%esp
  303db2:	50                   	push   %eax
  303db3:	68 a5 54 30 00       	push   $0x3054a5
  303db8:	e8 13 f3 ff ff       	call   3030d0 <printf>
  303dbd:	83 c4 10             	add    $0x10,%esp
  303dc0:	8b 45 e4             	mov    -0x1c(%ebp),%eax
  303dc3:	0f b6 40 20          	movzbl 0x20(%eax),%eax
  303dc7:	0f b6 c0             	movzbl %al,%eax
  303dca:	83 f8 0e             	cmp    $0xe,%eax
  303dcd:	74 2d                	je     303dfc <excp_hdlr+0x69>
  303dcf:	83 f8 0e             	cmp    $0xe,%eax
  303dd2:	0f 8f da 00 00 00    	jg     303eb2 <excp_hdlr+0x11f>
  303dd8:	83 f8 02             	cmp    $0x2,%eax
  303ddb:	74 0a                	je     303de7 <excp_hdlr+0x54>
  303ddd:	83 f8 0d             	cmp    $0xd,%eax
  303de0:	74 76                	je     303e58 <excp_hdlr+0xc5>
  303de2:	e9 cb 00 00 00       	jmp    303eb2 <excp_hdlr+0x11f>
  303de7:	83 ec 0c             	sub    $0xc,%esp
  303dea:	68 b5 54 30 00       	push   $0x3054b5
  303def:	e8 dc f2 ff ff       	call   3030d0 <printf>
  303df4:	83 c4 10             	add    $0x10,%esp
  303df7:	e9 26 01 00 00       	jmp    303f22 <excp_hdlr+0x18f>
  303dfc:	0f 20 d0             	mov    %cr2,%eax
  303dff:	89 45 f4             	mov    %eax,-0xc(%ebp)
  303e02:	8b 75 f4             	mov    -0xc(%ebp),%esi
  303e05:	8b 45 e4             	mov    -0x1c(%ebp),%eax
  303e08:	0f b6 40 24          	movzbl 0x24(%eax),%eax
  303e0c:	c0 e8 04             	shr    $0x4,%al
  303e0f:	83 e0 01             	and    $0x1,%eax
  303e12:	0f b6 d8             	movzbl %al,%ebx
  303e15:	8b 45 e4             	mov    -0x1c(%ebp),%eax
  303e18:	0f b6 40 24          	movzbl 0x24(%eax),%eax
  303e1c:	c0 e8 02             	shr    $0x2,%al
  303e1f:	83 e0 01             	and    $0x1,%eax
  303e22:	0f b6 c8             	movzbl %al,%ecx
  303e25:	8b 45 e4             	mov    -0x1c(%ebp),%eax
  303e28:	0f b6 40 24          	movzbl 0x24(%eax),%eax
  303e2c:	d0 e8                	shr    $1,%al
  303e2e:	83 e0 01             	and    $0x1,%eax
  303e31:	0f b6 d0             	movzbl %al,%edx
  303e34:	8b 45 e4             	mov    -0x1c(%ebp),%eax
  303e37:	0f b6 40 24          	movzbl 0x24(%eax),%eax
  303e3b:	83 e0 01             	and    $0x1,%eax
  303e3e:	0f b6 c0             	movzbl %al,%eax
  303e41:	83 ec 08             	sub    $0x8,%esp
  303e44:	56                   	push   %esi
  303e45:	53                   	push   %ebx
  303e46:	51                   	push   %ecx
  303e47:	52                   	push   %edx
  303e48:	50                   	push   %eax
  303e49:	68 c8 54 30 00       	push   $0x3054c8
  303e4e:	e8 7d f2 ff ff       	call   3030d0 <printf>
  303e53:	83 c4 20             	add    $0x20,%esp
  303e56:	eb 5a                	jmp    303eb2 <excp_hdlr+0x11f>
  303e58:	8b 45 e4             	mov    -0x1c(%ebp),%eax
  303e5b:	0f b6 50 24          	movzbl 0x24(%eax),%edx
  303e5f:	c0 ea 03             	shr    $0x3,%dl
  303e62:	0f b6 d2             	movzbl %dl,%edx
  303e65:	0f b6 40 25          	movzbl 0x25(%eax),%eax
  303e69:	c1 e0 05             	shl    $0x5,%eax
  303e6c:	09 d0                	or     %edx,%eax
  303e6e:	0f b7 d8             	movzwl %ax,%ebx
  303e71:	8b 45 e4             	mov    -0x1c(%ebp),%eax
  303e74:	0f b6 40 24          	movzbl 0x24(%eax),%eax
  303e78:	c0 e8 02             	shr    $0x2,%al
  303e7b:	83 e0 01             	and    $0x1,%eax
  303e7e:	0f b6 c8             	movzbl %al,%ecx
  303e81:	8b 45 e4             	mov    -0x1c(%ebp),%eax
  303e84:	0f b6 40 24          	movzbl 0x24(%eax),%eax
  303e88:	d0 e8                	shr    $1,%al
  303e8a:	83 e0 01             	and    $0x1,%eax
  303e8d:	0f b6 d0             	movzbl %al,%edx
  303e90:	8b 45 e4             	mov    -0x1c(%ebp),%eax
  303e93:	0f b6 40 24          	movzbl 0x24(%eax),%eax
  303e97:	83 e0 01             	and    $0x1,%eax
  303e9a:	0f b6 c0             	movzbl %al,%eax
  303e9d:	83 ec 0c             	sub    $0xc,%esp
  303ea0:	53                   	push   %ebx
  303ea1:	51                   	push   %ecx
  303ea2:	52                   	push   %edx
  303ea3:	50                   	push   %eax
  303ea4:	68 f8 54 30 00       	push   $0x3054f8
  303ea9:	e8 22 f2 ff ff       	call   3030d0 <printf>
  303eae:	83 c4 20             	add    $0x20,%esp
  303eb1:	90                   	nop
  303eb2:	0f 20 c0             	mov    %cr0,%eax
  303eb5:	89 45 f0             	mov    %eax,-0x10(%ebp)
  303eb8:	8b 45 f0             	mov    -0x10(%ebp),%eax
  303ebb:	83 ec 08             	sub    $0x8,%esp
  303ebe:	50                   	push   %eax
  303ebf:	68 23 55 30 00       	push   $0x305523
  303ec4:	e8 07 f2 ff ff       	call   3030d0 <printf>
  303ec9:	83 c4 10             	add    $0x10,%esp
  303ecc:	0f 20 d8             	mov    %cr3,%eax
  303ecf:	89 45 ec             	mov    %eax,-0x14(%ebp)
  303ed2:	8b 45 ec             	mov    -0x14(%ebp),%eax
  303ed5:	83 ec 08             	sub    $0x8,%esp
  303ed8:	50                   	push   %eax
  303ed9:	68 2d 55 30 00       	push   $0x30552d
  303ede:	e8 ed f1 ff ff       	call   3030d0 <printf>
  303ee3:	83 c4 10             	add    $0x10,%esp
  303ee6:	0f 20 e0             	mov    %cr4,%eax
  303ee9:	89 45 e8             	mov    %eax,-0x18(%ebp)
  303eec:	8b 45 e8             	mov    -0x18(%ebp),%eax
  303eef:	83 ec 08             	sub    $0x8,%esp
  303ef2:	50                   	push   %eax
  303ef3:	68 37 55 30 00       	push   $0x305537
  303ef8:	e8 d3 f1 ff ff       	call   3030d0 <printf>
  303efd:	83 c4 10             	add    $0x10,%esp
  303f00:	8b 45 e4             	mov    -0x1c(%ebp),%eax
  303f03:	8b 40 08             	mov    0x8(%eax),%eax
  303f06:	83 ec 0c             	sub    $0xc,%esp
  303f09:	50                   	push   %eax
  303f0a:	e8 1a 00 00 00       	call   303f29 <stack_trace>
  303f0f:	83 c4 10             	add    $0x10,%esp
  303f12:	83 ec 0c             	sub    $0xc,%esp
  303f15:	68 41 55 30 00       	push   $0x305541
  303f1a:	e8 89 f1 ff ff       	call   3030a8 <panic>
  303f1f:	83 c4 10             	add    $0x10,%esp
  303f22:	8d 65 f8             	lea    -0x8(%ebp),%esp
  303f25:	5b                   	pop    %ebx
  303f26:	5e                   	pop    %esi
  303f27:	5d                   	pop    %ebp
  303f28:	c3                   	ret

00303f29 <stack_trace>:
  303f29:	55                   	push   %ebp
  303f2a:	89 e5                	mov    %esp,%ebp
  303f2c:	83 ec 18             	sub    $0x18,%esp
  303f2f:	83 ec 0c             	sub    $0xc,%esp
  303f32:	68 54 55 30 00       	push   $0x305554
  303f37:	e8 94 f1 ff ff       	call   3030d0 <printf>
  303f3c:	83 c4 10             	add    $0x10,%esp
  303f3f:	8b 45 08             	mov    0x8(%ebp),%eax
  303f42:	89 45 f4             	mov    %eax,-0xc(%ebp)
  303f45:	eb 26                	jmp    303f6d <stack_trace+0x44>
  303f47:	8b 45 f4             	mov    -0xc(%ebp),%eax
  303f4a:	83 c0 04             	add    $0x4,%eax
  303f4d:	8b 00                	mov    (%eax),%eax
  303f4f:	89 45 f0             	mov    %eax,-0x10(%ebp)
  303f52:	8b 45 f4             	mov    -0xc(%ebp),%eax
  303f55:	8b 00                	mov    (%eax),%eax
  303f57:	89 45 f4             	mov    %eax,-0xc(%ebp)
  303f5a:	83 ec 08             	sub    $0x8,%esp
  303f5d:	ff 75 f0             	push   -0x10(%ebp)
  303f60:	68 68 55 30 00       	push   $0x305568
  303f65:	e8 66 f1 ff ff       	call   3030d0 <printf>
  303f6a:	83 c4 10             	add    $0x10,%esp
  303f6d:	83 7d f4 00          	cmpl   $0x0,-0xc(%ebp)
  303f71:	74 09                	je     303f7c <stack_trace+0x53>
  303f73:	81 7d f4 10 20 30 00 	cmpl   $0x302010,-0xc(%ebp)
  303f7a:	72 cb                	jb     303f47 <stack_trace+0x1e>
  303f7c:	90                   	nop
  303f7d:	c9                   	leave
  303f7e:	c3                   	ret

00303f7f <memset>:
  303f7f:	55                   	push   %ebp
  303f80:	89 e5                	mov    %esp,%ebp
  303f82:	57                   	push   %edi
  303f83:	83 ec 24             	sub    $0x24,%esp
  303f86:	8b 45 0c             	mov    0xc(%ebp),%eax
  303f89:	88 45 d8             	mov    %al,-0x28(%ebp)
  303f8c:	8b 45 08             	mov    0x8(%ebp),%eax
  303f8f:	89 45 e8             	mov    %eax,-0x18(%ebp)
  303f92:	83 7d 10 00          	cmpl   $0x0,0x10(%ebp)
  303f96:	75 05                	jne    303f9d <memset+0x1e>
  303f98:	8b 45 08             	mov    0x8(%ebp),%eax
  303f9b:	eb 7f                	jmp    30401c <memset+0x9d>
  303f9d:	8b 45 10             	mov    0x10(%ebp),%eax
  303fa0:	ba 00 00 00 00       	mov    $0x0,%edx
  303fa5:	b9 04 00 00 00       	mov    $0x4,%ecx
  303faa:	f7 f1                	div    %ecx
  303fac:	89 45 f8             	mov    %eax,-0x8(%ebp)
  303faf:	89 55 f4             	mov    %edx,-0xc(%ebp)
  303fb2:	83 7d f8 00          	cmpl   $0x0,-0x8(%ebp)
  303fb6:	74 44                	je     303ffc <memset+0x7d>
  303fb8:	0f b6 55 d8          	movzbl -0x28(%ebp),%edx
  303fbc:	89 d0                	mov    %edx,%eax
  303fbe:	c1 e0 08             	shl    $0x8,%eax
  303fc1:	01 d0                	add    %edx,%eax
  303fc3:	c1 e0 10             	shl    $0x10,%eax
  303fc6:	89 c1                	mov    %eax,%ecx
  303fc8:	0f b6 55 d8          	movzbl -0x28(%ebp),%edx
  303fcc:	89 d0                	mov    %edx,%eax
  303fce:	c1 e0 08             	shl    $0x8,%eax
  303fd1:	01 d0                	add    %edx,%eax
  303fd3:	09 c8                	or     %ecx,%eax
  303fd5:	89 45 f0             	mov    %eax,-0x10(%ebp)
  303fd8:	9c                   	pushf
  303fd9:	8f 45 e4             	pop    -0x1c(%ebp)
  303fdc:	fc                   	cld
  303fdd:	8b 55 e8             	mov    -0x18(%ebp),%edx
  303fe0:	8b 45 f0             	mov    -0x10(%ebp),%eax
  303fe3:	8b 4d f8             	mov    -0x8(%ebp),%ecx
  303fe6:	89 d7                	mov    %edx,%edi
  303fe8:	f3 ab                	rep stos %eax,%es:(%edi)
  303fea:	ff 75 e4             	push   -0x1c(%ebp)
  303fed:	9d                   	popf
  303fee:	8b 45 e8             	mov    -0x18(%ebp),%eax
  303ff1:	8b 55 f8             	mov    -0x8(%ebp),%edx
  303ff4:	c1 e2 02             	shl    $0x2,%edx
  303ff7:	01 d0                	add    %edx,%eax
  303ff9:	89 45 e8             	mov    %eax,-0x18(%ebp)
  303ffc:	83 7d f4 00          	cmpl   $0x0,-0xc(%ebp)
  304000:	74 17                	je     304019 <memset+0x9a>
  304002:	9c                   	pushf
  304003:	8f 45 e0             	pop    -0x20(%ebp)
  304006:	fc                   	cld
  304007:	8b 55 e8             	mov    -0x18(%ebp),%edx
  30400a:	0f b6 45 d8          	movzbl -0x28(%ebp),%eax
  30400e:	8b 4d f4             	mov    -0xc(%ebp),%ecx
  304011:	89 d7                	mov    %edx,%edi
  304013:	f3 aa                	rep stos %al,%es:(%edi)
  304015:	ff 75 e0             	push   -0x20(%ebp)
  304018:	9d                   	popf
  304019:	8b 45 08             	mov    0x8(%ebp),%eax
  30401c:	8b 7d fc             	mov    -0x4(%ebp),%edi
  30401f:	c9                   	leave
  304020:	c3                   	ret

00304021 <ring_0_to_ring_3_task>:
  304021:	55                   	push   %ebp
  304022:	89 e5                	mov    %esp,%ebp
  304024:	b8 23 00 00 00       	mov    $0x23,%eax
  304029:	8e d8                	mov    %eax,%ds
  30402b:	b8 23 00 00 00       	mov    $0x23,%eax
  304030:	8e c0                	mov    %eax,%es
  304032:	b8 23 00 00 00       	mov    $0x23,%eax
  304037:	8e e0                	mov    %eax,%fs
  304039:	b8 23 00 00 00       	mov    $0x23,%eax
  30403e:	8e e8                	mov    %eax,%gs
  304040:	8b 45 08             	mov    0x8(%ebp),%eax
  304043:	a3 e4 63 30 00       	mov    %eax,0x3063e4
  304048:	8b 45 0c             	mov    0xc(%ebp),%eax
  30404b:	0f 22 d8             	mov    %eax,%cr3
  30404e:	8b 45 10             	mov    0x10(%ebp),%eax
  304051:	6a 23                	push   $0x23
  304053:	ff 75 08             	push   0x8(%ebp)
  304056:	9c                   	pushf
  304057:	6a 1b                	push   $0x1b
  304059:	50                   	push   %eax
  30405a:	cf                   	iret
  30405b:	90                   	nop
  30405c:	5d                   	pop    %ebp
  30405d:	c3                   	ret

0030405e <clock_interrupt_isr>:
  30405e:	55                   	push   %ebp
  30405f:	89 e5                	mov    %esp,%ebp
  304061:	c9                   	leave
  304062:	60                   	pusha
  304063:	89 e0                	mov    %esp,%eax
  304065:	e8 05 00 00 00       	call   30406f <clock_interrupt_handler>
  30406a:	61                   	popa
  30406b:	cf                   	iret
  30406c:	90                   	nop
  30406d:	5d                   	pop    %ebp
  30406e:	c3                   	ret

0030406f <clock_interrupt_handler>:
  30406f:	55                   	push   %ebp
  304070:	89 e5                	mov    %esp,%ebp
  304072:	57                   	push   %edi
  304073:	56                   	push   %esi
  304074:	53                   	push   %ebx
  304075:	83 ec 4c             	sub    $0x4c,%esp
  304078:	89 45 d4             	mov    %eax,-0x2c(%ebp)
  30407b:	8b 45 d4             	mov    -0x2c(%ebp),%eax
  30407e:	8b 38                	mov    (%eax),%edi
  304080:	8b 45 d4             	mov    -0x2c(%ebp),%eax
  304083:	8b 40 04             	mov    0x4(%eax),%eax
  304086:	89 45 d0             	mov    %eax,-0x30(%ebp)
  304089:	8b 45 d4             	mov    -0x2c(%ebp),%eax
  30408c:	8b 48 08             	mov    0x8(%eax),%ecx
  30408f:	89 4d cc             	mov    %ecx,-0x34(%ebp)
  304092:	8b 45 d4             	mov    -0x2c(%ebp),%eax
  304095:	8b 58 0c             	mov    0xc(%eax),%ebx
  304098:	89 5d c8             	mov    %ebx,-0x38(%ebp)
  30409b:	8b 45 d4             	mov    -0x2c(%ebp),%eax
  30409e:	8b 70 10             	mov    0x10(%eax),%esi
  3040a1:	89 75 c4             	mov    %esi,-0x3c(%ebp)
  3040a4:	8b 45 d4             	mov    -0x2c(%ebp),%eax
  3040a7:	8b 50 14             	mov    0x14(%eax),%edx
  3040aa:	89 55 c0             	mov    %edx,-0x40(%ebp)
  3040ad:	8b 45 d4             	mov    -0x2c(%ebp),%eax
  3040b0:	8b 40 18             	mov    0x18(%eax),%eax
  3040b3:	89 45 bc             	mov    %eax,-0x44(%ebp)
  3040b6:	8b 45 d4             	mov    -0x2c(%ebp),%eax
  3040b9:	8b 48 1c             	mov    0x1c(%eax),%ecx
  3040bc:	89 4d b8             	mov    %ecx,-0x48(%ebp)
  3040bf:	8b 45 d4             	mov    -0x2c(%ebp),%eax
  3040c2:	8b 58 30             	mov    0x30(%eax),%ebx
  3040c5:	89 5d b4             	mov    %ebx,-0x4c(%ebp)
  3040c8:	8b 45 d4             	mov    -0x2c(%ebp),%eax
  3040cb:	8b 70 34             	mov    0x34(%eax),%esi
  3040ce:	89 75 b0             	mov    %esi,-0x50(%ebp)
  3040d1:	8b 45 d4             	mov    -0x2c(%ebp),%eax
  3040d4:	8b 70 38             	mov    0x38(%eax),%esi
  3040d7:	8b 45 d4             	mov    -0x2c(%ebp),%eax
  3040da:	8b 58 28             	mov    0x28(%eax),%ebx
  3040dd:	8b 45 d4             	mov    -0x2c(%ebp),%eax
  3040e0:	8b 48 2c             	mov    0x2c(%eax),%ecx
  3040e3:	8b 45 d4             	mov    -0x2c(%ebp),%eax
  3040e6:	8b 50 24             	mov    0x24(%eax),%edx
  3040e9:	8b 45 d4             	mov    -0x2c(%ebp),%eax
  3040ec:	8b 40 20             	mov    0x20(%eax),%eax
  3040ef:	57                   	push   %edi
  3040f0:	ff 75 d0             	push   -0x30(%ebp)
  3040f3:	ff 75 cc             	push   -0x34(%ebp)
  3040f6:	ff 75 c8             	push   -0x38(%ebp)
  3040f9:	ff 75 c4             	push   -0x3c(%ebp)
  3040fc:	ff 75 c0             	push   -0x40(%ebp)
  3040ff:	ff 75 bc             	push   -0x44(%ebp)
  304102:	ff 75 b8             	push   -0x48(%ebp)
  304105:	ff 75 b4             	push   -0x4c(%ebp)
  304108:	ff 75 b0             	push   -0x50(%ebp)
  30410b:	56                   	push   %esi
  30410c:	53                   	push   %ebx
  30410d:	51                   	push   %ecx
  30410e:	52                   	push   %edx
  30410f:	50                   	push   %eax
  304110:	68 6c 55 30 00       	push   $0x30556c
  304115:	e8 b6 ef ff ff       	call   3030d0 <printf>
  30411a:	83 c4 40             	add    $0x40,%esp
  30411d:	a1 6c 84 30 00       	mov    0x30846c,%eax
  304122:	83 c0 01             	add    $0x1,%eax
  304125:	89 45 e4             	mov    %eax,-0x1c(%ebp)
  304128:	89 6d e0             	mov    %ebp,-0x20(%ebp)
  30412b:	8b 45 e0             	mov    -0x20(%ebp),%eax
  30412e:	83 ec 08             	sub    $0x8,%esp
  304131:	50                   	push   %eax
  304132:	68 4b 56 30 00       	push   $0x30564b
  304137:	e8 94 ef ff ff       	call   3030d0 <printf>
  30413c:	83 c4 10             	add    $0x10,%esp
  30413f:	89 6d dc             	mov    %ebp,-0x24(%ebp)
  304142:	8b 45 dc             	mov    -0x24(%ebp),%eax
  304145:	8b 15 6c 84 30 00    	mov    0x30846c,%edx
  30414b:	6b d2 4c             	imul   $0x4c,%edx,%edx
  30414e:	81 c2 84 84 30 00    	add    $0x308484,%edx
  304154:	89 02                	mov    %eax,(%edx)
  304156:	a1 6c 84 30 00       	mov    0x30846c,%eax
  30415b:	6b c0 4c             	imul   $0x4c,%eax,%eax
  30415e:	05 c8 84 30 00       	add    $0x3084c8,%eax
  304163:	c6 00 01             	movb   $0x1,(%eax)
  304166:	b8 23 00 00 00       	mov    $0x23,%eax
  30416b:	8e d8                	mov    %eax,%ds
  30416d:	b8 23 00 00 00       	mov    $0x23,%eax
  304172:	8e c0                	mov    %eax,%es
  304174:	b8 23 00 00 00       	mov    $0x23,%eax
  304179:	8e e0                	mov    %eax,%fs
  30417b:	b8 23 00 00 00       	mov    $0x23,%eax
  304180:	8e e8                	mov    %eax,%gs
  304182:	8b 45 e4             	mov    -0x1c(%ebp),%eax
  304185:	a3 6c 84 30 00       	mov    %eax,0x30846c
  30418a:	8b 45 e4             	mov    -0x1c(%ebp),%eax
  30418d:	6b c0 4c             	imul   $0x4c,%eax,%eax
  304190:	05 84 84 30 00       	add    $0x308484,%eax
  304195:	8b 00                	mov    (%eax),%eax
  304197:	a3 e4 63 30 00       	mov    %eax,0x3063e4
  30419c:	8b 45 e4             	mov    -0x1c(%ebp),%eax
  30419f:	6b c0 4c             	imul   $0x4c,%eax,%eax
  3041a2:	05 88 84 30 00       	add    $0x308488,%eax
  3041a7:	8b 00                	mov    (%eax),%eax
  3041a9:	0f 22 d8             	mov    %eax,%cr3
  3041ac:	8b 45 e4             	mov    -0x1c(%ebp),%eax
  3041af:	6b c0 4c             	imul   $0x4c,%eax,%eax
  3041b2:	05 c8 84 30 00       	add    $0x3084c8,%eax
  3041b7:	0f b6 00             	movzbl (%eax),%eax
  3041ba:	3c 01                	cmp    $0x1,%al
  3041bc:	75 0f                	jne    3041cd <clock_interrupt_handler+0x15e>
  3041be:	8b 45 e4             	mov    -0x1c(%ebp),%eax
  3041c1:	6b c0 4c             	imul   $0x4c,%eax,%eax
  3041c4:	05 84 84 30 00       	add    $0x308484,%eax
  3041c9:	8b 28                	mov    (%eax),%ebp
  3041cb:	eb 3d                	jmp    30420a <clock_interrupt_handler+0x19b>
  3041cd:	8b 45 e4             	mov    -0x1c(%ebp),%eax
  3041d0:	6b c0 4c             	imul   $0x4c,%eax,%eax
  3041d3:	05 80 84 30 00       	add    $0x308480,%eax
  3041d8:	8b 00                	mov    (%eax),%eax
  3041da:	8b 55 e4             	mov    -0x1c(%ebp),%edx
  3041dd:	6b d2 4c             	imul   $0x4c,%edx,%edx
  3041e0:	81 c2 84 84 30 00    	add    $0x308484,%edx
  3041e6:	6a 10                	push   $0x10
  3041e8:	ff 32                	push   (%edx)
  3041ea:	9c                   	pushf
  3041eb:	6a 08                	push   $0x8
  3041ed:	50                   	push   %eax
  3041ee:	b8 20 00 00 00       	mov    $0x20,%eax
  3041f3:	ba 20 00 00 00       	mov    $0x20,%edx
  3041f8:	ee                   	out    %al,(%dx)
  3041f9:	83 ec 0c             	sub    $0xc,%esp
  3041fc:	68 56 56 30 00       	push   $0x305656
  304201:	e8 a2 ee ff ff       	call   3030a8 <panic>
  304206:	83 c4 10             	add    $0x10,%esp
  304209:	cf                   	iret
  30420a:	b8 20 00 00 00       	mov    $0x20,%eax
  30420f:	ba 20 00 00 00       	mov    $0x20,%edx
  304214:	ee                   	out    %al,(%dx)
  304215:	90                   	nop
  304216:	8d 65 f4             	lea    -0xc(%ebp),%esp
  304219:	5b                   	pop    %ebx
  30421a:	5e                   	pop    %esi
  30421b:	5f                   	pop    %edi
  30421c:	5d                   	pop    %ebp
  30421d:	c3                   	ret

0030421e <config_segmentation>:
  30421e:	55                   	push   %ebp
  30421f:	89 e5                	mov    %esp,%ebp
  304221:	83 ec 10             	sub    $0x10,%esp
  304224:	c7 05 a0 63 30 00 00 	movl   $0x0,0x3063a0
  30422b:	00 00 00 
  30422e:	c7 05 a4 63 30 00 00 	movl   $0x0,0x3063a4
  304235:	00 00 00 
  304238:	c7 05 a8 63 30 00 00 	movl   $0x0,0x3063a8
  30423f:	00 00 00 
  304242:	c7 05 ac 63 30 00 00 	movl   $0x0,0x3063ac
  304249:	00 00 00 
  30424c:	0f b7 05 a8 63 30 00 	movzwl 0x3063a8,%eax
  304253:	83 c8 ff             	or     $0xffffffff,%eax
  304256:	66 a3 a8 63 30 00    	mov    %ax,0x3063a8
  30425c:	0f b6 05 ae 63 30 00 	movzbl 0x3063ae,%eax
  304263:	83 c8 0f             	or     $0xf,%eax
  304266:	a2 ae 63 30 00       	mov    %al,0x3063ae
  30426b:	0f b6 05 ad 63 30 00 	movzbl 0x3063ad,%eax
  304272:	83 e0 f0             	and    $0xfffffff0,%eax
  304275:	83 c8 0a             	or     $0xa,%eax
  304278:	a2 ad 63 30 00       	mov    %al,0x3063ad
  30427d:	0f b6 05 ad 63 30 00 	movzbl 0x3063ad,%eax
  304284:	83 e0 9f             	and    $0xffffff9f,%eax
  304287:	a2 ad 63 30 00       	mov    %al,0x3063ad
  30428c:	0f b6 05 ae 63 30 00 	movzbl 0x3063ae,%eax
  304293:	83 c8 40             	or     $0x40,%eax
  304296:	a2 ae 63 30 00       	mov    %al,0x3063ae
  30429b:	0f b6 05 ae 63 30 00 	movzbl 0x3063ae,%eax
  3042a2:	83 c8 80             	or     $0xffffff80,%eax
  3042a5:	a2 ae 63 30 00       	mov    %al,0x3063ae
  3042aa:	0f b6 05 ad 63 30 00 	movzbl 0x3063ad,%eax
  3042b1:	83 c8 10             	or     $0x10,%eax
  3042b4:	a2 ad 63 30 00       	mov    %al,0x3063ad
  3042b9:	0f b6 05 ad 63 30 00 	movzbl 0x3063ad,%eax
  3042c0:	83 c8 80             	or     $0xffffff80,%eax
  3042c3:	a2 ad 63 30 00       	mov    %al,0x3063ad
  3042c8:	c7 05 b0 63 30 00 00 	movl   $0x0,0x3063b0
  3042cf:	00 00 00 
  3042d2:	c7 05 b4 63 30 00 00 	movl   $0x0,0x3063b4
  3042d9:	00 00 00 
  3042dc:	0f b7 05 b0 63 30 00 	movzwl 0x3063b0,%eax
  3042e3:	83 c8 ff             	or     $0xffffffff,%eax
  3042e6:	66 a3 b0 63 30 00    	mov    %ax,0x3063b0
  3042ec:	0f b6 05 b6 63 30 00 	movzbl 0x3063b6,%eax
  3042f3:	83 c8 0f             	or     $0xf,%eax
  3042f6:	a2 b6 63 30 00       	mov    %al,0x3063b6
  3042fb:	0f b6 05 b5 63 30 00 	movzbl 0x3063b5,%eax
  304302:	83 e0 f0             	and    $0xfffffff0,%eax
  304305:	83 c8 02             	or     $0x2,%eax
  304308:	a2 b5 63 30 00       	mov    %al,0x3063b5
  30430d:	0f b6 05 b5 63 30 00 	movzbl 0x3063b5,%eax
  304314:	83 e0 9f             	and    $0xffffff9f,%eax
  304317:	a2 b5 63 30 00       	mov    %al,0x3063b5
  30431c:	0f b6 05 b6 63 30 00 	movzbl 0x3063b6,%eax
  304323:	83 c8 40             	or     $0x40,%eax
  304326:	a2 b6 63 30 00       	mov    %al,0x3063b6
  30432b:	0f b6 05 b6 63 30 00 	movzbl 0x3063b6,%eax
  304332:	83 c8 80             	or     $0xffffff80,%eax
  304335:	a2 b6 63 30 00       	mov    %al,0x3063b6
  30433a:	0f b6 05 b5 63 30 00 	movzbl 0x3063b5,%eax
  304341:	83 c8 10             	or     $0x10,%eax
  304344:	a2 b5 63 30 00       	mov    %al,0x3063b5
  304349:	0f b6 05 b5 63 30 00 	movzbl 0x3063b5,%eax
  304350:	83 c8 80             	or     $0xffffff80,%eax
  304353:	a2 b5 63 30 00       	mov    %al,0x3063b5
  304358:	c7 05 b8 63 30 00 00 	movl   $0x0,0x3063b8
  30435f:	00 00 00 
  304362:	c7 05 bc 63 30 00 00 	movl   $0x0,0x3063bc
  304369:	00 00 00 
  30436c:	0f b7 05 b8 63 30 00 	movzwl 0x3063b8,%eax
  304373:	83 c8 ff             	or     $0xffffffff,%eax
  304376:	66 a3 b8 63 30 00    	mov    %ax,0x3063b8
  30437c:	0f b6 05 be 63 30 00 	movzbl 0x3063be,%eax
  304383:	83 c8 0f             	or     $0xf,%eax
  304386:	a2 be 63 30 00       	mov    %al,0x3063be
  30438b:	0f b6 05 bd 63 30 00 	movzbl 0x3063bd,%eax
  304392:	83 e0 f0             	and    $0xfffffff0,%eax
  304395:	83 c8 0a             	or     $0xa,%eax
  304398:	a2 bd 63 30 00       	mov    %al,0x3063bd
  30439d:	0f b6 05 bd 63 30 00 	movzbl 0x3063bd,%eax
  3043a4:	83 c8 60             	or     $0x60,%eax
  3043a7:	a2 bd 63 30 00       	mov    %al,0x3063bd
  3043ac:	0f b6 05 be 63 30 00 	movzbl 0x3063be,%eax
  3043b3:	83 c8 40             	or     $0x40,%eax
  3043b6:	a2 be 63 30 00       	mov    %al,0x3063be
  3043bb:	0f b6 05 be 63 30 00 	movzbl 0x3063be,%eax
  3043c2:	83 c8 80             	or     $0xffffff80,%eax
  3043c5:	a2 be 63 30 00       	mov    %al,0x3063be
  3043ca:	0f b6 05 bd 63 30 00 	movzbl 0x3063bd,%eax
  3043d1:	83 c8 10             	or     $0x10,%eax
  3043d4:	a2 bd 63 30 00       	mov    %al,0x3063bd
  3043d9:	0f b6 05 bd 63 30 00 	movzbl 0x3063bd,%eax
  3043e0:	83 c8 80             	or     $0xffffff80,%eax
  3043e3:	a2 bd 63 30 00       	mov    %al,0x3063bd
  3043e8:	c7 05 c0 63 30 00 00 	movl   $0x0,0x3063c0
  3043ef:	00 00 00 
  3043f2:	c7 05 c4 63 30 00 00 	movl   $0x0,0x3063c4
  3043f9:	00 00 00 
  3043fc:	0f b7 05 c0 63 30 00 	movzwl 0x3063c0,%eax
  304403:	83 c8 ff             	or     $0xffffffff,%eax
  304406:	66 a3 c0 63 30 00    	mov    %ax,0x3063c0
  30440c:	0f b6 05 c6 63 30 00 	movzbl 0x3063c6,%eax
  304413:	83 c8 0f             	or     $0xf,%eax
  304416:	a2 c6 63 30 00       	mov    %al,0x3063c6
  30441b:	0f b6 05 c5 63 30 00 	movzbl 0x3063c5,%eax
  304422:	83 e0 f0             	and    $0xfffffff0,%eax
  304425:	83 c8 02             	or     $0x2,%eax
  304428:	a2 c5 63 30 00       	mov    %al,0x3063c5
  30442d:	0f b6 05 c5 63 30 00 	movzbl 0x3063c5,%eax
  304434:	83 c8 60             	or     $0x60,%eax
  304437:	a2 c5 63 30 00       	mov    %al,0x3063c5
  30443c:	0f b6 05 c6 63 30 00 	movzbl 0x3063c6,%eax
  304443:	83 c8 40             	or     $0x40,%eax
  304446:	a2 c6 63 30 00       	mov    %al,0x3063c6
  30444b:	0f b6 05 c6 63 30 00 	movzbl 0x3063c6,%eax
  304452:	83 c8 80             	or     $0xffffff80,%eax
  304455:	a2 c6 63 30 00       	mov    %al,0x3063c6
  30445a:	0f b6 05 c5 63 30 00 	movzbl 0x3063c5,%eax
  304461:	83 c8 10             	or     $0x10,%eax
  304464:	a2 c5 63 30 00       	mov    %al,0x3063c5
  304469:	0f b6 05 c5 63 30 00 	movzbl 0x3063c5,%eax
  304470:	83 c8 80             	or     $0xffffff80,%eax
  304473:	a2 c5 63 30 00       	mov    %al,0x3063c5
  304478:	c7 45 fc a0 63 30 00 	movl   $0x3063a0,-0x4(%ebp)
  30447f:	66 c7 45 fa 2f 00    	movw   $0x2f,-0x6(%ebp)
  304485:	0f 01 55 fa          	lgdtl  -0x6(%ebp)
  304489:	ea 90 44 30 00 08 00 	ljmp   $0x8,$0x304490
  304490:	b8 10 00 00 00       	mov    $0x10,%eax
  304495:	8e d0                	mov    %eax,%ss
  304497:	b8 10 00 00 00       	mov    $0x10,%eax
  30449c:	8e d8                	mov    %eax,%ds
  30449e:	b8 10 00 00 00       	mov    $0x10,%eax
  3044a3:	8e c0                	mov    %eax,%es
  3044a5:	b8 10 00 00 00       	mov    $0x10,%eax
  3044aa:	8e e0                	mov    %eax,%fs
  3044ac:	b8 10 00 00 00       	mov    $0x10,%eax
  3044b1:	8e e8                	mov    %eax,%gs
  3044b3:	89 65 f4             	mov    %esp,-0xc(%ebp)
  3044b6:	8b 45 f4             	mov    -0xc(%ebp),%eax
  3044b9:	a3 e4 63 30 00       	mov    %eax,0x3063e4
  3044be:	66 c7 05 e8 63 30 00 	movw   $0x10,0x3063e8
  3044c5:	10 00 
  3044c7:	b8 e0 63 30 00       	mov    $0x3063e0,%eax
  3044cc:	89 45 f0             	mov    %eax,-0x10(%ebp)
  3044cf:	c7 05 c8 63 30 00 89 	movl   $0x2089,0x3063c8
  3044d6:	20 00 00 
  3044d9:	c7 05 cc 63 30 00 00 	movl   $0x0,0x3063cc
  3044e0:	00 00 00 
  3044e3:	0f b7 55 f0          	movzwl -0x10(%ebp),%edx
  3044e7:	0f b7 05 ca 63 30 00 	movzwl 0x3063ca,%eax
  3044ee:	83 e0 00             	and    $0x0,%eax
  3044f1:	09 d0                	or     %edx,%eax
  3044f3:	66 a3 ca 63 30 00    	mov    %ax,0x3063ca
  3044f9:	0f b6 45 f2          	movzbl -0xe(%ebp),%eax
  3044fd:	a2 cc 63 30 00       	mov    %al,0x3063cc
  304502:	0f b6 45 f3          	movzbl -0xd(%ebp),%eax
  304506:	a2 cf 63 30 00       	mov    %al,0x3063cf
  30450b:	0f b6 05 cd 63 30 00 	movzbl 0x3063cd,%eax
  304512:	83 e0 f0             	and    $0xfffffff0,%eax
  304515:	83 c8 09             	or     $0x9,%eax
  304518:	a2 cd 63 30 00       	mov    %al,0x3063cd
  30451d:	0f b6 05 cd 63 30 00 	movzbl 0x3063cd,%eax
  304524:	83 c8 80             	or     $0xffffff80,%eax
  304527:	a2 cd 63 30 00       	mov    %al,0x3063cd
  30452c:	b8 28 00 00 00       	mov    $0x28,%eax
  304531:	0f 00 d8             	ltr    %eax
  304534:	90                   	nop
  304535:	c9                   	leave
  304536:	c3                   	ret

00304537 <config_pgds>:
  304537:	55                   	push   %ebp
  304538:	89 e5                	mov    %esp,%ebp
  30453a:	53                   	push   %ebx
  30453b:	83 ec 14             	sub    $0x14,%esp
  30453e:	a1 50 57 30 00       	mov    0x305750,%eax
  304543:	68 00 10 00 00       	push   $0x1000
  304548:	6a 00                	push   $0x0
  30454a:	50                   	push   %eax
  30454b:	e8 2f fa ff ff       	call   303f7f <memset>
  304550:	83 c4 0c             	add    $0xc,%esp
  304553:	a1 54 57 30 00       	mov    0x305754,%eax
  304558:	68 00 10 00 00       	push   $0x1000
  30455d:	6a 00                	push   $0x0
  30455f:	50                   	push   %eax
  304560:	e8 1a fa ff ff       	call   303f7f <memset>
  304565:	83 c4 0c             	add    $0xc,%esp
  304568:	a1 58 57 30 00       	mov    0x305758,%eax
  30456d:	68 00 10 00 00       	push   $0x1000
  304572:	6a 00                	push   $0x0
  304574:	50                   	push   %eax
  304575:	e8 05 fa ff ff       	call   303f7f <memset>
  30457a:	83 c4 0c             	add    $0xc,%esp
  30457d:	a1 5c 57 30 00       	mov    0x30575c,%eax
  304582:	68 00 10 00 00       	push   $0x1000
  304587:	6a 00                	push   $0x0
  304589:	50                   	push   %eax
  30458a:	e8 f0 f9 ff ff       	call   303f7f <memset>
  30458f:	83 c4 0c             	add    $0xc,%esp
  304592:	a1 60 57 30 00       	mov    0x305760,%eax
  304597:	68 00 10 00 00       	push   $0x1000
  30459c:	6a 00                	push   $0x0
  30459e:	50                   	push   %eax
  30459f:	e8 db f9 ff ff       	call   303f7f <memset>
  3045a4:	83 c4 0c             	add    $0xc,%esp
  3045a7:	a1 64 57 30 00       	mov    0x305764,%eax
  3045ac:	68 00 10 00 00       	push   $0x1000
  3045b1:	6a 00                	push   $0x0
  3045b3:	50                   	push   %eax
  3045b4:	e8 c6 f9 ff ff       	call   303f7f <memset>
  3045b9:	83 c4 0c             	add    $0xc,%esp
  3045bc:	a1 68 57 30 00       	mov    0x305768,%eax
  3045c1:	68 00 10 00 00       	push   $0x1000
  3045c6:	6a 00                	push   $0x0
  3045c8:	50                   	push   %eax
  3045c9:	e8 b1 f9 ff ff       	call   303f7f <memset>
  3045ce:	83 c4 0c             	add    $0xc,%esp
  3045d1:	a1 6c 57 30 00       	mov    0x30576c,%eax
  3045d6:	68 00 10 00 00       	push   $0x1000
  3045db:	6a 00                	push   $0x0
  3045dd:	50                   	push   %eax
  3045de:	e8 9c f9 ff ff       	call   303f7f <memset>
  3045e3:	83 c4 0c             	add    $0xc,%esp
  3045e6:	a1 70 57 30 00       	mov    0x305770,%eax
  3045eb:	68 00 10 00 00       	push   $0x1000
  3045f0:	6a 00                	push   $0x0
  3045f2:	50                   	push   %eax
  3045f3:	e8 87 f9 ff ff       	call   303f7f <memset>
  3045f8:	83 c4 0c             	add    $0xc,%esp
  3045fb:	a1 74 57 30 00       	mov    0x305774,%eax
  304600:	68 00 10 00 00       	push   $0x1000
  304605:	6a 00                	push   $0x0
  304607:	50                   	push   %eax
  304608:	e8 72 f9 ff ff       	call   303f7f <memset>
  30460d:	83 c4 0c             	add    $0xc,%esp
  304610:	c7 45 f4 00 00 00 00 	movl   $0x0,-0xc(%ebp)
  304617:	e9 0d 02 00 00       	jmp    304829 <config_pgds+0x2f2>
  30461c:	a1 54 57 30 00       	mov    0x305754,%eax
  304621:	8b 55 f4             	mov    -0xc(%ebp),%edx
  304624:	c1 e2 02             	shl    $0x2,%edx
  304627:	01 d0                	add    %edx,%eax
  304629:	c7 00 03 00 00 00    	movl   $0x3,(%eax)
  30462f:	a1 54 57 30 00       	mov    0x305754,%eax
  304634:	8b 55 f4             	mov    -0xc(%ebp),%edx
  304637:	c1 e2 02             	shl    $0x2,%edx
  30463a:	01 d0                	add    %edx,%eax
  30463c:	8b 55 f4             	mov    -0xc(%ebp),%edx
  30463f:	81 e2 ff ff 0f 00    	and    $0xfffff,%edx
  304645:	89 d1                	mov    %edx,%ecx
  304647:	83 e1 0f             	and    $0xf,%ecx
  30464a:	89 cb                	mov    %ecx,%ebx
  30464c:	c1 e3 04             	shl    $0x4,%ebx
  30464f:	0f b6 48 01          	movzbl 0x1(%eax),%ecx
  304653:	83 e1 0f             	and    $0xf,%ecx
  304656:	09 d9                	or     %ebx,%ecx
  304658:	88 48 01             	mov    %cl,0x1(%eax)
  30465b:	89 d1                	mov    %edx,%ecx
  30465d:	c1 e9 04             	shr    $0x4,%ecx
  304660:	0f b6 d9             	movzbl %cl,%ebx
  304663:	0f b6 48 02          	movzbl 0x2(%eax),%ecx
  304667:	83 e1 00             	and    $0x0,%ecx
  30466a:	09 d9                	or     %ebx,%ecx
  30466c:	88 48 02             	mov    %cl,0x2(%eax)
  30466f:	c1 ea 0c             	shr    $0xc,%edx
  304672:	0f b6 ca             	movzbl %dl,%ecx
  304675:	0f b6 50 03          	movzbl 0x3(%eax),%edx
  304679:	83 e2 00             	and    $0x0,%edx
  30467c:	09 ca                	or     %ecx,%edx
  30467e:	88 50 03             	mov    %dl,0x3(%eax)
  304681:	a1 5c 57 30 00       	mov    0x30575c,%eax
  304686:	8b 55 f4             	mov    -0xc(%ebp),%edx
  304689:	c1 e2 02             	shl    $0x2,%edx
  30468c:	01 d0                	add    %edx,%eax
  30468e:	c7 00 03 00 00 00    	movl   $0x3,(%eax)
  304694:	a1 5c 57 30 00       	mov    0x30575c,%eax
  304699:	8b 55 f4             	mov    -0xc(%ebp),%edx
  30469c:	c1 e2 02             	shl    $0x2,%edx
  30469f:	01 d0                	add    %edx,%eax
  3046a1:	8b 55 f4             	mov    -0xc(%ebp),%edx
  3046a4:	81 e2 ff ff 0f 00    	and    $0xfffff,%edx
  3046aa:	89 d1                	mov    %edx,%ecx
  3046ac:	83 e1 0f             	and    $0xf,%ecx
  3046af:	89 cb                	mov    %ecx,%ebx
  3046b1:	c1 e3 04             	shl    $0x4,%ebx
  3046b4:	0f b6 48 01          	movzbl 0x1(%eax),%ecx
  3046b8:	83 e1 0f             	and    $0xf,%ecx
  3046bb:	09 d9                	or     %ebx,%ecx
  3046bd:	88 48 01             	mov    %cl,0x1(%eax)
  3046c0:	89 d1                	mov    %edx,%ecx
  3046c2:	c1 e9 04             	shr    $0x4,%ecx
  3046c5:	0f b6 d9             	movzbl %cl,%ebx
  3046c8:	0f b6 48 02          	movzbl 0x2(%eax),%ecx
  3046cc:	83 e1 00             	and    $0x0,%ecx
  3046cf:	09 d9                	or     %ebx,%ecx
  3046d1:	88 48 02             	mov    %cl,0x2(%eax)
  3046d4:	c1 ea 0c             	shr    $0xc,%edx
  3046d7:	0f b6 ca             	movzbl %dl,%ecx
  3046da:	0f b6 50 03          	movzbl 0x3(%eax),%edx
  3046de:	83 e2 00             	and    $0x0,%edx
  3046e1:	09 ca                	or     %ecx,%edx
  3046e3:	88 50 03             	mov    %dl,0x3(%eax)
  3046e6:	a1 6c 57 30 00       	mov    0x30576c,%eax
  3046eb:	8b 55 f4             	mov    -0xc(%ebp),%edx
  3046ee:	c1 e2 02             	shl    $0x2,%edx
  3046f1:	01 d0                	add    %edx,%eax
  3046f3:	c7 00 03 00 00 00    	movl   $0x3,(%eax)
  3046f9:	a1 6c 57 30 00       	mov    0x30576c,%eax
  3046fe:	8b 55 f4             	mov    -0xc(%ebp),%edx
  304701:	c1 e2 02             	shl    $0x2,%edx
  304704:	01 d0                	add    %edx,%eax
  304706:	8b 55 f4             	mov    -0xc(%ebp),%edx
  304709:	81 e2 ff ff 0f 00    	and    $0xfffff,%edx
  30470f:	89 d1                	mov    %edx,%ecx
  304711:	83 e1 0f             	and    $0xf,%ecx
  304714:	89 cb                	mov    %ecx,%ebx
  304716:	c1 e3 04             	shl    $0x4,%ebx
  304719:	0f b6 48 01          	movzbl 0x1(%eax),%ecx
  30471d:	83 e1 0f             	and    $0xf,%ecx
  304720:	09 d9                	or     %ebx,%ecx
  304722:	88 48 01             	mov    %cl,0x1(%eax)
  304725:	89 d1                	mov    %edx,%ecx
  304727:	c1 e9 04             	shr    $0x4,%ecx
  30472a:	0f b6 d9             	movzbl %cl,%ebx
  30472d:	0f b6 48 02          	movzbl 0x2(%eax),%ecx
  304731:	83 e1 00             	and    $0x0,%ecx
  304734:	09 d9                	or     %ebx,%ecx
  304736:	88 48 02             	mov    %cl,0x2(%eax)
  304739:	c1 ea 0c             	shr    $0xc,%edx
  30473c:	0f b6 ca             	movzbl %dl,%ecx
  30473f:	0f b6 50 03          	movzbl 0x3(%eax),%edx
  304743:	83 e2 00             	and    $0x0,%edx
  304746:	09 ca                	or     %ecx,%edx
  304748:	88 50 03             	mov    %dl,0x3(%eax)
  30474b:	a1 60 57 30 00       	mov    0x305760,%eax
  304750:	8b 55 f4             	mov    -0xc(%ebp),%edx
  304753:	c1 e2 02             	shl    $0x2,%edx
  304756:	01 d0                	add    %edx,%eax
  304758:	c7 00 07 00 00 00    	movl   $0x7,(%eax)
  30475e:	8b 45 f4             	mov    -0xc(%ebp),%eax
  304761:	8d 88 00 04 00 00    	lea    0x400(%eax),%ecx
  304767:	a1 60 57 30 00       	mov    0x305760,%eax
  30476c:	8b 55 f4             	mov    -0xc(%ebp),%edx
  30476f:	c1 e2 02             	shl    $0x2,%edx
  304772:	01 d0                	add    %edx,%eax
  304774:	89 ca                	mov    %ecx,%edx
  304776:	81 e2 ff ff 0f 00    	and    $0xfffff,%edx
  30477c:	89 d1                	mov    %edx,%ecx
  30477e:	83 e1 0f             	and    $0xf,%ecx
  304781:	89 cb                	mov    %ecx,%ebx
  304783:	c1 e3 04             	shl    $0x4,%ebx
  304786:	0f b6 48 01          	movzbl 0x1(%eax),%ecx
  30478a:	83 e1 0f             	and    $0xf,%ecx
  30478d:	09 d9                	or     %ebx,%ecx
  30478f:	88 48 01             	mov    %cl,0x1(%eax)
  304792:	89 d1                	mov    %edx,%ecx
  304794:	c1 e9 04             	shr    $0x4,%ecx
  304797:	0f b6 d9             	movzbl %cl,%ebx
  30479a:	0f b6 48 02          	movzbl 0x2(%eax),%ecx
  30479e:	83 e1 00             	and    $0x0,%ecx
  3047a1:	09 d9                	or     %ebx,%ecx
  3047a3:	88 48 02             	mov    %cl,0x2(%eax)
  3047a6:	c1 ea 0c             	shr    $0xc,%edx
  3047a9:	0f b6 ca             	movzbl %dl,%ecx
  3047ac:	0f b6 50 03          	movzbl 0x3(%eax),%edx
  3047b0:	83 e2 00             	and    $0x0,%edx
  3047b3:	09 ca                	or     %ecx,%edx
  3047b5:	88 50 03             	mov    %dl,0x3(%eax)
  3047b8:	a1 70 57 30 00       	mov    0x305770,%eax
  3047bd:	8b 55 f4             	mov    -0xc(%ebp),%edx
  3047c0:	c1 e2 02             	shl    $0x2,%edx
  3047c3:	01 d0                	add    %edx,%eax
  3047c5:	c7 00 07 00 00 00    	movl   $0x7,(%eax)
  3047cb:	8b 45 f4             	mov    -0xc(%ebp),%eax
  3047ce:	8d 88 00 08 00 00    	lea    0x800(%eax),%ecx
  3047d4:	a1 70 57 30 00       	mov    0x305770,%eax
  3047d9:	8b 55 f4             	mov    -0xc(%ebp),%edx
  3047dc:	c1 e2 02             	shl    $0x2,%edx
  3047df:	01 d0                	add    %edx,%eax
  3047e1:	89 ca                	mov    %ecx,%edx
  3047e3:	81 e2 ff ff 0f 00    	and    $0xfffff,%edx
  3047e9:	89 d1                	mov    %edx,%ecx
  3047eb:	83 e1 0f             	and    $0xf,%ecx
  3047ee:	89 cb                	mov    %ecx,%ebx
  3047f0:	c1 e3 04             	shl    $0x4,%ebx
  3047f3:	0f b6 48 01          	movzbl 0x1(%eax),%ecx
  3047f7:	83 e1 0f             	and    $0xf,%ecx
  3047fa:	09 d9                	or     %ebx,%ecx
  3047fc:	88 48 01             	mov    %cl,0x1(%eax)
  3047ff:	89 d1                	mov    %edx,%ecx
  304801:	c1 e9 04             	shr    $0x4,%ecx
  304804:	0f b6 d9             	movzbl %cl,%ebx
  304807:	0f b6 48 02          	movzbl 0x2(%eax),%ecx
  30480b:	83 e1 00             	and    $0x0,%ecx
  30480e:	09 d9                	or     %ebx,%ecx
  304810:	88 48 02             	mov    %cl,0x2(%eax)
  304813:	c1 ea 0c             	shr    $0xc,%edx
  304816:	0f b6 ca             	movzbl %dl,%ecx
  304819:	0f b6 50 03          	movzbl 0x3(%eax),%edx
  30481d:	83 e2 00             	and    $0x0,%edx
  304820:	09 ca                	or     %ecx,%edx
  304822:	88 50 03             	mov    %dl,0x3(%eax)
  304825:	83 45 f4 01          	addl   $0x1,-0xc(%ebp)
  304829:	81 7d f4 ff 03 00 00 	cmpl   $0x3ff,-0xc(%ebp)
  304830:	0f 8e e6 fd ff ff    	jle    30461c <config_pgds+0xe5>
  304836:	a1 50 57 30 00       	mov    0x305750,%eax
  30483b:	c7 00 03 00 00 00    	movl   $0x3,(%eax)
  304841:	a1 54 57 30 00       	mov    0x305754,%eax
  304846:	c1 e8 0c             	shr    $0xc,%eax
  304849:	89 c2                	mov    %eax,%edx
  30484b:	a1 50 57 30 00       	mov    0x305750,%eax
  304850:	81 e2 ff ff 0f 00    	and    $0xfffff,%edx
  304856:	89 d1                	mov    %edx,%ecx
  304858:	83 e1 0f             	and    $0xf,%ecx
  30485b:	89 cb                	mov    %ecx,%ebx
  30485d:	c1 e3 04             	shl    $0x4,%ebx
  304860:	0f b6 48 01          	movzbl 0x1(%eax),%ecx
  304864:	83 e1 0f             	and    $0xf,%ecx
  304867:	09 d9                	or     %ebx,%ecx
  304869:	88 48 01             	mov    %cl,0x1(%eax)
  30486c:	89 d1                	mov    %edx,%ecx
  30486e:	c1 e9 04             	shr    $0x4,%ecx
  304871:	0f b6 d9             	movzbl %cl,%ebx
  304874:	0f b6 48 02          	movzbl 0x2(%eax),%ecx
  304878:	83 e1 00             	and    $0x0,%ecx
  30487b:	09 d9                	or     %ebx,%ecx
  30487d:	88 48 02             	mov    %cl,0x2(%eax)
  304880:	c1 ea 0c             	shr    $0xc,%edx
  304883:	0f b6 ca             	movzbl %dl,%ecx
  304886:	0f b6 50 03          	movzbl 0x3(%eax),%edx
  30488a:	83 e2 00             	and    $0x0,%edx
  30488d:	09 ca                	or     %ecx,%edx
  30488f:	88 50 03             	mov    %dl,0x3(%eax)
  304892:	a1 64 57 30 00       	mov    0x305764,%eax
  304897:	c7 00 07 00 00 00    	movl   $0x7,(%eax)
  30489d:	a1 64 57 30 00       	mov    0x305764,%eax
  3048a2:	0f b6 50 01          	movzbl 0x1(%eax),%edx
  3048a6:	83 e2 0f             	and    $0xf,%edx
  3048a9:	88 50 01             	mov    %dl,0x1(%eax)
  3048ac:	0f b6 50 02          	movzbl 0x2(%eax),%edx
  3048b0:	83 e2 00             	and    $0x0,%edx
  3048b3:	83 ca f0             	or     $0xfffffff0,%edx
  3048b6:	88 50 02             	mov    %dl,0x2(%eax)
  3048b9:	0f b6 50 03          	movzbl 0x3(%eax),%edx
  3048bd:	83 e2 00             	and    $0x0,%edx
  3048c0:	88 50 03             	mov    %dl,0x3(%eax)
  3048c3:	a1 74 57 30 00       	mov    0x305774,%eax
  3048c8:	c7 00 07 00 00 00    	movl   $0x7,(%eax)
  3048ce:	a1 74 57 30 00       	mov    0x305774,%eax
  3048d3:	0f b6 50 01          	movzbl 0x1(%eax),%edx
  3048d7:	83 e2 0f             	and    $0xf,%edx
  3048da:	88 50 01             	mov    %dl,0x1(%eax)
  3048dd:	0f b6 50 02          	movzbl 0x2(%eax),%edx
  3048e1:	83 e2 00             	and    $0x0,%edx
  3048e4:	83 ca f0             	or     $0xfffffff0,%edx
  3048e7:	88 50 02             	mov    %dl,0x2(%eax)
  3048ea:	0f b6 50 03          	movzbl 0x3(%eax),%edx
  3048ee:	83 e2 00             	and    $0x0,%edx
  3048f1:	88 50 03             	mov    %dl,0x3(%eax)
  3048f4:	a1 58 57 30 00       	mov    0x305758,%eax
  3048f9:	c7 00 03 00 00 00    	movl   $0x3,(%eax)
  3048ff:	a1 5c 57 30 00       	mov    0x30575c,%eax
  304904:	c1 e8 0c             	shr    $0xc,%eax
  304907:	89 c2                	mov    %eax,%edx
  304909:	a1 58 57 30 00       	mov    0x305758,%eax
  30490e:	81 e2 ff ff 0f 00    	and    $0xfffff,%edx
  304914:	89 d1                	mov    %edx,%ecx
  304916:	83 e1 0f             	and    $0xf,%ecx
  304919:	89 cb                	mov    %ecx,%ebx
  30491b:	c1 e3 04             	shl    $0x4,%ebx
  30491e:	0f b6 48 01          	movzbl 0x1(%eax),%ecx
  304922:	83 e1 0f             	and    $0xf,%ecx
  304925:	09 d9                	or     %ebx,%ecx
  304927:	88 48 01             	mov    %cl,0x1(%eax)
  30492a:	89 d1                	mov    %edx,%ecx
  30492c:	c1 e9 04             	shr    $0x4,%ecx
  30492f:	0f b6 d9             	movzbl %cl,%ebx
  304932:	0f b6 48 02          	movzbl 0x2(%eax),%ecx
  304936:	83 e1 00             	and    $0x0,%ecx
  304939:	09 d9                	or     %ebx,%ecx
  30493b:	88 48 02             	mov    %cl,0x2(%eax)
  30493e:	c1 ea 0c             	shr    $0xc,%edx
  304941:	0f b6 ca             	movzbl %dl,%ecx
  304944:	0f b6 50 03          	movzbl 0x3(%eax),%edx
  304948:	83 e2 00             	and    $0x0,%edx
  30494b:	09 ca                	or     %ecx,%edx
  30494d:	88 50 03             	mov    %dl,0x3(%eax)
  304950:	a1 58 57 30 00       	mov    0x305758,%eax
  304955:	83 c0 04             	add    $0x4,%eax
  304958:	c7 00 07 00 00 00    	movl   $0x7,(%eax)
  30495e:	a1 60 57 30 00       	mov    0x305760,%eax
  304963:	c1 e8 0c             	shr    $0xc,%eax
  304966:	89 c2                	mov    %eax,%edx
  304968:	a1 58 57 30 00       	mov    0x305758,%eax
  30496d:	83 c0 04             	add    $0x4,%eax
  304970:	81 e2 ff ff 0f 00    	and    $0xfffff,%edx
  304976:	89 d1                	mov    %edx,%ecx
  304978:	83 e1 0f             	and    $0xf,%ecx
  30497b:	89 cb                	mov    %ecx,%ebx
  30497d:	c1 e3 04             	shl    $0x4,%ebx
  304980:	0f b6 48 01          	movzbl 0x1(%eax),%ecx
  304984:	83 e1 0f             	and    $0xf,%ecx
  304987:	09 d9                	or     %ebx,%ecx
  304989:	88 48 01             	mov    %cl,0x1(%eax)
  30498c:	89 d1                	mov    %edx,%ecx
  30498e:	c1 e9 04             	shr    $0x4,%ecx
  304991:	0f b6 d9             	movzbl %cl,%ebx
  304994:	0f b6 48 02          	movzbl 0x2(%eax),%ecx
  304998:	83 e1 00             	and    $0x0,%ecx
  30499b:	09 d9                	or     %ebx,%ecx
  30499d:	88 48 02             	mov    %cl,0x2(%eax)
  3049a0:	c1 ea 0c             	shr    $0xc,%edx
  3049a3:	0f b6 ca             	movzbl %dl,%ecx
  3049a6:	0f b6 50 03          	movzbl 0x3(%eax),%edx
  3049aa:	83 e2 00             	and    $0x0,%edx
  3049ad:	09 ca                	or     %ecx,%edx
  3049af:	88 50 03             	mov    %dl,0x3(%eax)
  3049b2:	a1 58 57 30 00       	mov    0x305758,%eax
  3049b7:	83 c0 08             	add    $0x8,%eax
  3049ba:	c7 00 07 00 00 00    	movl   $0x7,(%eax)
  3049c0:	a1 64 57 30 00       	mov    0x305764,%eax
  3049c5:	c1 e8 0c             	shr    $0xc,%eax
  3049c8:	89 c2                	mov    %eax,%edx
  3049ca:	a1 58 57 30 00       	mov    0x305758,%eax
  3049cf:	83 c0 08             	add    $0x8,%eax
  3049d2:	81 e2 ff ff 0f 00    	and    $0xfffff,%edx
  3049d8:	89 d1                	mov    %edx,%ecx
  3049da:	83 e1 0f             	and    $0xf,%ecx
  3049dd:	89 cb                	mov    %ecx,%ebx
  3049df:	c1 e3 04             	shl    $0x4,%ebx
  3049e2:	0f b6 48 01          	movzbl 0x1(%eax),%ecx
  3049e6:	83 e1 0f             	and    $0xf,%ecx
  3049e9:	09 d9                	or     %ebx,%ecx
  3049eb:	88 48 01             	mov    %cl,0x1(%eax)
  3049ee:	89 d1                	mov    %edx,%ecx
  3049f0:	c1 e9 04             	shr    $0x4,%ecx
  3049f3:	0f b6 d9             	movzbl %cl,%ebx
  3049f6:	0f b6 48 02          	movzbl 0x2(%eax),%ecx
  3049fa:	83 e1 00             	and    $0x0,%ecx
  3049fd:	09 d9                	or     %ebx,%ecx
  3049ff:	88 48 02             	mov    %cl,0x2(%eax)
  304a02:	c1 ea 0c             	shr    $0xc,%edx
  304a05:	0f b6 ca             	movzbl %dl,%ecx
  304a08:	0f b6 50 03          	movzbl 0x3(%eax),%edx
  304a0c:	83 e2 00             	and    $0x0,%edx
  304a0f:	09 ca                	or     %ecx,%edx
  304a11:	88 50 03             	mov    %dl,0x3(%eax)
  304a14:	a1 68 57 30 00       	mov    0x305768,%eax
  304a19:	c7 00 03 00 00 00    	movl   $0x3,(%eax)
  304a1f:	a1 6c 57 30 00       	mov    0x30576c,%eax
  304a24:	c1 e8 0c             	shr    $0xc,%eax
  304a27:	89 c2                	mov    %eax,%edx
  304a29:	a1 68 57 30 00       	mov    0x305768,%eax
  304a2e:	81 e2 ff ff 0f 00    	and    $0xfffff,%edx
  304a34:	89 d1                	mov    %edx,%ecx
  304a36:	83 e1 0f             	and    $0xf,%ecx
  304a39:	89 cb                	mov    %ecx,%ebx
  304a3b:	c1 e3 04             	shl    $0x4,%ebx
  304a3e:	0f b6 48 01          	movzbl 0x1(%eax),%ecx
  304a42:	83 e1 0f             	and    $0xf,%ecx
  304a45:	09 d9                	or     %ebx,%ecx
  304a47:	88 48 01             	mov    %cl,0x1(%eax)
  304a4a:	89 d1                	mov    %edx,%ecx
  304a4c:	c1 e9 04             	shr    $0x4,%ecx
  304a4f:	0f b6 d9             	movzbl %cl,%ebx
  304a52:	0f b6 48 02          	movzbl 0x2(%eax),%ecx
  304a56:	83 e1 00             	and    $0x0,%ecx
  304a59:	09 d9                	or     %ebx,%ecx
  304a5b:	88 48 02             	mov    %cl,0x2(%eax)
  304a5e:	c1 ea 0c             	shr    $0xc,%edx
  304a61:	0f b6 ca             	movzbl %dl,%ecx
  304a64:	0f b6 50 03          	movzbl 0x3(%eax),%edx
  304a68:	83 e2 00             	and    $0x0,%edx
  304a6b:	09 ca                	or     %ecx,%edx
  304a6d:	88 50 03             	mov    %dl,0x3(%eax)
  304a70:	a1 68 57 30 00       	mov    0x305768,%eax
  304a75:	83 c0 04             	add    $0x4,%eax
  304a78:	c7 00 03 00 00 00    	movl   $0x3,(%eax)
  304a7e:	a1 74 57 30 00       	mov    0x305774,%eax
  304a83:	c1 e8 0c             	shr    $0xc,%eax
  304a86:	89 c2                	mov    %eax,%edx
  304a88:	a1 68 57 30 00       	mov    0x305768,%eax
  304a8d:	83 c0 04             	add    $0x4,%eax
  304a90:	81 e2 ff ff 0f 00    	and    $0xfffff,%edx
  304a96:	89 d1                	mov    %edx,%ecx
  304a98:	83 e1 0f             	and    $0xf,%ecx
  304a9b:	89 cb                	mov    %ecx,%ebx
  304a9d:	c1 e3 04             	shl    $0x4,%ebx
  304aa0:	0f b6 48 01          	movzbl 0x1(%eax),%ecx
  304aa4:	83 e1 0f             	and    $0xf,%ecx
  304aa7:	09 d9                	or     %ebx,%ecx
  304aa9:	88 48 01             	mov    %cl,0x1(%eax)
  304aac:	89 d1                	mov    %edx,%ecx
  304aae:	c1 e9 04             	shr    $0x4,%ecx
  304ab1:	0f b6 d9             	movzbl %cl,%ebx
  304ab4:	0f b6 48 02          	movzbl 0x2(%eax),%ecx
  304ab8:	83 e1 00             	and    $0x0,%ecx
  304abb:	09 d9                	or     %ebx,%ecx
  304abd:	88 48 02             	mov    %cl,0x2(%eax)
  304ac0:	c1 ea 0c             	shr    $0xc,%edx
  304ac3:	0f b6 ca             	movzbl %dl,%ecx
  304ac6:	0f b6 50 03          	movzbl 0x3(%eax),%edx
  304aca:	83 e2 00             	and    $0x0,%edx
  304acd:	09 ca                	or     %ecx,%edx
  304acf:	88 50 03             	mov    %dl,0x3(%eax)
  304ad2:	a1 68 57 30 00       	mov    0x305768,%eax
  304ad7:	83 c0 08             	add    $0x8,%eax
  304ada:	c7 00 07 00 00 00    	movl   $0x7,(%eax)
  304ae0:	a1 70 57 30 00       	mov    0x305770,%eax
  304ae5:	c1 e8 0c             	shr    $0xc,%eax
  304ae8:	89 c2                	mov    %eax,%edx
  304aea:	a1 68 57 30 00       	mov    0x305768,%eax
  304aef:	83 c0 08             	add    $0x8,%eax
  304af2:	81 e2 ff ff 0f 00    	and    $0xfffff,%edx
  304af8:	89 d1                	mov    %edx,%ecx
  304afa:	83 e1 0f             	and    $0xf,%ecx
  304afd:	89 cb                	mov    %ecx,%ebx
  304aff:	c1 e3 04             	shl    $0x4,%ebx
  304b02:	0f b6 48 01          	movzbl 0x1(%eax),%ecx
  304b06:	83 e1 0f             	and    $0xf,%ecx
  304b09:	09 d9                	or     %ebx,%ecx
  304b0b:	88 48 01             	mov    %cl,0x1(%eax)
  304b0e:	89 d1                	mov    %edx,%ecx
  304b10:	c1 e9 04             	shr    $0x4,%ecx
  304b13:	0f b6 d9             	movzbl %cl,%ebx
  304b16:	0f b6 48 02          	movzbl 0x2(%eax),%ecx
  304b1a:	83 e1 00             	and    $0x0,%ecx
  304b1d:	09 d9                	or     %ebx,%ecx
  304b1f:	88 48 02             	mov    %cl,0x2(%eax)
  304b22:	c1 ea 0c             	shr    $0xc,%edx
  304b25:	0f b6 ca             	movzbl %dl,%ecx
  304b28:	0f b6 50 03          	movzbl 0x3(%eax),%edx
  304b2c:	83 e2 00             	and    $0x0,%edx
  304b2f:	09 ca                	or     %ecx,%edx
  304b31:	88 50 03             	mov    %dl,0x3(%eax)
  304b34:	83 ec 04             	sub    $0x4,%esp
  304b37:	68 00 00 40 00       	push   $0x400000
  304b3c:	6a 00                	push   $0x0
  304b3e:	68 58 56 30 00       	push   $0x305658
  304b43:	e8 88 e5 ff ff       	call   3030d0 <printf>
  304b48:	83 c4 10             	add    $0x10,%esp
  304b4b:	83 ec 04             	sub    $0x4,%esp
  304b4e:	68 00 f0 7f 00       	push   $0x7ff000
  304b53:	68 00 00 40 00       	push   $0x400000
  304b58:	68 80 56 30 00       	push   $0x305680
  304b5d:	e8 6e e5 ff ff       	call   3030d0 <printf>
  304b62:	83 c4 10             	add    $0x10,%esp
  304b65:	83 ec 04             	sub    $0x4,%esp
  304b68:	68 00 f0 bf 00       	push   $0xbff000
  304b6d:	68 00 00 80 00       	push   $0x800000
  304b72:	68 a4 56 30 00       	push   $0x3056a4
  304b77:	e8 54 e5 ff ff       	call   3030d0 <printf>
  304b7c:	83 c4 10             	add    $0x10,%esp
  304b7f:	a1 50 57 30 00       	mov    0x305750,%eax
  304b84:	0f 22 d8             	mov    %eax,%cr3
  304b87:	0f 20 c0             	mov    %cr0,%eax
  304b8a:	89 45 f0             	mov    %eax,-0x10(%ebp)
  304b8d:	8b 45 f0             	mov    -0x10(%ebp),%eax
  304b90:	89 45 ec             	mov    %eax,-0x14(%ebp)
  304b93:	8b 45 ec             	mov    -0x14(%ebp),%eax
  304b96:	0d 00 00 00 80       	or     $0x80000000,%eax
  304b9b:	0f 22 c0             	mov    %eax,%cr0
  304b9e:	83 ec 0c             	sub    $0xc,%esp
  304ba1:	68 c7 56 30 00       	push   $0x3056c7
  304ba6:	e8 25 e5 ff ff       	call   3030d0 <printf>
  304bab:	83 c4 10             	add    $0x10,%esp
  304bae:	90                   	nop
  304baf:	8b 5d fc             	mov    -0x4(%ebp),%ebx
  304bb2:	c9                   	leave
  304bb3:	c3                   	ret

00304bb4 <config_clock_interrupt>:
  304bb4:	55                   	push   %ebp
  304bb5:	89 e5                	mov    %esp,%ebp
  304bb7:	53                   	push   %ebx
  304bb8:	83 ec 10             	sub    $0x10,%esp
  304bbb:	0f 01 4d f2          	sidtl  -0xe(%ebp)
  304bbf:	8b 45 f4             	mov    -0xc(%ebp),%eax
  304bc2:	05 00 01 00 00       	add    $0x100,%eax
  304bc7:	89 45 f8             	mov    %eax,-0x8(%ebp)
  304bca:	b8 5e 40 30 00       	mov    $0x30405e,%eax
  304bcf:	89 c2                	mov    %eax,%edx
  304bd1:	8b 45 f8             	mov    -0x8(%ebp),%eax
  304bd4:	0f b7 ca             	movzwl %dx,%ecx
  304bd7:	0f b6 d9             	movzbl %cl,%ebx
  304bda:	0f b6 08             	movzbl (%eax),%ecx
  304bdd:	83 e1 00             	and    $0x0,%ecx
  304be0:	09 d9                	or     %ebx,%ecx
  304be2:	88 08                	mov    %cl,(%eax)
  304be4:	66 c1 ea 08          	shr    $0x8,%dx
  304be8:	0f b7 ca             	movzwl %dx,%ecx
  304beb:	0f b6 50 01          	movzbl 0x1(%eax),%edx
  304bef:	83 e2 00             	and    $0x0,%edx
  304bf2:	09 ca                	or     %ecx,%edx
  304bf4:	88 50 01             	mov    %dl,0x1(%eax)
  304bf7:	b8 5e 40 30 00       	mov    $0x30405e,%eax
  304bfc:	c1 e8 10             	shr    $0x10,%eax
  304bff:	89 c2                	mov    %eax,%edx
  304c01:	8b 45 f8             	mov    -0x8(%ebp),%eax
  304c04:	0f b7 ca             	movzwl %dx,%ecx
  304c07:	0f b6 d9             	movzbl %cl,%ebx
  304c0a:	0f b6 48 06          	movzbl 0x6(%eax),%ecx
  304c0e:	83 e1 00             	and    $0x0,%ecx
  304c11:	09 d9                	or     %ebx,%ecx
  304c13:	88 48 06             	mov    %cl,0x6(%eax)
  304c16:	66 c1 ea 08          	shr    $0x8,%dx
  304c1a:	0f b7 ca             	movzwl %dx,%ecx
  304c1d:	0f b6 50 07          	movzbl 0x7(%eax),%edx
  304c21:	83 e2 00             	and    $0x0,%edx
  304c24:	09 ca                	or     %ecx,%edx
  304c26:	88 50 07             	mov    %dl,0x7(%eax)
  304c29:	8b 45 f8             	mov    -0x8(%ebp),%eax
  304c2c:	0f b6 50 05          	movzbl 0x5(%eax),%edx
  304c30:	83 ca 60             	or     $0x60,%edx
  304c33:	88 50 05             	mov    %dl,0x5(%eax)
  304c36:	90                   	nop
  304c37:	8b 5d fc             	mov    -0x4(%ebp),%ebx
  304c3a:	c9                   	leave
  304c3b:	c3                   	ret

00304c3c <config_task>:
  304c3c:	55                   	push   %ebp
  304c3d:	89 e5                	mov    %esp,%ebp
  304c3f:	8b 45 08             	mov    0x8(%ebp),%eax
  304c42:	8b 55 0c             	mov    0xc(%ebp),%edx
  304c45:	89 10                	mov    %edx,(%eax)
  304c47:	8b 45 08             	mov    0x8(%ebp),%eax
  304c4a:	8b 55 10             	mov    0x10(%ebp),%edx
  304c4d:	89 50 04             	mov    %edx,0x4(%eax)
  304c50:	8b 45 08             	mov    0x8(%ebp),%eax
  304c53:	8b 55 14             	mov    0x14(%ebp),%edx
  304c56:	89 50 08             	mov    %edx,0x8(%eax)
  304c59:	8b 45 08             	mov    0x8(%ebp),%eax
  304c5c:	83 c0 0c             	add    $0xc,%eax
  304c5f:	6a 3c                	push   $0x3c
  304c61:	6a 00                	push   $0x0
  304c63:	50                   	push   %eax
  304c64:	e8 16 f3 ff ff       	call   303f7f <memset>
  304c69:	83 c4 0c             	add    $0xc,%esp
  304c6c:	8b 45 08             	mov    0x8(%ebp),%eax
  304c6f:	c6 40 48 00          	movb   $0x0,0x48(%eax)
  304c73:	90                   	nop
  304c74:	c9                   	leave
  304c75:	c3                   	ret

00304c76 <tp>:
  304c76:	55                   	push   %ebp
  304c77:	89 e5                	mov    %esp,%ebp
  304c79:	83 ec 08             	sub    $0x8,%esp
  304c7c:	e8 9d f5 ff ff       	call   30421e <config_segmentation>
  304c81:	e8 b1 f8 ff ff       	call   304537 <config_pgds>
  304c86:	e8 29 ff ff ff       	call   304bb4 <config_clock_interrupt>
  304c8b:	8b 15 58 57 30 00    	mov    0x305758,%edx
  304c91:	a1 78 57 30 00       	mov    0x305778,%eax
  304c96:	52                   	push   %edx
  304c97:	50                   	push   %eax
  304c98:	68 00 40 40 00       	push   $0x404000
  304c9d:	68 80 84 30 00       	push   $0x308480
  304ca2:	e8 95 ff ff ff       	call   304c3c <config_task>
  304ca7:	83 c4 10             	add    $0x10,%esp
  304caa:	8b 15 68 57 30 00    	mov    0x305768,%edx
  304cb0:	a1 7c 57 30 00       	mov    0x30577c,%eax
  304cb5:	52                   	push   %edx
  304cb6:	50                   	push   %eax
  304cb7:	68 00 40 80 00       	push   $0x804000
  304cbc:	68 cc 84 30 00       	push   $0x3084cc
  304cc1:	e8 76 ff ff ff       	call   304c3c <config_task>
  304cc6:	83 c4 10             	add    $0x10,%esp
  304cc9:	fb                   	sti
  304cca:	90                   	nop
  304ccb:	8b 0d 80 84 30 00    	mov    0x308480,%ecx
  304cd1:	8b 15 88 84 30 00    	mov    0x308488,%edx
  304cd7:	a1 84 84 30 00       	mov    0x308484,%eax
  304cdc:	83 ec 04             	sub    $0x4,%esp
  304cdf:	51                   	push   %ecx
  304ce0:	52                   	push   %edx
  304ce1:	50                   	push   %eax
  304ce2:	e8 3a f3 ff ff       	call   304021 <ring_0_to_ring_3_task>
  304ce7:	83 c4 10             	add    $0x10,%esp
  304cea:	90                   	nop
  304ceb:	c9                   	leave
  304cec:	c3                   	ret
  304ced:	66 90                	xchg   %ax,%ax
  304cef:	90                   	nop

00304cf0 <__divdi3>:
  304cf0:	f3 0f 1e fb          	endbr32
  304cf4:	55                   	push   %ebp
  304cf5:	57                   	push   %edi
  304cf6:	56                   	push   %esi
  304cf7:	53                   	push   %ebx
  304cf8:	83 ec 1c             	sub    $0x1c,%esp
  304cfb:	8b 5c 24 34          	mov    0x34(%esp),%ebx
  304cff:	8b 4c 24 30          	mov    0x30(%esp),%ecx
  304d03:	c7 44 24 08 00 00 00 	movl   $0x0,0x8(%esp)
  304d0a:	00 
  304d0b:	8b 44 24 38          	mov    0x38(%esp),%eax
  304d0f:	8b 54 24 3c          	mov    0x3c(%esp),%edx
  304d13:	89 0c 24             	mov    %ecx,(%esp)
  304d16:	89 dd                	mov    %ebx,%ebp
  304d18:	89 5c 24 04          	mov    %ebx,0x4(%esp)
  304d1c:	85 db                	test   %ebx,%ebx
  304d1e:	79 18                	jns    304d38 <__divdi3+0x48>
  304d20:	f7 d9                	neg    %ecx
  304d22:	c7 44 24 08 ff ff ff 	movl   $0xffffffff,0x8(%esp)
  304d29:	ff 
  304d2a:	83 d3 00             	adc    $0x0,%ebx
  304d2d:	89 0c 24             	mov    %ecx,(%esp)
  304d30:	f7 db                	neg    %ebx
  304d32:	89 5c 24 04          	mov    %ebx,0x4(%esp)
  304d36:	89 dd                	mov    %ebx,%ebp
  304d38:	89 d3                	mov    %edx,%ebx
  304d3a:	85 d2                	test   %edx,%edx
  304d3c:	79 0d                	jns    304d4b <__divdi3+0x5b>
  304d3e:	f7 d8                	neg    %eax
  304d40:	f7 54 24 08          	notl   0x8(%esp)
  304d44:	83 d2 00             	adc    $0x0,%edx
  304d47:	f7 da                	neg    %edx
  304d49:	89 d3                	mov    %edx,%ebx
  304d4b:	89 c7                	mov    %eax,%edi
  304d4d:	8b 04 24             	mov    (%esp),%eax
  304d50:	85 db                	test   %ebx,%ebx
  304d52:	75 14                	jne    304d68 <__divdi3+0x78>
  304d54:	39 fd                	cmp    %edi,%ebp
  304d56:	73 58                	jae    304db0 <__divdi3+0xc0>
  304d58:	89 ea                	mov    %ebp,%edx
  304d5a:	31 f6                	xor    %esi,%esi
  304d5c:	f7 f7                	div    %edi
  304d5e:	89 c5                	mov    %eax,%ebp
  304d60:	eb 0e                	jmp    304d70 <__divdi3+0x80>
  304d62:	8d b6 00 00 00 00    	lea    0x0(%esi),%esi
  304d68:	39 dd                	cmp    %ebx,%ebp
  304d6a:	73 24                	jae    304d90 <__divdi3+0xa0>
  304d6c:	31 f6                	xor    %esi,%esi
  304d6e:	31 ed                	xor    %ebp,%ebp
  304d70:	8b 4c 24 08          	mov    0x8(%esp),%ecx
  304d74:	89 e8                	mov    %ebp,%eax
  304d76:	89 f2                	mov    %esi,%edx
  304d78:	85 c9                	test   %ecx,%ecx
  304d7a:	74 07                	je     304d83 <__divdi3+0x93>
  304d7c:	f7 d8                	neg    %eax
  304d7e:	83 d2 00             	adc    $0x0,%edx
  304d81:	f7 da                	neg    %edx
  304d83:	83 c4 1c             	add    $0x1c,%esp
  304d86:	5b                   	pop    %ebx
  304d87:	5e                   	pop    %esi
  304d88:	5f                   	pop    %edi
  304d89:	5d                   	pop    %ebp
  304d8a:	c3                   	ret
  304d8b:	2e 8d 74 26 00       	lea    %cs:0x0(%esi,%eiz,1),%esi
  304d90:	0f bd c3             	bsr    %ebx,%eax
  304d93:	83 f0 1f             	xor    $0x1f,%eax
  304d96:	89 c6                	mov    %eax,%esi
  304d98:	75 36                	jne    304dd0 <__divdi3+0xe0>
  304d9a:	39 eb                	cmp    %ebp,%ebx
  304d9c:	72 07                	jb     304da5 <__divdi3+0xb5>
  304d9e:	31 ed                	xor    %ebp,%ebp
  304da0:	39 3c 24             	cmp    %edi,(%esp)
  304da3:	72 cb                	jb     304d70 <__divdi3+0x80>
  304da5:	bd 01 00 00 00       	mov    $0x1,%ebp
  304daa:	eb c4                	jmp    304d70 <__divdi3+0x80>
  304dac:	8d 74 26 00          	lea    0x0(%esi,%eiz,1),%esi
  304db0:	85 ff                	test   %edi,%edi
  304db2:	75 0b                	jne    304dbf <__divdi3+0xcf>
  304db4:	b8 01 00 00 00       	mov    $0x1,%eax
  304db9:	31 d2                	xor    %edx,%edx
  304dbb:	f7 f3                	div    %ebx
  304dbd:	89 c7                	mov    %eax,%edi
  304dbf:	89 e8                	mov    %ebp,%eax
  304dc1:	31 d2                	xor    %edx,%edx
  304dc3:	f7 f7                	div    %edi
  304dc5:	89 c6                	mov    %eax,%esi
  304dc7:	8b 04 24             	mov    (%esp),%eax
  304dca:	f7 f7                	div    %edi
  304dcc:	89 c5                	mov    %eax,%ebp
  304dce:	eb a0                	jmp    304d70 <__divdi3+0x80>
  304dd0:	b8 20 00 00 00       	mov    $0x20,%eax
  304dd5:	89 f1                	mov    %esi,%ecx
  304dd7:	89 fa                	mov    %edi,%edx
  304dd9:	29 f0                	sub    %esi,%eax
  304ddb:	d3 e3                	shl    %cl,%ebx
  304ddd:	89 c1                	mov    %eax,%ecx
  304ddf:	d3 ea                	shr    %cl,%edx
  304de1:	89 f1                	mov    %esi,%ecx
  304de3:	09 da                	or     %ebx,%edx
  304de5:	d3 e7                	shl    %cl,%edi
  304de7:	89 eb                	mov    %ebp,%ebx
  304de9:	89 c1                	mov    %eax,%ecx
  304deb:	d3 eb                	shr    %cl,%ebx
  304ded:	89 54 24 0c          	mov    %edx,0xc(%esp)
  304df1:	89 f1                	mov    %esi,%ecx
  304df3:	8b 14 24             	mov    (%esp),%edx
  304df6:	d3 e5                	shl    %cl,%ebp
  304df8:	89 c1                	mov    %eax,%ecx
  304dfa:	d3 ea                	shr    %cl,%edx
  304dfc:	09 d5                	or     %edx,%ebp
  304dfe:	89 da                	mov    %ebx,%edx
  304e00:	89 e8                	mov    %ebp,%eax
  304e02:	f7 74 24 0c          	divl   0xc(%esp)
  304e06:	89 d3                	mov    %edx,%ebx
  304e08:	89 c5                	mov    %eax,%ebp
  304e0a:	f7 e7                	mul    %edi
  304e0c:	39 d3                	cmp    %edx,%ebx
  304e0e:	72 0f                	jb     304e1f <__divdi3+0x12f>
  304e10:	8b 3c 24             	mov    (%esp),%edi
  304e13:	89 f1                	mov    %esi,%ecx
  304e15:	d3 e7                	shl    %cl,%edi
  304e17:	39 c7                	cmp    %eax,%edi
  304e19:	73 07                	jae    304e22 <__divdi3+0x132>
  304e1b:	39 d3                	cmp    %edx,%ebx
  304e1d:	75 03                	jne    304e22 <__divdi3+0x132>
  304e1f:	83 ed 01             	sub    $0x1,%ebp
  304e22:	31 f6                	xor    %esi,%esi
  304e24:	e9 47 ff ff ff       	jmp    304d70 <__divdi3+0x80>
  304e29:	66 90                	xchg   %ax,%ax
  304e2b:	66 90                	xchg   %ax,%ax
  304e2d:	66 90                	xchg   %ax,%ax
  304e2f:	90                   	nop

00304e30 <__moddi3>:
  304e30:	f3 0f 1e fb          	endbr32
  304e34:	55                   	push   %ebp
  304e35:	57                   	push   %edi
  304e36:	56                   	push   %esi
  304e37:	53                   	push   %ebx
  304e38:	83 ec 2c             	sub    $0x2c,%esp
  304e3b:	8b 54 24 44          	mov    0x44(%esp),%edx
  304e3f:	8b 44 24 40          	mov    0x40(%esp),%eax
  304e43:	c7 44 24 0c 00 00 00 	movl   $0x0,0xc(%esp)
  304e4a:	00 
  304e4b:	8b 4c 24 48          	mov    0x48(%esp),%ecx
  304e4f:	8b 5c 24 4c          	mov    0x4c(%esp),%ebx
  304e53:	89 d6                	mov    %edx,%esi
  304e55:	85 d2                	test   %edx,%edx
  304e57:	79 11                	jns    304e6a <__moddi3+0x3a>
  304e59:	f7 d8                	neg    %eax
  304e5b:	c7 44 24 0c ff ff ff 	movl   $0xffffffff,0xc(%esp)
  304e62:	ff 
  304e63:	83 d2 00             	adc    $0x0,%edx
  304e66:	f7 da                	neg    %edx
  304e68:	89 d6                	mov    %edx,%esi
  304e6a:	89 df                	mov    %ebx,%edi
  304e6c:	85 db                	test   %ebx,%ebx
  304e6e:	0f 88 04 01 00 00    	js     304f78 <__moddi3+0x148>
  304e74:	89 44 24 18          	mov    %eax,0x18(%esp)
  304e78:	89 cb                	mov    %ecx,%ebx
  304e7a:	89 fd                	mov    %edi,%ebp
  304e7c:	75 32                	jne    304eb0 <__moddi3+0x80>
  304e7e:	39 de                	cmp    %ebx,%esi
  304e80:	0f 83 ca 00 00 00    	jae    304f50 <__moddi3+0x120>
  304e86:	8b 44 24 18          	mov    0x18(%esp),%eax
  304e8a:	89 f2                	mov    %esi,%edx
  304e8c:	f7 f3                	div    %ebx
  304e8e:	89 d1                	mov    %edx,%ecx
  304e90:	89 c8                	mov    %ecx,%eax
  304e92:	31 d2                	xor    %edx,%edx
  304e94:	8b 4c 24 0c          	mov    0xc(%esp),%ecx
  304e98:	85 c9                	test   %ecx,%ecx
  304e9a:	74 07                	je     304ea3 <__moddi3+0x73>
  304e9c:	f7 d8                	neg    %eax
  304e9e:	83 d2 00             	adc    $0x0,%edx
  304ea1:	f7 da                	neg    %edx
  304ea3:	83 c4 2c             	add    $0x2c,%esp
  304ea6:	5b                   	pop    %ebx
  304ea7:	5e                   	pop    %esi
  304ea8:	5f                   	pop    %edi
  304ea9:	5d                   	pop    %ebp
  304eaa:	c3                   	ret
  304eab:	2e 8d 74 26 00       	lea    %cs:0x0(%esi,%eiz,1),%esi
  304eb0:	39 fe                	cmp    %edi,%esi
  304eb2:	0f 82 07 01 00 00    	jb     304fbf <__moddi3+0x18f>
  304eb8:	0f bd c7             	bsr    %edi,%eax
  304ebb:	83 f0 1f             	xor    $0x1f,%eax
  304ebe:	89 c7                	mov    %eax,%edi
  304ec0:	ba 20 00 00 00       	mov    $0x20,%edx
  304ec5:	89 f9                	mov    %edi,%ecx
  304ec7:	89 d8                	mov    %ebx,%eax
  304ec9:	29 fa                	sub    %edi,%edx
  304ecb:	d3 e5                	shl    %cl,%ebp
  304ecd:	89 d1                	mov    %edx,%ecx
  304ecf:	89 54 24 1c          	mov    %edx,0x1c(%esp)
  304ed3:	d3 e8                	shr    %cl,%eax
  304ed5:	89 f9                	mov    %edi,%ecx
  304ed7:	d3 e3                	shl    %cl,%ebx
  304ed9:	09 c5                	or     %eax,%ebp
  304edb:	89 d1                	mov    %edx,%ecx
  304edd:	89 f0                	mov    %esi,%eax
  304edf:	d3 e8                	shr    %cl,%eax
  304ee1:	89 5c 24 10          	mov    %ebx,0x10(%esp)
  304ee5:	89 f9                	mov    %edi,%ecx
  304ee7:	89 d3                	mov    %edx,%ebx
  304ee9:	89 c2                	mov    %eax,%edx
  304eeb:	8b 44 24 18          	mov    0x18(%esp),%eax
  304eef:	d3 e6                	shl    %cl,%esi
  304ef1:	89 d9                	mov    %ebx,%ecx
  304ef3:	d3 e8                	shr    %cl,%eax
  304ef5:	89 f9                	mov    %edi,%ecx
  304ef7:	09 f0                	or     %esi,%eax
  304ef9:	8b 74 24 18          	mov    0x18(%esp),%esi
  304efd:	f7 f5                	div    %ebp
  304eff:	d3 e6                	shl    %cl,%esi
  304f01:	89 d3                	mov    %edx,%ebx
  304f03:	89 74 24 18          	mov    %esi,0x18(%esp)
  304f07:	f7 64 24 10          	mull   0x10(%esp)
  304f0b:	89 c6                	mov    %eax,%esi
  304f0d:	89 d1                	mov    %edx,%ecx
  304f0f:	39 d3                	cmp    %edx,%ebx
  304f11:	72 08                	jb     304f1b <__moddi3+0xeb>
  304f13:	75 10                	jne    304f25 <__moddi3+0xf5>
  304f15:	39 44 24 18          	cmp    %eax,0x18(%esp)
  304f19:	73 0a                	jae    304f25 <__moddi3+0xf5>
  304f1b:	2b 44 24 10          	sub    0x10(%esp),%eax
  304f1f:	19 ea                	sbb    %ebp,%edx
  304f21:	89 d1                	mov    %edx,%ecx
  304f23:	89 c6                	mov    %eax,%esi
  304f25:	8b 6c 24 18          	mov    0x18(%esp),%ebp
  304f29:	29 f5                	sub    %esi,%ebp
  304f2b:	19 cb                	sbb    %ecx,%ebx
  304f2d:	0f b6 4c 24 1c       	movzbl 0x1c(%esp),%ecx
  304f32:	89 de                	mov    %ebx,%esi
  304f34:	d3 e6                	shl    %cl,%esi
  304f36:	89 f9                	mov    %edi,%ecx
  304f38:	d3 ed                	shr    %cl,%ebp
  304f3a:	d3 eb                	shr    %cl,%ebx
  304f3c:	09 ee                	or     %ebp,%esi
  304f3e:	89 da                	mov    %ebx,%edx
  304f40:	89 f0                	mov    %esi,%eax
  304f42:	e9 4d ff ff ff       	jmp    304e94 <__moddi3+0x64>
  304f47:	2e 8d b4 26 00 00 00 	lea    %cs:0x0(%esi,%eiz,1),%esi
  304f4e:	00 
  304f4f:	90                   	nop
  304f50:	85 db                	test   %ebx,%ebx
  304f52:	75 0b                	jne    304f5f <__moddi3+0x12f>
  304f54:	b8 01 00 00 00       	mov    $0x1,%eax
  304f59:	31 d2                	xor    %edx,%edx
  304f5b:	f7 f3                	div    %ebx
  304f5d:	89 c3                	mov    %eax,%ebx
  304f5f:	89 f0                	mov    %esi,%eax
  304f61:	31 d2                	xor    %edx,%edx
  304f63:	f7 f3                	div    %ebx
  304f65:	8b 44 24 18          	mov    0x18(%esp),%eax
  304f69:	f7 f3                	div    %ebx
  304f6b:	89 d1                	mov    %edx,%ecx
  304f6d:	e9 1e ff ff ff       	jmp    304e90 <__moddi3+0x60>
  304f72:	8d b6 00 00 00 00    	lea    0x0(%esi),%esi
  304f78:	f7 d9                	neg    %ecx
  304f7a:	89 44 24 18          	mov    %eax,0x18(%esp)
  304f7e:	83 d3 00             	adc    $0x0,%ebx
  304f81:	89 4c 24 10          	mov    %ecx,0x10(%esp)
  304f85:	f7 db                	neg    %ebx
  304f87:	89 5c 24 14          	mov    %ebx,0x14(%esp)
  304f8b:	89 dd                	mov    %ebx,%ebp
  304f8d:	89 cb                	mov    %ecx,%ebx
  304f8f:	0f 84 e9 fe ff ff    	je     304e7e <__moddi3+0x4e>
  304f95:	89 c1                	mov    %eax,%ecx
  304f97:	39 ee                	cmp    %ebp,%esi
  304f99:	72 26                	jb     304fc1 <__moddi3+0x191>
  304f9b:	0f bd c5             	bsr    %ebp,%eax
  304f9e:	83 f0 1f             	xor    $0x1f,%eax
  304fa1:	89 c7                	mov    %eax,%edi
  304fa3:	0f 85 17 ff ff ff    	jne    304ec0 <__moddi3+0x90>
  304fa9:	39 f5                	cmp    %esi,%ebp
  304fab:	72 06                	jb     304fb3 <__moddi3+0x183>
  304fad:	39 5c 24 18          	cmp    %ebx,0x18(%esp)
  304fb1:	72 0e                	jb     304fc1 <__moddi3+0x191>
  304fb3:	8b 44 24 18          	mov    0x18(%esp),%eax
  304fb7:	2b 44 24 10          	sub    0x10(%esp),%eax
  304fbb:	1b 74 24 14          	sbb    0x14(%esp),%esi
  304fbf:	89 c1                	mov    %eax,%ecx
  304fc1:	89 c8                	mov    %ecx,%eax
  304fc3:	89 f2                	mov    %esi,%edx
  304fc5:	e9 ca fe ff ff       	jmp    304e94 <__moddi3+0x64>
  304fca:	66 90                	xchg   %ax,%ax
  304fcc:	66 90                	xchg   %ax,%ax
  304fce:	66 90                	xchg   %ax,%ax

00304fd0 <__udivdi3>:
  304fd0:	f3 0f 1e fb          	endbr32
  304fd4:	55                   	push   %ebp
  304fd5:	57                   	push   %edi
  304fd6:	56                   	push   %esi
  304fd7:	53                   	push   %ebx
  304fd8:	83 ec 1c             	sub    $0x1c,%esp
  304fdb:	8b 44 24 3c          	mov    0x3c(%esp),%eax
  304fdf:	8b 6c 24 30          	mov    0x30(%esp),%ebp
  304fe3:	8b 74 24 34          	mov    0x34(%esp),%esi
  304fe7:	8b 5c 24 38          	mov    0x38(%esp),%ebx
  304feb:	85 c0                	test   %eax,%eax
  304fed:	75 19                	jne    305008 <__udivdi3+0x38>
  304fef:	39 de                	cmp    %ebx,%esi
  304ff1:	73 4d                	jae    305040 <__udivdi3+0x70>
  304ff3:	31 ff                	xor    %edi,%edi
  304ff5:	89 e8                	mov    %ebp,%eax
  304ff7:	89 f2                	mov    %esi,%edx
  304ff9:	f7 f3                	div    %ebx
  304ffb:	89 fa                	mov    %edi,%edx
  304ffd:	83 c4 1c             	add    $0x1c,%esp
  305000:	5b                   	pop    %ebx
  305001:	5e                   	pop    %esi
  305002:	5f                   	pop    %edi
  305003:	5d                   	pop    %ebp
  305004:	c3                   	ret
  305005:	8d 76 00             	lea    0x0(%esi),%esi
  305008:	39 c6                	cmp    %eax,%esi
  30500a:	73 14                	jae    305020 <__udivdi3+0x50>
  30500c:	31 ff                	xor    %edi,%edi
  30500e:	31 c0                	xor    %eax,%eax
  305010:	89 fa                	mov    %edi,%edx
  305012:	83 c4 1c             	add    $0x1c,%esp
  305015:	5b                   	pop    %ebx
  305016:	5e                   	pop    %esi
  305017:	5f                   	pop    %edi
  305018:	5d                   	pop    %ebp
  305019:	c3                   	ret
  30501a:	8d b6 00 00 00 00    	lea    0x0(%esi),%esi
  305020:	0f bd f8             	bsr    %eax,%edi
  305023:	83 f7 1f             	xor    $0x1f,%edi
  305026:	75 48                	jne    305070 <__udivdi3+0xa0>
  305028:	39 f0                	cmp    %esi,%eax
  30502a:	72 06                	jb     305032 <__udivdi3+0x62>
  30502c:	31 c0                	xor    %eax,%eax
  30502e:	39 dd                	cmp    %ebx,%ebp
  305030:	72 de                	jb     305010 <__udivdi3+0x40>
  305032:	b8 01 00 00 00       	mov    $0x1,%eax
  305037:	eb d7                	jmp    305010 <__udivdi3+0x40>
  305039:	8d b4 26 00 00 00 00 	lea    0x0(%esi,%eiz,1),%esi
  305040:	89 d9                	mov    %ebx,%ecx
  305042:	85 db                	test   %ebx,%ebx
  305044:	75 0b                	jne    305051 <__udivdi3+0x81>
  305046:	b8 01 00 00 00       	mov    $0x1,%eax
  30504b:	31 d2                	xor    %edx,%edx
  30504d:	f7 f3                	div    %ebx
  30504f:	89 c1                	mov    %eax,%ecx
  305051:	31 d2                	xor    %edx,%edx
  305053:	89 f0                	mov    %esi,%eax
  305055:	f7 f1                	div    %ecx
  305057:	89 c6                	mov    %eax,%esi
  305059:	89 e8                	mov    %ebp,%eax
  30505b:	89 f7                	mov    %esi,%edi
  30505d:	f7 f1                	div    %ecx
  30505f:	89 fa                	mov    %edi,%edx
  305061:	83 c4 1c             	add    $0x1c,%esp
  305064:	5b                   	pop    %ebx
  305065:	5e                   	pop    %esi
  305066:	5f                   	pop    %edi
  305067:	5d                   	pop    %ebp
  305068:	c3                   	ret
  305069:	8d b4 26 00 00 00 00 	lea    0x0(%esi,%eiz,1),%esi
  305070:	89 f9                	mov    %edi,%ecx
  305072:	ba 20 00 00 00       	mov    $0x20,%edx
  305077:	29 fa                	sub    %edi,%edx
  305079:	d3 e0                	shl    %cl,%eax
  30507b:	89 44 24 08          	mov    %eax,0x8(%esp)
  30507f:	89 d1                	mov    %edx,%ecx
  305081:	89 d8                	mov    %ebx,%eax
  305083:	d3 e8                	shr    %cl,%eax
  305085:	89 c1                	mov    %eax,%ecx
  305087:	8b 44 24 08          	mov    0x8(%esp),%eax
  30508b:	09 c1                	or     %eax,%ecx
  30508d:	89 f0                	mov    %esi,%eax
  30508f:	89 4c 24 08          	mov    %ecx,0x8(%esp)
  305093:	89 f9                	mov    %edi,%ecx
  305095:	d3 e3                	shl    %cl,%ebx
  305097:	89 d1                	mov    %edx,%ecx
  305099:	d3 e8                	shr    %cl,%eax
  30509b:	89 f9                	mov    %edi,%ecx
  30509d:	89 5c 24 0c          	mov    %ebx,0xc(%esp)
  3050a1:	89 eb                	mov    %ebp,%ebx
  3050a3:	d3 e6                	shl    %cl,%esi
  3050a5:	89 d1                	mov    %edx,%ecx
  3050a7:	d3 eb                	shr    %cl,%ebx
  3050a9:	09 f3                	or     %esi,%ebx
  3050ab:	89 c6                	mov    %eax,%esi
  3050ad:	89 f2                	mov    %esi,%edx
  3050af:	89 d8                	mov    %ebx,%eax
  3050b1:	f7 74 24 08          	divl   0x8(%esp)
  3050b5:	89 d6                	mov    %edx,%esi
  3050b7:	89 c3                	mov    %eax,%ebx
  3050b9:	f7 64 24 0c          	mull   0xc(%esp)
  3050bd:	39 d6                	cmp    %edx,%esi
  3050bf:	72 1f                	jb     3050e0 <__udivdi3+0x110>
  3050c1:	89 f9                	mov    %edi,%ecx
  3050c3:	d3 e5                	shl    %cl,%ebp
  3050c5:	39 c5                	cmp    %eax,%ebp
  3050c7:	73 04                	jae    3050cd <__udivdi3+0xfd>
  3050c9:	39 d6                	cmp    %edx,%esi
  3050cb:	74 13                	je     3050e0 <__udivdi3+0x110>
  3050cd:	89 d8                	mov    %ebx,%eax
  3050cf:	31 ff                	xor    %edi,%edi
  3050d1:	e9 3a ff ff ff       	jmp    305010 <__udivdi3+0x40>
  3050d6:	2e 8d b4 26 00 00 00 	lea    %cs:0x0(%esi,%eiz,1),%esi
  3050dd:	00 
  3050de:	66 90                	xchg   %ax,%ax
  3050e0:	8d 43 ff             	lea    -0x1(%ebx),%eax
  3050e3:	31 ff                	xor    %edi,%edi
  3050e5:	e9 26 ff ff ff       	jmp    305010 <__udivdi3+0x40>
  3050ea:	66 90                	xchg   %ax,%ax
  3050ec:	66 90                	xchg   %ax,%ax
  3050ee:	66 90                	xchg   %ax,%ax

003050f0 <__umoddi3>:
  3050f0:	f3 0f 1e fb          	endbr32
  3050f4:	55                   	push   %ebp
  3050f5:	57                   	push   %edi
  3050f6:	56                   	push   %esi
  3050f7:	53                   	push   %ebx
  3050f8:	83 ec 1c             	sub    $0x1c,%esp
  3050fb:	8b 5c 24 34          	mov    0x34(%esp),%ebx
  3050ff:	8b 44 24 3c          	mov    0x3c(%esp),%eax
  305103:	8b 74 24 30          	mov    0x30(%esp),%esi
  305107:	8b 7c 24 38          	mov    0x38(%esp),%edi
  30510b:	89 da                	mov    %ebx,%edx
  30510d:	85 c0                	test   %eax,%eax
  30510f:	75 17                	jne    305128 <__umoddi3+0x38>
  305111:	39 fb                	cmp    %edi,%ebx
  305113:	73 53                	jae    305168 <__umoddi3+0x78>
  305115:	89 f0                	mov    %esi,%eax
  305117:	f7 f7                	div    %edi
  305119:	89 d0                	mov    %edx,%eax
  30511b:	31 d2                	xor    %edx,%edx
  30511d:	83 c4 1c             	add    $0x1c,%esp
  305120:	5b                   	pop    %ebx
  305121:	5e                   	pop    %esi
  305122:	5f                   	pop    %edi
  305123:	5d                   	pop    %ebp
  305124:	c3                   	ret
  305125:	8d 76 00             	lea    0x0(%esi),%esi
  305128:	89 f1                	mov    %esi,%ecx
  30512a:	39 c3                	cmp    %eax,%ebx
  30512c:	73 12                	jae    305140 <__umoddi3+0x50>
  30512e:	89 f0                	mov    %esi,%eax
  305130:	83 c4 1c             	add    $0x1c,%esp
  305133:	5b                   	pop    %ebx
  305134:	5e                   	pop    %esi
  305135:	5f                   	pop    %edi
  305136:	5d                   	pop    %ebp
  305137:	c3                   	ret
  305138:	2e 8d b4 26 00 00 00 	lea    %cs:0x0(%esi,%eiz,1),%esi
  30513f:	00 
  305140:	0f bd e8             	bsr    %eax,%ebp
  305143:	83 f5 1f             	xor    $0x1f,%ebp
  305146:	75 48                	jne    305190 <__umoddi3+0xa0>
  305148:	39 d8                	cmp    %ebx,%eax
  30514a:	0f 82 d0 00 00 00    	jb     305220 <__umoddi3+0x130>
  305150:	39 fe                	cmp    %edi,%esi
  305152:	0f 83 c8 00 00 00    	jae    305220 <__umoddi3+0x130>
  305158:	89 c8                	mov    %ecx,%eax
  30515a:	83 c4 1c             	add    $0x1c,%esp
  30515d:	5b                   	pop    %ebx
  30515e:	5e                   	pop    %esi
  30515f:	5f                   	pop    %edi
  305160:	5d                   	pop    %ebp
  305161:	c3                   	ret
  305162:	8d b6 00 00 00 00    	lea    0x0(%esi),%esi
  305168:	89 f9                	mov    %edi,%ecx
  30516a:	85 ff                	test   %edi,%edi
  30516c:	75 0b                	jne    305179 <__umoddi3+0x89>
  30516e:	b8 01 00 00 00       	mov    $0x1,%eax
  305173:	31 d2                	xor    %edx,%edx
  305175:	f7 f7                	div    %edi
  305177:	89 c1                	mov    %eax,%ecx
  305179:	89 d8                	mov    %ebx,%eax
  30517b:	31 d2                	xor    %edx,%edx
  30517d:	f7 f1                	div    %ecx
  30517f:	89 f0                	mov    %esi,%eax
  305181:	f7 f1                	div    %ecx
  305183:	89 d0                	mov    %edx,%eax
  305185:	31 d2                	xor    %edx,%edx
  305187:	eb 94                	jmp    30511d <__umoddi3+0x2d>
  305189:	8d b4 26 00 00 00 00 	lea    0x0(%esi,%eiz,1),%esi
  305190:	89 e9                	mov    %ebp,%ecx
  305192:	ba 20 00 00 00       	mov    $0x20,%edx
  305197:	29 ea                	sub    %ebp,%edx
  305199:	d3 e0                	shl    %cl,%eax
  30519b:	89 44 24 08          	mov    %eax,0x8(%esp)
  30519f:	89 d1                	mov    %edx,%ecx
  3051a1:	89 f8                	mov    %edi,%eax
  3051a3:	d3 e8                	shr    %cl,%eax
  3051a5:	89 54 24 04          	mov    %edx,0x4(%esp)
  3051a9:	8b 54 24 04          	mov    0x4(%esp),%edx
  3051ad:	89 c1                	mov    %eax,%ecx
  3051af:	8b 44 24 08          	mov    0x8(%esp),%eax
  3051b3:	09 c1                	or     %eax,%ecx
  3051b5:	89 d8                	mov    %ebx,%eax
  3051b7:	89 4c 24 08          	mov    %ecx,0x8(%esp)
  3051bb:	89 e9                	mov    %ebp,%ecx
  3051bd:	d3 e7                	shl    %cl,%edi
  3051bf:	89 d1                	mov    %edx,%ecx
  3051c1:	d3 e8                	shr    %cl,%eax
  3051c3:	89 e9                	mov    %ebp,%ecx
  3051c5:	89 7c 24 0c          	mov    %edi,0xc(%esp)
  3051c9:	d3 e3                	shl    %cl,%ebx
  3051cb:	89 c7                	mov    %eax,%edi
  3051cd:	89 d1                	mov    %edx,%ecx
  3051cf:	89 f0                	mov    %esi,%eax
  3051d1:	d3 e8                	shr    %cl,%eax
  3051d3:	89 fa                	mov    %edi,%edx
  3051d5:	89 e9                	mov    %ebp,%ecx
  3051d7:	09 d8                	or     %ebx,%eax
  3051d9:	d3 e6                	shl    %cl,%esi
  3051db:	f7 74 24 08          	divl   0x8(%esp)
  3051df:	89 d3                	mov    %edx,%ebx
  3051e1:	f7 64 24 0c          	mull   0xc(%esp)
  3051e5:	89 c7                	mov    %eax,%edi
  3051e7:	89 d1                	mov    %edx,%ecx
  3051e9:	39 d3                	cmp    %edx,%ebx
  3051eb:	72 06                	jb     3051f3 <__umoddi3+0x103>
  3051ed:	75 10                	jne    3051ff <__umoddi3+0x10f>
  3051ef:	39 c6                	cmp    %eax,%esi
  3051f1:	73 0c                	jae    3051ff <__umoddi3+0x10f>
  3051f3:	2b 44 24 0c          	sub    0xc(%esp),%eax
  3051f7:	1b 54 24 08          	sbb    0x8(%esp),%edx
  3051fb:	89 d1                	mov    %edx,%ecx
  3051fd:	89 c7                	mov    %eax,%edi
  3051ff:	89 f2                	mov    %esi,%edx
  305201:	29 fa                	sub    %edi,%edx
  305203:	19 cb                	sbb    %ecx,%ebx
  305205:	0f b6 4c 24 04       	movzbl 0x4(%esp),%ecx
  30520a:	89 d8                	mov    %ebx,%eax
  30520c:	d3 e0                	shl    %cl,%eax
  30520e:	89 e9                	mov    %ebp,%ecx
  305210:	d3 ea                	shr    %cl,%edx
  305212:	d3 eb                	shr    %cl,%ebx
  305214:	09 d0                	or     %edx,%eax
  305216:	89 da                	mov    %ebx,%edx
  305218:	83 c4 1c             	add    $0x1c,%esp
  30521b:	5b                   	pop    %ebx
  30521c:	5e                   	pop    %esi
  30521d:	5f                   	pop    %edi
  30521e:	5d                   	pop    %ebp
  30521f:	c3                   	ret
  305220:	89 da                	mov    %ebx,%edx
  305222:	89 f1                	mov    %esi,%ecx
  305224:	29 f9                	sub    %edi,%ecx
  305226:	19 c2                	sbb    %eax,%edx
  305228:	89 c8                	mov    %ecx,%eax
  30522a:	e9 2b ff ff ff       	jmp    30515a <__umoddi3+0x6a>

Déassemblage de la section .rodata :

00305230 <.rodata>:
  305230:	0a 73 65             	or     0x65(%ebx),%dh
  305233:	63 6f 73             	arpl   %ebp,0x73(%edi)
  305236:	2d 30 37 30 30       	sub    $0x30303730,%eax
  30523b:	35 63 33 2d 64       	xor    $0x642d3363,%eax
  305240:	31 33                	xor    %esi,(%ebx)
  305242:	37                   	aaa
  305243:	63 37                	arpl   %esi,(%edi)
  305245:	62 20                	bound  %esp,(%eax)
  305247:	28 63 29             	sub    %ah,0x29(%ebx)
  30524a:	20 41 69             	and    %al,0x69(%ecx)
  30524d:	72 62                	jb     3052b1 <__umoddi3+0x1c1>
  30524f:	75 73                	jne    3052c4 <__umoddi3+0x1d4>
  305251:	0a 00                	or     (%eax),%al
  305253:	68 61 6c 74 65       	push   $0x65746c61
  305258:	64 20 21             	and    %ah,%fs:(%ecx)
  30525b:	00 30                	add    %dh,(%eax)
  30525d:	78 00                	js     30525f <__umoddi3+0x16f>
  30525f:	75 6e                	jne    3052cf <__umoddi3+0x1df>
  305261:	73 75                	jae    3052d8 <__umoddi3+0x1e8>
  305263:	70 70                	jo     3052d5 <__umoddi3+0x1e5>
  305265:	6f                   	outsl  %ds:(%esi),(%dx)
  305266:	72 74                	jb     3052dc <__umoddi3+0x1ec>
  305268:	65 64 20 66 6f       	gs and %ah,%fs:0x6f(%esi)
  30526d:	72 6d                	jb     3052dc <__umoddi3+0x1ec>
  30526f:	61                   	popa
  305270:	74 20                	je     305292 <__umoddi3+0x1a2>
  305272:	61                   	popa
  305273:	72 67                	jb     3052dc <__umoddi3+0x1ec>
  305275:	20 27                	and    %ah,(%edi)
  305277:	25 63 27 0a 00       	and    $0xa2763,%eax
  30527c:	0a 49 44             	or     0x44(%ecx),%cl
  30527f:	54                   	push   %esp
  305280:	20 65 76             	and    %ah,0x76(%ebp)
  305283:	65 6e                	outsb  %gs:(%esi),(%dx)
  305285:	74 0a                	je     305291 <__umoddi3+0x1a1>
  305287:	20 2e                	and    %ch,(%esi)
  305289:	20 69 6e             	and    %ch,0x6e(%ecx)
  30528c:	74 20                	je     3052ae <__umoddi3+0x1be>
  30528e:	20 20                	and    %ah,(%eax)
  305290:	20 23                	and    %ah,(%ebx)
  305292:	25 64 0a 20 2e       	and    $0x2e200a64,%eax
  305297:	20 65 72             	and    %ah,0x72(%ebp)
  30529a:	72 6f                	jb     30530b <__umoddi3+0x21b>
  30529c:	72 20                	jb     3052be <__umoddi3+0x1ce>
  30529e:	20 30                	and    %dh,(%eax)
  3052a0:	78 25                	js     3052c7 <__umoddi3+0x1d7>
  3052a2:	78 0a                	js     3052ae <__umoddi3+0x1be>
  3052a4:	20 2e                	and    %ch,(%esi)
  3052a6:	20 63 73             	and    %ah,0x73(%ebx)
  3052a9:	3a 65 69             	cmp    0x69(%ebp),%ah
  3052ac:	70 20                	jo     3052ce <__umoddi3+0x1de>
  3052ae:	30 78 25             	xor    %bh,0x25(%eax)
  3052b1:	78 3a                	js     3052ed <__umoddi3+0x1fd>
  3052b3:	30 78 25             	xor    %bh,0x25(%eax)
  3052b6:	78 0a                	js     3052c2 <__umoddi3+0x1d2>
  3052b8:	20 2e                	and    %ch,(%esi)
  3052ba:	20 73 73             	and    %dh,0x73(%ebx)
  3052bd:	3a 65 73             	cmp    0x73(%ebp),%ah
  3052c0:	70 20                	jo     3052e2 <__umoddi3+0x1f2>
  3052c2:	30 78 25             	xor    %bh,0x25(%eax)
  3052c5:	78 3a                	js     305301 <__umoddi3+0x211>
  3052c7:	30 78 25             	xor    %bh,0x25(%eax)
  3052ca:	78 0a                	js     3052d6 <__umoddi3+0x1e6>
  3052cc:	20 2e                	and    %ch,(%esi)
  3052ce:	20 65 66             	and    %ah,0x66(%ebp)
  3052d1:	6c                   	insb   (%dx),%es:(%edi)
  3052d2:	61                   	popa
  3052d3:	67 73 20             	addr16 jae 3052f6 <__umoddi3+0x206>
  3052d6:	30 78 25             	xor    %bh,0x25(%eax)
  3052d9:	78 0a                	js     3052e5 <__umoddi3+0x1f5>
  3052db:	0a 2d 20 47 50 52    	or     0x52504720,%ch
  3052e1:	0a 65 61             	or     0x61(%ebp),%ah
  3052e4:	78 20                	js     305306 <__umoddi3+0x216>
  3052e6:	20 20                	and    %ah,(%eax)
  3052e8:	20 20                	and    %ah,(%eax)
  3052ea:	3a 20                	cmp    (%eax),%ah
  3052ec:	30 78 25             	xor    %bh,0x25(%eax)
  3052ef:	78 0a                	js     3052fb <__umoddi3+0x20b>
  3052f1:	65 63 78 20          	arpl   %edi,%gs:0x20(%eax)
  3052f5:	20 20                	and    %ah,(%eax)
  3052f7:	20 20                	and    %ah,(%eax)
  3052f9:	3a 20                	cmp    (%eax),%ah
  3052fb:	30 78 25             	xor    %bh,0x25(%eax)
  3052fe:	78 0a                	js     30530a <__umoddi3+0x21a>
  305300:	65 64 78 20          	gs fs js 305324 <__umoddi3+0x234>
  305304:	20 20                	and    %ah,(%eax)
  305306:	20 20                	and    %ah,(%eax)
  305308:	3a 20                	cmp    (%eax),%ah
  30530a:	30 78 25             	xor    %bh,0x25(%eax)
  30530d:	78 0a                	js     305319 <__umoddi3+0x229>
  30530f:	65 62 78 20          	bound  %edi,%gs:0x20(%eax)
  305313:	20 20                	and    %ah,(%eax)
  305315:	20 20                	and    %ah,(%eax)
  305317:	3a 20                	cmp    (%eax),%ah
  305319:	30 78 25             	xor    %bh,0x25(%eax)
  30531c:	78 0a                	js     305328 <__umoddi3+0x238>
  30531e:	65 73 70             	gs jae 305391 <__umoddi3+0x2a1>
  305321:	20 20                	and    %ah,(%eax)
  305323:	20 20                	and    %ah,(%eax)
  305325:	20 3a                	and    %bh,(%edx)
  305327:	20 30                	and    %dh,(%eax)
  305329:	78 25                	js     305350 <__umoddi3+0x260>
  30532b:	78 0a                	js     305337 <__umoddi3+0x247>
  30532d:	65 62 70 20          	bound  %esi,%gs:0x20(%eax)
  305331:	20 20                	and    %ah,(%eax)
  305333:	20 20                	and    %ah,(%eax)
  305335:	3a 20                	cmp    (%eax),%ah
  305337:	30 78 25             	xor    %bh,0x25(%eax)
  30533a:	78 0a                	js     305346 <__umoddi3+0x256>
  30533c:	65 73 69             	gs jae 3053a8 <__umoddi3+0x2b8>
  30533f:	20 20                	and    %ah,(%eax)
  305341:	20 20                	and    %ah,(%eax)
  305343:	20 3a                	and    %bh,(%edx)
  305345:	20 30                	and    %dh,(%eax)
  305347:	78 25                	js     30536e <__umoddi3+0x27e>
  305349:	78 0a                	js     305355 <__umoddi3+0x265>
  30534b:	65 64 69 20 20 20 20 	gs imul $0x20202020,%fs:(%eax),%esp
  305352:	20 
  305353:	3a 20                	cmp    (%eax),%ah
  305355:	30 78 25             	xor    %bh,0x25(%eax)
  305358:	78 0a                	js     305364 <__umoddi3+0x274>
  30535a:	00 69 67             	add    %ch,0x67(%ecx)
  30535d:	6e                   	outsb  %ds:(%esi),(%dx)
  30535e:	6f                   	outsl  %ds:(%esi),(%dx)
  30535f:	72 65                	jb     3053c6 <__umoddi3+0x2d6>
  305361:	20 49 52             	and    %cl,0x52(%ecx)
  305364:	51                   	push   %ecx
  305365:	20 25 64 0a 00 00    	and    %ah,0xa64
  30536b:	00 44 69 76          	add    %al,0x76(%ecx,%ebp,2)
  30536f:	69 64 65 20 62 79 20 	imul   $0x7a207962,0x20(%ebp,%eiz,2),%esp
  305376:	7a 
  305377:	65 72 6f             	gs jb  3053e9 <__umoddi3+0x2f9>
  30537a:	00 44 65 62          	add    %al,0x62(%ebp,%eiz,2)
  30537e:	75 67                	jne    3053e7 <__umoddi3+0x2f7>
  305380:	00 4e 4d             	add    %cl,0x4d(%esi)
  305383:	49                   	dec    %ecx
  305384:	20 69 6e             	and    %ch,0x6e(%ecx)
  305387:	74 65                	je     3053ee <__umoddi3+0x2fe>
  305389:	72 72                	jb     3053fd <__umoddi3+0x30d>
  30538b:	75 70                	jne    3053fd <__umoddi3+0x30d>
  30538d:	74 00                	je     30538f <__umoddi3+0x29f>
  30538f:	42                   	inc    %edx
  305390:	72 65                	jb     3053f7 <__umoddi3+0x307>
  305392:	61                   	popa
  305393:	6b 70 6f 69          	imul   $0x69,0x6f(%eax),%esi
  305397:	6e                   	outsb  %ds:(%esi),(%dx)
  305398:	74 00                	je     30539a <__umoddi3+0x2aa>
  30539a:	4f                   	dec    %edi
  30539b:	76 65                	jbe    305402 <__umoddi3+0x312>
  30539d:	72 66                	jb     305405 <__umoddi3+0x315>
  30539f:	6c                   	insb   (%dx),%es:(%edi)
  3053a0:	6f                   	outsl  %ds:(%esi),(%dx)
  3053a1:	77 00                	ja     3053a3 <__umoddi3+0x2b3>
  3053a3:	42                   	inc    %edx
  3053a4:	4f                   	dec    %edi
  3053a5:	55                   	push   %ebp
  3053a6:	4e                   	dec    %esi
  3053a7:	44                   	inc    %esp
  3053a8:	20 72 61             	and    %dh,0x61(%edx)
  3053ab:	6e                   	outsb  %ds:(%esi),(%dx)
  3053ac:	67 65 20 65 78       	and    %ah,%gs:0x78(%di)
  3053b1:	63 65 65             	arpl   %esp,0x65(%ebp)
  3053b4:	64 65 64 00 49 6e    	fs gs add %cl,%fs:0x6e(%ecx)
  3053ba:	76 61                	jbe    30541d <__umoddi3+0x32d>
  3053bc:	6c                   	insb   (%dx),%es:(%edi)
  3053bd:	69 64 20 4f 70 63 6f 	imul   $0x646f6370,0x4f(%eax,%eiz,1),%esp
  3053c4:	64 
  3053c5:	65 00 44 65 76       	add    %al,%gs:0x76(%ebp,%eiz,2)
  3053ca:	69 63 65 20 6e 6f 74 	imul   $0x746f6e20,0x65(%ebx),%esp
  3053d1:	20 61 76             	and    %ah,0x76(%ecx)
  3053d4:	61                   	popa
  3053d5:	69 6c 61 62 6c 65 00 	imul   $0x4400656c,0x62(%ecx,%eiz,2),%ebp
  3053dc:	44 
  3053dd:	6f                   	outsl  %ds:(%esi),(%dx)
  3053de:	75 62                	jne    305442 <__umoddi3+0x352>
  3053e0:	6c                   	insb   (%dx),%es:(%edi)
  3053e1:	65 20 66 61          	and    %ah,%gs:0x61(%esi)
  3053e5:	75 6c                	jne    305453 <__umoddi3+0x363>
  3053e7:	74 00                	je     3053e9 <__umoddi3+0x2f9>
  3053e9:	43                   	inc    %ebx
  3053ea:	6f                   	outsl  %ds:(%esi),(%dx)
  3053eb:	70 72                	jo     30545f <__umoddi3+0x36f>
  3053ed:	6f                   	outsl  %ds:(%esi),(%dx)
  3053ee:	63 65 73             	arpl   %esp,0x73(%ebp)
  3053f1:	73 6f                	jae    305462 <__umoddi3+0x372>
  3053f3:	72 20                	jb     305415 <__umoddi3+0x325>
  3053f5:	73 65                	jae    30545c <__umoddi3+0x36c>
  3053f7:	67 6d                	insl   (%dx),%es:(%di)
  3053f9:	65 6e                	outsb  %gs:(%esi),(%dx)
  3053fb:	74 20                	je     30541d <__umoddi3+0x32d>
  3053fd:	6f                   	outsl  %ds:(%esi),(%dx)
  3053fe:	76 65                	jbe    305465 <__umoddi3+0x375>
  305400:	72 72                	jb     305474 <__umoddi3+0x384>
  305402:	75 6e                	jne    305472 <__umoddi3+0x382>
  305404:	00 49 6e             	add    %cl,0x6e(%ecx)
  305407:	76 61                	jbe    30546a <__umoddi3+0x37a>
  305409:	6c                   	insb   (%dx),%es:(%edi)
  30540a:	69 64 20 54 53 53 00 	imul   $0x53005353,0x54(%eax,%eiz,1),%esp
  305411:	53 
  305412:	65 67 6d             	gs insl (%dx),%es:(%di)
  305415:	65 6e                	outsb  %gs:(%esi),(%dx)
  305417:	74 20                	je     305439 <__umoddi3+0x349>
  305419:	6e                   	outsb  %ds:(%esi),(%dx)
  30541a:	6f                   	outsl  %ds:(%esi),(%dx)
  30541b:	74 20                	je     30543d <__umoddi3+0x34d>
  30541d:	70 72                	jo     305491 <__umoddi3+0x3a1>
  30541f:	65 73 65             	gs jae 305487 <__umoddi3+0x397>
  305422:	6e                   	outsb  %ds:(%esi),(%dx)
  305423:	74 00                	je     305425 <__umoddi3+0x335>
  305425:	53                   	push   %ebx
  305426:	74 61                	je     305489 <__umoddi3+0x399>
  305428:	63 6b 20             	arpl   %ebp,0x20(%ebx)
  30542b:	66 61                	popaw
  30542d:	75 6c                	jne    30549b <__umoddi3+0x3ab>
  30542f:	74 00                	je     305431 <__umoddi3+0x341>
  305431:	47                   	inc    %edi
  305432:	65 6e                	outsb  %gs:(%esi),(%dx)
  305434:	65 72 61             	gs jb  305498 <__umoddi3+0x3a8>
  305437:	6c                   	insb   (%dx),%es:(%edi)
  305438:	20 70 72             	and    %dh,0x72(%eax)
  30543b:	6f                   	outsl  %ds:(%esi),(%dx)
  30543c:	74 65                	je     3054a3 <__umoddi3+0x3b3>
  30543e:	63 74 69 6f          	arpl   %esi,0x6f(%ecx,%ebp,2)
  305442:	6e                   	outsb  %ds:(%esi),(%dx)
  305443:	00 50 61             	add    %dl,0x61(%eax)
  305446:	67 65 20 66 61       	and    %ah,%gs:0x61(%bp)
  30544b:	75 6c                	jne    3054b9 <__umoddi3+0x3c9>
  30544d:	74 00                	je     30544f <__umoddi3+0x35f>
  30544f:	49                   	dec    %ecx
  305450:	6e                   	outsb  %ds:(%esi),(%dx)
  305451:	74 65                	je     3054b8 <__umoddi3+0x3c8>
  305453:	6c                   	insb   (%dx),%es:(%edi)
  305454:	20 52 65             	and    %dl,0x65(%edx)
  305457:	73 65                	jae    3054be <__umoddi3+0x3ce>
  305459:	72 76                	jb     3054d1 <__umoddi3+0x3e1>
  30545b:	65 64 00 46 6c       	gs add %al,%fs:0x6c(%esi)
  305460:	6f                   	outsl  %ds:(%esi),(%dx)
  305461:	61                   	popa
  305462:	74 69                	je     3054cd <__umoddi3+0x3dd>
  305464:	6e                   	outsb  %ds:(%esi),(%dx)
  305465:	67 20 70 6f          	and    %dh,0x6f(%bx,%si)
  305469:	69 6e 74 20 65 72 72 	imul   $0x72726520,0x74(%esi),%ebp
  305470:	6f                   	outsl  %ds:(%esi),(%dx)
  305471:	72 00                	jb     305473 <__umoddi3+0x383>
  305473:	41                   	inc    %ecx
  305474:	6c                   	insb   (%dx),%es:(%edi)
  305475:	69 67 6e 6d 65 6e 74 	imul   $0x746e656d,0x6e(%edi),%esp
  30547c:	20 63 68             	and    %ah,0x68(%ebx)
  30547f:	65 63 6b 00          	arpl   %ebp,%gs:0x0(%ebx)
  305483:	4d                   	dec    %ebp
  305484:	61                   	popa
  305485:	63 68 69             	arpl   %ebp,0x69(%eax)
  305488:	6e                   	outsb  %ds:(%esi),(%dx)
  305489:	65 20 63 68          	and    %ah,%gs:0x68(%ebx)
  30548d:	65 63 6b 00          	arpl   %ebp,%gs:0x0(%ebx)
  305491:	53                   	push   %ebx
  305492:	49                   	dec    %ecx
  305493:	4d                   	dec    %ebp
  305494:	44                   	inc    %esp
  305495:	20 66 6c             	and    %ah,0x6c(%esi)
  305498:	6f                   	outsl  %ds:(%esi),(%dx)
  305499:	61                   	popa
  30549a:	74 69                	je     305505 <__umoddi3+0x415>
  30549c:	6e                   	outsb  %ds:(%esi),(%dx)
  30549d:	67 20 70 6f          	and    %dh,0x6f(%bx,%si)
  3054a1:	69 6e 74 00 0a 45 78 	imul   $0x78450a00,0x74(%esi),%ebp
  3054a8:	63 65 70             	arpl   %esp,0x70(%ebp)
  3054ab:	74 69                	je     305516 <__umoddi3+0x426>
  3054ad:	6f                   	outsl  %ds:(%esi),(%dx)
  3054ae:	6e                   	outsb  %ds:(%esi),(%dx)
  3054af:	3a 20                	cmp    (%eax),%ah
  3054b1:	25 73 0a 00 23       	and    $0x23000a73,%eax
  3054b6:	4e                   	dec    %esi
  3054b7:	4d                   	dec    %ebp
  3054b8:	49                   	dec    %ecx
  3054b9:	20 28                	and    %ch,(%eax)
  3054bb:	69 67 6e 6f 72 65 64 	imul   $0x6465726f,0x6e(%edi),%esp
  3054c2:	29 0a                	sub    %ecx,(%edx)
  3054c4:	00 00                	add    %al,(%eax)
  3054c6:	00 00                	add    %al,(%eax)
  3054c8:	23 50 46             	and    0x46(%eax),%edx
  3054cb:	20 64 65 74          	and    %ah,0x74(%ebp,%eiz,2)
  3054cf:	61                   	popa
  3054d0:	69 6c 73 3a 20 70 3a 	imul   $0x253a7020,0x3a(%ebx,%esi,2),%ebp
  3054d7:	25 
  3054d8:	64 20 77 72          	and    %dh,%fs:0x72(%edi)
  3054dc:	3a 25 64 20 75 73    	cmp    0x73752064,%ah
  3054e2:	3a 25 64 20 69 64    	cmp    0x64692064,%ah
  3054e8:	3a 25 64 20 61 64    	cmp    0x64612064,%ah
  3054ee:	64 72 20             	fs jb  305511 <__umoddi3+0x421>
  3054f1:	30 78 25             	xor    %bh,0x25(%eax)
  3054f4:	78 0a                	js     305500 <__umoddi3+0x410>
  3054f6:	00 00                	add    %al,(%eax)
  3054f8:	23 47 50             	and    0x50(%edi),%eax
  3054fb:	20 64 65 74          	and    %ah,0x74(%ebp,%eiz,2)
  3054ff:	61                   	popa
  305500:	69 6c 73 3a 20 65 78 	imul   $0x74786520,0x3a(%ebx,%esi,2),%ebp
  305507:	74 
  305508:	3a 25 64 20 69 64    	cmp    0x64692064,%ah
  30550e:	74 3a                	je     30554a <__umoddi3+0x45a>
  305510:	25 64 20 74 69       	and    $0x69742064,%eax
  305515:	3a 25 64 20 69 6e    	cmp    0x6e692064,%ah
  30551b:	64 65 78 3a          	fs gs js 305559 <__umoddi3+0x469>
  30551f:	25 64 0a 00 63       	and    $0x63000a64,%eax
  305524:	72 30                	jb     305556 <__umoddi3+0x466>
  305526:	20 3d 20 25 70 0a    	and    %bh,0xa702520
  30552c:	00 63 72             	add    %ah,0x72(%ebx)
  30552f:	33 20                	xor    (%eax),%esp
  305531:	3d 20 25 70 0a       	cmp    $0xa702520,%eax
  305536:	00 63 72             	add    %ah,0x72(%ebx)
  305539:	34 20                	xor    $0x20,%al
  30553b:	3d 20 25 70 0a       	cmp    $0xa702520,%eax
  305540:	00 66 61             	add    %ah,0x61(%esi)
  305543:	74 61                	je     3055a6 <__umoddi3+0x4b6>
  305545:	6c                   	insb   (%dx),%es:(%edi)
  305546:	20 65 78             	and    %ah,0x78(%ebp)
  305549:	63 65 70             	arpl   %esp,0x70(%ebp)
  30554c:	74 69                	je     3055b7 <__umoddi3+0x4c7>
  30554e:	6f                   	outsl  %ds:(%esi),(%dx)
  30554f:	6e                   	outsb  %ds:(%esi),(%dx)
  305550:	20 21                	and    %ah,(%ecx)
  305552:	0a 00                	or     (%eax),%al
  305554:	0a 2d 3d 20 53 74    	or     0x7453203d,%ch
  30555a:	61                   	popa
  30555b:	63 6b 20             	arpl   %ebp,0x20(%ebx)
  30555e:	54                   	push   %esp
  30555f:	72 61                	jb     3055c2 <__umoddi3+0x4d2>
  305561:	63 65 20             	arpl   %esp,0x20(%ebp)
  305564:	3d 2d 0a 00 25       	cmp    $0x25000a2d,%eax
  305569:	70 0a                	jo     305575 <__umoddi3+0x485>
  30556b:	00 0a                	add    %cl,(%edx)
  30556d:	49                   	dec    %ecx
  30556e:	44                   	inc    %esp
  30556f:	54                   	push   %esp
  305570:	20 65 76             	and    %ah,0x76(%ebp)
  305573:	65 6e                	outsb  %gs:(%esi),(%dx)
  305575:	74 0a                	je     305581 <__umoddi3+0x491>
  305577:	20 2e                	and    %ch,(%esi)
  305579:	20 69 6e             	and    %ch,0x6e(%ecx)
  30557c:	74 20                	je     30559e <__umoddi3+0x4ae>
  30557e:	20 20                	and    %ah,(%eax)
  305580:	20 23                	and    %ah,(%ebx)
  305582:	25 64 0a 20 2e       	and    $0x2e200a64,%eax
  305587:	20 65 72             	and    %ah,0x72(%ebp)
  30558a:	72 6f                	jb     3055fb <__umoddi3+0x50b>
  30558c:	72 20                	jb     3055ae <__umoddi3+0x4be>
  30558e:	20 30                	and    %dh,(%eax)
  305590:	78 25                	js     3055b7 <__umoddi3+0x4c7>
  305592:	78 0a                	js     30559e <__umoddi3+0x4ae>
  305594:	20 2e                	and    %ch,(%esi)
  305596:	20 63 73             	and    %ah,0x73(%ebx)
  305599:	3a 65 69             	cmp    0x69(%ebp),%ah
  30559c:	70 20                	jo     3055be <__umoddi3+0x4ce>
  30559e:	30 78 25             	xor    %bh,0x25(%eax)
  3055a1:	78 3a                	js     3055dd <__umoddi3+0x4ed>
  3055a3:	30 78 25             	xor    %bh,0x25(%eax)
  3055a6:	78 0a                	js     3055b2 <__umoddi3+0x4c2>
  3055a8:	20 2e                	and    %ch,(%esi)
  3055aa:	20 73 73             	and    %dh,0x73(%ebx)
  3055ad:	3a 65 73             	cmp    0x73(%ebp),%ah
  3055b0:	70 20                	jo     3055d2 <__umoddi3+0x4e2>
  3055b2:	30 78 25             	xor    %bh,0x25(%eax)
  3055b5:	78 3a                	js     3055f1 <__umoddi3+0x501>
  3055b7:	30 78 25             	xor    %bh,0x25(%eax)
  3055ba:	78 0a                	js     3055c6 <__umoddi3+0x4d6>
  3055bc:	20 2e                	and    %ch,(%esi)
  3055be:	20 65 66             	and    %ah,0x66(%ebp)
  3055c1:	6c                   	insb   (%dx),%es:(%edi)
  3055c2:	61                   	popa
  3055c3:	67 73 20             	addr16 jae 3055e6 <__umoddi3+0x4f6>
  3055c6:	30 78 25             	xor    %bh,0x25(%eax)
  3055c9:	78 0a                	js     3055d5 <__umoddi3+0x4e5>
  3055cb:	0a 2d 20 47 50 52    	or     0x52504720,%ch
  3055d1:	0a 65 61             	or     0x61(%ebp),%ah
  3055d4:	78 20                	js     3055f6 <__umoddi3+0x506>
  3055d6:	20 20                	and    %ah,(%eax)
  3055d8:	20 20                	and    %ah,(%eax)
  3055da:	3a 20                	cmp    (%eax),%ah
  3055dc:	30 78 25             	xor    %bh,0x25(%eax)
  3055df:	78 0a                	js     3055eb <__umoddi3+0x4fb>
  3055e1:	65 63 78 20          	arpl   %edi,%gs:0x20(%eax)
  3055e5:	20 20                	and    %ah,(%eax)
  3055e7:	20 20                	and    %ah,(%eax)
  3055e9:	3a 20                	cmp    (%eax),%ah
  3055eb:	30 78 25             	xor    %bh,0x25(%eax)
  3055ee:	78 0a                	js     3055fa <__umoddi3+0x50a>
  3055f0:	65 64 78 20          	gs fs js 305614 <__umoddi3+0x524>
  3055f4:	20 20                	and    %ah,(%eax)
  3055f6:	20 20                	and    %ah,(%eax)
  3055f8:	3a 20                	cmp    (%eax),%ah
  3055fa:	30 78 25             	xor    %bh,0x25(%eax)
  3055fd:	78 0a                	js     305609 <__umoddi3+0x519>
  3055ff:	65 62 78 20          	bound  %edi,%gs:0x20(%eax)
  305603:	20 20                	and    %ah,(%eax)
  305605:	20 20                	and    %ah,(%eax)
  305607:	3a 20                	cmp    (%eax),%ah
  305609:	30 78 25             	xor    %bh,0x25(%eax)
  30560c:	78 0a                	js     305618 <__umoddi3+0x528>
  30560e:	65 73 70             	gs jae 305681 <__umoddi3+0x591>
  305611:	20 20                	and    %ah,(%eax)
  305613:	20 20                	and    %ah,(%eax)
  305615:	20 3a                	and    %bh,(%edx)
  305617:	20 30                	and    %dh,(%eax)
  305619:	78 25                	js     305640 <__umoddi3+0x550>
  30561b:	78 0a                	js     305627 <__umoddi3+0x537>
  30561d:	65 62 70 20          	bound  %esi,%gs:0x20(%eax)
  305621:	20 20                	and    %ah,(%eax)
  305623:	20 20                	and    %ah,(%eax)
  305625:	3a 20                	cmp    (%eax),%ah
  305627:	30 78 25             	xor    %bh,0x25(%eax)
  30562a:	78 0a                	js     305636 <__umoddi3+0x546>
  30562c:	65 73 69             	gs jae 305698 <__umoddi3+0x5a8>
  30562f:	20 20                	and    %ah,(%eax)
  305631:	20 20                	and    %ah,(%eax)
  305633:	20 3a                	and    %bh,(%edx)
  305635:	20 30                	and    %dh,(%eax)
  305637:	78 25                	js     30565e <__umoddi3+0x56e>
  305639:	78 0a                	js     305645 <__umoddi3+0x555>
  30563b:	65 64 69 20 20 20 20 	gs imul $0x20202020,%fs:(%eax),%esp
  305642:	20 
  305643:	3a 20                	cmp    (%eax),%ah
  305645:	30 78 25             	xor    %bh,0x25(%eax)
  305648:	78 0a                	js     305654 <__umoddi3+0x564>
  30564a:	00 65 62             	add    %ah,0x62(%ebp)
  30564d:	70 3a                	jo     305689 <__umoddi3+0x599>
  30564f:	20 30                	and    %dh,(%eax)
  305651:	78 25                	js     305678 <__umoddi3+0x588>
  305653:	78 0a                	js     30565f <__umoddi3+0x56f>
  305655:	00 78 00             	add    %bh,0x0(%eax)
  305658:	69 64 65 6e 74 69 74 	imul   $0x79746974,0x6e(%ebp,%eiz,2),%esp
  30565f:	79 
  305660:	20 6d 61             	and    %ch,0x61(%ebp)
  305663:	70 70                	jo     3056d5 <__umoddi3+0x5e5>
  305665:	69 6e 67 20 66 72 6f 	imul   $0x6f726620,0x67(%esi),%ebp
  30566c:	6d                   	insl   (%dx),%es:(%edi)
  30566d:	20 30                	and    %dh,(%eax)
  30566f:	78 25                	js     305696 <__umoddi3+0x5a6>
  305671:	78 20                	js     305693 <__umoddi3+0x5a3>
  305673:	74 6f                	je     3056e4 <__hextable>
  305675:	20 30                	and    %dh,(%eax)
  305677:	78 25                	js     30569e <__umoddi3+0x5ae>
  305679:	78 20                	js     30569b <__umoddi3+0x5ab>
  30567b:	0a 00                	or     (%eax),%al
  30567d:	00 00                	add    %al,(%eax)
  30567f:	00 74 61 73          	add    %dh,0x73(%ecx,%eiz,2)
  305683:	6b 20 31             	imul   $0x31,(%eax),%esp
  305686:	20 6d 61             	and    %ch,0x61(%ebp)
  305689:	70 70                	jo     3056fb <__hextable+0x17>
  30568b:	69 6e 67 20 66 72 6f 	imul   $0x6f726620,0x67(%esi),%ebp
  305692:	6d                   	insl   (%dx),%es:(%edi)
  305693:	20 30                	and    %dh,(%eax)
  305695:	78 25                	js     3056bc <__umoddi3+0x5cc>
  305697:	78 20                	js     3056b9 <__umoddi3+0x5c9>
  305699:	74 6f                	je     30570a <exception_names+0xa>
  30569b:	20 30                	and    %dh,(%eax)
  30569d:	78 25                	js     3056c4 <__umoddi3+0x5d4>
  30569f:	78 20                	js     3056c1 <__umoddi3+0x5d1>
  3056a1:	0a 00                	or     (%eax),%al
  3056a3:	00 74 61 73          	add    %dh,0x73(%ecx,%eiz,2)
  3056a7:	6b 20 32             	imul   $0x32,(%eax),%esp
  3056aa:	20 6d 61             	and    %ch,0x61(%ebp)
  3056ad:	70 70                	jo     30571f <exception_names+0x1f>
  3056af:	69 6e 67 20 66 72 6f 	imul   $0x6f726620,0x67(%esi),%ebp
  3056b6:	6d                   	insl   (%dx),%es:(%edi)
  3056b7:	20 30                	and    %dh,(%eax)
  3056b9:	78 25                	js     3056e0 <info>
  3056bb:	78 20                	js     3056dd <__umoddi3+0x5ed>
  3056bd:	74 6f                	je     30572e <exception_names+0x2e>
  3056bf:	20 30                	and    %dh,(%eax)
  3056c1:	78 25                	js     3056e8 <__hextable+0x4>
  3056c3:	78 20                	js     3056e5 <__hextable+0x1>
  3056c5:	0a 00                	or     (%eax),%al
  3056c7:	70 61                	jo     30572a <exception_names+0x2a>
  3056c9:	67 69 6e 61 74 69 6f 	imul   $0x6e6f6974,0x61(%bp),%ebp
  3056d0:	6e 
  3056d1:	20 65 6e             	and    %ah,0x6e(%ebp)
  3056d4:	61                   	popa
  3056d5:	62 6c 65 64          	bound  %ebp,0x64(%ebp,%eiz,2)
  3056d9:	0a 00                	or     (%eax),%al

Déassemblage de la section .data :

003056e0 <info>:
  3056e0:	80 57 30 00          	adcb   $0x0,0x30(%edi)

003056e4 <__hextable>:
  3056e4:	30 31                	xor    %dh,(%ecx)
  3056e6:	32 33                	xor    (%ebx),%dh
  3056e8:	34 35                	xor    $0x35,%al
  3056ea:	36 37                	ss aaa
  3056ec:	38 39                	cmp    %bh,(%ecx)
  3056ee:	61                   	popa
  3056ef:	62 63 64             	bound  %esp,0x64(%ebx)
  3056f2:	65 66 00 00          	data16 add %al,%gs:(%eax)
	...

00305700 <exception_names>:
  305700:	6c                   	insb   (%dx),%es:(%edi)
  305701:	53                   	push   %ebx
  305702:	30 00                	xor    %al,(%eax)
  305704:	7b 53                	jnp    305759 <pgd_task_1+0x1>
  305706:	30 00                	xor    %al,(%eax)
  305708:	81 53 30 00 8f 53 30 	adcl   $0x30538f00,0x30(%ebx)
  30570f:	00 9a 53 30 00 a3    	add    %bl,-0x5cffcfad(%edx)
  305715:	53                   	push   %ebx
  305716:	30 00                	xor    %al,(%eax)
  305718:	b8 53 30 00 c7       	mov    $0xc7003053,%eax
  30571d:	53                   	push   %ebx
  30571e:	30 00                	xor    %al,(%eax)
  305720:	dc 53 30             	fcoml  0x30(%ebx)
  305723:	00 e9                	add    %ch,%cl
  305725:	53                   	push   %ebx
  305726:	30 00                	xor    %al,(%eax)
  305728:	05 54 30 00 11       	add    $0x11003054,%eax
  30572d:	54                   	push   %esp
  30572e:	30 00                	xor    %al,(%eax)
  305730:	25 54 30 00 31       	and    $0x31003054,%eax
  305735:	54                   	push   %esp
  305736:	30 00                	xor    %al,(%eax)
  305738:	44                   	inc    %esp
  305739:	54                   	push   %esp
  30573a:	30 00                	xor    %al,(%eax)
  30573c:	4f                   	dec    %edi
  30573d:	54                   	push   %esp
  30573e:	30 00                	xor    %al,(%eax)
  305740:	5e                   	pop    %esi
  305741:	54                   	push   %esp
  305742:	30 00                	xor    %al,(%eax)
  305744:	73 54                	jae    30579a <__info+0x1a>
  305746:	30 00                	xor    %al,(%eax)
  305748:	83 54 30 00 91       	adcl   $0xffffff91,0x0(%eax,%esi,1)
  30574d:	54                   	push   %esp
  30574e:	30 00                	xor    %al,(%eax)

00305750 <pgd>:
  305750:	00 00                	add    %al,(%eax)
  305752:	35 00          	xor    $0x35100000,%eax

00305754 <pgd_ptb>:
  305754:	00 10                	add    %dl,(%eax)
  305756:	35 00          	xor    $0x35200000,%eax

00305758 <pgd_task_1>:
  305758:	00 20                	add    %ah,(%eax)
  30575a:	35 00          	xor    $0x35300000,%eax

0030575c <pgd_task_1_ptb_0>:
  30575c:	00 30                	add    %dh,(%eax)
  30575e:	35 00          	xor    $0x35400000,%eax

00305760 <pgd_task_1_ptb_1>:
  305760:	00 40 35             	add    %al,0x35(%eax)
	...

00305764 <pgd_task_1_ptb_2>:
  305764:	00 50 35             	add    %dl,0x35(%eax)
	...

00305768 <pgd_task_2>:
  305768:	00 60 35             	add    %ah,0x35(%eax)
	...

0030576c <pgd_task_2_ptb_0>:
  30576c:	00 70 35             	add    %dh,0x35(%eax)
	...

00305770 <pgd_task_2_ptb_1>:
  305770:	00 80 35 00      	add    %al,-0x6fffffcb(%eax)

00305774 <pgd_task_2_ptb_2>:
  305774:	00 90 35 00      	add    %dl,0x3ffc0035(%eax)

00305778 <task1_stack_base>:
  305778:	fc                   	cld
  305779:	3f                   	aas
  30577a:	40                   	inc    %eax
	...

0030577c <task2_stack_base>:
  30577c:	fc                   	cld
  30577d:	3f                   	aas
  30577e:	80                   	.byte 0x80
	...

Déassemblage de la section .task1_stack :

00400000 <task1_stack>:
	...

Déassemblage de la section .task1_code :

00404000 <task1_function>:
  404000:	55                   	push   %ebp
  404001:	89 e5                	mov    %esp,%ebp
  404003:	90                   	nop
  404004:	eb fd                	jmp    404003 <task1_function+0x3>
  404006:	66 90                	xchg   %ax,%ax

Déassemblage de la section .task2_stack :

00800000 <task2_stack>:
	...

Déassemblage de la section .task2_code :

00804000 <task2_function>:
  804000:	55                   	push   %ebp
  804001:	89 e5                	mov    %esp,%ebp
  804003:	90                   	nop
  804004:	eb fd                	jmp    804003 <task2_function+0x3>
  804006:	66 90                	xchg   %ax,%ax

Déassemblage de la section .debug_line :

00000000 <.debug_line>:
   0:	4c                   	dec    %esp
   1:	00 00                	add    %al,(%eax)
   3:	00 05 00 04 00 2e    	add    %al,0x2e000400
   9:	00 00                	add    %al,(%eax)
   b:	00 01                	add    %al,(%ecx)
   d:	01 01                	add    %eax,(%ecx)
   f:	fb                   	sti
  10:	0e                   	push   %cs
  11:	0d 00 01 01 01       	or     $0x1010100,%eax
  16:	01 00                	add    %eax,(%eax)
  18:	00 00                	add    %al,(%eax)
  1a:	01 00                	add    %eax,(%eax)
  1c:	00 01                	add    %al,(%ecx)
  1e:	01 01                	add    %eax,(%ecx)
  20:	1f                   	pop    %ds
  21:	02 00                	add    (%eax),%al
  23:	00 00                	add    %al,(%eax)
  25:	00 25 00 00 00 02    	add    %ah,0x2000000
  2b:	01 1f                	add    %ebx,(%edi)
  2d:	02 0f                	add    (%edi),%cl
  2f:	02 34 00             	add    (%eax,%eax,1),%dh
  32:	00 00                	add    %al,(%eax)
  34:	01 34 00             	add    %esi,(%eax,%eax,1)
  37:	00 00                	add    %al,(%eax)
  39:	01 00                	add    %eax,(%eax)
  3b:	05 02 10 30 30       	add    $0x30301002,%eax
  40:	00 03                	add    %al,(%ebx)
  42:	0a 01                	or     (%ecx),%al
  44:	21 59 2f             	and    %ebx,0x2f(%ecx)
  47:	21 2f                	and    %ebp,(%edi)
  49:	5b                   	pop    %ebx
  4a:	21 02                	and    %eax,(%edx)
  4c:	02 00                	add    (%eax),%al
  4e:	01 01                	add    %eax,(%ecx)
  50:	89 00                	mov    %eax,(%eax)
  52:	00 00                	add    %al,(%eax)
  54:	05 00 04 00 5f       	add    $0x5f000400,%eax
  59:	00 00                	add    %al,(%eax)
  5b:	00 01                	add    %al,(%ecx)
  5d:	01 01                	add    %eax,(%ecx)
  5f:	fb                   	sti
  60:	0e                   	push   %cs
  61:	0d 00 01 01 01       	or     $0x1010100,%eax
  66:	01 00                	add    %eax,(%eax)
  68:	00 00                	add    %al,(%eax)
  6a:	01 00                	add    %eax,(%eax)
  6c:	00 01                	add    %al,(%ecx)
  6e:	01 01                	add    %eax,(%ecx)
  70:	1f                   	pop    %ds
  71:	03 00                	add    (%eax),%eax
  73:	00 00                	add    %al,(%eax)
  75:	00 25 00 00 00 53    	add    %ah,0x53000000
  7b:	00 00                	add    %al,(%eax)
  7d:	00 02                	add    %al,(%edx)
  7f:	01 1f                	add    %ebx,(%edi)
  81:	02 0f                	add    (%edi),%cl
  83:	0b 4b 00             	or     0x0(%ebx),%ecx
  86:	00 00                	add    %al,(%eax)
  88:	01 4b 00             	add    %ecx,0x0(%ebx)
  8b:	00 00                	add    %al,(%eax)
  8d:	01 65 00             	add    %esp,0x0(%ebp)
  90:	00 00                	add    %al,(%eax)
  92:	02 6d 00             	add    0x0(%ebp),%ch
  95:	00 00                	add    %al,(%eax)
  97:	02 72 00             	add    0x0(%edx),%dh
  9a:	00 00                	add    %al,(%eax)
  9c:	02 78 00             	add    0x0(%eax),%bh
  9f:	00 00                	add    %al,(%eax)
  a1:	02 7f 00             	add    0x0(%edi),%bh
  a4:	00 00                	add    %al,(%eax)
  a6:	02 86 00 00 00 02    	add    0x2000000(%esi),%al
  ac:	8d 00                	lea    (%eax),%eax
  ae:	00 00                	add    %al,(%eax)
  b0:	02 93 00 00 00 02    	add    0x2000000(%ebx),%dl
  b6:	9b                   	fwait
  b7:	00 00                	add    %al,(%eax)
  b9:	00 02                	add    %al,(%edx)
  bb:	05 01 00 05 02       	add    $0x2050001,%eax
  c0:	23 30                	and    (%eax),%esi
  c2:	30 00                	xor    %al,(%eax)
  c4:	03 12                	add    (%edx),%edx
  c6:	01 05 08 91 05 0e    	add    %eax,0xe059108
  cc:	58                   	pop    %eax
  cd:	05 04 5a 59 59       	add    $0x59595a04,%eax
  d2:	59                   	pop    %ecx
  d3:	f4                   	hlt
  d4:	5a                   	pop    %edx
  d5:	05 01 f3 02 03       	add    $0x302f301,%eax
  da:	00 01                	add    %al,(%ecx)
  dc:	01 84 03 00 00 05 00 	add    %eax,0x50000(%ebx,%eax,1)
  e3:	04 00                	add    $0x0,%al
  e5:	46                   	inc    %esi
  e6:	00 00                	add    %al,(%eax)
  e8:	00 01                	add    %al,(%ecx)
  ea:	01 01                	add    %eax,(%ecx)
  ec:	fb                   	sti
  ed:	0e                   	push   %cs
  ee:	0d 00 01 01 01       	or     $0x1010100,%eax
  f3:	01 00                	add    %eax,(%eax)
  f5:	00 00                	add    %al,(%eax)
  f7:	01 00                	add    %eax,(%eax)
  f9:	00 01                	add    %al,(%ecx)
  fb:	01 01                	add    %eax,(%ecx)
  fd:	1f                   	pop    %ds
  fe:	03 00                	add    (%eax),%eax
 100:	00 00                	add    %al,(%eax)
 102:	00 25 00 00 00 53    	add    %ah,0x53000000
 108:	00 00                	add    %al,(%eax)
 10a:	00 02                	add    %al,(%edx)
 10c:	01 1f                	add    %ebx,(%edi)
 10e:	02 0f                	add    (%edi),%cl
 110:	06                   	push   %es
 111:	b2 00                	mov    $0x0,%dl
 113:	00 00                	add    %al,(%eax)
 115:	01 ba 00 00 00 02    	add    %edi,0x2000000(%edx)
 11b:	b2 00                	mov    $0x0,%dl
 11d:	00 00                	add    %al,(%eax)
 11f:	01 65 00             	add    %esp,0x0(%ebp)
 122:	00 00                	add    %al,(%eax)
 124:	02 93 00 00 00 02    	add    0x2000000(%ebx),%dl
 12a:	86 00                	xchg   %al,(%eax)
 12c:	00 00                	add    %al,(%eax)
 12e:	02 05 01 00 05 02    	add    0x2050001,%al
 134:	6d                   	insl   (%dx),%es:(%edi)
 135:	30 30                	xor    %dh,(%eax)
 137:	00 03                	add    %al,(%ebx)
 139:	fc                   	cld
 13a:	00 01                	add    %al,(%ecx)
 13c:	05 0a c9 05 06       	add    $0x605c90a,%eax
 141:	66 05 10 59          	add    $0x5910,%ax
 145:	05 18 58 05 1c       	add    $0x1c055818,%eax
 14a:	66 05 14 90          	add    $0x9014,%ax
 14e:	05 20 3c 05 01       	add    $0x1053c20,%eax
 153:	67 04 02             	addr16 add $0x2,%al
 156:	03 8a 7f 66 05 04    	add    0x405667f(%edx),%ecx
 15c:	69 22 67 08 23 05    	imul   $0x5230867,(%edx),%esp
 162:	0e                   	push   %cs
 163:	00 02                	add    %al,(%edx)
 165:	04 01                	add    $0x1,%al
 167:	59                   	pop    %ecx
 168:	05 01 4f 05 04       	add    $0x4054f01,%eax
 16d:	6a 05                	push   $0x5
 16f:	0d 67 05 0b 08       	or     $0x80b0567,%eax
 174:	4d                   	dec    %ebp
 175:	05 01 3d 31 05       	add    $0x5313d01,%eax
 17a:	04 6a                	add    $0x6a,%al
 17c:	05 0d 67 05 0b       	add    $0xb05670d,%eax
 181:	08 77 05             	or     %dh,0x5(%edi)
 184:	01 3d 31 05 0d 69    	add    %edi,0x690d0531
 18a:	05 04 08 9f 05       	add    $0x59f0804,%eax
 18f:	0b 08                	or     (%eax),%ecx
 191:	67 05 01 3d 31 05    	addr16 add $0x5313d01,%eax
 197:	09 3d 05 1d 2f 05    	or     %edi,0x52f1d05
 19d:	1b 90 05 07 3c 05    	sbb    0x53c0705(%eax),%edx
 1a3:	0a 08                	or     (%eax),%cl
 1a5:	1f                   	pop    %ds
 1a6:	05 01 a0 4d 05       	add    $0x54da001,%eax
 1ab:	18 3d 05 04 3c 05    	sbb    %bh,0x53c0405
 1b1:	01 08                	add    %ecx,(%eax)
 1b3:	21 40 05             	and    %eax,0x5(%eax)
 1b6:	09 08                	or     %ecx,(%eax)
 1b8:	23 05 04 74 05 19    	and    0x19057404,%eax
 1be:	30 05 1b 66 05 14    	xor    %al,0x1405661b
 1c4:	3c 05                	cmp    $0x5,%al
 1c6:	0b 08                	or     (%eax),%ecx
 1c8:	3c 05                	cmp    $0x5,%al
 1ca:	07                   	pop    %es
 1cb:	67 00 02             	add    %al,(%bp,%si)
 1ce:	04 01                	add    $0x1,%al
 1d0:	06                   	push   %es
 1d1:	66 00 02             	data16 add %al,(%edx)
 1d4:	04 02                	add    $0x2,%al
 1d6:	74 00                	je     1d8 <mbh-0x2ffe28>
 1d8:	02 04 04             	add    (%esp,%eax,1),%al
 1db:	58                   	pop    %eax
 1dc:	05 15 00 02 04       	add    $0x4020015,%eax
 1e1:	02 06                	add    (%esi),%al
 1e3:	e1 05                	loope  1ea <mbh-0x2ffe16>
 1e5:	0f 00 02             	sldt   (%edx)
 1e8:	04 01                	add    $0x1,%al
 1ea:	4a                   	dec    %edx
 1eb:	05 01 87 4d 05       	add    $0x54d8701,%eax
 1f0:	06                   	push   %es
 1f1:	08 32                	or     %dh,(%edx)
 1f3:	05 0e 83 05 11       	add    $0x1105830e,%eax
 1f8:	08 4c 05 0b          	or     %cl,0xb(%ebp,%eax,1)
 1fc:	67 05 06 76 05 07    	addr16 add $0x7057606,%eax
 202:	68 05 0d f3 05       	push   $0x5f30d05
 207:	09 a1 05 26 30 05    	or     %esp,0x5302605(%ecx)
 20d:	2b 08                	sub    (%eax),%ecx
 20f:	3c 05                	cmp    $0x5,%al
 211:	0f 3c                	(bad)
 213:	05 17 3c 05 1a       	add    $0x1a053c17,%eax
 218:	3c 05                	cmp    $0x5,%al
 21a:	13 66 05             	adc    0x5(%esi),%esp
 21d:	2b 2e                	sub    (%esi),%ebp
 21f:	05 1e 2e 05 0d       	add    $0xd052e1e,%eax
 224:	2f                   	das
 225:	05 0a 08 8d 05       	add    $0x58d080a,%eax
 22a:	09 88 05 23 2f 05    	or     %ecx,0x52f2305(%eax)
 230:	2b 3c 05 27 3c 05 07 	sub    0x7053c27(,%eax,1),%edi
 237:	58                   	pop    %eax
 238:	05 0d 08 49 05       	add    $0x549080d,%eax
 23d:	10 3c 05 0a 66 05 01 	adc    %bh,0x105660a(,%eax,1)
 244:	4c                   	dec    %esp
 245:	5b                   	pop    %ebx
 246:	05 06 08 32 05       	add    $0x5320806,%eax
 24b:	0e                   	push   %cs
 24c:	83 05 11 08 4c 05 0b 	addl   $0xb,0x54c0811
 253:	67 05 09 76 05 26    	addr16 add $0x26057609,%eax
 259:	30 05 2b 08 3c 05    	xor    %al,0x53c082b
 25f:	0f 3c                	(bad)
 261:	05 17 3c 05 1a       	add    $0x1a053c17,%eax
 266:	3c 05                	cmp    $0x5,%al
 268:	13 66 05             	adc    0x5(%esi),%esp
 26b:	2b 2e                	sub    (%esi),%ebp
 26d:	05 1e 2e 05 0d       	add    $0xd052e1e,%eax
 272:	2f                   	das
 273:	05 0a 08 8d 05       	add    $0x58d080a,%eax
 278:	09 88 05 23 2f 05    	or     %ecx,0x52f2305(%eax)
 27e:	2b 3c 05 27 3c 05 07 	sub    0x7053c27(,%eax,1),%edi
 285:	58                   	pop    %eax
 286:	05 0d 08 49 05       	add    $0x549080d,%eax
 28b:	10 3c 05 0a 66 05 01 	adc    %bh,0x105660a(,%eax,1)
 292:	4c                   	dec    %esp
 293:	60                   	pusha
 294:	05 0f 08 22 05       	add    $0x522080f,%eax
 299:	06                   	push   %es
 29a:	76 05                	jbe    2a1 <mbh-0x2ffd5f>
 29c:	12 00                	adc    (%eax),%al
 29e:	02 04 01             	add    (%ecx,%eax,1),%al
 2a1:	66 05 11 67          	add    $0x6711,%ax
 2a5:	05 09 76 05 23       	add    $0x23057609,%eax
 2aa:	30 05 1c d6 05 10    	xor    %al,0x1005d61c
 2b0:	82 05 0d 9f 05 0a 08 	addb   $0x8,0xa059f0d
 2b7:	2f                   	das
 2b8:	05 10 4b 05 14       	add    $0x14054b10,%eax
 2bd:	45                   	inc    %ebp
 2be:	00 02                	add    %al,(%edx)
 2c0:	04 01                	add    $0x1,%al
 2c2:	06                   	push   %es
 2c3:	66 05 28 00          	add    $0x28,%ax
 2c7:	02 04 02             	add    (%edx,%eax,1),%al
 2ca:	06                   	push   %es
 2cb:	66 05 17 00          	add    $0x17,%ax
 2cf:	02 04 03             	add    (%ebx,%eax,1),%al
 2d2:	82 05 07 6e 05 09 67 	addb   $0x67,0x9056e07
 2d9:	05 1e 2f 05 07       	add    $0x7052f1e,%eax
 2de:	ac                   	lods   %ds:(%esi),%al
 2df:	05 0d 08 1f 05       	add    $0x51f080d,%eax
 2e4:	0a 90 05 0b 4d 05    	or     0x54d0b05(%eax),%dl
 2ea:	01 3d 32 05 04 08    	add    %edi,0x8040532
 2f0:	21 05 01 08 91 40    	and    %eax,0x40910801
 2f6:	05 11 6c 05 0b       	add    $0xb056c11,%eax
 2fb:	67 75 05             	addr16 jne 303 <mbh-0x2ffcfd>
 2fe:	08 75 05             	or     %dh,0x5(%ebp)
 301:	09 75 05             	or     %esi,0x5(%ebp)
 304:	06                   	push   %es
 305:	76 05                	jbe    30c <mbh-0x2ffcf4>
 307:	0f 00 02             	sldt   (%edx)
 30a:	04 01                	add    $0x1,%al
 30c:	9e                   	sahf
 30d:	05 09 4c 05 12       	add    $0x12054c09,%eax
 312:	5a                   	pop    %edx
 313:	05 09 90 68 05       	add    $0x5689009,%eax
 318:	0c a1                	or     $0xa1,%al
 31a:	05 0f 67 05 15       	add    $0x1505670f,%eax
 31f:	67 05 0d 77 05 14    	addr16 add $0x1405770d,%eax
 325:	57                   	push   %edi
 326:	05 0d 75 05 13       	add    $0x1305750d,%eax
 32b:	59                   	pop    %ecx
 32c:	05 12 67 05 0d       	add    $0xd056712,%eax
 331:	83 05 0c 5c 05 13 67 	addl   $0x67,0x13055c0c
 338:	05 0d d7 05 13       	add    $0x1305d70d,%eax
 33d:	08 67 05             	or     %ah,0x5(%edi)
 340:	11 67 05             	adc    %esp,0x5(%edi)
 343:	0d d7 05 13 08       	or     $0x81305d7,%eax
 348:	67 05 1e 67 05 16    	addr16 add $0x1605671e,%eax
 34e:	00 02                	add    %al,(%edx)
 350:	04 01                	add    $0x1,%al
 352:	ac                   	lods   %ds:(%esi),%al
 353:	05 0d 9f 05 13       	add    $0x13059f0d,%eax
 358:	08 d7                	or     %dl,%bh
 35a:	05 16 67 05 0d       	add    $0xd056716,%eax
 35f:	08 3d 05 13 08 d9    	or     %bh,0xd9081305
 365:	05 1d 00 02 04       	add    $0x402001d,%eax
 36a:	01 66 05             	add    %esp,0x5(%esi)
 36d:	0f a1                	pop    %fs
 36f:	05 16 67 05 14       	add    $0x14056716,%eax
 374:	08 59 05             	or     %bl,0x5(%ecx)
 377:	18 67 05             	sbb    %ah,0x5(%edi)
 37a:	16                   	push   %ss
 37b:	00 02                	add    %al,(%edx)
