
kernel.elf:     format de fichier elf32-i386


Déassemblage de la section .mbh :

00300000 <mbh>:
  300000:	02 b0 ad 1b 03 00    	add    0x31bad(%eax),%dh
  300006:	00 00                	add    %al,(%eax)
  300008:	fb                   	sti
  300009:	4f                   	dec    %edi
  30000a:	52                   	push   %edx
  30000b:	e4                   	.byte 0xe4

Déassemblage de la section .idt_jmp :

00302010 <idt_trampoline>:
  302010:	6a ff                	push   $0xffffffff
  302012:	6a 00                	push   $0x0
  302014:	e9 6d 1d 00 00       	jmp    303d86 <idt_common>
  302019:	8d b4 26 00 00 00 00 	lea    0x0(%esi,%eiz,1),%esi
  302020:	6a ff                	push   $0xffffffff
  302022:	6a 01                	push   $0x1
  302024:	e9 5d 1d 00 00       	jmp    303d86 <idt_common>
  302029:	8d b4 26 00 00 00 00 	lea    0x0(%esi,%eiz,1),%esi
  302030:	6a ff                	push   $0xffffffff
  302032:	6a 02                	push   $0x2
  302034:	e9 4d 1d 00 00       	jmp    303d86 <idt_common>
  302039:	8d b4 26 00 00 00 00 	lea    0x0(%esi,%eiz,1),%esi
  302040:	6a ff                	push   $0xffffffff
  302042:	6a 03                	push   $0x3
  302044:	e9 3d 1d 00 00       	jmp    303d86 <idt_common>
  302049:	8d b4 26 00 00 00 00 	lea    0x0(%esi,%eiz,1),%esi
  302050:	6a ff                	push   $0xffffffff
  302052:	6a 04                	push   $0x4
  302054:	e9 2d 1d 00 00       	jmp    303d86 <idt_common>
  302059:	8d b4 26 00 00 00 00 	lea    0x0(%esi,%eiz,1),%esi
  302060:	6a ff                	push   $0xffffffff
  302062:	6a 05                	push   $0x5
  302064:	e9 1d 1d 00 00       	jmp    303d86 <idt_common>
  302069:	8d b4 26 00 00 00 00 	lea    0x0(%esi,%eiz,1),%esi
  302070:	6a ff                	push   $0xffffffff
  302072:	6a 06                	push   $0x6
  302074:	e9 0d 1d 00 00       	jmp    303d86 <idt_common>
  302079:	8d b4 26 00 00 00 00 	lea    0x0(%esi,%eiz,1),%esi
  302080:	6a ff                	push   $0xffffffff
  302082:	6a 07                	push   $0x7
  302084:	e9 fd 1c 00 00       	jmp    303d86 <idt_common>
  302089:	8d b4 26 00 00 00 00 	lea    0x0(%esi,%eiz,1),%esi
  302090:	6a 08                	push   $0x8
  302092:	e9 ef 1c 00 00       	jmp    303d86 <idt_common>
  302097:	2e 8d b4 26 00 00 00 	lea    %cs:0x0(%esi,%eiz,1),%esi
  30209e:	00 
  30209f:	90                   	nop
  3020a0:	6a ff                	push   $0xffffffff
  3020a2:	6a 09                	push   $0x9
  3020a4:	e9 dd 1c 00 00       	jmp    303d86 <idt_common>
  3020a9:	8d b4 26 00 00 00 00 	lea    0x0(%esi,%eiz,1),%esi
  3020b0:	6a 0a                	push   $0xa
  3020b2:	e9 cf 1c 00 00       	jmp    303d86 <idt_common>
  3020b7:	2e 8d b4 26 00 00 00 	lea    %cs:0x0(%esi,%eiz,1),%esi
  3020be:	00 
  3020bf:	90                   	nop
  3020c0:	6a 0b                	push   $0xb
  3020c2:	e9 bf 1c 00 00       	jmp    303d86 <idt_common>
  3020c7:	2e 8d b4 26 00 00 00 	lea    %cs:0x0(%esi,%eiz,1),%esi
  3020ce:	00 
  3020cf:	90                   	nop
  3020d0:	6a 0c                	push   $0xc
  3020d2:	e9 af 1c 00 00       	jmp    303d86 <idt_common>
  3020d7:	2e 8d b4 26 00 00 00 	lea    %cs:0x0(%esi,%eiz,1),%esi
  3020de:	00 
  3020df:	90                   	nop
  3020e0:	6a 0d                	push   $0xd
  3020e2:	e9 9f 1c 00 00       	jmp    303d86 <idt_common>
  3020e7:	2e 8d b4 26 00 00 00 	lea    %cs:0x0(%esi,%eiz,1),%esi
  3020ee:	00 
  3020ef:	90                   	nop
  3020f0:	6a 0e                	push   $0xe
  3020f2:	e9 8f 1c 00 00       	jmp    303d86 <idt_common>
  3020f7:	2e 8d b4 26 00 00 00 	lea    %cs:0x0(%esi,%eiz,1),%esi
  3020fe:	00 
  3020ff:	90                   	nop
  302100:	6a ff                	push   $0xffffffff
  302102:	6a 0f                	push   $0xf
  302104:	e9 7d 1c 00 00       	jmp    303d86 <idt_common>
  302109:	8d b4 26 00 00 00 00 	lea    0x0(%esi,%eiz,1),%esi
  302110:	6a ff                	push   $0xffffffff
  302112:	6a 10                	push   $0x10
  302114:	e9 6d 1c 00 00       	jmp    303d86 <idt_common>
  302119:	8d b4 26 00 00 00 00 	lea    0x0(%esi,%eiz,1),%esi
  302120:	6a 11                	push   $0x11
  302122:	e9 5f 1c 00 00       	jmp    303d86 <idt_common>
  302127:	2e 8d b4 26 00 00 00 	lea    %cs:0x0(%esi,%eiz,1),%esi
  30212e:	00 
  30212f:	90                   	nop
  302130:	6a ff                	push   $0xffffffff
  302132:	6a 12                	push   $0x12
  302134:	e9 4d 1c 00 00       	jmp    303d86 <idt_common>
  302139:	8d b4 26 00 00 00 00 	lea    0x0(%esi,%eiz,1),%esi
  302140:	6a ff                	push   $0xffffffff
  302142:	6a 13                	push   $0x13
  302144:	e9 3d 1c 00 00       	jmp    303d86 <idt_common>
  302149:	8d b4 26 00 00 00 00 	lea    0x0(%esi,%eiz,1),%esi
  302150:	cf                   	iret
  302151:	2e 8d b4 26 00 00 00 	lea    %cs:0x0(%esi,%eiz,1),%esi
  302158:	00 
  302159:	8d b4 26 00 00 00 00 	lea    0x0(%esi,%eiz,1),%esi
  302160:	cf                   	iret
  302161:	2e 8d b4 26 00 00 00 	lea    %cs:0x0(%esi,%eiz,1),%esi
  302168:	00 
  302169:	8d b4 26 00 00 00 00 	lea    0x0(%esi,%eiz,1),%esi
  302170:	cf                   	iret
  302171:	2e 8d b4 26 00 00 00 	lea    %cs:0x0(%esi,%eiz,1),%esi
  302178:	00 
  302179:	8d b4 26 00 00 00 00 	lea    0x0(%esi,%eiz,1),%esi
  302180:	cf                   	iret
  302181:	2e 8d b4 26 00 00 00 	lea    %cs:0x0(%esi,%eiz,1),%esi
  302188:	00 
  302189:	8d b4 26 00 00 00 00 	lea    0x0(%esi,%eiz,1),%esi
  302190:	cf                   	iret
  302191:	2e 8d b4 26 00 00 00 	lea    %cs:0x0(%esi,%eiz,1),%esi
  302198:	00 
  302199:	8d b4 26 00 00 00 00 	lea    0x0(%esi,%eiz,1),%esi
  3021a0:	cf                   	iret
  3021a1:	2e 8d b4 26 00 00 00 	lea    %cs:0x0(%esi,%eiz,1),%esi
  3021a8:	00 
  3021a9:	8d b4 26 00 00 00 00 	lea    0x0(%esi,%eiz,1),%esi
  3021b0:	cf                   	iret
  3021b1:	2e 8d b4 26 00 00 00 	lea    %cs:0x0(%esi,%eiz,1),%esi
  3021b8:	00 
  3021b9:	8d b4 26 00 00 00 00 	lea    0x0(%esi,%eiz,1),%esi
  3021c0:	cf                   	iret
  3021c1:	2e 8d b4 26 00 00 00 	lea    %cs:0x0(%esi,%eiz,1),%esi
  3021c8:	00 
  3021c9:	8d b4 26 00 00 00 00 	lea    0x0(%esi,%eiz,1),%esi
  3021d0:	cf                   	iret
  3021d1:	2e 8d b4 26 00 00 00 	lea    %cs:0x0(%esi,%eiz,1),%esi
  3021d8:	00 
  3021d9:	8d b4 26 00 00 00 00 	lea    0x0(%esi,%eiz,1),%esi
  3021e0:	cf                   	iret
  3021e1:	2e 8d b4 26 00 00 00 	lea    %cs:0x0(%esi,%eiz,1),%esi
  3021e8:	00 
  3021e9:	8d b4 26 00 00 00 00 	lea    0x0(%esi,%eiz,1),%esi
  3021f0:	cf                   	iret
  3021f1:	2e 8d b4 26 00 00 00 	lea    %cs:0x0(%esi,%eiz,1),%esi
  3021f8:	00 
  3021f9:	8d b4 26 00 00 00 00 	lea    0x0(%esi,%eiz,1),%esi
  302200:	cf                   	iret
  302201:	2e 8d b4 26 00 00 00 	lea    %cs:0x0(%esi,%eiz,1),%esi
  302208:	00 
  302209:	8d b4 26 00 00 00 00 	lea    0x0(%esi,%eiz,1),%esi
  302210:	6a ff                	push   $0xffffffff
  302212:	6a 20                	push   $0x20
  302214:	e9 67 1b 00 00       	jmp    303d80 <ack_pic1>
  302219:	8d b4 26 00 00 00 00 	lea    0x0(%esi,%eiz,1),%esi
  302220:	6a ff                	push   $0xffffffff
  302222:	6a 21                	push   $0x21
  302224:	e9 57 1b 00 00       	jmp    303d80 <ack_pic1>
  302229:	8d b4 26 00 00 00 00 	lea    0x0(%esi,%eiz,1),%esi
  302230:	6a ff                	push   $0xffffffff
  302232:	6a 22                	push   $0x22
  302234:	e9 47 1b 00 00       	jmp    303d80 <ack_pic1>
  302239:	8d b4 26 00 00 00 00 	lea    0x0(%esi,%eiz,1),%esi
  302240:	6a ff                	push   $0xffffffff
  302242:	6a 23                	push   $0x23
  302244:	e9 37 1b 00 00       	jmp    303d80 <ack_pic1>
  302249:	8d b4 26 00 00 00 00 	lea    0x0(%esi,%eiz,1),%esi
  302250:	6a ff                	push   $0xffffffff
  302252:	6a 24                	push   $0x24
  302254:	e9 27 1b 00 00       	jmp    303d80 <ack_pic1>
  302259:	8d b4 26 00 00 00 00 	lea    0x0(%esi,%eiz,1),%esi
  302260:	6a ff                	push   $0xffffffff
  302262:	6a 25                	push   $0x25
  302264:	e9 17 1b 00 00       	jmp    303d80 <ack_pic1>
  302269:	8d b4 26 00 00 00 00 	lea    0x0(%esi,%eiz,1),%esi
  302270:	6a ff                	push   $0xffffffff
  302272:	6a 26                	push   $0x26
  302274:	e9 07 1b 00 00       	jmp    303d80 <ack_pic1>
  302279:	8d b4 26 00 00 00 00 	lea    0x0(%esi,%eiz,1),%esi
  302280:	6a ff                	push   $0xffffffff
  302282:	6a 27                	push   $0x27
  302284:	e9 f7 1a 00 00       	jmp    303d80 <ack_pic1>
  302289:	8d b4 26 00 00 00 00 	lea    0x0(%esi,%eiz,1),%esi
  302290:	6a ff                	push   $0xffffffff
  302292:	6a 28                	push   $0x28
  302294:	e9 e0 1a 00 00       	jmp    303d79 <ack_pic2>
  302299:	8d b4 26 00 00 00 00 	lea    0x0(%esi,%eiz,1),%esi
  3022a0:	6a ff                	push   $0xffffffff
  3022a2:	6a 29                	push   $0x29
  3022a4:	e9 d0 1a 00 00       	jmp    303d79 <ack_pic2>
  3022a9:	8d b4 26 00 00 00 00 	lea    0x0(%esi,%eiz,1),%esi
  3022b0:	6a ff                	push   $0xffffffff
  3022b2:	6a 2a                	push   $0x2a
  3022b4:	e9 c0 1a 00 00       	jmp    303d79 <ack_pic2>
  3022b9:	8d b4 26 00 00 00 00 	lea    0x0(%esi,%eiz,1),%esi
  3022c0:	6a ff                	push   $0xffffffff
  3022c2:	6a 2b                	push   $0x2b
  3022c4:	e9 b0 1a 00 00       	jmp    303d79 <ack_pic2>
  3022c9:	8d b4 26 00 00 00 00 	lea    0x0(%esi,%eiz,1),%esi
  3022d0:	6a ff                	push   $0xffffffff
  3022d2:	6a 2c                	push   $0x2c
  3022d4:	e9 a0 1a 00 00       	jmp    303d79 <ack_pic2>
  3022d9:	8d b4 26 00 00 00 00 	lea    0x0(%esi,%eiz,1),%esi
  3022e0:	6a ff                	push   $0xffffffff
  3022e2:	6a 2d                	push   $0x2d
  3022e4:	e9 90 1a 00 00       	jmp    303d79 <ack_pic2>
  3022e9:	8d b4 26 00 00 00 00 	lea    0x0(%esi,%eiz,1),%esi
  3022f0:	6a ff                	push   $0xffffffff
  3022f2:	6a 2e                	push   $0x2e
  3022f4:	e9 80 1a 00 00       	jmp    303d79 <ack_pic2>
  3022f9:	8d b4 26 00 00 00 00 	lea    0x0(%esi,%eiz,1),%esi
  302300:	6a ff                	push   $0xffffffff
  302302:	6a 2f                	push   $0x2f
  302304:	e9 70 1a 00 00       	jmp    303d79 <ack_pic2>
  302309:	8d b4 26 00 00 00 00 	lea    0x0(%esi,%eiz,1),%esi
  302310:	6a ff                	push   $0xffffffff
  302312:	6a 30                	push   $0x30
  302314:	e9 6d 1a 00 00       	jmp    303d86 <idt_common>
  302319:	8d b4 26 00 00 00 00 	lea    0x0(%esi,%eiz,1),%esi
  302320:	6a ff                	push   $0xffffffff
  302322:	6a 31                	push   $0x31
  302324:	e9 5d 1a 00 00       	jmp    303d86 <idt_common>
  302329:	8d b4 26 00 00 00 00 	lea    0x0(%esi,%eiz,1),%esi
  302330:	6a ff                	push   $0xffffffff
  302332:	6a 32                	push   $0x32
  302334:	e9 4d 1a 00 00       	jmp    303d86 <idt_common>
  302339:	8d b4 26 00 00 00 00 	lea    0x0(%esi,%eiz,1),%esi
  302340:	6a ff                	push   $0xffffffff
  302342:	6a 33                	push   $0x33
  302344:	e9 3d 1a 00 00       	jmp    303d86 <idt_common>
  302349:	8d b4 26 00 00 00 00 	lea    0x0(%esi,%eiz,1),%esi
  302350:	6a ff                	push   $0xffffffff
  302352:	6a 34                	push   $0x34
  302354:	e9 2d 1a 00 00       	jmp    303d86 <idt_common>
  302359:	8d b4 26 00 00 00 00 	lea    0x0(%esi,%eiz,1),%esi
  302360:	6a ff                	push   $0xffffffff
  302362:	6a 35                	push   $0x35
  302364:	e9 1d 1a 00 00       	jmp    303d86 <idt_common>
  302369:	8d b4 26 00 00 00 00 	lea    0x0(%esi,%eiz,1),%esi
  302370:	6a ff                	push   $0xffffffff
  302372:	6a 36                	push   $0x36
  302374:	e9 0d 1a 00 00       	jmp    303d86 <idt_common>
  302379:	8d b4 26 00 00 00 00 	lea    0x0(%esi,%eiz,1),%esi
  302380:	6a ff                	push   $0xffffffff
  302382:	6a 37                	push   $0x37
  302384:	e9 fd 19 00 00       	jmp    303d86 <idt_common>
  302389:	8d b4 26 00 00 00 00 	lea    0x0(%esi,%eiz,1),%esi
  302390:	6a ff                	push   $0xffffffff
  302392:	6a 38                	push   $0x38
  302394:	e9 ed 19 00 00       	jmp    303d86 <idt_common>
  302399:	8d b4 26 00 00 00 00 	lea    0x0(%esi,%eiz,1),%esi
  3023a0:	6a ff                	push   $0xffffffff
  3023a2:	6a 39                	push   $0x39
  3023a4:	e9 dd 19 00 00       	jmp    303d86 <idt_common>
  3023a9:	8d b4 26 00 00 00 00 	lea    0x0(%esi,%eiz,1),%esi
  3023b0:	6a ff                	push   $0xffffffff
  3023b2:	6a 3a                	push   $0x3a
  3023b4:	e9 cd 19 00 00       	jmp    303d86 <idt_common>
  3023b9:	8d b4 26 00 00 00 00 	lea    0x0(%esi,%eiz,1),%esi
  3023c0:	6a ff                	push   $0xffffffff
  3023c2:	6a 3b                	push   $0x3b
  3023c4:	e9 bd 19 00 00       	jmp    303d86 <idt_common>
  3023c9:	8d b4 26 00 00 00 00 	lea    0x0(%esi,%eiz,1),%esi
  3023d0:	6a ff                	push   $0xffffffff
  3023d2:	6a 3c                	push   $0x3c
  3023d4:	e9 ad 19 00 00       	jmp    303d86 <idt_common>
  3023d9:	8d b4 26 00 00 00 00 	lea    0x0(%esi,%eiz,1),%esi
  3023e0:	6a ff                	push   $0xffffffff
  3023e2:	6a 3d                	push   $0x3d
  3023e4:	e9 9d 19 00 00       	jmp    303d86 <idt_common>
  3023e9:	8d b4 26 00 00 00 00 	lea    0x0(%esi,%eiz,1),%esi
  3023f0:	6a ff                	push   $0xffffffff
  3023f2:	6a 3e                	push   $0x3e
  3023f4:	e9 8d 19 00 00       	jmp    303d86 <idt_common>
  3023f9:	8d b4 26 00 00 00 00 	lea    0x0(%esi,%eiz,1),%esi
  302400:	6a ff                	push   $0xffffffff
  302402:	6a 3f                	push   $0x3f
  302404:	e9 7d 19 00 00       	jmp    303d86 <idt_common>
  302409:	8d b4 26 00 00 00 00 	lea    0x0(%esi,%eiz,1),%esi
  302410:	6a ff                	push   $0xffffffff
  302412:	6a 40                	push   $0x40
  302414:	e9 6d 19 00 00       	jmp    303d86 <idt_common>
  302419:	8d b4 26 00 00 00 00 	lea    0x0(%esi,%eiz,1),%esi
  302420:	6a ff                	push   $0xffffffff
  302422:	6a 41                	push   $0x41
  302424:	e9 5d 19 00 00       	jmp    303d86 <idt_common>
  302429:	8d b4 26 00 00 00 00 	lea    0x0(%esi,%eiz,1),%esi
  302430:	6a ff                	push   $0xffffffff
  302432:	6a 42                	push   $0x42
  302434:	e9 4d 19 00 00       	jmp    303d86 <idt_common>
  302439:	8d b4 26 00 00 00 00 	lea    0x0(%esi,%eiz,1),%esi
  302440:	6a ff                	push   $0xffffffff
  302442:	6a 43                	push   $0x43
  302444:	e9 3d 19 00 00       	jmp    303d86 <idt_common>
  302449:	8d b4 26 00 00 00 00 	lea    0x0(%esi,%eiz,1),%esi
  302450:	6a ff                	push   $0xffffffff
  302452:	6a 44                	push   $0x44
  302454:	e9 2d 19 00 00       	jmp    303d86 <idt_common>
  302459:	8d b4 26 00 00 00 00 	lea    0x0(%esi,%eiz,1),%esi
  302460:	6a ff                	push   $0xffffffff
  302462:	6a 45                	push   $0x45
  302464:	e9 1d 19 00 00       	jmp    303d86 <idt_common>
  302469:	8d b4 26 00 00 00 00 	lea    0x0(%esi,%eiz,1),%esi
  302470:	6a ff                	push   $0xffffffff
  302472:	6a 46                	push   $0x46
  302474:	e9 0d 19 00 00       	jmp    303d86 <idt_common>
  302479:	8d b4 26 00 00 00 00 	lea    0x0(%esi,%eiz,1),%esi
  302480:	6a ff                	push   $0xffffffff
  302482:	6a 47                	push   $0x47
  302484:	e9 fd 18 00 00       	jmp    303d86 <idt_common>
  302489:	8d b4 26 00 00 00 00 	lea    0x0(%esi,%eiz,1),%esi
  302490:	6a ff                	push   $0xffffffff
  302492:	6a 48                	push   $0x48
  302494:	e9 ed 18 00 00       	jmp    303d86 <idt_common>
  302499:	8d b4 26 00 00 00 00 	lea    0x0(%esi,%eiz,1),%esi
  3024a0:	6a ff                	push   $0xffffffff
  3024a2:	6a 49                	push   $0x49
  3024a4:	e9 dd 18 00 00       	jmp    303d86 <idt_common>
  3024a9:	8d b4 26 00 00 00 00 	lea    0x0(%esi,%eiz,1),%esi
  3024b0:	6a ff                	push   $0xffffffff
  3024b2:	6a 4a                	push   $0x4a
  3024b4:	e9 cd 18 00 00       	jmp    303d86 <idt_common>
  3024b9:	8d b4 26 00 00 00 00 	lea    0x0(%esi,%eiz,1),%esi
  3024c0:	6a ff                	push   $0xffffffff
  3024c2:	6a 4b                	push   $0x4b
  3024c4:	e9 bd 18 00 00       	jmp    303d86 <idt_common>
  3024c9:	8d b4 26 00 00 00 00 	lea    0x0(%esi,%eiz,1),%esi
  3024d0:	6a ff                	push   $0xffffffff
  3024d2:	6a 4c                	push   $0x4c
  3024d4:	e9 ad 18 00 00       	jmp    303d86 <idt_common>
  3024d9:	8d b4 26 00 00 00 00 	lea    0x0(%esi,%eiz,1),%esi
  3024e0:	6a ff                	push   $0xffffffff
  3024e2:	6a 4d                	push   $0x4d
  3024e4:	e9 9d 18 00 00       	jmp    303d86 <idt_common>
  3024e9:	8d b4 26 00 00 00 00 	lea    0x0(%esi,%eiz,1),%esi
  3024f0:	6a ff                	push   $0xffffffff
  3024f2:	6a 4e                	push   $0x4e
  3024f4:	e9 8d 18 00 00       	jmp    303d86 <idt_common>
  3024f9:	8d b4 26 00 00 00 00 	lea    0x0(%esi,%eiz,1),%esi
  302500:	6a ff                	push   $0xffffffff
  302502:	6a 4f                	push   $0x4f
  302504:	e9 7d 18 00 00       	jmp    303d86 <idt_common>
  302509:	8d b4 26 00 00 00 00 	lea    0x0(%esi,%eiz,1),%esi
  302510:	6a ff                	push   $0xffffffff
  302512:	6a 50                	push   $0x50
  302514:	e9 6d 18 00 00       	jmp    303d86 <idt_common>
  302519:	8d b4 26 00 00 00 00 	lea    0x0(%esi,%eiz,1),%esi
  302520:	6a ff                	push   $0xffffffff
  302522:	6a 51                	push   $0x51
  302524:	e9 5d 18 00 00       	jmp    303d86 <idt_common>
  302529:	8d b4 26 00 00 00 00 	lea    0x0(%esi,%eiz,1),%esi
  302530:	6a ff                	push   $0xffffffff
  302532:	6a 52                	push   $0x52
  302534:	e9 4d 18 00 00       	jmp    303d86 <idt_common>
  302539:	8d b4 26 00 00 00 00 	lea    0x0(%esi,%eiz,1),%esi
  302540:	6a ff                	push   $0xffffffff
  302542:	6a 53                	push   $0x53
  302544:	e9 3d 18 00 00       	jmp    303d86 <idt_common>
  302549:	8d b4 26 00 00 00 00 	lea    0x0(%esi,%eiz,1),%esi
  302550:	6a ff                	push   $0xffffffff
  302552:	6a 54                	push   $0x54
  302554:	e9 2d 18 00 00       	jmp    303d86 <idt_common>
  302559:	8d b4 26 00 00 00 00 	lea    0x0(%esi,%eiz,1),%esi
  302560:	6a ff                	push   $0xffffffff
  302562:	6a 55                	push   $0x55
  302564:	e9 1d 18 00 00       	jmp    303d86 <idt_common>
  302569:	8d b4 26 00 00 00 00 	lea    0x0(%esi,%eiz,1),%esi
  302570:	6a ff                	push   $0xffffffff
  302572:	6a 56                	push   $0x56
  302574:	e9 0d 18 00 00       	jmp    303d86 <idt_common>
  302579:	8d b4 26 00 00 00 00 	lea    0x0(%esi,%eiz,1),%esi
  302580:	6a ff                	push   $0xffffffff
  302582:	6a 57                	push   $0x57
  302584:	e9 fd 17 00 00       	jmp    303d86 <idt_common>
  302589:	8d b4 26 00 00 00 00 	lea    0x0(%esi,%eiz,1),%esi
  302590:	6a ff                	push   $0xffffffff
  302592:	6a 58                	push   $0x58
  302594:	e9 ed 17 00 00       	jmp    303d86 <idt_common>
  302599:	8d b4 26 00 00 00 00 	lea    0x0(%esi,%eiz,1),%esi
  3025a0:	6a ff                	push   $0xffffffff
  3025a2:	6a 59                	push   $0x59
  3025a4:	e9 dd 17 00 00       	jmp    303d86 <idt_common>
  3025a9:	8d b4 26 00 00 00 00 	lea    0x0(%esi,%eiz,1),%esi
  3025b0:	6a ff                	push   $0xffffffff
  3025b2:	6a 5a                	push   $0x5a
  3025b4:	e9 cd 17 00 00       	jmp    303d86 <idt_common>
  3025b9:	8d b4 26 00 00 00 00 	lea    0x0(%esi,%eiz,1),%esi
  3025c0:	6a ff                	push   $0xffffffff
  3025c2:	6a 5b                	push   $0x5b
  3025c4:	e9 bd 17 00 00       	jmp    303d86 <idt_common>
  3025c9:	8d b4 26 00 00 00 00 	lea    0x0(%esi,%eiz,1),%esi
  3025d0:	6a ff                	push   $0xffffffff
  3025d2:	6a 5c                	push   $0x5c
  3025d4:	e9 ad 17 00 00       	jmp    303d86 <idt_common>
  3025d9:	8d b4 26 00 00 00 00 	lea    0x0(%esi,%eiz,1),%esi
  3025e0:	6a ff                	push   $0xffffffff
  3025e2:	6a 5d                	push   $0x5d
  3025e4:	e9 9d 17 00 00       	jmp    303d86 <idt_common>
  3025e9:	8d b4 26 00 00 00 00 	lea    0x0(%esi,%eiz,1),%esi
  3025f0:	6a ff                	push   $0xffffffff
  3025f2:	6a 5e                	push   $0x5e
  3025f4:	e9 8d 17 00 00       	jmp    303d86 <idt_common>
  3025f9:	8d b4 26 00 00 00 00 	lea    0x0(%esi,%eiz,1),%esi
  302600:	6a ff                	push   $0xffffffff
  302602:	6a 5f                	push   $0x5f
  302604:	e9 7d 17 00 00       	jmp    303d86 <idt_common>
  302609:	8d b4 26 00 00 00 00 	lea    0x0(%esi,%eiz,1),%esi
  302610:	6a ff                	push   $0xffffffff
  302612:	6a 60                	push   $0x60
  302614:	e9 6d 17 00 00       	jmp    303d86 <idt_common>
  302619:	8d b4 26 00 00 00 00 	lea    0x0(%esi,%eiz,1),%esi
  302620:	6a ff                	push   $0xffffffff
  302622:	6a 61                	push   $0x61
  302624:	e9 5d 17 00 00       	jmp    303d86 <idt_common>
  302629:	8d b4 26 00 00 00 00 	lea    0x0(%esi,%eiz,1),%esi
  302630:	6a ff                	push   $0xffffffff
  302632:	6a 62                	push   $0x62
  302634:	e9 4d 17 00 00       	jmp    303d86 <idt_common>
  302639:	8d b4 26 00 00 00 00 	lea    0x0(%esi,%eiz,1),%esi
  302640:	6a ff                	push   $0xffffffff
  302642:	6a 63                	push   $0x63
  302644:	e9 3d 17 00 00       	jmp    303d86 <idt_common>
  302649:	8d b4 26 00 00 00 00 	lea    0x0(%esi,%eiz,1),%esi
  302650:	6a ff                	push   $0xffffffff
  302652:	6a 64                	push   $0x64
  302654:	e9 2d 17 00 00       	jmp    303d86 <idt_common>
  302659:	8d b4 26 00 00 00 00 	lea    0x0(%esi,%eiz,1),%esi
  302660:	6a ff                	push   $0xffffffff
  302662:	6a 65                	push   $0x65
  302664:	e9 1d 17 00 00       	jmp    303d86 <idt_common>
  302669:	8d b4 26 00 00 00 00 	lea    0x0(%esi,%eiz,1),%esi
  302670:	6a ff                	push   $0xffffffff
  302672:	6a 66                	push   $0x66
  302674:	e9 0d 17 00 00       	jmp    303d86 <idt_common>
  302679:	8d b4 26 00 00 00 00 	lea    0x0(%esi,%eiz,1),%esi
  302680:	6a ff                	push   $0xffffffff
  302682:	6a 67                	push   $0x67
  302684:	e9 fd 16 00 00       	jmp    303d86 <idt_common>
  302689:	8d b4 26 00 00 00 00 	lea    0x0(%esi,%eiz,1),%esi
  302690:	6a ff                	push   $0xffffffff
  302692:	6a 68                	push   $0x68
  302694:	e9 ed 16 00 00       	jmp    303d86 <idt_common>
  302699:	8d b4 26 00 00 00 00 	lea    0x0(%esi,%eiz,1),%esi
  3026a0:	6a ff                	push   $0xffffffff
  3026a2:	6a 69                	push   $0x69
  3026a4:	e9 dd 16 00 00       	jmp    303d86 <idt_common>
  3026a9:	8d b4 26 00 00 00 00 	lea    0x0(%esi,%eiz,1),%esi
  3026b0:	6a ff                	push   $0xffffffff
  3026b2:	6a 6a                	push   $0x6a
  3026b4:	e9 cd 16 00 00       	jmp    303d86 <idt_common>
  3026b9:	8d b4 26 00 00 00 00 	lea    0x0(%esi,%eiz,1),%esi
  3026c0:	6a ff                	push   $0xffffffff
  3026c2:	6a 6b                	push   $0x6b
  3026c4:	e9 bd 16 00 00       	jmp    303d86 <idt_common>
  3026c9:	8d b4 26 00 00 00 00 	lea    0x0(%esi,%eiz,1),%esi
  3026d0:	6a ff                	push   $0xffffffff
  3026d2:	6a 6c                	push   $0x6c
  3026d4:	e9 ad 16 00 00       	jmp    303d86 <idt_common>
  3026d9:	8d b4 26 00 00 00 00 	lea    0x0(%esi,%eiz,1),%esi
  3026e0:	6a ff                	push   $0xffffffff
  3026e2:	6a 6d                	push   $0x6d
  3026e4:	e9 9d 16 00 00       	jmp    303d86 <idt_common>
  3026e9:	8d b4 26 00 00 00 00 	lea    0x0(%esi,%eiz,1),%esi
  3026f0:	6a ff                	push   $0xffffffff
  3026f2:	6a 6e                	push   $0x6e
  3026f4:	e9 8d 16 00 00       	jmp    303d86 <idt_common>
  3026f9:	8d b4 26 00 00 00 00 	lea    0x0(%esi,%eiz,1),%esi
  302700:	6a ff                	push   $0xffffffff
  302702:	6a 6f                	push   $0x6f
  302704:	e9 7d 16 00 00       	jmp    303d86 <idt_common>
  302709:	8d b4 26 00 00 00 00 	lea    0x0(%esi,%eiz,1),%esi
  302710:	6a ff                	push   $0xffffffff
  302712:	6a 70                	push   $0x70
  302714:	e9 6d 16 00 00       	jmp    303d86 <idt_common>
  302719:	8d b4 26 00 00 00 00 	lea    0x0(%esi,%eiz,1),%esi
  302720:	6a ff                	push   $0xffffffff
  302722:	6a 71                	push   $0x71
  302724:	e9 5d 16 00 00       	jmp    303d86 <idt_common>
  302729:	8d b4 26 00 00 00 00 	lea    0x0(%esi,%eiz,1),%esi
  302730:	6a ff                	push   $0xffffffff
  302732:	6a 72                	push   $0x72
  302734:	e9 4d 16 00 00       	jmp    303d86 <idt_common>
  302739:	8d b4 26 00 00 00 00 	lea    0x0(%esi,%eiz,1),%esi
  302740:	6a ff                	push   $0xffffffff
  302742:	6a 73                	push   $0x73
  302744:	e9 3d 16 00 00       	jmp    303d86 <idt_common>
  302749:	8d b4 26 00 00 00 00 	lea    0x0(%esi,%eiz,1),%esi
  302750:	6a ff                	push   $0xffffffff
  302752:	6a 74                	push   $0x74
  302754:	e9 2d 16 00 00       	jmp    303d86 <idt_common>
  302759:	8d b4 26 00 00 00 00 	lea    0x0(%esi,%eiz,1),%esi
  302760:	6a ff                	push   $0xffffffff
  302762:	6a 75                	push   $0x75
  302764:	e9 1d 16 00 00       	jmp    303d86 <idt_common>
  302769:	8d b4 26 00 00 00 00 	lea    0x0(%esi,%eiz,1),%esi
  302770:	6a ff                	push   $0xffffffff
  302772:	6a 76                	push   $0x76
  302774:	e9 0d 16 00 00       	jmp    303d86 <idt_common>
  302779:	8d b4 26 00 00 00 00 	lea    0x0(%esi,%eiz,1),%esi
  302780:	6a ff                	push   $0xffffffff
  302782:	6a 77                	push   $0x77
  302784:	e9 fd 15 00 00       	jmp    303d86 <idt_common>
  302789:	8d b4 26 00 00 00 00 	lea    0x0(%esi,%eiz,1),%esi
  302790:	6a ff                	push   $0xffffffff
  302792:	6a 78                	push   $0x78
  302794:	e9 ed 15 00 00       	jmp    303d86 <idt_common>
  302799:	8d b4 26 00 00 00 00 	lea    0x0(%esi,%eiz,1),%esi
  3027a0:	6a ff                	push   $0xffffffff
  3027a2:	6a 79                	push   $0x79
  3027a4:	e9 dd 15 00 00       	jmp    303d86 <idt_common>
  3027a9:	8d b4 26 00 00 00 00 	lea    0x0(%esi,%eiz,1),%esi
  3027b0:	6a ff                	push   $0xffffffff
  3027b2:	6a 7a                	push   $0x7a
  3027b4:	e9 cd 15 00 00       	jmp    303d86 <idt_common>
  3027b9:	8d b4 26 00 00 00 00 	lea    0x0(%esi,%eiz,1),%esi
  3027c0:	6a ff                	push   $0xffffffff
  3027c2:	6a 7b                	push   $0x7b
  3027c4:	e9 bd 15 00 00       	jmp    303d86 <idt_common>
  3027c9:	8d b4 26 00 00 00 00 	lea    0x0(%esi,%eiz,1),%esi
  3027d0:	6a ff                	push   $0xffffffff
  3027d2:	6a 7c                	push   $0x7c
  3027d4:	e9 ad 15 00 00       	jmp    303d86 <idt_common>
  3027d9:	8d b4 26 00 00 00 00 	lea    0x0(%esi,%eiz,1),%esi
  3027e0:	6a ff                	push   $0xffffffff
  3027e2:	6a 7d                	push   $0x7d
  3027e4:	e9 9d 15 00 00       	jmp    303d86 <idt_common>
  3027e9:	8d b4 26 00 00 00 00 	lea    0x0(%esi,%eiz,1),%esi
  3027f0:	6a ff                	push   $0xffffffff
  3027f2:	6a 7e                	push   $0x7e
  3027f4:	e9 8d 15 00 00       	jmp    303d86 <idt_common>
  3027f9:	8d b4 26 00 00 00 00 	lea    0x0(%esi,%eiz,1),%esi
  302800:	6a ff                	push   $0xffffffff
  302802:	6a 7f                	push   $0x7f
  302804:	e9 7d 15 00 00       	jmp    303d86 <idt_common>
  302809:	8d b4 26 00 00 00 00 	lea    0x0(%esi,%eiz,1),%esi
  302810:	6a ff                	push   $0xffffffff
  302812:	68 80 00 00 00       	push   $0x80
  302817:	e9 6a 15 00 00       	jmp    303d86 <idt_common>
  30281c:	8d 74 26 00          	lea    0x0(%esi,%eiz,1),%esi
  302820:	6a ff                	push   $0xffffffff
  302822:	68 81 00 00 00       	push   $0x81
  302827:	e9 5a 15 00 00       	jmp    303d86 <idt_common>
  30282c:	8d 74 26 00          	lea    0x0(%esi,%eiz,1),%esi
  302830:	6a ff                	push   $0xffffffff
  302832:	68 82 00 00 00       	push   $0x82
  302837:	e9 4a 15 00 00       	jmp    303d86 <idt_common>
  30283c:	8d 74 26 00          	lea    0x0(%esi,%eiz,1),%esi
  302840:	6a ff                	push   $0xffffffff
  302842:	68 83 00 00 00       	push   $0x83
  302847:	e9 3a 15 00 00       	jmp    303d86 <idt_common>
  30284c:	8d 74 26 00          	lea    0x0(%esi,%eiz,1),%esi
  302850:	6a ff                	push   $0xffffffff
  302852:	68 84 00 00 00       	push   $0x84
  302857:	e9 2a 15 00 00       	jmp    303d86 <idt_common>
  30285c:	8d 74 26 00          	lea    0x0(%esi,%eiz,1),%esi
  302860:	6a ff                	push   $0xffffffff
  302862:	68 85 00 00 00       	push   $0x85
  302867:	e9 1a 15 00 00       	jmp    303d86 <idt_common>
  30286c:	8d 74 26 00          	lea    0x0(%esi,%eiz,1),%esi
  302870:	6a ff                	push   $0xffffffff
  302872:	68 86 00 00 00       	push   $0x86
  302877:	e9 0a 15 00 00       	jmp    303d86 <idt_common>
  30287c:	8d 74 26 00          	lea    0x0(%esi,%eiz,1),%esi
  302880:	6a ff                	push   $0xffffffff
  302882:	68 87 00 00 00       	push   $0x87
  302887:	e9 fa 14 00 00       	jmp    303d86 <idt_common>
  30288c:	8d 74 26 00          	lea    0x0(%esi,%eiz,1),%esi
  302890:	6a ff                	push   $0xffffffff
  302892:	68 88 00 00 00       	push   $0x88
  302897:	e9 ea 14 00 00       	jmp    303d86 <idt_common>
  30289c:	8d 74 26 00          	lea    0x0(%esi,%eiz,1),%esi
  3028a0:	6a ff                	push   $0xffffffff
  3028a2:	68 89 00 00 00       	push   $0x89
  3028a7:	e9 da 14 00 00       	jmp    303d86 <idt_common>
  3028ac:	8d 74 26 00          	lea    0x0(%esi,%eiz,1),%esi
  3028b0:	6a ff                	push   $0xffffffff
  3028b2:	68 8a 00 00 00       	push   $0x8a
  3028b7:	e9 ca 14 00 00       	jmp    303d86 <idt_common>
  3028bc:	8d 74 26 00          	lea    0x0(%esi,%eiz,1),%esi
  3028c0:	6a ff                	push   $0xffffffff
  3028c2:	68 8b 00 00 00       	push   $0x8b
  3028c7:	e9 ba 14 00 00       	jmp    303d86 <idt_common>
  3028cc:	8d 74 26 00          	lea    0x0(%esi,%eiz,1),%esi
  3028d0:	6a ff                	push   $0xffffffff
  3028d2:	68 8c 00 00 00       	push   $0x8c
  3028d7:	e9 aa 14 00 00       	jmp    303d86 <idt_common>
  3028dc:	8d 74 26 00          	lea    0x0(%esi,%eiz,1),%esi
  3028e0:	6a ff                	push   $0xffffffff
  3028e2:	68 8d 00 00 00       	push   $0x8d
  3028e7:	e9 9a 14 00 00       	jmp    303d86 <idt_common>
  3028ec:	8d 74 26 00          	lea    0x0(%esi,%eiz,1),%esi
  3028f0:	6a ff                	push   $0xffffffff
  3028f2:	68 8e 00 00 00       	push   $0x8e
  3028f7:	e9 8a 14 00 00       	jmp    303d86 <idt_common>
  3028fc:	8d 74 26 00          	lea    0x0(%esi,%eiz,1),%esi
  302900:	6a ff                	push   $0xffffffff
  302902:	68 8f 00 00 00       	push   $0x8f
  302907:	e9 7a 14 00 00       	jmp    303d86 <idt_common>
  30290c:	8d 74 26 00          	lea    0x0(%esi,%eiz,1),%esi
  302910:	6a ff                	push   $0xffffffff
  302912:	68 90 00 00 00       	push   $0x90
  302917:	e9 6a 14 00 00       	jmp    303d86 <idt_common>
  30291c:	8d 74 26 00          	lea    0x0(%esi,%eiz,1),%esi
  302920:	6a ff                	push   $0xffffffff
  302922:	68 91 00 00 00       	push   $0x91
  302927:	e9 5a 14 00 00       	jmp    303d86 <idt_common>
  30292c:	8d 74 26 00          	lea    0x0(%esi,%eiz,1),%esi
  302930:	6a ff                	push   $0xffffffff
  302932:	68 92 00 00 00       	push   $0x92
  302937:	e9 4a 14 00 00       	jmp    303d86 <idt_common>
  30293c:	8d 74 26 00          	lea    0x0(%esi,%eiz,1),%esi
  302940:	6a ff                	push   $0xffffffff
  302942:	68 93 00 00 00       	push   $0x93
  302947:	e9 3a 14 00 00       	jmp    303d86 <idt_common>
  30294c:	8d 74 26 00          	lea    0x0(%esi,%eiz,1),%esi
  302950:	6a ff                	push   $0xffffffff
  302952:	68 94 00 00 00       	push   $0x94
  302957:	e9 2a 14 00 00       	jmp    303d86 <idt_common>
  30295c:	8d 74 26 00          	lea    0x0(%esi,%eiz,1),%esi
  302960:	6a ff                	push   $0xffffffff
  302962:	68 95 00 00 00       	push   $0x95
  302967:	e9 1a 14 00 00       	jmp    303d86 <idt_common>
  30296c:	8d 74 26 00          	lea    0x0(%esi,%eiz,1),%esi
  302970:	6a ff                	push   $0xffffffff
  302972:	68 96 00 00 00       	push   $0x96
  302977:	e9 0a 14 00 00       	jmp    303d86 <idt_common>
  30297c:	8d 74 26 00          	lea    0x0(%esi,%eiz,1),%esi
  302980:	6a ff                	push   $0xffffffff
  302982:	68 97 00 00 00       	push   $0x97
  302987:	e9 fa 13 00 00       	jmp    303d86 <idt_common>
  30298c:	8d 74 26 00          	lea    0x0(%esi,%eiz,1),%esi
  302990:	6a ff                	push   $0xffffffff
  302992:	68 98 00 00 00       	push   $0x98
  302997:	e9 ea 13 00 00       	jmp    303d86 <idt_common>
  30299c:	8d 74 26 00          	lea    0x0(%esi,%eiz,1),%esi
  3029a0:	6a ff                	push   $0xffffffff
  3029a2:	68 99 00 00 00       	push   $0x99
  3029a7:	e9 da 13 00 00       	jmp    303d86 <idt_common>
  3029ac:	8d 74 26 00          	lea    0x0(%esi,%eiz,1),%esi
  3029b0:	6a ff                	push   $0xffffffff
  3029b2:	68 9a 00 00 00       	push   $0x9a
  3029b7:	e9 ca 13 00 00       	jmp    303d86 <idt_common>
  3029bc:	8d 74 26 00          	lea    0x0(%esi,%eiz,1),%esi
  3029c0:	6a ff                	push   $0xffffffff
  3029c2:	68 9b 00 00 00       	push   $0x9b
  3029c7:	e9 ba 13 00 00       	jmp    303d86 <idt_common>
  3029cc:	8d 74 26 00          	lea    0x0(%esi,%eiz,1),%esi
  3029d0:	6a ff                	push   $0xffffffff
  3029d2:	68 9c 00 00 00       	push   $0x9c
  3029d7:	e9 aa 13 00 00       	jmp    303d86 <idt_common>
  3029dc:	8d 74 26 00          	lea    0x0(%esi,%eiz,1),%esi
  3029e0:	6a ff                	push   $0xffffffff
  3029e2:	68 9d 00 00 00       	push   $0x9d
  3029e7:	e9 9a 13 00 00       	jmp    303d86 <idt_common>
  3029ec:	8d 74 26 00          	lea    0x0(%esi,%eiz,1),%esi
  3029f0:	6a ff                	push   $0xffffffff
  3029f2:	68 9e 00 00 00       	push   $0x9e
  3029f7:	e9 8a 13 00 00       	jmp    303d86 <idt_common>
  3029fc:	8d 74 26 00          	lea    0x0(%esi,%eiz,1),%esi
  302a00:	6a ff                	push   $0xffffffff
  302a02:	68 9f 00 00 00       	push   $0x9f
  302a07:	e9 7a 13 00 00       	jmp    303d86 <idt_common>
  302a0c:	8d 74 26 00          	lea    0x0(%esi,%eiz,1),%esi
  302a10:	6a ff                	push   $0xffffffff
  302a12:	68 a0 00 00 00       	push   $0xa0
  302a17:	e9 6a 13 00 00       	jmp    303d86 <idt_common>
  302a1c:	8d 74 26 00          	lea    0x0(%esi,%eiz,1),%esi
  302a20:	6a ff                	push   $0xffffffff
  302a22:	68 a1 00 00 00       	push   $0xa1
  302a27:	e9 5a 13 00 00       	jmp    303d86 <idt_common>
  302a2c:	8d 74 26 00          	lea    0x0(%esi,%eiz,1),%esi
  302a30:	6a ff                	push   $0xffffffff
  302a32:	68 a2 00 00 00       	push   $0xa2
  302a37:	e9 4a 13 00 00       	jmp    303d86 <idt_common>
  302a3c:	8d 74 26 00          	lea    0x0(%esi,%eiz,1),%esi
  302a40:	6a ff                	push   $0xffffffff
  302a42:	68 a3 00 00 00       	push   $0xa3
  302a47:	e9 3a 13 00 00       	jmp    303d86 <idt_common>
  302a4c:	8d 74 26 00          	lea    0x0(%esi,%eiz,1),%esi
  302a50:	6a ff                	push   $0xffffffff
  302a52:	68 a4 00 00 00       	push   $0xa4
  302a57:	e9 2a 13 00 00       	jmp    303d86 <idt_common>
  302a5c:	8d 74 26 00          	lea    0x0(%esi,%eiz,1),%esi
  302a60:	6a ff                	push   $0xffffffff
  302a62:	68 a5 00 00 00       	push   $0xa5
  302a67:	e9 1a 13 00 00       	jmp    303d86 <idt_common>
  302a6c:	8d 74 26 00          	lea    0x0(%esi,%eiz,1),%esi
  302a70:	6a ff                	push   $0xffffffff
  302a72:	68 a6 00 00 00       	push   $0xa6
  302a77:	e9 0a 13 00 00       	jmp    303d86 <idt_common>
  302a7c:	8d 74 26 00          	lea    0x0(%esi,%eiz,1),%esi
  302a80:	6a ff                	push   $0xffffffff
  302a82:	68 a7 00 00 00       	push   $0xa7
  302a87:	e9 fa 12 00 00       	jmp    303d86 <idt_common>
  302a8c:	8d 74 26 00          	lea    0x0(%esi,%eiz,1),%esi
  302a90:	6a ff                	push   $0xffffffff
  302a92:	68 a8 00 00 00       	push   $0xa8
  302a97:	e9 ea 12 00 00       	jmp    303d86 <idt_common>
  302a9c:	8d 74 26 00          	lea    0x0(%esi,%eiz,1),%esi
  302aa0:	6a ff                	push   $0xffffffff
  302aa2:	68 a9 00 00 00       	push   $0xa9
  302aa7:	e9 da 12 00 00       	jmp    303d86 <idt_common>
  302aac:	8d 74 26 00          	lea    0x0(%esi,%eiz,1),%esi
  302ab0:	6a ff                	push   $0xffffffff
  302ab2:	68 aa 00 00 00       	push   $0xaa
  302ab7:	e9 ca 12 00 00       	jmp    303d86 <idt_common>
  302abc:	8d 74 26 00          	lea    0x0(%esi,%eiz,1),%esi
  302ac0:	6a ff                	push   $0xffffffff
  302ac2:	68 ab 00 00 00       	push   $0xab
  302ac7:	e9 ba 12 00 00       	jmp    303d86 <idt_common>
  302acc:	8d 74 26 00          	lea    0x0(%esi,%eiz,1),%esi
  302ad0:	6a ff                	push   $0xffffffff
  302ad2:	68 ac 00 00 00       	push   $0xac
  302ad7:	e9 aa 12 00 00       	jmp    303d86 <idt_common>
  302adc:	8d 74 26 00          	lea    0x0(%esi,%eiz,1),%esi
  302ae0:	6a ff                	push   $0xffffffff
  302ae2:	68 ad 00 00 00       	push   $0xad
  302ae7:	e9 9a 12 00 00       	jmp    303d86 <idt_common>
  302aec:	8d 74 26 00          	lea    0x0(%esi,%eiz,1),%esi
  302af0:	6a ff                	push   $0xffffffff
  302af2:	68 ae 00 00 00       	push   $0xae
  302af7:	e9 8a 12 00 00       	jmp    303d86 <idt_common>
  302afc:	8d 74 26 00          	lea    0x0(%esi,%eiz,1),%esi
  302b00:	6a ff                	push   $0xffffffff
  302b02:	68 af 00 00 00       	push   $0xaf
  302b07:	e9 7a 12 00 00       	jmp    303d86 <idt_common>
  302b0c:	8d 74 26 00          	lea    0x0(%esi,%eiz,1),%esi
  302b10:	6a ff                	push   $0xffffffff
  302b12:	68 b0 00 00 00       	push   $0xb0
  302b17:	e9 6a 12 00 00       	jmp    303d86 <idt_common>
  302b1c:	8d 74 26 00          	lea    0x0(%esi,%eiz,1),%esi
  302b20:	6a ff                	push   $0xffffffff
  302b22:	68 b1 00 00 00       	push   $0xb1
  302b27:	e9 5a 12 00 00       	jmp    303d86 <idt_common>
  302b2c:	8d 74 26 00          	lea    0x0(%esi,%eiz,1),%esi
  302b30:	6a ff                	push   $0xffffffff
  302b32:	68 b2 00 00 00       	push   $0xb2
  302b37:	e9 4a 12 00 00       	jmp    303d86 <idt_common>
  302b3c:	8d 74 26 00          	lea    0x0(%esi,%eiz,1),%esi
  302b40:	6a ff                	push   $0xffffffff
  302b42:	68 b3 00 00 00       	push   $0xb3
  302b47:	e9 3a 12 00 00       	jmp    303d86 <idt_common>
  302b4c:	8d 74 26 00          	lea    0x0(%esi,%eiz,1),%esi
  302b50:	6a ff                	push   $0xffffffff
  302b52:	68 b4 00 00 00       	push   $0xb4
  302b57:	e9 2a 12 00 00       	jmp    303d86 <idt_common>
  302b5c:	8d 74 26 00          	lea    0x0(%esi,%eiz,1),%esi
  302b60:	6a ff                	push   $0xffffffff
  302b62:	68 b5 00 00 00       	push   $0xb5
  302b67:	e9 1a 12 00 00       	jmp    303d86 <idt_common>
  302b6c:	8d 74 26 00          	lea    0x0(%esi,%eiz,1),%esi
  302b70:	6a ff                	push   $0xffffffff
  302b72:	68 b6 00 00 00       	push   $0xb6
  302b77:	e9 0a 12 00 00       	jmp    303d86 <idt_common>
  302b7c:	8d 74 26 00          	lea    0x0(%esi,%eiz,1),%esi
  302b80:	6a ff                	push   $0xffffffff
  302b82:	68 b7 00 00 00       	push   $0xb7
  302b87:	e9 fa 11 00 00       	jmp    303d86 <idt_common>
  302b8c:	8d 74 26 00          	lea    0x0(%esi,%eiz,1),%esi
  302b90:	6a ff                	push   $0xffffffff
  302b92:	68 b8 00 00 00       	push   $0xb8
  302b97:	e9 ea 11 00 00       	jmp    303d86 <idt_common>
  302b9c:	8d 74 26 00          	lea    0x0(%esi,%eiz,1),%esi
  302ba0:	6a ff                	push   $0xffffffff
  302ba2:	68 b9 00 00 00       	push   $0xb9
  302ba7:	e9 da 11 00 00       	jmp    303d86 <idt_common>
  302bac:	8d 74 26 00          	lea    0x0(%esi,%eiz,1),%esi
  302bb0:	6a ff                	push   $0xffffffff
  302bb2:	68 ba 00 00 00       	push   $0xba
  302bb7:	e9 ca 11 00 00       	jmp    303d86 <idt_common>
  302bbc:	8d 74 26 00          	lea    0x0(%esi,%eiz,1),%esi
  302bc0:	6a ff                	push   $0xffffffff
  302bc2:	68 bb 00 00 00       	push   $0xbb
  302bc7:	e9 ba 11 00 00       	jmp    303d86 <idt_common>
  302bcc:	8d 74 26 00          	lea    0x0(%esi,%eiz,1),%esi
  302bd0:	6a ff                	push   $0xffffffff
  302bd2:	68 bc 00 00 00       	push   $0xbc
  302bd7:	e9 aa 11 00 00       	jmp    303d86 <idt_common>
  302bdc:	8d 74 26 00          	lea    0x0(%esi,%eiz,1),%esi
  302be0:	6a ff                	push   $0xffffffff
  302be2:	68 bd 00 00 00       	push   $0xbd
  302be7:	e9 9a 11 00 00       	jmp    303d86 <idt_common>
  302bec:	8d 74 26 00          	lea    0x0(%esi,%eiz,1),%esi
  302bf0:	6a ff                	push   $0xffffffff
  302bf2:	68 be 00 00 00       	push   $0xbe
  302bf7:	e9 8a 11 00 00       	jmp    303d86 <idt_common>
  302bfc:	8d 74 26 00          	lea    0x0(%esi,%eiz,1),%esi
  302c00:	6a ff                	push   $0xffffffff
  302c02:	68 bf 00 00 00       	push   $0xbf
  302c07:	e9 7a 11 00 00       	jmp    303d86 <idt_common>
  302c0c:	8d 74 26 00          	lea    0x0(%esi,%eiz,1),%esi
  302c10:	6a ff                	push   $0xffffffff
  302c12:	68 c0 00 00 00       	push   $0xc0
  302c17:	e9 6a 11 00 00       	jmp    303d86 <idt_common>
  302c1c:	8d 74 26 00          	lea    0x0(%esi,%eiz,1),%esi
  302c20:	6a ff                	push   $0xffffffff
  302c22:	68 c1 00 00 00       	push   $0xc1
  302c27:	e9 5a 11 00 00       	jmp    303d86 <idt_common>
  302c2c:	8d 74 26 00          	lea    0x0(%esi,%eiz,1),%esi
  302c30:	6a ff                	push   $0xffffffff
  302c32:	68 c2 00 00 00       	push   $0xc2
  302c37:	e9 4a 11 00 00       	jmp    303d86 <idt_common>
  302c3c:	8d 74 26 00          	lea    0x0(%esi,%eiz,1),%esi
  302c40:	6a ff                	push   $0xffffffff
  302c42:	68 c3 00 00 00       	push   $0xc3
  302c47:	e9 3a 11 00 00       	jmp    303d86 <idt_common>
  302c4c:	8d 74 26 00          	lea    0x0(%esi,%eiz,1),%esi
  302c50:	6a ff                	push   $0xffffffff
  302c52:	68 c4 00 00 00       	push   $0xc4
  302c57:	e9 2a 11 00 00       	jmp    303d86 <idt_common>
  302c5c:	8d 74 26 00          	lea    0x0(%esi,%eiz,1),%esi
  302c60:	6a ff                	push   $0xffffffff
  302c62:	68 c5 00 00 00       	push   $0xc5
  302c67:	e9 1a 11 00 00       	jmp    303d86 <idt_common>
  302c6c:	8d 74 26 00          	lea    0x0(%esi,%eiz,1),%esi
  302c70:	6a ff                	push   $0xffffffff
  302c72:	68 c6 00 00 00       	push   $0xc6
  302c77:	e9 0a 11 00 00       	jmp    303d86 <idt_common>
  302c7c:	8d 74 26 00          	lea    0x0(%esi,%eiz,1),%esi
  302c80:	6a ff                	push   $0xffffffff
  302c82:	68 c7 00 00 00       	push   $0xc7
  302c87:	e9 fa 10 00 00       	jmp    303d86 <idt_common>
  302c8c:	8d 74 26 00          	lea    0x0(%esi,%eiz,1),%esi
  302c90:	6a ff                	push   $0xffffffff
  302c92:	68 c8 00 00 00       	push   $0xc8
  302c97:	e9 ea 10 00 00       	jmp    303d86 <idt_common>
  302c9c:	8d 74 26 00          	lea    0x0(%esi,%eiz,1),%esi
  302ca0:	6a ff                	push   $0xffffffff
  302ca2:	68 c9 00 00 00       	push   $0xc9
  302ca7:	e9 da 10 00 00       	jmp    303d86 <idt_common>
  302cac:	8d 74 26 00          	lea    0x0(%esi,%eiz,1),%esi
  302cb0:	6a ff                	push   $0xffffffff
  302cb2:	68 ca 00 00 00       	push   $0xca
  302cb7:	e9 ca 10 00 00       	jmp    303d86 <idt_common>
  302cbc:	8d 74 26 00          	lea    0x0(%esi,%eiz,1),%esi
  302cc0:	6a ff                	push   $0xffffffff
  302cc2:	68 cb 00 00 00       	push   $0xcb
  302cc7:	e9 ba 10 00 00       	jmp    303d86 <idt_common>
  302ccc:	8d 74 26 00          	lea    0x0(%esi,%eiz,1),%esi
  302cd0:	6a ff                	push   $0xffffffff
  302cd2:	68 cc 00 00 00       	push   $0xcc
  302cd7:	e9 aa 10 00 00       	jmp    303d86 <idt_common>
  302cdc:	8d 74 26 00          	lea    0x0(%esi,%eiz,1),%esi
  302ce0:	6a ff                	push   $0xffffffff
  302ce2:	68 cd 00 00 00       	push   $0xcd
  302ce7:	e9 9a 10 00 00       	jmp    303d86 <idt_common>
  302cec:	8d 74 26 00          	lea    0x0(%esi,%eiz,1),%esi
  302cf0:	6a ff                	push   $0xffffffff
  302cf2:	68 ce 00 00 00       	push   $0xce
  302cf7:	e9 8a 10 00 00       	jmp    303d86 <idt_common>
  302cfc:	8d 74 26 00          	lea    0x0(%esi,%eiz,1),%esi
  302d00:	6a ff                	push   $0xffffffff
  302d02:	68 cf 00 00 00       	push   $0xcf
  302d07:	e9 7a 10 00 00       	jmp    303d86 <idt_common>
  302d0c:	8d 74 26 00          	lea    0x0(%esi,%eiz,1),%esi
  302d10:	6a ff                	push   $0xffffffff
  302d12:	68 d0 00 00 00       	push   $0xd0
  302d17:	e9 6a 10 00 00       	jmp    303d86 <idt_common>
  302d1c:	8d 74 26 00          	lea    0x0(%esi,%eiz,1),%esi
  302d20:	6a ff                	push   $0xffffffff
  302d22:	68 d1 00 00 00       	push   $0xd1
  302d27:	e9 5a 10 00 00       	jmp    303d86 <idt_common>
  302d2c:	8d 74 26 00          	lea    0x0(%esi,%eiz,1),%esi
  302d30:	6a ff                	push   $0xffffffff
  302d32:	68 d2 00 00 00       	push   $0xd2
  302d37:	e9 4a 10 00 00       	jmp    303d86 <idt_common>
  302d3c:	8d 74 26 00          	lea    0x0(%esi,%eiz,1),%esi
  302d40:	6a ff                	push   $0xffffffff
  302d42:	68 d3 00 00 00       	push   $0xd3
  302d47:	e9 3a 10 00 00       	jmp    303d86 <idt_common>
  302d4c:	8d 74 26 00          	lea    0x0(%esi,%eiz,1),%esi
  302d50:	6a ff                	push   $0xffffffff
  302d52:	68 d4 00 00 00       	push   $0xd4
  302d57:	e9 2a 10 00 00       	jmp    303d86 <idt_common>
  302d5c:	8d 74 26 00          	lea    0x0(%esi,%eiz,1),%esi
  302d60:	6a ff                	push   $0xffffffff
  302d62:	68 d5 00 00 00       	push   $0xd5
  302d67:	e9 1a 10 00 00       	jmp    303d86 <idt_common>
  302d6c:	8d 74 26 00          	lea    0x0(%esi,%eiz,1),%esi
  302d70:	6a ff                	push   $0xffffffff
  302d72:	68 d6 00 00 00       	push   $0xd6
  302d77:	e9 0a 10 00 00       	jmp    303d86 <idt_common>
  302d7c:	8d 74 26 00          	lea    0x0(%esi,%eiz,1),%esi
  302d80:	6a ff                	push   $0xffffffff
  302d82:	68 d7 00 00 00       	push   $0xd7
  302d87:	e9 fa 0f 00 00       	jmp    303d86 <idt_common>
  302d8c:	8d 74 26 00          	lea    0x0(%esi,%eiz,1),%esi
  302d90:	6a ff                	push   $0xffffffff
  302d92:	68 d8 00 00 00       	push   $0xd8
  302d97:	e9 ea 0f 00 00       	jmp    303d86 <idt_common>
  302d9c:	8d 74 26 00          	lea    0x0(%esi,%eiz,1),%esi
  302da0:	6a ff                	push   $0xffffffff
  302da2:	68 d9 00 00 00       	push   $0xd9
  302da7:	e9 da 0f 00 00       	jmp    303d86 <idt_common>
  302dac:	8d 74 26 00          	lea    0x0(%esi,%eiz,1),%esi
  302db0:	6a ff                	push   $0xffffffff
  302db2:	68 da 00 00 00       	push   $0xda
  302db7:	e9 ca 0f 00 00       	jmp    303d86 <idt_common>
  302dbc:	8d 74 26 00          	lea    0x0(%esi,%eiz,1),%esi
  302dc0:	6a ff                	push   $0xffffffff
  302dc2:	68 db 00 00 00       	push   $0xdb
  302dc7:	e9 ba 0f 00 00       	jmp    303d86 <idt_common>
  302dcc:	8d 74 26 00          	lea    0x0(%esi,%eiz,1),%esi
  302dd0:	6a ff                	push   $0xffffffff
  302dd2:	68 dc 00 00 00       	push   $0xdc
  302dd7:	e9 aa 0f 00 00       	jmp    303d86 <idt_common>
  302ddc:	8d 74 26 00          	lea    0x0(%esi,%eiz,1),%esi
  302de0:	6a ff                	push   $0xffffffff
  302de2:	68 dd 00 00 00       	push   $0xdd
  302de7:	e9 9a 0f 00 00       	jmp    303d86 <idt_common>
  302dec:	8d 74 26 00          	lea    0x0(%esi,%eiz,1),%esi
  302df0:	6a ff                	push   $0xffffffff
  302df2:	68 de 00 00 00       	push   $0xde
  302df7:	e9 8a 0f 00 00       	jmp    303d86 <idt_common>
  302dfc:	8d 74 26 00          	lea    0x0(%esi,%eiz,1),%esi
  302e00:	6a ff                	push   $0xffffffff
  302e02:	68 df 00 00 00       	push   $0xdf
  302e07:	e9 7a 0f 00 00       	jmp    303d86 <idt_common>
  302e0c:	8d 74 26 00          	lea    0x0(%esi,%eiz,1),%esi
  302e10:	6a ff                	push   $0xffffffff
  302e12:	68 e0 00 00 00       	push   $0xe0
  302e17:	e9 6a 0f 00 00       	jmp    303d86 <idt_common>
  302e1c:	8d 74 26 00          	lea    0x0(%esi,%eiz,1),%esi
  302e20:	6a ff                	push   $0xffffffff
  302e22:	68 e1 00 00 00       	push   $0xe1
  302e27:	e9 5a 0f 00 00       	jmp    303d86 <idt_common>
  302e2c:	8d 74 26 00          	lea    0x0(%esi,%eiz,1),%esi
  302e30:	6a ff                	push   $0xffffffff
  302e32:	68 e2 00 00 00       	push   $0xe2
  302e37:	e9 4a 0f 00 00       	jmp    303d86 <idt_common>
  302e3c:	8d 74 26 00          	lea    0x0(%esi,%eiz,1),%esi
  302e40:	6a ff                	push   $0xffffffff
  302e42:	68 e3 00 00 00       	push   $0xe3
  302e47:	e9 3a 0f 00 00       	jmp    303d86 <idt_common>
  302e4c:	8d 74 26 00          	lea    0x0(%esi,%eiz,1),%esi
  302e50:	6a ff                	push   $0xffffffff
  302e52:	68 e4 00 00 00       	push   $0xe4
  302e57:	e9 2a 0f 00 00       	jmp    303d86 <idt_common>
  302e5c:	8d 74 26 00          	lea    0x0(%esi,%eiz,1),%esi
  302e60:	6a ff                	push   $0xffffffff
  302e62:	68 e5 00 00 00       	push   $0xe5
  302e67:	e9 1a 0f 00 00       	jmp    303d86 <idt_common>
  302e6c:	8d 74 26 00          	lea    0x0(%esi,%eiz,1),%esi
  302e70:	6a ff                	push   $0xffffffff
  302e72:	68 e6 00 00 00       	push   $0xe6
  302e77:	e9 0a 0f 00 00       	jmp    303d86 <idt_common>
  302e7c:	8d 74 26 00          	lea    0x0(%esi,%eiz,1),%esi
  302e80:	6a ff                	push   $0xffffffff
  302e82:	68 e7 00 00 00       	push   $0xe7
  302e87:	e9 fa 0e 00 00       	jmp    303d86 <idt_common>
  302e8c:	8d 74 26 00          	lea    0x0(%esi,%eiz,1),%esi
  302e90:	6a ff                	push   $0xffffffff
  302e92:	68 e8 00 00 00       	push   $0xe8
  302e97:	e9 ea 0e 00 00       	jmp    303d86 <idt_common>
  302e9c:	8d 74 26 00          	lea    0x0(%esi,%eiz,1),%esi
  302ea0:	6a ff                	push   $0xffffffff
  302ea2:	68 e9 00 00 00       	push   $0xe9
  302ea7:	e9 da 0e 00 00       	jmp    303d86 <idt_common>
  302eac:	8d 74 26 00          	lea    0x0(%esi,%eiz,1),%esi
  302eb0:	6a ff                	push   $0xffffffff
  302eb2:	68 ea 00 00 00       	push   $0xea
  302eb7:	e9 ca 0e 00 00       	jmp    303d86 <idt_common>
  302ebc:	8d 74 26 00          	lea    0x0(%esi,%eiz,1),%esi
  302ec0:	6a ff                	push   $0xffffffff
  302ec2:	68 eb 00 00 00       	push   $0xeb
  302ec7:	e9 ba 0e 00 00       	jmp    303d86 <idt_common>
  302ecc:	8d 74 26 00          	lea    0x0(%esi,%eiz,1),%esi
  302ed0:	6a ff                	push   $0xffffffff
  302ed2:	68 ec 00 00 00       	push   $0xec
  302ed7:	e9 aa 0e 00 00       	jmp    303d86 <idt_common>
  302edc:	8d 74 26 00          	lea    0x0(%esi,%eiz,1),%esi
  302ee0:	6a ff                	push   $0xffffffff
  302ee2:	68 ed 00 00 00       	push   $0xed
  302ee7:	e9 9a 0e 00 00       	jmp    303d86 <idt_common>
  302eec:	8d 74 26 00          	lea    0x0(%esi,%eiz,1),%esi
  302ef0:	6a ff                	push   $0xffffffff
  302ef2:	68 ee 00 00 00       	push   $0xee
  302ef7:	e9 8a 0e 00 00       	jmp    303d86 <idt_common>
  302efc:	8d 74 26 00          	lea    0x0(%esi,%eiz,1),%esi
  302f00:	6a ff                	push   $0xffffffff
  302f02:	68 ef 00 00 00       	push   $0xef
  302f07:	e9 7a 0e 00 00       	jmp    303d86 <idt_common>
  302f0c:	8d 74 26 00          	lea    0x0(%esi,%eiz,1),%esi
  302f10:	6a ff                	push   $0xffffffff
  302f12:	68 f0 00 00 00       	push   $0xf0
  302f17:	e9 6a 0e 00 00       	jmp    303d86 <idt_common>
  302f1c:	8d 74 26 00          	lea    0x0(%esi,%eiz,1),%esi
  302f20:	6a ff                	push   $0xffffffff
  302f22:	68 f1 00 00 00       	push   $0xf1
  302f27:	e9 5a 0e 00 00       	jmp    303d86 <idt_common>
  302f2c:	8d 74 26 00          	lea    0x0(%esi,%eiz,1),%esi
  302f30:	6a ff                	push   $0xffffffff
  302f32:	68 f2 00 00 00       	push   $0xf2
  302f37:	e9 4a 0e 00 00       	jmp    303d86 <idt_common>
  302f3c:	8d 74 26 00          	lea    0x0(%esi,%eiz,1),%esi
  302f40:	6a ff                	push   $0xffffffff
  302f42:	68 f3 00 00 00       	push   $0xf3
  302f47:	e9 3a 0e 00 00       	jmp    303d86 <idt_common>
  302f4c:	8d 74 26 00          	lea    0x0(%esi,%eiz,1),%esi
  302f50:	6a ff                	push   $0xffffffff
  302f52:	68 f4 00 00 00       	push   $0xf4
  302f57:	e9 2a 0e 00 00       	jmp    303d86 <idt_common>
  302f5c:	8d 74 26 00          	lea    0x0(%esi,%eiz,1),%esi
  302f60:	6a ff                	push   $0xffffffff
  302f62:	68 f5 00 00 00       	push   $0xf5
  302f67:	e9 1a 0e 00 00       	jmp    303d86 <idt_common>
  302f6c:	8d 74 26 00          	lea    0x0(%esi,%eiz,1),%esi
  302f70:	6a ff                	push   $0xffffffff
  302f72:	68 f6 00 00 00       	push   $0xf6
  302f77:	e9 0a 0e 00 00       	jmp    303d86 <idt_common>
  302f7c:	8d 74 26 00          	lea    0x0(%esi,%eiz,1),%esi
  302f80:	6a ff                	push   $0xffffffff
  302f82:	68 f7 00 00 00       	push   $0xf7
  302f87:	e9 fa 0d 00 00       	jmp    303d86 <idt_common>
  302f8c:	8d 74 26 00          	lea    0x0(%esi,%eiz,1),%esi
  302f90:	6a ff                	push   $0xffffffff
  302f92:	68 f8 00 00 00       	push   $0xf8
  302f97:	e9 ea 0d 00 00       	jmp    303d86 <idt_common>
  302f9c:	8d 74 26 00          	lea    0x0(%esi,%eiz,1),%esi
  302fa0:	6a ff                	push   $0xffffffff
  302fa2:	68 f9 00 00 00       	push   $0xf9
  302fa7:	e9 da 0d 00 00       	jmp    303d86 <idt_common>
  302fac:	8d 74 26 00          	lea    0x0(%esi,%eiz,1),%esi
  302fb0:	6a ff                	push   $0xffffffff
  302fb2:	68 fa 00 00 00       	push   $0xfa
  302fb7:	e9 ca 0d 00 00       	jmp    303d86 <idt_common>
  302fbc:	8d 74 26 00          	lea    0x0(%esi,%eiz,1),%esi
  302fc0:	6a ff                	push   $0xffffffff
  302fc2:	68 fb 00 00 00       	push   $0xfb
  302fc7:	e9 ba 0d 00 00       	jmp    303d86 <idt_common>
  302fcc:	8d 74 26 00          	lea    0x0(%esi,%eiz,1),%esi
  302fd0:	6a ff                	push   $0xffffffff
  302fd2:	68 fc 00 00 00       	push   $0xfc
  302fd7:	e9 aa 0d 00 00       	jmp    303d86 <idt_common>
  302fdc:	8d 74 26 00          	lea    0x0(%esi,%eiz,1),%esi
  302fe0:	6a ff                	push   $0xffffffff
  302fe2:	68 fd 00 00 00       	push   $0xfd
  302fe7:	e9 9a 0d 00 00       	jmp    303d86 <idt_common>
  302fec:	8d 74 26 00          	lea    0x0(%esi,%eiz,1),%esi
  302ff0:	6a ff                	push   $0xffffffff
  302ff2:	68 fe 00 00 00       	push   $0xfe
  302ff7:	e9 8a 0d 00 00       	jmp    303d86 <idt_common>
  302ffc:	8d 74 26 00          	lea    0x0(%esi,%eiz,1),%esi
  303000:	6a ff                	push   $0xffffffff
  303002:	68 ff 00 00 00       	push   $0xff
  303007:	e9 7a 0d 00 00       	jmp    303d86 <idt_common>

Déassemblage de la section .text :

00303010 <entry>:
  303010:	fa                   	cli
  303011:	bc 10 20 30 00       	mov    $0x302010,%esp
  303016:	6a 00                	push   $0x0
  303018:	9d                   	popf
  303019:	89 d8                	mov    %ebx,%eax
  30301b:	e8 03 00 00 00       	call   303023 <start>

00303020 <halt>:
  303020:	f4                   	hlt
  303021:	eb fd                	jmp    303020 <halt>

00303023 <start>:
  303023:	55                   	push   %ebp
  303024:	89 e5                	mov    %esp,%ebp
  303026:	83 ec 18             	sub    $0x18,%esp
  303029:	89 45 f4             	mov    %eax,-0xc(%ebp)
  30302c:	a1 e0 56 30 00       	mov    0x3056e0,%eax
  303031:	8b 55 f4             	mov    -0xc(%ebp),%edx
  303034:	89 10                	mov    %edx,(%eax)
  303036:	e8 09 0b 00 00       	call   303b44 <pic_init>
  30303b:	e8 8a 09 00 00       	call   3039ca <uart_init>
  303040:	e8 87 0b 00 00       	call   303bcc <intr_init>
  303045:	83 ec 0c             	sub    $0xc,%esp
  303048:	68 30 52 30 00       	push   $0x305230
  30304d:	e8 7e 00 00 00       	call   3030d0 <printf>
  303052:	83 c4 10             	add    $0x10,%esp
  303055:	e8 1c 1c 00 00       	call   304c76 <tp>
  30305a:	83 ec 0c             	sub    $0xc,%esp
  30305d:	68 53 52 30 00       	push   $0x305253
  303062:	e8 41 00 00 00       	call   3030a8 <panic>
  303067:	83 c4 10             	add    $0x10,%esp
  30306a:	90                   	nop
  30306b:	c9                   	leave
  30306c:	c3                   	ret

0030306d <__buf_add>:
  30306d:	55                   	push   %ebp
  30306e:	89 e5                	mov    %esp,%ebp
  303070:	53                   	push   %ebx
  303071:	83 ec 04             	sub    $0x4,%esp
  303074:	8b 45 10             	mov    0x10(%ebp),%eax
  303077:	88 45 f8             	mov    %al,-0x8(%ebp)
  30307a:	8b 45 08             	mov    0x8(%ebp),%eax
  30307d:	8b 40 08             	mov    0x8(%eax),%eax
  303080:	3b 45 0c             	cmp    0xc(%ebp),%eax
  303083:	73 1d                	jae    3030a2 <__buf_add+0x35>
  303085:	8b 45 08             	mov    0x8(%ebp),%eax
  303088:	8b 18                	mov    (%eax),%ebx
  30308a:	8b 45 08             	mov    0x8(%ebp),%eax
  30308d:	8b 40 08             	mov    0x8(%eax),%eax
  303090:	8d 48 01             	lea    0x1(%eax),%ecx
  303093:	8b 55 08             	mov    0x8(%ebp),%edx
  303096:	89 4a 08             	mov    %ecx,0x8(%edx)
  303099:	8d 14 03             	lea    (%ebx,%eax,1),%edx
  30309c:	0f b6 45 f8          	movzbl -0x8(%ebp),%eax
  3030a0:	88 02                	mov    %al,(%edx)
  3030a2:	90                   	nop
  3030a3:	8b 5d fc             	mov    -0x4(%ebp),%ebx
  3030a6:	c9                   	leave
  3030a7:	c3                   	ret

003030a8 <panic>:
  3030a8:	55                   	push   %ebp
  3030a9:	89 e5                	mov    %esp,%ebp
  3030ab:	83 ec 18             	sub    $0x18,%esp
  3030ae:	fa                   	cli
  3030af:	8d 45 0c             	lea    0xc(%ebp),%eax
  3030b2:	89 45 f4             	mov    %eax,-0xc(%ebp)
  3030b5:	8b 45 f4             	mov    -0xc(%ebp),%eax
  3030b8:	83 ec 08             	sub    $0x8,%esp
  3030bb:	50                   	push   %eax
  3030bc:	ff 75 08             	push   0x8(%ebp)
  3030bf:	e8 5b 00 00 00       	call   30311f <__vprintf>
  3030c4:	83 c4 10             	add    $0x10,%esp
  3030c7:	e8 37 0a 00 00       	call   303b03 <uart_flush>
  3030cc:	fa                   	cli
  3030cd:	f4                   	hlt
  3030ce:	eb fc                	jmp    3030cc <panic+0x24>

003030d0 <printf>:
  3030d0:	55                   	push   %ebp
  3030d1:	89 e5                	mov    %esp,%ebp
  3030d3:	83 ec 18             	sub    $0x18,%esp
  3030d6:	8d 45 0c             	lea    0xc(%ebp),%eax
  3030d9:	89 45 f0             	mov    %eax,-0x10(%ebp)
  3030dc:	8b 45 f0             	mov    -0x10(%ebp),%eax
  3030df:	83 ec 08             	sub    $0x8,%esp
  3030e2:	50                   	push   %eax
  3030e3:	ff 75 08             	push   0x8(%ebp)
  3030e6:	e8 34 00 00 00       	call   30311f <__vprintf>
  3030eb:	83 c4 10             	add    $0x10,%esp
  3030ee:	89 45 f4             	mov    %eax,-0xc(%ebp)
  3030f1:	8b 45 f4             	mov    -0xc(%ebp),%eax
  3030f4:	c9                   	leave
  3030f5:	c3                   	ret

003030f6 <snprintf>:
  3030f6:	55                   	push   %ebp
  3030f7:	89 e5                	mov    %esp,%ebp
  3030f9:	83 ec 18             	sub    $0x18,%esp
  3030fc:	8d 45 14             	lea    0x14(%ebp),%eax
  3030ff:	89 45 f0             	mov    %eax,-0x10(%ebp)
  303102:	8b 45 f0             	mov    -0x10(%ebp),%eax
  303105:	50                   	push   %eax
  303106:	ff 75 10             	push   0x10(%ebp)
  303109:	ff 75 0c             	push   0xc(%ebp)
  30310c:	ff 75 08             	push   0x8(%ebp)
  30310f:	e8 88 03 00 00       	call   30349c <__vsnprintf>
  303114:	83 c4 10             	add    $0x10,%esp
  303117:	89 45 f4             	mov    %eax,-0xc(%ebp)
  30311a:	8b 45 f4             	mov    -0xc(%ebp),%eax
  30311d:	c9                   	leave
  30311e:	c3                   	ret

0030311f <__vprintf>:
  30311f:	55                   	push   %ebp
  303120:	89 e5                	mov    %esp,%ebp
  303122:	83 ec 18             	sub    $0x18,%esp
  303125:	ff 75 0c             	push   0xc(%ebp)
  303128:	ff 75 08             	push   0x8(%ebp)
  30312b:	68 00 04 00 00       	push   $0x400
  303130:	68 a0 57 30 00       	push   $0x3057a0
  303135:	e8 62 03 00 00       	call   30349c <__vsnprintf>
  30313a:	83 c4 10             	add    $0x10,%esp
  30313d:	89 45 f4             	mov    %eax,-0xc(%ebp)
  303140:	8b 45 f4             	mov    -0xc(%ebp),%eax
  303143:	83 e8 01             	sub    $0x1,%eax
  303146:	83 ec 08             	sub    $0x8,%esp
  303149:	50                   	push   %eax
  30314a:	68 a0 57 30 00       	push   $0x3057a0
  30314f:	e8 83 09 00 00       	call   303ad7 <uart_write>
  303154:	83 c4 10             	add    $0x10,%esp
  303157:	8b 45 f4             	mov    -0xc(%ebp),%eax
  30315a:	c9                   	leave
  30315b:	c3                   	ret

0030315c <__format_add_str>:
  30315c:	55                   	push   %ebp
  30315d:	89 e5                	mov    %esp,%ebp
  30315f:	eb 1e                	jmp    30317f <__format_add_str+0x23>
  303161:	8b 45 10             	mov    0x10(%ebp),%eax
  303164:	8d 50 01             	lea    0x1(%eax),%edx
  303167:	89 55 10             	mov    %edx,0x10(%ebp)
  30316a:	0f b6 00             	movzbl (%eax),%eax
  30316d:	0f be c0             	movsbl %al,%eax
  303170:	50                   	push   %eax
  303171:	ff 75 0c             	push   0xc(%ebp)
  303174:	ff 75 08             	push   0x8(%ebp)
  303177:	e8 f1 fe ff ff       	call   30306d <__buf_add>
  30317c:	83 c4 0c             	add    $0xc,%esp
  30317f:	8b 45 10             	mov    0x10(%ebp),%eax
  303182:	0f b6 00             	movzbl (%eax),%eax
  303185:	84 c0                	test   %al,%al
  303187:	75 d8                	jne    303161 <__format_add_str+0x5>
  303189:	90                   	nop
  30318a:	90                   	nop
  30318b:	c9                   	leave
  30318c:	c3                   	ret

0030318d <__format_add_chr>:
  30318d:	55                   	push   %ebp
  30318e:	89 e5                	mov    %esp,%ebp
  303190:	8b 45 10             	mov    0x10(%ebp),%eax
  303193:	0f be c0             	movsbl %al,%eax
  303196:	50                   	push   %eax
  303197:	ff 75 0c             	push   0xc(%ebp)
  30319a:	ff 75 08             	push   0x8(%ebp)
  30319d:	e8 cb fe ff ff       	call   30306d <__buf_add>
  3031a2:	83 c4 0c             	add    $0xc,%esp
  3031a5:	90                   	nop
  3031a6:	c9                   	leave
  3031a7:	c3                   	ret

003031a8 <__format_add_bin>:
  3031a8:	55                   	push   %ebp
  3031a9:	89 e5                	mov    %esp,%ebp
  3031ab:	83 ec 18             	sub    $0x18,%esp
  3031ae:	8b 45 10             	mov    0x10(%ebp),%eax
  3031b1:	89 45 e8             	mov    %eax,-0x18(%ebp)
  3031b4:	8b 45 14             	mov    0x14(%ebp),%eax
  3031b7:	89 45 ec             	mov    %eax,-0x14(%ebp)
  3031ba:	c7 45 fc 00 00 00 00 	movl   $0x0,-0x4(%ebp)
  3031c1:	eb 48                	jmp    30320b <__format_add_bin+0x63>
  3031c3:	8b 45 18             	mov    0x18(%ebp),%eax
  3031c6:	2b 45 fc             	sub    -0x4(%ebp),%eax
  3031c9:	8d 48 ff             	lea    -0x1(%eax),%ecx
  3031cc:	8b 45 e8             	mov    -0x18(%ebp),%eax
  3031cf:	8b 55 ec             	mov    -0x14(%ebp),%edx
  3031d2:	0f ad d0             	shrd   %cl,%edx,%eax
  3031d5:	d3 ea                	shr    %cl,%edx
  3031d7:	f6 c1 20             	test   $0x20,%cl
  3031da:	74 04                	je     3031e0 <__format_add_bin+0x38>
  3031dc:	89 d0                	mov    %edx,%eax
  3031de:	31 d2                	xor    %edx,%edx
  3031e0:	83 e0 01             	and    $0x1,%eax
  3031e3:	89 45 f8             	mov    %eax,-0x8(%ebp)
  3031e6:	83 7d f8 00          	cmpl   $0x0,-0x8(%ebp)
  3031ea:	74 07                	je     3031f3 <__format_add_bin+0x4b>
  3031ec:	b8 31 00 00 00       	mov    $0x31,%eax
  3031f1:	eb 05                	jmp    3031f8 <__format_add_bin+0x50>
  3031f3:	b8 30 00 00 00       	mov    $0x30,%eax
  3031f8:	50                   	push   %eax
  3031f9:	ff 75 0c             	push   0xc(%ebp)
  3031fc:	ff 75 08             	push   0x8(%ebp)
  3031ff:	e8 69 fe ff ff       	call   30306d <__buf_add>
  303204:	83 c4 0c             	add    $0xc,%esp
  303207:	83 45 fc 01          	addl   $0x1,-0x4(%ebp)
  30320b:	8b 45 fc             	mov    -0x4(%ebp),%eax
  30320e:	3b 45 18             	cmp    0x18(%ebp),%eax
  303211:	72 b0                	jb     3031c3 <__format_add_bin+0x1b>
  303213:	90                   	nop
  303214:	90                   	nop
  303215:	c9                   	leave
  303216:	c3                   	ret

00303217 <__format_add_idec>:
  303217:	55                   	push   %ebp
  303218:	89 e5                	mov    %esp,%ebp
  30321a:	53                   	push   %ebx
  30321b:	83 ec 44             	sub    $0x44,%esp
  30321e:	8b 45 10             	mov    0x10(%ebp),%eax
  303221:	89 45 c0             	mov    %eax,-0x40(%ebp)
  303224:	8b 45 14             	mov    0x14(%ebp),%eax
  303227:	89 45 c4             	mov    %eax,-0x3c(%ebp)
  30322a:	8b 45 c0             	mov    -0x40(%ebp),%eax
  30322d:	0b 45 c4             	or     -0x3c(%ebp),%eax
  303230:	75 15                	jne    303247 <__format_add_idec+0x30>
  303232:	6a 30                	push   $0x30
  303234:	ff 75 0c             	push   0xc(%ebp)
  303237:	ff 75 08             	push   0x8(%ebp)
  30323a:	e8 2e fe ff ff       	call   30306d <__buf_add>
  30323f:	83 c4 0c             	add    $0xc,%esp
  303242:	e9 a9 00 00 00       	jmp    3032f0 <__format_add_idec+0xd9>
  303247:	8d 45 e0             	lea    -0x20(%ebp),%eax
  30324a:	89 45 d4             	mov    %eax,-0x2c(%ebp)
  30324d:	c7 45 dc 00 00 00 00 	movl   $0x0,-0x24(%ebp)
  303254:	83 7d c4 00          	cmpl   $0x0,-0x3c(%ebp)
  303258:	79 5f                	jns    3032b9 <__format_add_idec+0xa2>
  30325a:	6a 2d                	push   $0x2d
  30325c:	ff 75 0c             	push   0xc(%ebp)
  30325f:	ff 75 08             	push   0x8(%ebp)
  303262:	e8 06 fe ff ff       	call   30306d <__buf_add>
  303267:	83 c4 0c             	add    $0xc,%esp
  30326a:	f7 5d c0             	negl   -0x40(%ebp)
  30326d:	83 55 c4 00          	adcl   $0x0,-0x3c(%ebp)
  303271:	f7 5d c4             	negl   -0x3c(%ebp)
  303274:	eb 43                	jmp    3032b9 <__format_add_idec+0xa2>
  303276:	8b 45 c0             	mov    -0x40(%ebp),%eax
  303279:	8b 55 c4             	mov    -0x3c(%ebp),%edx
  30327c:	6a 00                	push   $0x0
  30327e:	6a 0a                	push   $0xa
  303280:	52                   	push   %edx
  303281:	50                   	push   %eax
  303282:	e8 a9 1b 00 00       	call   304e30 <__moddi3>
  303287:	83 c4 10             	add    $0x10,%esp
  30328a:	8d 58 30             	lea    0x30(%eax),%ebx
  30328d:	8b 4d d4             	mov    -0x2c(%ebp),%ecx
  303290:	8b 45 dc             	mov    -0x24(%ebp),%eax
  303293:	8d 50 01             	lea    0x1(%eax),%edx
  303296:	89 55 dc             	mov    %edx,-0x24(%ebp)
  303299:	01 c8                	add    %ecx,%eax
  30329b:	89 da                	mov    %ebx,%edx
  30329d:	88 10                	mov    %dl,(%eax)
  30329f:	8b 45 c0             	mov    -0x40(%ebp),%eax
  3032a2:	8b 55 c4             	mov    -0x3c(%ebp),%edx
  3032a5:	6a 00                	push   $0x0
  3032a7:	6a 0a                	push   $0xa
  3032a9:	52                   	push   %edx
  3032aa:	50                   	push   %eax
  3032ab:	e8 40 1a 00 00       	call   304cf0 <__divdi3>
  3032b0:	83 c4 10             	add    $0x10,%esp
  3032b3:	89 45 c0             	mov    %eax,-0x40(%ebp)
  3032b6:	89 55 c4             	mov    %edx,-0x3c(%ebp)
  3032b9:	8b 45 c0             	mov    -0x40(%ebp),%eax
  3032bc:	0b 45 c4             	or     -0x3c(%ebp),%eax
  3032bf:	75 b5                	jne    303276 <__format_add_idec+0x5f>
  3032c1:	eb 20                	jmp    3032e3 <__format_add_idec+0xcc>
  3032c3:	8b 55 d4             	mov    -0x2c(%ebp),%edx
  3032c6:	8b 45 dc             	mov    -0x24(%ebp),%eax
  3032c9:	01 d0                	add    %edx,%eax
  3032cb:	0f b6 00             	movzbl (%eax),%eax
  3032ce:	0f be c0             	movsbl %al,%eax
  3032d1:	83 ec 04             	sub    $0x4,%esp
  3032d4:	50                   	push   %eax
  3032d5:	ff 75 0c             	push   0xc(%ebp)
  3032d8:	ff 75 08             	push   0x8(%ebp)
  3032db:	e8 8d fd ff ff       	call   30306d <__buf_add>
  3032e0:	83 c4 10             	add    $0x10,%esp
  3032e3:	8b 45 dc             	mov    -0x24(%ebp),%eax
  3032e6:	8d 50 ff             	lea    -0x1(%eax),%edx
  3032e9:	89 55 dc             	mov    %edx,-0x24(%ebp)
  3032ec:	85 c0                	test   %eax,%eax
  3032ee:	75 d3                	jne    3032c3 <__format_add_idec+0xac>
  3032f0:	8b 5d fc             	mov    -0x4(%ebp),%ebx
  3032f3:	c9                   	leave
  3032f4:	c3                   	ret

003032f5 <__format_add_udec>:
  3032f5:	55                   	push   %ebp
  3032f6:	89 e5                	mov    %esp,%ebp
  3032f8:	53                   	push   %ebx
  3032f9:	83 ec 44             	sub    $0x44,%esp
  3032fc:	8b 45 10             	mov    0x10(%ebp),%eax
  3032ff:	89 45 c0             	mov    %eax,-0x40(%ebp)
  303302:	8b 45 14             	mov    0x14(%ebp),%eax
  303305:	89 45 c4             	mov    %eax,-0x3c(%ebp)
  303308:	8b 45 c0             	mov    -0x40(%ebp),%eax
  30330b:	0b 45 c4             	or     -0x3c(%ebp),%eax
  30330e:	75 15                	jne    303325 <__format_add_udec+0x30>
  303310:	6a 30                	push   $0x30
  303312:	ff 75 0c             	push   0xc(%ebp)
  303315:	ff 75 08             	push   0x8(%ebp)
  303318:	e8 50 fd ff ff       	call   30306d <__buf_add>
  30331d:	83 c4 0c             	add    $0xc,%esp
  303320:	e9 89 00 00 00       	jmp    3033ae <__format_add_udec+0xb9>
  303325:	8d 45 e0             	lea    -0x20(%ebp),%eax
  303328:	89 45 d4             	mov    %eax,-0x2c(%ebp)
  30332b:	c7 45 dc 00 00 00 00 	movl   $0x0,-0x24(%ebp)
  303332:	eb 43                	jmp    303377 <__format_add_udec+0x82>
  303334:	8b 45 c0             	mov    -0x40(%ebp),%eax
  303337:	8b 55 c4             	mov    -0x3c(%ebp),%edx
  30333a:	6a 00                	push   $0x0
  30333c:	6a 0a                	push   $0xa
  30333e:	52                   	push   %edx
  30333f:	50                   	push   %eax
  303340:	e8 ab 1d 00 00       	call   3050f0 <__umoddi3>
  303345:	83 c4 10             	add    $0x10,%esp
  303348:	8d 58 30             	lea    0x30(%eax),%ebx
  30334b:	8b 4d d4             	mov    -0x2c(%ebp),%ecx
  30334e:	8b 45 dc             	mov    -0x24(%ebp),%eax
  303351:	8d 50 01             	lea    0x1(%eax),%edx
  303354:	89 55 dc             	mov    %edx,-0x24(%ebp)
  303357:	01 c8                	add    %ecx,%eax
  303359:	89 da                	mov    %ebx,%edx
  30335b:	88 10                	mov    %dl,(%eax)
  30335d:	8b 45 c0             	mov    -0x40(%ebp),%eax
  303360:	8b 55 c4             	mov    -0x3c(%ebp),%edx
  303363:	6a 00                	push   $0x0
  303365:	6a 0a                	push   $0xa
  303367:	52                   	push   %edx
  303368:	50                   	push   %eax
  303369:	e8 62 1c 00 00       	call   304fd0 <__udivdi3>
  30336e:	83 c4 10             	add    $0x10,%esp
  303371:	89 45 c0             	mov    %eax,-0x40(%ebp)
  303374:	89 55 c4             	mov    %edx,-0x3c(%ebp)
  303377:	8b 45 c0             	mov    -0x40(%ebp),%eax
  30337a:	0b 45 c4             	or     -0x3c(%ebp),%eax
  30337d:	75 b5                	jne    303334 <__format_add_udec+0x3f>
  30337f:	eb 20                	jmp    3033a1 <__format_add_udec+0xac>
  303381:	8b 55 d4             	mov    -0x2c(%ebp),%edx
  303384:	8b 45 dc             	mov    -0x24(%ebp),%eax
  303387:	01 d0                	add    %edx,%eax
  303389:	0f b6 00             	movzbl (%eax),%eax
  30338c:	0f be c0             	movsbl %al,%eax
  30338f:	83 ec 04             	sub    $0x4,%esp
  303392:	50                   	push   %eax
  303393:	ff 75 0c             	push   0xc(%ebp)
  303396:	ff 75 08             	push   0x8(%ebp)
  303399:	e8 cf fc ff ff       	call   30306d <__buf_add>
  30339e:	83 c4 10             	add    $0x10,%esp
  3033a1:	8b 45 dc             	mov    -0x24(%ebp),%eax
  3033a4:	8d 50 ff             	lea    -0x1(%eax),%edx
  3033a7:	89 55 dc             	mov    %edx,-0x24(%ebp)
  3033aa:	85 c0                	test   %eax,%eax
  3033ac:	75 d3                	jne    303381 <__format_add_udec+0x8c>
  3033ae:	8b 5d fc             	mov    -0x4(%ebp),%ebx
  3033b1:	c9                   	leave
  3033b2:	c3                   	ret

003033b3 <uint64_to_hex>:
  3033b3:	55                   	push   %ebp
  3033b4:	89 e5                	mov    %esp,%ebp
  3033b6:	83 ec 28             	sub    $0x28,%esp
  3033b9:	8b 45 10             	mov    0x10(%ebp),%eax
  3033bc:	89 45 d8             	mov    %eax,-0x28(%ebp)
  3033bf:	8b 45 14             	mov    0x14(%ebp),%eax
  3033c2:	89 45 dc             	mov    %eax,-0x24(%ebp)
  3033c5:	c7 45 fc 00 00 00 00 	movl   $0x0,-0x4(%ebp)
  3033cc:	83 7d 18 00          	cmpl   $0x0,0x18(%ebp)
  3033d0:	74 06                	je     3033d8 <uint64_to_hex+0x25>
  3033d2:	83 7d 18 10          	cmpl   $0x10,0x18(%ebp)
  3033d6:	76 44                	jbe    30341c <uint64_to_hex+0x69>
  3033d8:	c7 45 18 ff ff ff ff 	movl   $0xffffffff,0x18(%ebp)
  3033df:	eb 3b                	jmp    30341c <uint64_to_hex+0x69>
  3033e1:	8b 45 d8             	mov    -0x28(%ebp),%eax
  3033e4:	8b 55 dc             	mov    -0x24(%ebp),%edx
  3033e7:	83 e0 0f             	and    $0xf,%eax
  3033ea:	ba 00 00 00 00       	mov    $0x0,%edx
  3033ef:	05 e4 56 30 00       	add    $0x3056e4,%eax
  3033f4:	0f b6 00             	movzbl (%eax),%eax
  3033f7:	8d 4d e8             	lea    -0x18(%ebp),%ecx
  3033fa:	8b 55 fc             	mov    -0x4(%ebp),%edx
  3033fd:	01 ca                	add    %ecx,%edx
  3033ff:	88 02                	mov    %al,(%edx)
  303401:	8b 45 d8             	mov    -0x28(%ebp),%eax
  303404:	8b 55 dc             	mov    -0x24(%ebp),%edx
  303407:	0f ac d0 04          	shrd   $0x4,%edx,%eax
  30340b:	c1 ea 04             	shr    $0x4,%edx
  30340e:	89 45 d8             	mov    %eax,-0x28(%ebp)
  303411:	89 55 dc             	mov    %edx,-0x24(%ebp)
  303414:	83 45 fc 01          	addl   $0x1,-0x4(%ebp)
  303418:	83 6d 18 01          	subl   $0x1,0x18(%ebp)
  30341c:	83 7d 18 00          	cmpl   $0x0,0x18(%ebp)
  303420:	74 14                	je     303436 <uint64_to_hex+0x83>
  303422:	83 7d 18 10          	cmpl   $0x10,0x18(%ebp)
  303426:	76 b9                	jbe    3033e1 <uint64_to_hex+0x2e>
  303428:	8b 45 d8             	mov    -0x28(%ebp),%eax
  30342b:	0b 45 dc             	or     -0x24(%ebp),%eax
  30342e:	75 b1                	jne    3033e1 <uint64_to_hex+0x2e>
  303430:	83 7d fc 00          	cmpl   $0x0,-0x4(%ebp)
  303434:	74 ab                	je     3033e1 <uint64_to_hex+0x2e>
  303436:	8b 45 fc             	mov    -0x4(%ebp),%eax
  303439:	89 45 f8             	mov    %eax,-0x8(%ebp)
  30343c:	eb 1d                	jmp    30345b <uint64_to_hex+0xa8>
  30343e:	8d 55 e8             	lea    -0x18(%ebp),%edx
  303441:	8b 45 fc             	mov    -0x4(%ebp),%eax
  303444:	01 d0                	add    %edx,%eax
  303446:	0f b6 00             	movzbl (%eax),%eax
  303449:	0f be c0             	movsbl %al,%eax
  30344c:	50                   	push   %eax
  30344d:	ff 75 0c             	push   0xc(%ebp)
  303450:	ff 75 08             	push   0x8(%ebp)
  303453:	e8 15 fc ff ff       	call   30306d <__buf_add>
  303458:	83 c4 0c             	add    $0xc,%esp
  30345b:	8b 45 fc             	mov    -0x4(%ebp),%eax
  30345e:	8d 50 ff             	lea    -0x1(%eax),%edx
  303461:	89 55 fc             	mov    %edx,-0x4(%ebp)
  303464:	85 c0                	test   %eax,%eax
  303466:	75 d6                	jne    30343e <uint64_to_hex+0x8b>
  303468:	8b 45 f8             	mov    -0x8(%ebp),%eax
  30346b:	c9                   	leave
  30346c:	c3                   	ret

0030346d <__format_add_hex>:
  30346d:	55                   	push   %ebp
  30346e:	89 e5                	mov    %esp,%ebp
  303470:	83 ec 08             	sub    $0x8,%esp
  303473:	8b 45 10             	mov    0x10(%ebp),%eax
  303476:	89 45 f8             	mov    %eax,-0x8(%ebp)
  303479:	8b 45 14             	mov    0x14(%ebp),%eax
  30347c:	89 45 fc             	mov    %eax,-0x4(%ebp)
  30347f:	83 ec 04             	sub    $0x4,%esp
  303482:	ff 75 18             	push   0x18(%ebp)
  303485:	ff 75 fc             	push   -0x4(%ebp)
  303488:	ff 75 f8             	push   -0x8(%ebp)
  30348b:	ff 75 0c             	push   0xc(%ebp)
  30348e:	ff 75 08             	push   0x8(%ebp)
  303491:	e8 1d ff ff ff       	call   3033b3 <uint64_to_hex>
  303496:	83 c4 18             	add    $0x18,%esp
  303499:	90                   	nop
  30349a:	c9                   	leave
  30349b:	c3                   	ret

0030349c <__vsnprintf>:
  30349c:	55                   	push   %ebp
  30349d:	89 e5                	mov    %esp,%ebp
  30349f:	83 ec 78             	sub    $0x78,%esp
  3034a2:	8b 45 08             	mov    0x8(%ebp),%eax
  3034a5:	89 45 94             	mov    %eax,-0x6c(%ebp)
  3034a8:	c7 45 9c 00 00 00 00 	movl   $0x0,-0x64(%ebp)
  3034af:	c7 45 f0 00 00 00 00 	movl   $0x0,-0x10(%ebp)
  3034b6:	c7 45 ec 00 00 00 00 	movl   $0x0,-0x14(%ebp)
  3034bd:	c7 45 f4 04 00 00 00 	movl   $0x4,-0xc(%ebp)
  3034c4:	83 7d 0c 00          	cmpl   $0x0,0xc(%ebp)
  3034c8:	0f 84 ad 03 00 00    	je     30387b <__vsnprintf+0x3df>
  3034ce:	83 6d 0c 01          	subl   $0x1,0xc(%ebp)
  3034d2:	e9 a4 03 00 00       	jmp    30387b <__vsnprintf+0x3df>
  3034d7:	8b 45 10             	mov    0x10(%ebp),%eax
  3034da:	8d 50 01             	lea    0x1(%eax),%edx
  3034dd:	89 55 10             	mov    %edx,0x10(%ebp)
  3034e0:	0f b6 00             	movzbl (%eax),%eax
  3034e3:	88 45 d7             	mov    %al,-0x29(%ebp)
  3034e6:	83 7d f0 00          	cmpl   $0x0,-0x10(%ebp)
  3034ea:	0f 84 5b 03 00 00    	je     30384b <__vsnprintf+0x3af>
  3034f0:	80 7d d7 6c          	cmpb   $0x6c,-0x29(%ebp)
  3034f4:	75 1e                	jne    303514 <__vsnprintf+0x78>
  3034f6:	83 7d ec 00          	cmpl   $0x0,-0x14(%ebp)
  3034fa:	74 0c                	je     303508 <__vsnprintf+0x6c>
  3034fc:	c7 45 f4 08 00 00 00 	movl   $0x8,-0xc(%ebp)
  303503:	e9 73 03 00 00       	jmp    30387b <__vsnprintf+0x3df>
  303508:	c7 45 ec 01 00 00 00 	movl   $0x1,-0x14(%ebp)
  30350f:	e9 67 03 00 00       	jmp    30387b <__vsnprintf+0x3df>
  303514:	80 7d d7 68          	cmpb   $0x68,-0x29(%ebp)
  303518:	75 0d                	jne    303527 <__vsnprintf+0x8b>
  30351a:	8b 45 f4             	mov    -0xc(%ebp),%eax
  30351d:	d1 e8                	shr    $1,%eax
  30351f:	89 45 f4             	mov    %eax,-0xc(%ebp)
  303522:	e9 54 03 00 00       	jmp    30387b <__vsnprintf+0x3df>
  303527:	80 7d d7 73          	cmpb   $0x73,-0x29(%ebp)
  30352b:	75 25                	jne    303552 <__vsnprintf+0xb6>
  30352d:	8b 45 14             	mov    0x14(%ebp),%eax
  303530:	8d 50 04             	lea    0x4(%eax),%edx
  303533:	89 55 14             	mov    %edx,0x14(%ebp)
  303536:	8b 00                	mov    (%eax),%eax
  303538:	89 45 a0             	mov    %eax,-0x60(%ebp)
  30353b:	ff 75 a0             	push   -0x60(%ebp)
  30353e:	ff 75 0c             	push   0xc(%ebp)
  303541:	8d 45 94             	lea    -0x6c(%ebp),%eax
  303544:	50                   	push   %eax
  303545:	e8 12 fc ff ff       	call   30315c <__format_add_str>
  30354a:	83 c4 0c             	add    $0xc,%esp
  30354d:	e9 e9 02 00 00       	jmp    30383b <__vsnprintf+0x39f>
  303552:	80 7d d7 63          	cmpb   $0x63,-0x29(%ebp)
  303556:	75 25                	jne    30357d <__vsnprintf+0xe1>
  303558:	8b 45 14             	mov    0x14(%ebp),%eax
  30355b:	8d 50 04             	lea    0x4(%eax),%edx
  30355e:	89 55 14             	mov    %edx,0x14(%ebp)
  303561:	8b 00                	mov    (%eax),%eax
  303563:	89 45 a4             	mov    %eax,-0x5c(%ebp)
  303566:	ff 75 a4             	push   -0x5c(%ebp)
  303569:	ff 75 0c             	push   0xc(%ebp)
  30356c:	8d 45 94             	lea    -0x6c(%ebp),%eax
  30356f:	50                   	push   %eax
  303570:	e8 18 fc ff ff       	call   30318d <__format_add_chr>
  303575:	83 c4 0c             	add    $0xc,%esp
  303578:	e9 be 02 00 00       	jmp    30383b <__vsnprintf+0x39f>
  30357d:	80 7d d7 62          	cmpb   $0x62,-0x29(%ebp)
  303581:	75 34                	jne    3035b7 <__vsnprintf+0x11b>
  303583:	8b 45 14             	mov    0x14(%ebp),%eax
  303586:	8d 50 04             	lea    0x4(%eax),%edx
  303589:	89 55 14             	mov    %edx,0x14(%ebp)
  30358c:	8b 00                	mov    (%eax),%eax
  30358e:	89 45 a8             	mov    %eax,-0x58(%ebp)
  303591:	c7 45 ac 00 00 00 00 	movl   $0x0,-0x54(%ebp)
  303598:	83 ec 04             	sub    $0x4,%esp
  30359b:	6a 20                	push   $0x20
  30359d:	ff 75 ac             	push   -0x54(%ebp)
  3035a0:	ff 75 a8             	push   -0x58(%ebp)
  3035a3:	ff 75 0c             	push   0xc(%ebp)
  3035a6:	8d 45 94             	lea    -0x6c(%ebp),%eax
  3035a9:	50                   	push   %eax
  3035aa:	e8 f9 fb ff ff       	call   3031a8 <__format_add_bin>
  3035af:	83 c4 18             	add    $0x18,%esp
  3035b2:	e9 84 02 00 00       	jmp    30383b <__vsnprintf+0x39f>
  3035b7:	80 7d d7 42          	cmpb   $0x42,-0x29(%ebp)
  3035bb:	75 33                	jne    3035f0 <__vsnprintf+0x154>
  3035bd:	8b 45 14             	mov    0x14(%ebp),%eax
  3035c0:	8d 50 08             	lea    0x8(%eax),%edx
  3035c3:	89 55 14             	mov    %edx,0x14(%ebp)
  3035c6:	8b 50 04             	mov    0x4(%eax),%edx
  3035c9:	8b 00                	mov    (%eax),%eax
  3035cb:	89 45 b0             	mov    %eax,-0x50(%ebp)
  3035ce:	89 55 b4             	mov    %edx,-0x4c(%ebp)
  3035d1:	83 ec 04             	sub    $0x4,%esp
  3035d4:	6a 40                	push   $0x40
  3035d6:	ff 75 b4             	push   -0x4c(%ebp)
  3035d9:	ff 75 b0             	push   -0x50(%ebp)
  3035dc:	ff 75 0c             	push   0xc(%ebp)
  3035df:	8d 45 94             	lea    -0x6c(%ebp),%eax
  3035e2:	50                   	push   %eax
  3035e3:	e8 c0 fb ff ff       	call   3031a8 <__format_add_bin>
  3035e8:	83 c4 18             	add    $0x18,%esp
  3035eb:	e9 4b 02 00 00       	jmp    30383b <__vsnprintf+0x39f>
  3035f0:	80 7d d7 64          	cmpb   $0x64,-0x29(%ebp)
  3035f4:	74 0a                	je     303600 <__vsnprintf+0x164>
  3035f6:	80 7d d7 69          	cmpb   $0x69,-0x29(%ebp)
  3035fa:	0f 85 80 00 00 00    	jne    303680 <__vsnprintf+0x1e4>
  303600:	83 7d f4 07          	cmpl   $0x7,-0xc(%ebp)
  303604:	76 16                	jbe    30361c <__vsnprintf+0x180>
  303606:	8b 45 14             	mov    0x14(%ebp),%eax
  303609:	8d 50 08             	lea    0x8(%eax),%edx
  30360c:	89 55 14             	mov    %edx,0x14(%ebp)
  30360f:	8b 50 04             	mov    0x4(%eax),%edx
  303612:	8b 00                	mov    (%eax),%eax
  303614:	89 45 e0             	mov    %eax,-0x20(%ebp)
  303617:	89 55 e4             	mov    %edx,-0x1c(%ebp)
  30361a:	eb 4a                	jmp    303666 <__vsnprintf+0x1ca>
  30361c:	83 7d f4 04          	cmpl   $0x4,-0xc(%ebp)
  303620:	75 14                	jne    303636 <__vsnprintf+0x19a>
  303622:	8b 45 14             	mov    0x14(%ebp),%eax
  303625:	8d 50 04             	lea    0x4(%eax),%edx
  303628:	89 55 14             	mov    %edx,0x14(%ebp)
  30362b:	8b 00                	mov    (%eax),%eax
  30362d:	99                   	cltd
  30362e:	89 45 e0             	mov    %eax,-0x20(%ebp)
  303631:	89 55 e4             	mov    %edx,-0x1c(%ebp)
  303634:	eb 30                	jmp    303666 <__vsnprintf+0x1ca>
  303636:	83 7d f4 02          	cmpl   $0x2,-0xc(%ebp)
  30363a:	75 15                	jne    303651 <__vsnprintf+0x1b5>
  30363c:	8b 45 14             	mov    0x14(%ebp),%eax
  30363f:	8d 50 04             	lea    0x4(%eax),%edx
  303642:	89 55 14             	mov    %edx,0x14(%ebp)
  303645:	8b 00                	mov    (%eax),%eax
  303647:	98                   	cwtl
  303648:	99                   	cltd
  303649:	89 45 e0             	mov    %eax,-0x20(%ebp)
  30364c:	89 55 e4             	mov    %edx,-0x1c(%ebp)
  30364f:	eb 15                	jmp    303666 <__vsnprintf+0x1ca>
  303651:	8b 45 14             	mov    0x14(%ebp),%eax
  303654:	8d 50 04             	lea    0x4(%eax),%edx
  303657:	89 55 14             	mov    %edx,0x14(%ebp)
  30365a:	8b 00                	mov    (%eax),%eax
  30365c:	0f be c0             	movsbl %al,%eax
  30365f:	99                   	cltd
  303660:	89 45 e0             	mov    %eax,-0x20(%ebp)
  303663:	89 55 e4             	mov    %edx,-0x1c(%ebp)
  303666:	ff 75 e4             	push   -0x1c(%ebp)
  303669:	ff 75 e0             	push   -0x20(%ebp)
  30366c:	ff 75 0c             	push   0xc(%ebp)
  30366f:	8d 45 94             	lea    -0x6c(%ebp),%eax
  303672:	50                   	push   %eax
  303673:	e8 9f fb ff ff       	call   303217 <__format_add_idec>
  303678:	83 c4 10             	add    $0x10,%esp
  30367b:	e9 bb 01 00 00       	jmp    30383b <__vsnprintf+0x39f>
  303680:	80 7d d7 75          	cmpb   $0x75,-0x29(%ebp)
  303684:	74 0a                	je     303690 <__vsnprintf+0x1f4>
  303686:	80 7d d7 78          	cmpb   $0x78,-0x29(%ebp)
  30368a:	0f 85 b0 00 00 00    	jne    303740 <__vsnprintf+0x2a4>
  303690:	83 7d f4 07          	cmpl   $0x7,-0xc(%ebp)
  303694:	76 16                	jbe    3036ac <__vsnprintf+0x210>
  303696:	8b 45 14             	mov    0x14(%ebp),%eax
  303699:	8d 50 08             	lea    0x8(%eax),%edx
  30369c:	89 55 14             	mov    %edx,0x14(%ebp)
  30369f:	8b 50 04             	mov    0x4(%eax),%edx
  3036a2:	8b 00                	mov    (%eax),%eax
  3036a4:	89 45 d8             	mov    %eax,-0x28(%ebp)
  3036a7:	89 55 dc             	mov    %edx,-0x24(%ebp)
  3036aa:	eb 55                	jmp    303701 <__vsnprintf+0x265>
  3036ac:	83 7d f4 04          	cmpl   $0x4,-0xc(%ebp)
  3036b0:	75 17                	jne    3036c9 <__vsnprintf+0x22d>
  3036b2:	8b 45 14             	mov    0x14(%ebp),%eax
  3036b5:	8d 50 04             	lea    0x4(%eax),%edx
  3036b8:	89 55 14             	mov    %edx,0x14(%ebp)
  3036bb:	8b 00                	mov    (%eax),%eax
  3036bd:	89 45 d8             	mov    %eax,-0x28(%ebp)
  3036c0:	c7 45 dc 00 00 00 00 	movl   $0x0,-0x24(%ebp)
  3036c7:	eb 38                	jmp    303701 <__vsnprintf+0x265>
  3036c9:	83 7d f4 02          	cmpl   $0x2,-0xc(%ebp)
  3036cd:	75 1a                	jne    3036e9 <__vsnprintf+0x24d>
  3036cf:	8b 45 14             	mov    0x14(%ebp),%eax
  3036d2:	8d 50 04             	lea    0x4(%eax),%edx
  3036d5:	89 55 14             	mov    %edx,0x14(%ebp)
  3036d8:	8b 00                	mov    (%eax),%eax
  3036da:	0f b7 c0             	movzwl %ax,%eax
  3036dd:	89 45 d8             	mov    %eax,-0x28(%ebp)
  3036e0:	c7 45 dc 00 00 00 00 	movl   $0x0,-0x24(%ebp)
  3036e7:	eb 18                	jmp    303701 <__vsnprintf+0x265>
  3036e9:	8b 45 14             	mov    0x14(%ebp),%eax
  3036ec:	8d 50 04             	lea    0x4(%eax),%edx
  3036ef:	89 55 14             	mov    %edx,0x14(%ebp)
  3036f2:	8b 00                	mov    (%eax),%eax
  3036f4:	0f b6 c0             	movzbl %al,%eax
  3036f7:	89 45 d8             	mov    %eax,-0x28(%ebp)
  3036fa:	c7 45 dc 00 00 00 00 	movl   $0x0,-0x24(%ebp)
  303701:	80 7d d7 75          	cmpb   $0x75,-0x29(%ebp)
  303705:	75 1a                	jne    303721 <__vsnprintf+0x285>
  303707:	ff 75 dc             	push   -0x24(%ebp)
  30370a:	ff 75 d8             	push   -0x28(%ebp)
  30370d:	ff 75 0c             	push   0xc(%ebp)
  303710:	8d 45 94             	lea    -0x6c(%ebp),%eax
  303713:	50                   	push   %eax
  303714:	e8 dc fb ff ff       	call   3032f5 <__format_add_udec>
  303719:	83 c4 10             	add    $0x10,%esp
  30371c:	e9 1a 01 00 00       	jmp    30383b <__vsnprintf+0x39f>
  303721:	83 ec 0c             	sub    $0xc,%esp
  303724:	6a 00                	push   $0x0
  303726:	ff 75 dc             	push   -0x24(%ebp)
  303729:	ff 75 d8             	push   -0x28(%ebp)
  30372c:	ff 75 0c             	push   0xc(%ebp)
  30372f:	8d 45 94             	lea    -0x6c(%ebp),%eax
  303732:	50                   	push   %eax
  303733:	e8 35 fd ff ff       	call   30346d <__format_add_hex>
  303738:	83 c4 20             	add    $0x20,%esp
  30373b:	e9 fb 00 00 00       	jmp    30383b <__vsnprintf+0x39f>
  303740:	80 7d d7 44          	cmpb   $0x44,-0x29(%ebp)
  303744:	75 2e                	jne    303774 <__vsnprintf+0x2d8>
  303746:	8b 45 14             	mov    0x14(%ebp),%eax
  303749:	8d 50 08             	lea    0x8(%eax),%edx
  30374c:	89 55 14             	mov    %edx,0x14(%ebp)
  30374f:	8b 50 04             	mov    0x4(%eax),%edx
  303752:	8b 00                	mov    (%eax),%eax
  303754:	89 45 b8             	mov    %eax,-0x48(%ebp)
  303757:	89 55 bc             	mov    %edx,-0x44(%ebp)
  30375a:	ff 75 bc             	push   -0x44(%ebp)
  30375d:	ff 75 b8             	push   -0x48(%ebp)
  303760:	ff 75 0c             	push   0xc(%ebp)
  303763:	8d 45 94             	lea    -0x6c(%ebp),%eax
  303766:	50                   	push   %eax
  303767:	e8 ab fa ff ff       	call   303217 <__format_add_idec>
  30376c:	83 c4 10             	add    $0x10,%esp
  30376f:	e9 c7 00 00 00       	jmp    30383b <__vsnprintf+0x39f>
  303774:	80 7d d7 58          	cmpb   $0x58,-0x29(%ebp)
  303778:	75 33                	jne    3037ad <__vsnprintf+0x311>
  30377a:	8b 45 14             	mov    0x14(%ebp),%eax
  30377d:	8d 50 08             	lea    0x8(%eax),%edx
  303780:	89 55 14             	mov    %edx,0x14(%ebp)
  303783:	8b 50 04             	mov    0x4(%eax),%edx
  303786:	8b 00                	mov    (%eax),%eax
  303788:	89 45 c0             	mov    %eax,-0x40(%ebp)
  30378b:	89 55 c4             	mov    %edx,-0x3c(%ebp)
  30378e:	83 ec 0c             	sub    $0xc,%esp
  303791:	6a 00                	push   $0x0
  303793:	ff 75 c4             	push   -0x3c(%ebp)
  303796:	ff 75 c0             	push   -0x40(%ebp)
  303799:	ff 75 0c             	push   0xc(%ebp)
  30379c:	8d 45 94             	lea    -0x6c(%ebp),%eax
  30379f:	50                   	push   %eax
  3037a0:	e8 c8 fc ff ff       	call   30346d <__format_add_hex>
  3037a5:	83 c4 20             	add    $0x20,%esp
  3037a8:	e9 8e 00 00 00       	jmp    30383b <__vsnprintf+0x39f>
  3037ad:	80 7d d7 70          	cmpb   $0x70,-0x29(%ebp)
  3037b1:	75 48                	jne    3037fb <__vsnprintf+0x35f>
  3037b3:	8b 45 14             	mov    0x14(%ebp),%eax
  3037b6:	8d 50 04             	lea    0x4(%eax),%edx
  3037b9:	89 55 14             	mov    %edx,0x14(%ebp)
  3037bc:	8b 00                	mov    (%eax),%eax
  3037be:	89 45 c8             	mov    %eax,-0x38(%ebp)
  3037c1:	c7 45 cc 00 00 00 00 	movl   $0x0,-0x34(%ebp)
  3037c8:	83 ec 04             	sub    $0x4,%esp
  3037cb:	68 5c 52 30 00       	push   $0x30525c
  3037d0:	ff 75 0c             	push   0xc(%ebp)
  3037d3:	8d 45 94             	lea    -0x6c(%ebp),%eax
  3037d6:	50                   	push   %eax
  3037d7:	e8 80 f9 ff ff       	call   30315c <__format_add_str>
  3037dc:	83 c4 10             	add    $0x10,%esp
  3037df:	83 ec 0c             	sub    $0xc,%esp
  3037e2:	6a 00                	push   $0x0
  3037e4:	ff 75 cc             	push   -0x34(%ebp)
  3037e7:	ff 75 c8             	push   -0x38(%ebp)
  3037ea:	ff 75 0c             	push   0xc(%ebp)
  3037ed:	8d 45 94             	lea    -0x6c(%ebp),%eax
  3037f0:	50                   	push   %eax
  3037f1:	e8 77 fc ff ff       	call   30346d <__format_add_hex>
  3037f6:	83 c4 20             	add    $0x20,%esp
  3037f9:	eb 40                	jmp    30383b <__vsnprintf+0x39f>
  3037fb:	80 7d d7 2f          	cmpb   $0x2f,-0x29(%ebp)
  3037ff:	7e 06                	jle    303807 <__vsnprintf+0x36b>
  303801:	80 7d d7 39          	cmpb   $0x39,-0x29(%ebp)
  303805:	7e 73                	jle    30387a <__vsnprintf+0x3de>
  303807:	80 7d d7 25          	cmpb   $0x25,-0x29(%ebp)
  30380b:	75 19                	jne    303826 <__vsnprintf+0x38a>
  30380d:	0f be 45 d7          	movsbl -0x29(%ebp),%eax
  303811:	83 ec 04             	sub    $0x4,%esp
  303814:	50                   	push   %eax
  303815:	ff 75 0c             	push   0xc(%ebp)
  303818:	8d 45 94             	lea    -0x6c(%ebp),%eax
  30381b:	50                   	push   %eax
  30381c:	e8 4c f8 ff ff       	call   30306d <__buf_add>
  303821:	83 c4 10             	add    $0x10,%esp
  303824:	eb 15                	jmp    30383b <__vsnprintf+0x39f>
  303826:	0f be 45 d7          	movsbl -0x29(%ebp),%eax
  30382a:	83 ec 08             	sub    $0x8,%esp
  30382d:	50                   	push   %eax
  30382e:	68 5f 52 30 00       	push   $0x30525f
  303833:	e8 70 f8 ff ff       	call   3030a8 <panic>
  303838:	83 c4 10             	add    $0x10,%esp
  30383b:	c7 45 f0 00 00 00 00 	movl   $0x0,-0x10(%ebp)
  303842:	c7 45 ec 00 00 00 00 	movl   $0x0,-0x14(%ebp)
  303849:	eb 30                	jmp    30387b <__vsnprintf+0x3df>
  30384b:	80 7d d7 25          	cmpb   $0x25,-0x29(%ebp)
  30384f:	75 10                	jne    303861 <__vsnprintf+0x3c5>
  303851:	c7 45 f0 01 00 00 00 	movl   $0x1,-0x10(%ebp)
  303858:	c7 45 f4 04 00 00 00 	movl   $0x4,-0xc(%ebp)
  30385f:	eb 1a                	jmp    30387b <__vsnprintf+0x3df>
  303861:	0f be 45 d7          	movsbl -0x29(%ebp),%eax
  303865:	83 ec 04             	sub    $0x4,%esp
  303868:	50                   	push   %eax
  303869:	ff 75 0c             	push   0xc(%ebp)
  30386c:	8d 45 94             	lea    -0x6c(%ebp),%eax
  30386f:	50                   	push   %eax
  303870:	e8 f8 f7 ff ff       	call   30306d <__buf_add>
  303875:	83 c4 10             	add    $0x10,%esp
  303878:	eb 01                	jmp    30387b <__vsnprintf+0x3df>
  30387a:	90                   	nop
  30387b:	8b 45 10             	mov    0x10(%ebp),%eax
  30387e:	0f b6 00             	movzbl (%eax),%eax
  303881:	84 c0                	test   %al,%al
  303883:	0f 85 4e fc ff ff    	jne    3034d7 <__vsnprintf+0x3b>
  303889:	8b 4d 94             	mov    -0x6c(%ebp),%ecx
  30388c:	8b 45 9c             	mov    -0x64(%ebp),%eax
  30388f:	8d 50 01             	lea    0x1(%eax),%edx
  303892:	89 55 9c             	mov    %edx,-0x64(%ebp)
  303895:	01 c8                	add    %ecx,%eax
  303897:	c6 00 00             	movb   $0x0,(%eax)
  30389a:	8b 45 9c             	mov    -0x64(%ebp),%eax
  30389d:	c9                   	leave
  30389e:	c3                   	ret

0030389f <__uart_flush_recv>:
  30389f:	55                   	push   %ebp
  3038a0:	89 e5                	mov    %esp,%ebp
  3038a2:	83 ec 14             	sub    $0x14,%esp
  3038a5:	8b 45 08             	mov    0x8(%ebp),%eax
  3038a8:	66 89 45 ec          	mov    %ax,-0x14(%ebp)
  3038ac:	eb 0a                	jmp    3038b8 <__uart_flush_recv+0x19>
  3038ae:	0f b7 45 ec          	movzwl -0x14(%ebp),%eax
  3038b2:	89 c2                	mov    %eax,%edx
  3038b4:	ec                   	in     (%dx),%al
  3038b5:	88 45 fe             	mov    %al,-0x2(%ebp)
  3038b8:	0f b7 45 ec          	movzwl -0x14(%ebp),%eax
  3038bc:	83 c0 05             	add    $0x5,%eax
  3038bf:	89 c2                	mov    %eax,%edx
  3038c1:	ec                   	in     (%dx),%al
  3038c2:	88 45 ff             	mov    %al,-0x1(%ebp)
  3038c5:	0f b6 45 ff          	movzbl -0x1(%ebp),%eax
  3038c9:	0f b6 c0             	movzbl %al,%eax
  3038cc:	83 e0 01             	and    $0x1,%eax
  3038cf:	85 c0                	test   %eax,%eax
  3038d1:	75 db                	jne    3038ae <__uart_flush_recv+0xf>
  3038d3:	90                   	nop
  3038d4:	90                   	nop
  3038d5:	c9                   	leave
  3038d6:	c3                   	ret

003038d7 <__uart_fifo_init>:
  3038d7:	55                   	push   %ebp
  3038d8:	89 e5                	mov    %esp,%ebp
  3038da:	83 ec 14             	sub    $0x14,%esp
  3038dd:	8b 45 08             	mov    0x8(%ebp),%eax
  3038e0:	66 89 45 ec          	mov    %ax,-0x14(%ebp)
  3038e4:	0f b7 45 ec          	movzwl -0x14(%ebp),%eax
  3038e8:	8d 50 03             	lea    0x3(%eax),%edx
  3038eb:	b8 bf 00 00 00       	mov    $0xbf,%eax
  3038f0:	ee                   	out    %al,(%dx)
  3038f1:	c6 45 fe 00          	movb   $0x0,-0x2(%ebp)
  3038f5:	0f b6 45 fe          	movzbl -0x2(%ebp),%eax
  3038f9:	83 c8 10             	or     $0x10,%eax
  3038fc:	88 45 fe             	mov    %al,-0x2(%ebp)
  3038ff:	0f b6 45 fe          	movzbl -0x2(%ebp),%eax
  303903:	0f b7 55 ec          	movzwl -0x14(%ebp),%edx
  303907:	83 c2 02             	add    $0x2,%edx
  30390a:	ee                   	out    %al,(%dx)
  30390b:	0f b6 45 ff          	movzbl -0x1(%ebp),%eax
  30390f:	83 e0 fe             	and    $0xfffffffe,%eax
  303912:	88 45 ff             	mov    %al,-0x1(%ebp)
  303915:	0f b6 45 ff          	movzbl -0x1(%ebp),%eax
  303919:	83 e0 f7             	and    $0xfffffff7,%eax
  30391c:	88 45 ff             	mov    %al,-0x1(%ebp)
  30391f:	0f b6 45 ff          	movzbl -0x1(%ebp),%eax
  303923:	0f b7 55 ec          	movzwl -0x14(%ebp),%edx
  303927:	83 c2 02             	add    $0x2,%edx
  30392a:	ee                   	out    %al,(%dx)
  30392b:	0f b7 45 ec          	movzwl -0x14(%ebp),%eax
  30392f:	8d 50 03             	lea    0x3(%eax),%edx
  303932:	b8 00 00 00 00       	mov    $0x0,%eax
  303937:	ee                   	out    %al,(%dx)
  303938:	c6 45 fe 00          	movb   $0x0,-0x2(%ebp)
  30393c:	0f b6 45 fe          	movzbl -0x2(%ebp),%eax
  303940:	83 c8 40             	or     $0x40,%eax
  303943:	88 45 fe             	mov    %al,-0x2(%ebp)
  303946:	0f b6 45 fe          	movzbl -0x2(%ebp),%eax
  30394a:	83 c8 80             	or     $0xffffff80,%eax
  30394d:	88 45 fe             	mov    %al,-0x2(%ebp)
  303950:	0f b6 45 fe          	movzbl -0x2(%ebp),%eax
  303954:	0f b7 55 ec          	movzwl -0x14(%ebp),%edx
  303958:	83 c2 02             	add    $0x2,%edx
  30395b:	ee                   	out    %al,(%dx)
  30395c:	90                   	nop
  30395d:	c9                   	leave
  30395e:	c3                   	ret

0030395f <__uart_common_init>:
  30395f:	55                   	push   %ebp
  303960:	89 e5                	mov    %esp,%ebp
  303962:	83 ec 14             	sub    $0x14,%esp
  303965:	8b 45 08             	mov    0x8(%ebp),%eax
  303968:	66 89 45 ec          	mov    %ax,-0x14(%ebp)
  30396c:	0f b7 45 ec          	movzwl -0x14(%ebp),%eax
  303970:	8d 50 03             	lea    0x3(%eax),%edx
  303973:	b8 80 00 00 00       	mov    $0x80,%eax
  303978:	ee                   	out    %al,(%dx)
  303979:	b8 01 00 00 00       	mov    $0x1,%eax
  30397e:	0f b7 55 ec          	movzwl -0x14(%ebp),%edx
  303982:	ee                   	out    %al,(%dx)
  303983:	0f b7 45 ec          	movzwl -0x14(%ebp),%eax
  303987:	8d 50 01             	lea    0x1(%eax),%edx
  30398a:	b8 00 00 00 00       	mov    $0x0,%eax
  30398f:	ee                   	out    %al,(%dx)
  303990:	c6 45 fe 00          	movb   $0x0,-0x2(%ebp)
  303994:	0f b6 45 fe          	movzbl -0x2(%ebp),%eax
  303998:	83 c8 03             	or     $0x3,%eax
  30399b:	88 45 fe             	mov    %al,-0x2(%ebp)
  30399e:	0f b6 45 fe          	movzbl -0x2(%ebp),%eax
  3039a2:	0f b7 55 ec          	movzwl -0x14(%ebp),%edx
  3039a6:	83 c2 03             	add    $0x3,%edx
  3039a9:	ee                   	out    %al,(%dx)
  3039aa:	c6 45 ff 00          	movb   $0x0,-0x1(%ebp)
  3039ae:	0f b6 45 ff          	movzbl -0x1(%ebp),%eax
  3039b2:	0f b7 55 ec          	movzwl -0x14(%ebp),%edx
  3039b6:	83 c2 01             	add    $0x1,%edx
  3039b9:	ee                   	out    %al,(%dx)
  3039ba:	0f b7 45 ec          	movzwl -0x14(%ebp),%eax
  3039be:	50                   	push   %eax
  3039bf:	e8 db fe ff ff       	call   30389f <__uart_flush_recv>
  3039c4:	83 c4 04             	add    $0x4,%esp
  3039c7:	90                   	nop
  3039c8:	c9                   	leave
  3039c9:	c3                   	ret

003039ca <uart_init>:
  3039ca:	55                   	push   %ebp
  3039cb:	89 e5                	mov    %esp,%ebp
  3039cd:	68 f8 03 00 00       	push   $0x3f8
  3039d2:	e8 00 ff ff ff       	call   3038d7 <__uart_fifo_init>
  3039d7:	83 c4 04             	add    $0x4,%esp
  3039da:	68 f8 03 00 00       	push   $0x3f8
  3039df:	e8 7b ff ff ff       	call   30395f <__uart_common_init>
  3039e4:	83 c4 04             	add    $0x4,%esp
  3039e7:	90                   	nop
  3039e8:	c9                   	leave
  3039e9:	c3                   	ret

003039ea <__uart_read>:
  3039ea:	55                   	push   %ebp
  3039eb:	89 e5                	mov    %esp,%ebp
  3039ed:	83 ec 14             	sub    $0x14,%esp
  3039f0:	8b 45 08             	mov    0x8(%ebp),%eax
  3039f3:	66 89 45 ec          	mov    %ax,-0x14(%ebp)
  3039f7:	eb 2c                	jmp    303a25 <__uart_read+0x3b>
  3039f9:	0f b7 45 ec          	movzwl -0x14(%ebp),%eax
  3039fd:	89 c2                	mov    %eax,%edx
  3039ff:	ec                   	in     (%dx),%al
  303a00:	88 45 fe             	mov    %al,-0x2(%ebp)
  303a03:	0f b6 45 fe          	movzbl -0x2(%ebp),%eax
  303a07:	8b 55 0c             	mov    0xc(%ebp),%edx
  303a0a:	8b 0a                	mov    (%edx),%ecx
  303a0c:	8b 55 0c             	mov    0xc(%ebp),%edx
  303a0f:	8b 52 08             	mov    0x8(%edx),%edx
  303a12:	01 ca                	add    %ecx,%edx
  303a14:	88 02                	mov    %al,(%edx)
  303a16:	8b 45 0c             	mov    0xc(%ebp),%eax
  303a19:	8b 40 08             	mov    0x8(%eax),%eax
  303a1c:	8d 50 01             	lea    0x1(%eax),%edx
  303a1f:	8b 45 0c             	mov    0xc(%ebp),%eax
  303a22:	89 50 08             	mov    %edx,0x8(%eax)
  303a25:	0f b7 45 ec          	movzwl -0x14(%ebp),%eax
  303a29:	83 c0 05             	add    $0x5,%eax
  303a2c:	89 c2                	mov    %eax,%edx
  303a2e:	ec                   	in     (%dx),%al
  303a2f:	88 45 ff             	mov    %al,-0x1(%ebp)
  303a32:	0f b6 45 ff          	movzbl -0x1(%ebp),%eax
  303a36:	0f b6 c0             	movzbl %al,%eax
  303a39:	83 e0 01             	and    $0x1,%eax
  303a3c:	85 c0                	test   %eax,%eax
  303a3e:	74 0b                	je     303a4b <__uart_read+0x61>
  303a40:	8b 45 0c             	mov    0xc(%ebp),%eax
  303a43:	8b 40 08             	mov    0x8(%eax),%eax
  303a46:	3b 45 10             	cmp    0x10(%ebp),%eax
  303a49:	72 ae                	jb     3039f9 <__uart_read+0xf>
  303a4b:	90                   	nop
  303a4c:	c9                   	leave
  303a4d:	c3                   	ret

00303a4e <__uart_write>:
  303a4e:	55                   	push   %ebp
  303a4f:	89 e5                	mov    %esp,%ebp
  303a51:	83 ec 14             	sub    $0x14,%esp
  303a54:	8b 45 08             	mov    0x8(%ebp),%eax
  303a57:	66 89 45 ec          	mov    %ax,-0x14(%ebp)
  303a5b:	eb 3f                	jmp    303a9c <__uart_write+0x4e>
  303a5d:	0f b7 45 ec          	movzwl -0x14(%ebp),%eax
  303a61:	83 c0 05             	add    $0x5,%eax
  303a64:	89 c2                	mov    %eax,%edx
  303a66:	ec                   	in     (%dx),%al
  303a67:	88 45 ff             	mov    %al,-0x1(%ebp)
  303a6a:	0f b6 45 ff          	movzbl -0x1(%ebp),%eax
  303a6e:	0f b6 c0             	movzbl %al,%eax
  303a71:	83 e0 20             	and    $0x20,%eax
  303a74:	85 c0                	test   %eax,%eax
  303a76:	74 24                	je     303a9c <__uart_write+0x4e>
  303a78:	8b 45 0c             	mov    0xc(%ebp),%eax
  303a7b:	8b 10                	mov    (%eax),%edx
  303a7d:	8b 45 0c             	mov    0xc(%ebp),%eax
  303a80:	8b 40 08             	mov    0x8(%eax),%eax
  303a83:	01 d0                	add    %edx,%eax
  303a85:	0f b6 00             	movzbl (%eax),%eax
  303a88:	0f b7 55 ec          	movzwl -0x14(%ebp),%edx
  303a8c:	ee                   	out    %al,(%dx)
  303a8d:	8b 45 0c             	mov    0xc(%ebp),%eax
  303a90:	8b 40 08             	mov    0x8(%eax),%eax
  303a93:	8d 50 01             	lea    0x1(%eax),%edx
  303a96:	8b 45 0c             	mov    0xc(%ebp),%eax
  303a99:	89 50 08             	mov    %edx,0x8(%eax)
  303a9c:	8b 45 0c             	mov    0xc(%ebp),%eax
  303a9f:	8b 40 08             	mov    0x8(%eax),%eax
  303aa2:	3b 45 10             	cmp    0x10(%ebp),%eax
  303aa5:	72 b6                	jb     303a5d <__uart_write+0xf>
  303aa7:	90                   	nop
  303aa8:	90                   	nop
  303aa9:	c9                   	leave
  303aaa:	c3                   	ret

00303aab <uart_read>:
  303aab:	55                   	push   %ebp
  303aac:	89 e5                	mov    %esp,%ebp
  303aae:	83 ec 10             	sub    $0x10,%esp
  303ab1:	8b 45 08             	mov    0x8(%ebp),%eax
  303ab4:	89 45 f4             	mov    %eax,-0xc(%ebp)
  303ab7:	c7 45 fc 00 00 00 00 	movl   $0x0,-0x4(%ebp)
  303abe:	ff 75 0c             	push   0xc(%ebp)
  303ac1:	8d 45 f4             	lea    -0xc(%ebp),%eax
  303ac4:	50                   	push   %eax
  303ac5:	68 f8 03 00 00       	push   $0x3f8
  303aca:	e8 1b ff ff ff       	call   3039ea <__uart_read>
  303acf:	83 c4 0c             	add    $0xc,%esp
  303ad2:	8b 45 fc             	mov    -0x4(%ebp),%eax
  303ad5:	c9                   	leave
  303ad6:	c3                   	ret

00303ad7 <uart_write>:
  303ad7:	55                   	push   %ebp
  303ad8:	89 e5                	mov    %esp,%ebp
  303ada:	83 ec 10             	sub    $0x10,%esp
  303add:	8b 45 08             	mov    0x8(%ebp),%eax
  303ae0:	89 45 f4             	mov    %eax,-0xc(%ebp)
  303ae3:	c7 45 fc 00 00 00 00 	movl   $0x0,-0x4(%ebp)
  303aea:	ff 75 0c             	push   0xc(%ebp)
  303aed:	8d 45 f4             	lea    -0xc(%ebp),%eax
  303af0:	50                   	push   %eax
  303af1:	68 f8 03 00 00       	push   $0x3f8
  303af6:	e8 53 ff ff ff       	call   303a4e <__uart_write>
  303afb:	83 c4 0c             	add    $0xc,%esp
  303afe:	8b 45 fc             	mov    -0x4(%ebp),%eax
  303b01:	c9                   	leave
  303b02:	c3                   	ret

00303b03 <uart_flush>:
  303b03:	55                   	push   %ebp
  303b04:	89 e5                	mov    %esp,%ebp
  303b06:	83 ec 10             	sub    $0x10,%esp
  303b09:	c7 45 fc 10 00 00 00 	movl   $0x10,-0x4(%ebp)
  303b10:	eb 28                	jmp    303b3a <uart_flush+0x37>
  303b12:	b8 fd 03 00 00       	mov    $0x3fd,%eax
  303b17:	89 c2                	mov    %eax,%edx
  303b19:	ec                   	in     (%dx),%al
  303b1a:	88 45 fb             	mov    %al,-0x5(%ebp)
  303b1d:	0f b6 45 fb          	movzbl -0x5(%ebp),%eax
  303b21:	0f b6 c0             	movzbl %al,%eax
  303b24:	83 e0 20             	and    $0x20,%eax
  303b27:	85 c0                	test   %eax,%eax
  303b29:	74 0f                	je     303b3a <uart_flush+0x37>
  303b2b:	b8 00 00 00 00       	mov    $0x0,%eax
  303b30:	ba f8 03 00 00       	mov    $0x3f8,%edx
  303b35:	ee                   	out    %al,(%dx)
  303b36:	83 6d fc 01          	subl   $0x1,-0x4(%ebp)
  303b3a:	83 7d fc 00          	cmpl   $0x0,-0x4(%ebp)
  303b3e:	75 d2                	jne    303b12 <uart_flush+0xf>
  303b40:	90                   	nop
  303b41:	90                   	nop
  303b42:	c9                   	leave
  303b43:	c3                   	ret

00303b44 <pic_init>:
  303b44:	55                   	push   %ebp
  303b45:	89 e5                	mov    %esp,%ebp
  303b47:	83 ec 10             	sub    $0x10,%esp
  303b4a:	c6 45 ff 11          	movb   $0x11,-0x1(%ebp)
  303b4e:	0f b6 45 ff          	movzbl -0x1(%ebp),%eax
  303b52:	ba 20 00 00 00       	mov    $0x20,%edx
  303b57:	ee                   	out    %al,(%dx)
  303b58:	0f b6 45 ff          	movzbl -0x1(%ebp),%eax
  303b5c:	ba a0 00 00 00       	mov    $0xa0,%edx
  303b61:	ee                   	out    %al,(%dx)
  303b62:	c6 45 fe 20          	movb   $0x20,-0x2(%ebp)
  303b66:	0f b6 45 fe          	movzbl -0x2(%ebp),%eax
  303b6a:	ba 21 00 00 00       	mov    $0x21,%edx
  303b6f:	ee                   	out    %al,(%dx)
  303b70:	c6 45 fe 28          	movb   $0x28,-0x2(%ebp)
  303b74:	0f b6 45 fe          	movzbl -0x2(%ebp),%eax
  303b78:	ba a1 00 00 00       	mov    $0xa1,%edx
  303b7d:	ee                   	out    %al,(%dx)
  303b7e:	c6 45 fd 00          	movb   $0x0,-0x3(%ebp)
  303b82:	0f b6 45 fd          	movzbl -0x3(%ebp),%eax
  303b86:	83 c8 04             	or     $0x4,%eax
  303b89:	88 45 fd             	mov    %al,-0x3(%ebp)
  303b8c:	0f b6 45 fd          	movzbl -0x3(%ebp),%eax
  303b90:	ba 21 00 00 00       	mov    $0x21,%edx
  303b95:	ee                   	out    %al,(%dx)
  303b96:	c6 45 fd 00          	movb   $0x0,-0x3(%ebp)
  303b9a:	0f b6 45 fd          	movzbl -0x3(%ebp),%eax
  303b9e:	83 e0 f8             	and    $0xfffffff8,%eax
  303ba1:	83 c8 02             	or     $0x2,%eax
  303ba4:	88 45 fd             	mov    %al,-0x3(%ebp)
  303ba7:	0f b6 45 fd          	movzbl -0x3(%ebp),%eax
  303bab:	ba a1 00 00 00       	mov    $0xa1,%edx
  303bb0:	ee                   	out    %al,(%dx)
  303bb1:	c6 45 fc 01          	movb   $0x1,-0x4(%ebp)
  303bb5:	0f b6 45 fc          	movzbl -0x4(%ebp),%eax
  303bb9:	ba 21 00 00 00       	mov    $0x21,%edx
  303bbe:	ee                   	out    %al,(%dx)
  303bbf:	0f b6 45 fc          	movzbl -0x4(%ebp),%eax
  303bc3:	ba a1 00 00 00       	mov    $0xa1,%edx
  303bc8:	ee                   	out    %al,(%dx)
  303bc9:	90                   	nop
  303bca:	c9                   	leave
  303bcb:	c3                   	ret

00303bcc <intr_init>:
  303bcc:	55                   	push   %ebp
  303bcd:	89 e5                	mov    %esp,%ebp
  303bcf:	83 ec 20             	sub    $0x20,%esp
  303bd2:	c7 45 fc 10 20 30 00 	movl   $0x302010,-0x4(%ebp)
  303bd9:	c7 45 f8 00 00 00 00 	movl   $0x0,-0x8(%ebp)
  303be0:	e9 8d 00 00 00       	jmp    303c72 <intr_init+0xa6>
  303be5:	8b 45 fc             	mov    -0x4(%ebp),%eax
  303be8:	89 45 ee             	mov    %eax,-0x12(%ebp)
  303beb:	0f b7 4d ee          	movzwl -0x12(%ebp),%ecx
  303bef:	0f b7 c1             	movzwl %cx,%eax
  303bf2:	ba 00 00 00 00       	mov    $0x0,%edx
  303bf7:	8b 4d f8             	mov    -0x8(%ebp),%ecx
  303bfa:	89 04 cd a0 5b 30 00 	mov    %eax,0x305ba0(,%ecx,8)
  303c01:	89 14 cd a4 5b 30 00 	mov    %edx,0x305ba4(,%ecx,8)
  303c08:	8b 45 f8             	mov    -0x8(%ebp),%eax
  303c0b:	0f b7 14 c5 a2 5b 30 	movzwl 0x305ba2(,%eax,8),%edx
  303c12:	00 
  303c13:	83 e2 00             	and    $0x0,%edx
  303c16:	83 ca 08             	or     $0x8,%edx
  303c19:	66 89 14 c5 a2 5b 30 	mov    %dx,0x305ba2(,%eax,8)
  303c20:	00 
  303c21:	8b 45 f8             	mov    -0x8(%ebp),%eax
  303c24:	0f b6 14 c5 a5 5b 30 	movzbl 0x305ba5(,%eax,8),%edx
  303c2b:	00 
  303c2c:	83 e2 f0             	and    $0xfffffff0,%edx
  303c2f:	83 ca 0e             	or     $0xe,%edx
  303c32:	88 14 c5 a5 5b 30 00 	mov    %dl,0x305ba5(,%eax,8)
  303c39:	0f b7 4d f0          	movzwl -0x10(%ebp),%ecx
  303c3d:	8b 45 f8             	mov    -0x8(%ebp),%eax
  303c40:	0f b7 14 c5 a6 5b 30 	movzwl 0x305ba6(,%eax,8),%edx
  303c47:	00 
  303c48:	83 e2 00             	and    $0x0,%edx
  303c4b:	09 ca                	or     %ecx,%edx
  303c4d:	66 89 14 c5 a6 5b 30 	mov    %dx,0x305ba6(,%eax,8)
  303c54:	00 
  303c55:	8b 45 f8             	mov    -0x8(%ebp),%eax
  303c58:	0f b6 14 c5 a5 5b 30 	movzbl 0x305ba5(,%eax,8),%edx
  303c5f:	00 
  303c60:	83 ca 80             	or     $0xffffff80,%edx
  303c63:	88 14 c5 a5 5b 30 00 	mov    %dl,0x305ba5(,%eax,8)
  303c6a:	83 45 f8 01          	addl   $0x1,-0x8(%ebp)
  303c6e:	83 45 fc 10          	addl   $0x10,-0x4(%ebp)
  303c72:	81 7d f8 ff 00 00 00 	cmpl   $0xff,-0x8(%ebp)
  303c79:	0f 86 66 ff ff ff    	jbe    303be5 <intr_init+0x19>
  303c7f:	c7 45 f4 a0 5b 30 00 	movl   $0x305ba0,-0xc(%ebp)
  303c86:	66 c7 45 f2 ff 07    	movw   $0x7ff,-0xe(%ebp)
  303c8c:	0f 01 5d f2          	lidtl  -0xe(%ebp)
  303c90:	90                   	nop
  303c91:	c9                   	leave
  303c92:	c3                   	ret

00303c93 <intr_hdlr>:
  303c93:	55                   	push   %ebp
  303c94:	89 e5                	mov    %esp,%ebp
  303c96:	57                   	push   %edi
  303c97:	56                   	push   %esi
  303c98:	53                   	push   %ebx
  303c99:	83 ec 4c             	sub    $0x4c,%esp
  303c9c:	89 45 d4             	mov    %eax,-0x2c(%ebp)
  303c9f:	8b 45 d4             	mov    -0x2c(%ebp),%eax
  303ca2:	8b 38                	mov    (%eax),%edi
  303ca4:	8b 45 d4             	mov    -0x2c(%ebp),%eax
  303ca7:	8b 40 04             	mov    0x4(%eax),%eax
  303caa:	89 45 d0             	mov    %eax,-0x30(%ebp)
  303cad:	8b 45 d4             	mov    -0x2c(%ebp),%eax
  303cb0:	8b 50 08             	mov    0x8(%eax),%edx
  303cb3:	89 55 cc             	mov    %edx,-0x34(%ebp)
  303cb6:	8b 45 d4             	mov    -0x2c(%ebp),%eax
  303cb9:	8b 48 0c             	mov    0xc(%eax),%ecx
  303cbc:	89 4d c8             	mov    %ecx,-0x38(%ebp)
  303cbf:	8b 45 d4             	mov    -0x2c(%ebp),%eax
  303cc2:	8b 58 10             	mov    0x10(%eax),%ebx
  303cc5:	89 5d c4             	mov    %ebx,-0x3c(%ebp)
  303cc8:	8b 45 d4             	mov    -0x2c(%ebp),%eax
  303ccb:	8b 70 14             	mov    0x14(%eax),%esi
  303cce:	89 75 c0             	mov    %esi,-0x40(%ebp)
  303cd1:	8b 45 d4             	mov    -0x2c(%ebp),%eax
  303cd4:	8b 40 18             	mov    0x18(%eax),%eax
  303cd7:	89 45 bc             	mov    %eax,-0x44(%ebp)
  303cda:	8b 45 d4             	mov    -0x2c(%ebp),%eax
  303cdd:	8b 50 1c             	mov    0x1c(%eax),%edx
  303ce0:	89 55 b8             	mov    %edx,-0x48(%ebp)
  303ce3:	8b 45 d4             	mov    -0x2c(%ebp),%eax
  303ce6:	8b 48 30             	mov    0x30(%eax),%ecx
  303ce9:	89 4d b4             	mov    %ecx,-0x4c(%ebp)
  303cec:	8b 45 d4             	mov    -0x2c(%ebp),%eax
  303cef:	8b 58 34             	mov    0x34(%eax),%ebx
  303cf2:	89 5d b0             	mov    %ebx,-0x50(%ebp)
  303cf5:	8b 45 d4             	mov    -0x2c(%ebp),%eax
  303cf8:	8b 70 38             	mov    0x38(%eax),%esi
  303cfb:	8b 45 d4             	mov    -0x2c(%ebp),%eax
  303cfe:	8b 58 28             	mov    0x28(%eax),%ebx
  303d01:	8b 45 d4             	mov    -0x2c(%ebp),%eax
  303d04:	8b 48 2c             	mov    0x2c(%eax),%ecx
  303d07:	8b 45 d4             	mov    -0x2c(%ebp),%eax
  303d0a:	8b 50 24             	mov    0x24(%eax),%edx
  303d0d:	8b 45 d4             	mov    -0x2c(%ebp),%eax
  303d10:	8b 40 20             	mov    0x20(%eax),%eax
  303d13:	57                   	push   %edi
  303d14:	ff 75 d0             	push   -0x30(%ebp)
  303d17:	ff 75 cc             	push   -0x34(%ebp)
  303d1a:	ff 75 c8             	push   -0x38(%ebp)
  303d1d:	ff 75 c4             	push   -0x3c(%ebp)
  303d20:	ff 75 c0             	push   -0x40(%ebp)
  303d23:	ff 75 bc             	push   -0x44(%ebp)
  303d26:	ff 75 b8             	push   -0x48(%ebp)
  303d29:	ff 75 b4             	push   -0x4c(%ebp)
  303d2c:	ff 75 b0             	push   -0x50(%ebp)
  303d2f:	56                   	push   %esi
  303d30:	53                   	push   %ebx
  303d31:	51                   	push   %ecx
  303d32:	52                   	push   %edx
  303d33:	50                   	push   %eax
  303d34:	68 7c 52 30 00       	push   $0x30527c
  303d39:	e8 92 f3 ff ff       	call   3030d0 <printf>
  303d3e:	83 c4 40             	add    $0x40,%esp
  303d41:	8b 45 d4             	mov    -0x2c(%ebp),%eax
  303d44:	0f b6 40 20          	movzbl 0x20(%eax),%eax
  303d48:	88 45 e7             	mov    %al,-0x19(%ebp)
  303d4b:	80 7d e7 1f          	cmpb   $0x1f,-0x19(%ebp)
  303d4f:	77 0a                	ja     303d5b <intr_hdlr+0xc8>
  303d51:	8b 45 d4             	mov    -0x2c(%ebp),%eax
  303d54:	e8 3a 00 00 00       	call   303d93 <excp_hdlr>
  303d59:	eb 15                	jmp    303d70 <intr_hdlr+0xdd>
  303d5b:	0f b6 45 e7          	movzbl -0x19(%ebp),%eax
  303d5f:	83 ec 08             	sub    $0x8,%esp
  303d62:	50                   	push   %eax
  303d63:	68 5b 53 30 00       	push   $0x30535b
  303d68:	e8 63 f3 ff ff       	call   3030d0 <printf>
  303d6d:	83 c4 10             	add    $0x10,%esp
  303d70:	90                   	nop
  303d71:	8d 65 f4             	lea    -0xc(%ebp),%esp
  303d74:	5b                   	pop    %ebx
  303d75:	5e                   	pop    %esi
  303d76:	5f                   	pop    %edi
  303d77:	5d                   	pop    %ebp
  303d78:	c3                   	ret

00303d79 <ack_pic2>:
  303d79:	50                   	push   %eax
  303d7a:	b0 20                	mov    $0x20,%al
  303d7c:	e6 a0                	out    %al,$0xa0
  303d7e:	eb 03                	jmp    303d83 <eoi_pic1>

00303d80 <ack_pic1>:
  303d80:	50                   	push   %eax
  303d81:	b0 20                	mov    $0x20,%al

00303d83 <eoi_pic1>:
  303d83:	e6 20                	out    %al,$0x20
  303d85:	58                   	pop    %eax

00303d86 <idt_common>:
  303d86:	60                   	pusha
  303d87:	89 e0                	mov    %esp,%eax
  303d89:	e8 05 ff ff ff       	call   303c93 <intr_hdlr>

00303d8e <resume_from_intr>:
  303d8e:	61                   	popa
  303d8f:	83 c4 08             	add    $0x8,%esp
  303d92:	cf                   	iret

00303d93 <excp_hdlr>:
  303d93:	55                   	push   %ebp
  303d94:	89 e5                	mov    %esp,%ebp
  303d96:	56                   	push   %esi
  303d97:	53                   	push   %ebx
  303d98:	83 ec 20             	sub    $0x20,%esp
  303d9b:	89 45 e4             	mov    %eax,-0x1c(%ebp)
  303d9e:	8b 45 e4             	mov    -0x1c(%ebp),%eax
  303da1:	0f b6 40 20          	movzbl 0x20(%eax),%eax
  303da5:	0f b6 c0             	movzbl %al,%eax
  303da8:	8b 04 85 00 57 30 00 	mov    0x305700(,%eax,4),%eax
  303daf:	83 ec 08             	sub    $0x8,%esp
  303db2:	50                   	push   %eax
  303db3:	68 a5 54 30 00       	push   $0x3054a5
  303db8:	e8 13 f3 ff ff       	call   3030d0 <printf>
  303dbd:	83 c4 10             	add    $0x10,%esp
  303dc0:	8b 45 e4             	mov    -0x1c(%ebp),%eax
  303dc3:	0f b6 40 20          	movzbl 0x20(%eax),%eax
  303dc7:	0f b6 c0             	movzbl %al,%eax
  303dca:	83 f8 0e             	cmp    $0xe,%eax
  303dcd:	74 2d                	je     303dfc <excp_hdlr+0x69>
  303dcf:	83 f8 0e             	cmp    $0xe,%eax
  303dd2:	0f 8f da 00 00 00    	jg     303eb2 <excp_hdlr+0x11f>
  303dd8:	83 f8 02             	cmp    $0x2,%eax
  303ddb:	74 0a                	je     303de7 <excp_hdlr+0x54>
  303ddd:	83 f8 0d             	cmp    $0xd,%eax
  303de0:	74 76                	je     303e58 <excp_hdlr+0xc5>
  303de2:	e9 cb 00 00 00       	jmp    303eb2 <excp_hdlr+0x11f>
  303de7:	83 ec 0c             	sub    $0xc,%esp
  303dea:	68 b5 54 30 00       	push   $0x3054b5
  303def:	e8 dc f2 ff ff       	call   3030d0 <printf>
  303df4:	83 c4 10             	add    $0x10,%esp
  303df7:	e9 26 01 00 00       	jmp    303f22 <excp_hdlr+0x18f>
  303dfc:	0f 20 d0             	mov    %cr2,%eax
  303dff:	89 45 f4             	mov    %eax,-0xc(%ebp)
  303e02:	8b 75 f4             	mov    -0xc(%ebp),%esi
  303e05:	8b 45 e4             	mov    -0x1c(%ebp),%eax
  303e08:	0f b6 40 24          	movzbl 0x24(%eax),%eax
  303e0c:	c0 e8 04             	shr    $0x4,%al
  303e0f:	83 e0 01             	and    $0x1,%eax
  303e12:	0f b6 d8             	movzbl %al,%ebx
  303e15:	8b 45 e4             	mov    -0x1c(%ebp),%eax
  303e18:	0f b6 40 24          	movzbl 0x24(%eax),%eax
  303e1c:	c0 e8 02             	shr    $0x2,%al
  303e1f:	83 e0 01             	and    $0x1,%eax
  303e22:	0f b6 c8             	movzbl %al,%ecx
  303e25:	8b 45 e4             	mov    -0x1c(%ebp),%eax
  303e28:	0f b6 40 24          	movzbl 0x24(%eax),%eax
  303e2c:	d0 e8                	shr    $1,%al
  303e2e:	83 e0 01             	and    $0x1,%eax
  303e31:	0f b6 d0             	movzbl %al,%edx
  303e34:	8b 45 e4             	mov    -0x1c(%ebp),%eax
  303e37:	0f b6 40 24          	movzbl 0x24(%eax),%eax
  303e3b:	83 e0 01             	and    $0x1,%eax
  303e3e:	0f b6 c0             	movzbl %al,%eax
  303e41:	83 ec 08             	sub    $0x8,%esp
  303e44:	56                   	push   %esi
  303e45:	53                   	push   %ebx
  303e46:	51                   	push   %ecx
  303e47:	52                   	push   %edx
  303e48:	50                   	push   %eax
  303e49:	68 c8 54 30 00       	push   $0x3054c8
  303e4e:	e8 7d f2 ff ff       	call   3030d0 <printf>
  303e53:	83 c4 20             	add    $0x20,%esp
  303e56:	eb 5a                	jmp    303eb2 <excp_hdlr+0x11f>
  303e58:	8b 45 e4             	mov    -0x1c(%ebp),%eax
  303e5b:	0f b6 50 24          	movzbl 0x24(%eax),%edx
  303e5f:	c0 ea 03             	shr    $0x3,%dl
  303e62:	0f b6 d2             	movzbl %dl,%edx
  303e65:	0f b6 40 25          	movzbl 0x25(%eax),%eax
  303e69:	c1 e0 05             	shl    $0x5,%eax
  303e6c:	09 d0                	or     %edx,%eax
  303e6e:	0f b7 d8             	movzwl %ax,%ebx
  303e71:	8b 45 e4             	mov    -0x1c(%ebp),%eax
  303e74:	0f b6 40 24          	movzbl 0x24(%eax),%eax
  303e78:	c0 e8 02             	shr    $0x2,%al
  303e7b:	83 e0 01             	and    $0x1,%eax
  303e7e:	0f b6 c8             	movzbl %al,%ecx
  303e81:	8b 45 e4             	mov    -0x1c(%ebp),%eax
  303e84:	0f b6 40 24          	movzbl 0x24(%eax),%eax
  303e88:	d0 e8                	shr    $1,%al
  303e8a:	83 e0 01             	and    $0x1,%eax
  303e8d:	0f b6 d0             	movzbl %al,%edx
  303e90:	8b 45 e4             	mov    -0x1c(%ebp),%eax
  303e93:	0f b6 40 24          	movzbl 0x24(%eax),%eax
  303e97:	83 e0 01             	and    $0x1,%eax
  303e9a:	0f b6 c0             	movzbl %al,%eax
  303e9d:	83 ec 0c             	sub    $0xc,%esp
  303ea0:	53                   	push   %ebx
  303ea1:	51                   	push   %ecx
  303ea2:	52                   	push   %edx
  303ea3:	50                   	push   %eax
  303ea4:	68 f8 54 30 00       	push   $0x3054f8
  303ea9:	e8 22 f2 ff ff       	call   3030d0 <printf>
  303eae:	83 c4 20             	add    $0x20,%esp
  303eb1:	90                   	nop
  303eb2:	0f 20 c0             	mov    %cr0,%eax
  303eb5:	89 45 f0             	mov    %eax,-0x10(%ebp)
  303eb8:	8b 45 f0             	mov    -0x10(%ebp),%eax
  303ebb:	83 ec 08             	sub    $0x8,%esp
  303ebe:	50                   	push   %eax
  303ebf:	68 23 55 30 00       	push   $0x305523
  303ec4:	e8 07 f2 ff ff       	call   3030d0 <printf>
  303ec9:	83 c4 10             	add    $0x10,%esp
  303ecc:	0f 20 d8             	mov    %cr3,%eax
  303ecf:	89 45 ec             	mov    %eax,-0x14(%ebp)
  303ed2:	8b 45 ec             	mov    -0x14(%ebp),%eax
  303ed5:	83 ec 08             	sub    $0x8,%esp
  303ed8:	50                   	push   %eax
  303ed9:	68 2d 55 30 00       	push   $0x30552d
  303ede:	e8 ed f1 ff ff       	call   3030d0 <printf>
  303ee3:	83 c4 10             	add    $0x10,%esp
  303ee6:	0f 20 e0             	mov    %cr4,%eax
  303ee9:	89 45 e8             	mov    %eax,-0x18(%ebp)
  303eec:	8b 45 e8             	mov    -0x18(%ebp),%eax
  303eef:	83 ec 08             	sub    $0x8,%esp
  303ef2:	50                   	push   %eax
  303ef3:	68 37 55 30 00       	push   $0x305537
  303ef8:	e8 d3 f1 ff ff       	call   3030d0 <printf>
  303efd:	83 c4 10             	add    $0x10,%esp
  303f00:	8b 45 e4             	mov    -0x1c(%ebp),%eax
  303f03:	8b 40 08             	mov    0x8(%eax),%eax
  303f06:	83 ec 0c             	sub    $0xc,%esp
  303f09:	50                   	push   %eax
  303f0a:	e8 1a 00 00 00       	call   303f29 <stack_trace>
  303f0f:	83 c4 10             	add    $0x10,%esp
  303f12:	83 ec 0c             	sub    $0xc,%esp
  303f15:	68 41 55 30 00       	push   $0x305541
  303f1a:	e8 89 f1 ff ff       	call   3030a8 <panic>
  303f1f:	83 c4 10             	add    $0x10,%esp
  303f22:	8d 65 f8             	lea    -0x8(%ebp),%esp
  303f25:	5b                   	pop    %ebx
  303f26:	5e                   	pop    %esi
  303f27:	5d                   	pop    %ebp
  303f28:	c3                   	ret

00303f29 <stack_trace>:
  303f29:	55                   	push   %ebp
  303f2a:	89 e5                	mov    %esp,%ebp
  303f2c:	83 ec 18             	sub    $0x18,%esp
  303f2f:	83 ec 0c             	sub    $0xc,%esp
  303f32:	68 54 55 30 00       	push   $0x305554
  303f37:	e8 94 f1 ff ff       	call   3030d0 <printf>
  303f3c:	83 c4 10             	add    $0x10,%esp
  303f3f:	8b 45 08             	mov    0x8(%ebp),%eax
  303f42:	89 45 f4             	mov    %eax,-0xc(%ebp)
  303f45:	eb 26                	jmp    303f6d <stack_trace+0x44>
  303f47:	8b 45 f4             	mov    -0xc(%ebp),%eax
  303f4a:	83 c0 04             	add    $0x4,%eax
  303f4d:	8b 00                	mov    (%eax),%eax
  303f4f:	89 45 f0             	mov    %eax,-0x10(%ebp)
  303f52:	8b 45 f4             	mov    -0xc(%ebp),%eax
  303f55:	8b 00                	mov    (%eax),%eax
  303f57:	89 45 f4             	mov    %eax,-0xc(%ebp)
  303f5a:	83 ec 08             	sub    $0x8,%esp
  303f5d:	ff 75 f0             	push   -0x10(%ebp)
  303f60:	68 68 55 30 00       	push   $0x305568
  303f65:	e8 66 f1 ff ff       	call   3030d0 <printf>
  303f6a:	83 c4 10             	add    $0x10,%esp
  303f6d:	83 7d f4 00          	cmpl   $0x0,-0xc(%ebp)
  303f71:	74 09                	je     303f7c <stack_trace+0x53>
  303f73:	81 7d f4 10 20 30 00 	cmpl   $0x302010,-0xc(%ebp)
  303f7a:	72 cb                	jb     303f47 <stack_trace+0x1e>
  303f7c:	90                   	nop
  303f7d:	c9                   	leave
  303f7e:	c3                   	ret

00303f7f <memset>:
  303f7f:	55                   	push   %ebp
  303f80:	89 e5                	mov    %esp,%ebp
  303f82:	57                   	push   %edi
  303f83:	83 ec 24             	sub    $0x24,%esp
  303f86:	8b 45 0c             	mov    0xc(%ebp),%eax
  303f89:	88 45 d8             	mov    %al,-0x28(%ebp)
  303f8c:	8b 45 08             	mov    0x8(%ebp),%eax
  303f8f:	89 45 e8             	mov    %eax,-0x18(%ebp)
  303f92:	83 7d 10 00          	cmpl   $0x0,0x10(%ebp)
  303f96:	75 05                	jne    303f9d <memset+0x1e>
  303f98:	8b 45 08             	mov    0x8(%ebp),%eax
  303f9b:	eb 7f                	jmp    30401c <memset+0x9d>
  303f9d:	8b 45 10             	mov    0x10(%ebp),%eax
  303fa0:	ba 00 00 00 00       	mov    $0x0,%edx
  303fa5:	b9 04 00 00 00       	mov    $0x4,%ecx
  303faa:	f7 f1                	div    %ecx
  303fac:	89 45 f8             	mov    %eax,-0x8(%ebp)
  303faf:	89 55 f4             	mov    %edx,-0xc(%ebp)
  303fb2:	83 7d f8 00          	cmpl   $0x0,-0x8(%ebp)
  303fb6:	74 44                	je     303ffc <memset+0x7d>
  303fb8:	0f b6 55 d8          	movzbl -0x28(%ebp),%edx
  303fbc:	89 d0                	mov    %edx,%eax
  303fbe:	c1 e0 08             	shl    $0x8,%eax
  303fc1:	01 d0                	add    %edx,%eax
  303fc3:	c1 e0 10             	shl    $0x10,%eax
  303fc6:	89 c1                	mov    %eax,%ecx
  303fc8:	0f b6 55 d8          	movzbl -0x28(%ebp),%edx
  303fcc:	89 d0                	mov    %edx,%eax
  303fce:	c1 e0 08             	shl    $0x8,%eax
  303fd1:	01 d0                	add    %edx,%eax
  303fd3:	09 c8                	or     %ecx,%eax
  303fd5:	89 45 f0             	mov    %eax,-0x10(%ebp)
  303fd8:	9c                   	pushf
  303fd9:	8f 45 e4             	pop    -0x1c(%ebp)
  303fdc:	fc                   	cld
  303fdd:	8b 55 e8             	mov    -0x18(%ebp),%edx
  303fe0:	8b 45 f0             	mov    -0x10(%ebp),%eax
  303fe3:	8b 4d f8             	mov    -0x8(%ebp),%ecx
  303fe6:	89 d7                	mov    %edx,%edi
  303fe8:	f3 ab                	rep stos %eax,%es:(%edi)
  303fea:	ff 75 e4             	push   -0x1c(%ebp)
  303fed:	9d                   	popf
  303fee:	8b 45 e8             	mov    -0x18(%ebp),%eax
  303ff1:	8b 55 f8             	mov    -0x8(%ebp),%edx
  303ff4:	c1 e2 02             	shl    $0x2,%edx
  303ff7:	01 d0                	add    %edx,%eax
  303ff9:	89 45 e8             	mov    %eax,-0x18(%ebp)
  303ffc:	83 7d f4 00          	cmpl   $0x0,-0xc(%ebp)
  304000:	74 17                	je     304019 <memset+0x9a>
  304002:	9c                   	pushf
  304003:	8f 45 e0             	pop    -0x20(%ebp)
  304006:	fc                   	cld
  304007:	8b 55 e8             	mov    -0x18(%ebp),%edx
  30400a:	0f b6 45 d8          	movzbl -0x28(%ebp),%eax
  30400e:	8b 4d f4             	mov    -0xc(%ebp),%ecx
  304011:	89 d7                	mov    %edx,%edi
  304013:	f3 aa                	rep stos %al,%es:(%edi)
  304015:	ff 75 e0             	push   -0x20(%ebp)
  304018:	9d                   	popf
  304019:	8b 45 08             	mov    0x8(%ebp),%eax
  30401c:	8b 7d fc             	mov    -0x4(%ebp),%edi
  30401f:	c9                   	leave
  304020:	c3                   	ret

00304021 <ring_0_to_ring_3_task>:
  304021:	55                   	push   %ebp
  304022:	89 e5                	mov    %esp,%ebp
  304024:	b8 23 00 00 00       	mov    $0x23,%eax
  304029:	8e d8                	mov    %eax,%ds
  30402b:	b8 23 00 00 00       	mov    $0x23,%eax
  304030:	8e c0                	mov    %eax,%es
  304032:	b8 23 00 00 00       	mov    $0x23,%eax
  304037:	8e e0                	mov    %eax,%fs
  304039:	b8 23 00 00 00       	mov    $0x23,%eax
  30403e:	8e e8                	mov    %eax,%gs
  304040:	8b 45 08             	mov    0x8(%ebp),%eax
  304043:	a3 e4 63 30 00       	mov    %eax,0x3063e4
  304048:	8b 45 0c             	mov    0xc(%ebp),%eax
  30404b:	0f 22 d8             	mov    %eax,%cr3
  30404e:	8b 45 10             	mov    0x10(%ebp),%eax
  304051:	6a 23                	push   $0x23
  304053:	ff 75 08             	push   0x8(%ebp)
  304056:	9c                   	pushf
  304057:	6a 1b                	push   $0x1b
  304059:	50                   	push   %eax
  30405a:	cf                   	iret
  30405b:	90                   	nop
  30405c:	5d                   	pop    %ebp
  30405d:	c3                   	ret

0030405e <clock_interrupt_isr>:
  30405e:	55                   	push   %ebp
  30405f:	89 e5                	mov    %esp,%ebp
  304061:	c9                   	leave
  304062:	60                   	pusha
  304063:	89 e0                	mov    %esp,%eax
  304065:	e8 05 00 00 00       	call   30406f <clock_interrupt_handler>
  30406a:	61                   	popa
  30406b:	cf                   	iret
  30406c:	90                   	nop
  30406d:	5d                   	pop    %ebp
  30406e:	c3                   	ret

0030406f <clock_interrupt_handler>:
  30406f:	55                   	push   %ebp
  304070:	89 e5                	mov    %esp,%ebp
  304072:	57                   	push   %edi
  304073:	56                   	push   %esi
  304074:	53                   	push   %ebx
  304075:	83 ec 4c             	sub    $0x4c,%esp
  304078:	89 45 d4             	mov    %eax,-0x2c(%ebp)
  30407b:	8b 45 d4             	mov    -0x2c(%ebp),%eax
  30407e:	8b 38                	mov    (%eax),%edi
  304080:	8b 45 d4             	mov    -0x2c(%ebp),%eax
  304083:	8b 40 04             	mov    0x4(%eax),%eax
  304086:	89 45 d0             	mov    %eax,-0x30(%ebp)
  304089:	8b 45 d4             	mov    -0x2c(%ebp),%eax
  30408c:	8b 48 08             	mov    0x8(%eax),%ecx
  30408f:	89 4d cc             	mov    %ecx,-0x34(%ebp)
  304092:	8b 45 d4             	mov    -0x2c(%ebp),%eax
  304095:	8b 58 0c             	mov    0xc(%eax),%ebx
  304098:	89 5d c8             	mov    %ebx,-0x38(%ebp)
  30409b:	8b 45 d4             	mov    -0x2c(%ebp),%eax
  30409e:	8b 70 10             	mov    0x10(%eax),%esi
  3040a1:	89 75 c4             	mov    %esi,-0x3c(%ebp)
  3040a4:	8b 45 d4             	mov    -0x2c(%ebp),%eax
  3040a7:	8b 50 14             	mov    0x14(%eax),%edx
  3040aa:	89 55 c0             	mov    %edx,-0x40(%ebp)
  3040ad:	8b 45 d4             	mov    -0x2c(%ebp),%eax
  3040b0:	8b 40 18             	mov    0x18(%eax),%eax
  3040b3:	89 45 bc             	mov    %eax,-0x44(%ebp)
  3040b6:	8b 45 d4             	mov    -0x2c(%ebp),%eax
  3040b9:	8b 48 1c             	mov    0x1c(%eax),%ecx
  3040bc:	89 4d b8             	mov    %ecx,-0x48(%ebp)
  3040bf:	8b 45 d4             	mov    -0x2c(%ebp),%eax
  3040c2:	8b 58 30             	mov    0x30(%eax),%ebx
  3040c5:	89 5d b4             	mov    %ebx,-0x4c(%ebp)
  3040c8:	8b 45 d4             	mov    -0x2c(%ebp),%eax
  3040cb:	8b 70 34             	mov    0x34(%eax),%esi
  3040ce:	89 75 b0             	mov    %esi,-0x50(%ebp)
  3040d1:	8b 45 d4             	mov    -0x2c(%ebp),%eax
  3040d4:	8b 70 38             	mov    0x38(%eax),%esi
  3040d7:	8b 45 d4             	mov    -0x2c(%ebp),%eax
  3040da:	8b 58 28             	mov    0x28(%eax),%ebx
  3040dd:	8b 45 d4             	mov    -0x2c(%ebp),%eax
  3040e0:	8b 48 2c             	mov    0x2c(%eax),%ecx
  3040e3:	8b 45 d4             	mov    -0x2c(%ebp),%eax
  3040e6:	8b 50 24             	mov    0x24(%eax),%edx
  3040e9:	8b 45 d4             	mov    -0x2c(%ebp),%eax
  3040ec:	8b 40 20             	mov    0x20(%eax),%eax
  3040ef:	57                   	push   %edi
  3040f0:	ff 75 d0             	push   -0x30(%ebp)
  3040f3:	ff 75 cc             	push   -0x34(%ebp)
  3040f6:	ff 75 c8             	push   -0x38(%ebp)
  3040f9:	ff 75 c4             	push   -0x3c(%ebp)
  3040fc:	ff 75 c0             	push   -0x40(%ebp)
  3040ff:	ff 75 bc             	push   -0x44(%ebp)
  304102:	ff 75 b8             	push   -0x48(%ebp)
  304105:	ff 75 b4             	push   -0x4c(%ebp)
  304108:	ff 75 b0             	push   -0x50(%ebp)
  30410b:	56                   	push   %esi
  30410c:	53                   	push   %ebx
  30410d:	51                   	push   %ecx
  30410e:	52                   	push   %edx
  30410f:	50                   	push   %eax
  304110:	68 6c 55 30 00       	push   $0x30556c
  304115:	e8 b6 ef ff ff       	call   3030d0 <printf>
  30411a:	83 c4 40             	add    $0x40,%esp
  30411d:	a1 6c 84 30 00       	mov    0x30846c,%eax
  304122:	83 c0 01             	add    $0x1,%eax
  304125:	89 45 e4             	mov    %eax,-0x1c(%ebp)
  304128:	89 6d e0             	mov    %ebp,-0x20(%ebp)
  30412b:	8b 45 e0             	mov    -0x20(%ebp),%eax
  30412e:	83 ec 08             	sub    $0x8,%esp
  304131:	50                   	push   %eax
  304132:	68 4b 56 30 00       	push   $0x30564b
  304137:	e8 94 ef ff ff       	call   3030d0 <printf>
  30413c:	83 c4 10             	add    $0x10,%esp
  30413f:	89 6d dc             	mov    %ebp,-0x24(%ebp)
  304142:	8b 45 dc             	mov    -0x24(%ebp),%eax
  304145:	8b 15 6c 84 30 00    	mov    0x30846c,%edx
  30414b:	6b d2 4c             	imul   $0x4c,%edx,%edx
  30414e:	81 c2 84 84 30 00    	add    $0x308484,%edx
  304154:	89 02                	mov    %eax,(%edx)
  304156:	a1 6c 84 30 00       	mov    0x30846c,%eax
  30415b:	6b c0 4c             	imul   $0x4c,%eax,%eax
  30415e:	05 c8 84 30 00       	add    $0x3084c8,%eax
  304163:	c6 00 01             	movb   $0x1,(%eax)
  304166:	b8 23 00 00 00       	mov    $0x23,%eax
  30416b:	8e d8                	mov    %eax,%ds
  30416d:	b8 23 00 00 00       	mov    $0x23,%eax
  304172:	8e c0                	mov    %eax,%es
  304174:	b8 23 00 00 00       	mov    $0x23,%eax
  304179:	8e e0                	mov    %eax,%fs
  30417b:	b8 23 00 00 00       	mov    $0x23,%eax
  304180:	8e e8                	mov    %eax,%gs
  304182:	8b 45 e4             	mov    -0x1c(%ebp),%eax
  304185:	a3 6c 84 30 00       	mov    %eax,0x30846c
  30418a:	8b 45 e4             	mov    -0x1c(%ebp),%eax
  30418d:	6b c0 4c             	imul   $0x4c,%eax,%eax
  304190:	05 84 84 30 00       	add    $0x308484,%eax
  304195:	8b 00                	mov    (%eax),%eax
  304197:	a3 e4 63 30 00       	mov    %eax,0x3063e4
  30419c:	8b 45 e4             	mov    -0x1c(%ebp),%eax
  30419f:	6b c0 4c             	imul   $0x4c,%eax,%eax
  3041a2:	05 88 84 30 00       	add    $0x308488,%eax
  3041a7:	8b 00                	mov    (%eax),%eax
  3041a9:	0f 22 d8             	mov    %eax,%cr3
  3041ac:	8b 45 e4             	mov    -0x1c(%ebp),%eax
  3041af:	6b c0 4c             	imul   $0x4c,%eax,%eax
  3041b2:	05 c8 84 30 00       	add    $0x3084c8,%eax
  3041b7:	0f b6 00             	movzbl (%eax),%eax
  3041ba:	3c 01                	cmp    $0x1,%al
  3041bc:	75 0f                	jne    3041cd <clock_interrupt_handler+0x15e>
  3041be:	8b 45 e4             	mov    -0x1c(%ebp),%eax
  3041c1:	6b c0 4c             	imul   $0x4c,%eax,%eax
  3041c4:	05 84 84 30 00       	add    $0x308484,%eax
  3041c9:	8b 28                	mov    (%eax),%ebp
  3041cb:	eb 3d                	jmp    30420a <clock_interrupt_handler+0x19b>
  3041cd:	8b 45 e4             	mov    -0x1c(%ebp),%eax
  3041d0:	6b c0 4c             	imul   $0x4c,%eax,%eax
  3041d3:	05 80 84 30 00       	add    $0x308480,%eax
  3041d8:	8b 00                	mov    (%eax),%eax
  3041da:	8b 55 e4             	mov    -0x1c(%ebp),%edx
  3041dd:	6b d2 4c             	imul   $0x4c,%edx,%edx
  3041e0:	81 c2 84 84 30 00    	add    $0x308484,%edx
  3041e6:	6a 10                	push   $0x10
  3041e8:	ff 32                	push   (%edx)
  3041ea:	9c                   	pushf
  3041eb:	6a 08                	push   $0x8
  3041ed:	50                   	push   %eax
  3041ee:	b8 20 00 00 00       	mov    $0x20,%eax
  3041f3:	ba 20 00 00 00       	mov    $0x20,%edx
  3041f8:	ee                   	out    %al,(%dx)
  3041f9:	83 ec 0c             	sub    $0xc,%esp
  3041fc:	68 56 56 30 00       	push   $0x305656
  304201:	e8 a2 ee ff ff       	call   3030a8 <panic>
  304206:	83 c4 10             	add    $0x10,%esp
  304209:	cf                   	iret
  30420a:	b8 20 00 00 00       	mov    $0x20,%eax
  30420f:	ba 20 00 00 00       	mov    $0x20,%edx
  304214:	ee                   	out    %al,(%dx)
  304215:	90                   	nop
  304216:	8d 65 f4             	lea    -0xc(%ebp),%esp
  304219:	5b                   	pop    %ebx
  30421a:	5e                   	pop    %esi
  30421b:	5f                   	pop    %edi
  30421c:	5d                   	pop    %ebp
  30421d:	c3                   	ret

0030421e <config_segmentation>:
  30421e:	55                   	push   %ebp
  30421f:	89 e5                	mov    %esp,%ebp
  304221:	83 ec 10             	sub    $0x10,%esp
  304224:	c7 05 a0 63 30 00 00 	movl   $0x0,0x3063a0
  30422b:	00 00 00 
  30422e:	c7 05 a4 63 30 00 00 	movl   $0x0,0x3063a4
  304235:	00 00 00 
  304238:	c7 05 a8 63 30 00 00 	movl   $0x0,0x3063a8
  30423f:	00 00 00 
  304242:	c7 05 ac 63 30 00 00 	movl   $0x0,0x3063ac
  304249:	00 00 00 
  30424c:	0f b7 05 a8 63 30 00 	movzwl 0x3063a8,%eax
  304253:	83 c8 ff             	or     $0xffffffff,%eax
  304256:	66 a3 a8 63 30 00    	mov    %ax,0x3063a8
  30425c:	0f b6 05 ae 63 30 00 	movzbl 0x3063ae,%eax
  304263:	83 c8 0f             	or     $0xf,%eax
  304266:	a2 ae 63 30 00       	mov    %al,0x3063ae
  30426b:	0f b6 05 ad 63 30 00 	movzbl 0x3063ad,%eax
  304272:	83 e0 f0             	and    $0xfffffff0,%eax
  304275:	83 c8 0a             	or     $0xa,%eax
  304278:	a2 ad 63 30 00       	mov    %al,0x3063ad
  30427d:	0f b6 05 ad 63 30 00 	movzbl 0x3063ad,%eax
  304284:	83 e0 9f             	and    $0xffffff9f,%eax
  304287:	a2 ad 63 30 00       	mov    %al,0x3063ad
  30428c:	0f b6 05 ae 63 30 00 	movzbl 0x3063ae,%eax
  304293:	83 c8 40             	or     $0x40,%eax
  304296:	a2 ae 63 30 00       	mov    %al,0x3063ae
  30429b:	0f b6 05 ae 63 30 00 	movzbl 0x3063ae,%eax
  3042a2:	83 c8 80             	or     $0xffffff80,%eax
  3042a5:	a2 ae 63 30 00       	mov    %al,0x3063ae
  3042aa:	0f b6 05 ad 63 30 00 	movzbl 0x3063ad,%eax
  3042b1:	83 c8 10             	or     $0x10,%eax
  3042b4:	a2 ad 63 30 00       	mov    %al,0x3063ad
  3042b9:	0f b6 05 ad 63 30 00 	movzbl 0x3063ad,%eax
  3042c0:	83 c8 80             	or     $0xffffff80,%eax
  3042c3:	a2 ad 63 30 00       	mov    %al,0x3063ad
  3042c8:	c7 05 b0 63 30 00 00 	movl   $0x0,0x3063b0
  3042cf:	00 00 00 
  3042d2:	c7 05 b4 63 30 00 00 	movl   $0x0,0x3063b4
  3042d9:	00 00 00 
  3042dc:	0f b7 05 b0 63 30 00 	movzwl 0x3063b0,%eax
  3042e3:	83 c8 ff             	or     $0xffffffff,%eax
  3042e6:	66 a3 b0 63 30 00    	mov    %ax,0x3063b0
  3042ec:	0f b6 05 b6 63 30 00 	movzbl 0x3063b6,%eax
  3042f3:	83 c8 0f             	or     $0xf,%eax
  3042f6:	a2 b6 63 30 00       	mov    %al,0x3063b6
  3042fb:	0f b6 05 b5 63 30 00 	movzbl 0x3063b5,%eax
  304302:	83 e0 f0             	and    $0xfffffff0,%eax
  304305:	83 c8 02             	or     $0x2,%eax
  304308:	a2 b5 63 30 00       	mov    %al,0x3063b5
  30430d:	0f b6 05 b5 63 30 00 	movzbl 0x3063b5,%eax
  304314:	83 e0 9f             	and    $0xffffff9f,%eax
  304317:	a2 b5 63 30 00       	mov    %al,0x3063b5
  30431c:	0f b6 05 b6 63 30 00 	movzbl 0x3063b6,%eax
  304323:	83 c8 40             	or     $0x40,%eax
  304326:	a2 b6 63 30 00       	mov    %al,0x3063b6
  30432b:	0f b6 05 b6 63 30 00 	movzbl 0x3063b6,%eax
  304332:	83 c8 80             	or     $0xffffff80,%eax
  304335:	a2 b6 63 30 00       	mov    %al,0x3063b6
  30433a:	0f b6 05 b5 63 30 00 	movzbl 0x3063b5,%eax
  304341:	83 c8 10             	or     $0x10,%eax
  304344:	a2 b5 63 30 00       	mov    %al,0x3063b5
  304349:	0f b6 05 b5 63 30 00 	movzbl 0x3063b5,%eax
  304350:	83 c8 80             	or     $0xffffff80,%eax
  304353:	a2 b5 63 30 00       	mov    %al,0x3063b5
  304358:	c7 05 b8 63 30 00 00 	movl   $0x0,0x3063b8
  30435f:	00 00 00 
  304362:	c7 05 bc 63 30 00 00 	movl   $0x0,0x3063bc
  304369:	00 00 00 
  30436c:	0f b7 05 b8 63 30 00 	movzwl 0x3063b8,%eax
  304373:	83 c8 ff             	or     $0xffffffff,%eax
  304376:	66 a3 b8 63 30 00    	mov    %ax,0x3063b8
  30437c:	0f b6 05 be 63 30 00 	movzbl 0x3063be,%eax
  304383:	83 c8 0f             	or     $0xf,%eax
  304386:	a2 be 63 30 00       	mov    %al,0x3063be
  30438b:	0f b6 05 bd 63 30 00 	movzbl 0x3063bd,%eax
  304392:	83 e0 f0             	and    $0xfffffff0,%eax
  304395:	83 c8 0a             	or     $0xa,%eax
  304398:	a2 bd 63 30 00       	mov    %al,0x3063bd
  30439d:	0f b6 05 bd 63 30 00 	movzbl 0x3063bd,%eax
  3043a4:	83 c8 60             	or     $0x60,%eax
  3043a7:	a2 bd 63 30 00       	mov    %al,0x3063bd
  3043ac:	0f b6 05 be 63 30 00 	movzbl 0x3063be,%eax
  3043b3:	83 c8 40             	or     $0x40,%eax
  3043b6:	a2 be 63 30 00       	mov    %al,0x3063be
  3043bb:	0f b6 05 be 63 30 00 	movzbl 0x3063be,%eax
  3043c2:	83 c8 80             	or     $0xffffff80,%eax
  3043c5:	a2 be 63 30 00       	mov    %al,0x3063be
  3043ca:	0f b6 05 bd 63 30 00 	movzbl 0x3063bd,%eax
  3043d1:	83 c8 10             	or     $0x10,%eax
  3043d4:	a2 bd 63 30 00       	mov    %al,0x3063bd
  3043d9:	0f b6 05 bd 63 30 00 	movzbl 0x3063bd,%eax
  3043e0:	83 c8 80             	or     $0xffffff80,%eax
  3043e3:	a2 bd 63 30 00       	mov    %al,0x3063bd
  3043e8:	c7 05 c0 63 30 00 00 	movl   $0x0,0x3063c0
  3043ef:	00 00 00 
  3043f2:	c7 05 c4 63 30 00 00 	movl   $0x0,0x3063c4
  3043f9:	00 00 00 
  3043fc:	0f b7 05 c0 63 30 00 	movzwl 0x3063c0,%eax
  304403:	83 c8 ff             	or     $0xffffffff,%eax
  304406:	66 a3 c0 63 30 00    	mov    %ax,0x3063c0
  30440c:	0f b6 05 c6 63 30 00 	movzbl 0x3063c6,%eax
  304413:	83 c8 0f             	or     $0xf,%eax
  304416:	a2 c6 63 30 00       	mov    %al,0x3063c6
  30441b:	0f b6 05 c5 63 30 00 	movzbl 0x3063c5,%eax
  304422:	83 e0 f0             	and    $0xfffffff0,%eax
  304425:	83 c8 02             	or     $0x2,%eax
  304428:	a2 c5 63 30 00       	mov    %al,0x3063c5
  30442d:	0f b6 05 c5 63 30 00 	movzbl 0x3063c5,%eax
  304434:	83 c8 60             	or     $0x60,%eax
  304437:	a2 c5 63 30 00       	mov    %al,0x3063c5
  30443c:	0f b6 05 c6 63 30 00 	movzbl 0x3063c6,%eax
  304443:	83 c8 40             	or     $0x40,%eax
  304446:	a2 c6 63 30 00       	mov    %al,0x3063c6
  30444b:	0f b6 05 c6 63 30 00 	movzbl 0x3063c6,%eax
  304452:	83 c8 80             	or     $0xffffff80,%eax
  304455:	a2 c6 63 30 00       	mov    %al,0x3063c6
  30445a:	0f b6 05 c5 63 30 00 	movzbl 0x3063c5,%eax
  304461:	83 c8 10             	or     $0x10,%eax
  304464:	a2 c5 63 30 00       	mov    %al,0x3063c5
  304469:	0f b6 05 c5 63 30 00 	movzbl 0x3063c5,%eax
  304470:	83 c8 80             	or     $0xffffff80,%eax
  304473:	a2 c5 63 30 00       	mov    %al,0x3063c5
  304478:	c7 45 fc a0 63 30 00 	movl   $0x3063a0,-0x4(%ebp)
  30447f:	66 c7 45 fa 2f 00    	movw   $0x2f,-0x6(%ebp)
  304485:	0f 01 55 fa          	lgdtl  -0x6(%ebp)
  304489:	ea 90 44 30 00 08 00 	ljmp   $0x8,$0x304490
  304490:	b8 10 00 00 00       	mov    $0x10,%eax
  304495:	8e d0                	mov    %eax,%ss
  304497:	b8 10 00 00 00       	mov    $0x10,%eax
  30449c:	8e d8                	mov    %eax,%ds
  30449e:	b8 10 00 00 00       	mov    $0x10,%eax
  3044a3:	8e c0                	mov    %eax,%es
  3044a5:	b8 10 00 00 00       	mov    $0x10,%eax
  3044aa:	8e e0                	mov    %eax,%fs
  3044ac:	b8 10 00 00 00       	mov    $0x10,%eax
  3044b1:	8e e8                	mov    %eax,%gs
  3044b3:	89 65 f4             	mov    %esp,-0xc(%ebp)
  3044b6:	8b 45 f4             	mov    -0xc(%ebp),%eax
  3044b9:	a3 e4 63 30 00       	mov    %eax,0x3063e4
  3044be:	66 c7 05 e8 63 30 00 	movw   $0x10,0x3063e8
  3044c5:	10 00 
  3044c7:	b8 e0 63 30 00       	mov    $0x3063e0,%eax
  3044cc:	89 45 f0             	mov    %eax,-0x10(%ebp)
  3044cf:	c7 05 c8 63 30 00 89 	movl   $0x2089,0x3063c8
  3044d6:	20 00 00 
  3044d9:	c7 05 cc 63 30 00 00 	movl   $0x0,0x3063cc
  3044e0:	00 00 00 
  3044e3:	0f b7 55 f0          	movzwl -0x10(%ebp),%edx
  3044e7:	0f b7 05 ca 63 30 00 	movzwl 0x3063ca,%eax
  3044ee:	83 e0 00             	and    $0x0,%eax
  3044f1:	09 d0                	or     %edx,%eax
  3044f3:	66 a3 ca 63 30 00    	mov    %ax,0x3063ca
  3044f9:	0f b6 45 f2          	movzbl -0xe(%ebp),%eax
  3044fd:	a2 cc 63 30 00       	mov    %al,0x3063cc
  304502:	0f b6 45 f3          	movzbl -0xd(%ebp),%eax
  304506:	a2 cf 63 30 00       	mov    %al,0x3063cf
  30450b:	0f b6 05 cd 63 30 00 	movzbl 0x3063cd,%eax
  304512:	83 e0 f0             	and    $0xfffffff0,%eax
  304515:	83 c8 09             	or     $0x9,%eax
  304518:	a2 cd 63 30 00       	mov    %al,0x3063cd
  30451d:	0f b6 05 cd 63 30 00 	movzbl 0x3063cd,%eax
  304524:	83 c8 80             	or     $0xffffff80,%eax
  304527:	a2 cd 63 30 00       	mov    %al,0x3063cd
  30452c:	b8 28 00 00 00       	mov    $0x28,%eax
  304531:	0f 00 d8             	ltr    %eax
  304534:	90                   	nop
  304535:	c9                   	leave
  304536:	c3                   	ret

00304537 <config_pgds>:
  304537:	55                   	push   %ebp
  304538:	89 e5                	mov    %esp,%ebp
  30453a:	53                   	push   %ebx
  30453b:	83 ec 14             	sub    $0x14,%esp
  30453e:	a1 50 57 30 00       	mov    0x305750,%eax
  304543:	68 00 10 00 00       	push   $0x1000
  304548:	6a 00                	push   $0x0
  30454a:	50                   	push   %eax
  30454b:	e8 2f fa ff ff       	call   303f7f <memset>
  304550:	83 c4 0c             	add    $0xc,%esp
  304553:	a1 54 57 30 00       	mov    0x305754,%eax
  304558:	68 00 10 00 00       	push   $0x1000
  30455d:	6a 00                	push   $0x0
  30455f:	50                   	push   %eax
  304560:	e8 1a fa ff ff       	call   303f7f <memset>
  304565:	83 c4 0c             	add    $0xc,%esp
  304568:	a1 58 57 30 00       	mov    0x305758,%eax
  30456d:	68 00 10 00 00       	push   $0x1000
  304572:	6a 00                	push   $0x0
  304574:	50                   	push   %eax
  304575:	e8 05 fa ff ff       	call   303f7f <memset>
  30457a:	83 c4 0c             	add    $0xc,%esp
  30457d:	a1 5c 57 30 00       	mov    0x30575c,%eax
  304582:	68 00 10 00 00       	push   $0x1000
  304587:	6a 00                	push   $0x0
  304589:	50                   	push   %eax
  30458a:	e8 f0 f9 ff ff       	call   303f7f <memset>
  30458f:	83 c4 0c             	add    $0xc,%esp
  304592:	a1 60 57 30 00       	mov    0x305760,%eax
  304597:	68 00 10 00 00       	push   $0x1000
  30459c:	6a 00                	push   $0x0
  30459e:	50                   	push   %eax
  30459f:	e8 db f9 ff ff       	call   303f7f <memset>
  3045a4:	83 c4 0c             	add    $0xc,%esp
  3045a7:	a1 64 57 30 00       	mov    0x305764,%eax
  3045ac:	68 00 10 00 00       	push   $0x1000
  3045b1:	6a 00                	push   $0x0
  3045b3:	50                   	push   %eax
  3045b4:	e8 c6 f9 ff ff       	call   303f7f <memset>
  3045b9:	83 c4 0c             	add    $0xc,%esp
  3045bc:	a1 68 57 30 00       	mov    0x305768,%eax
  3045c1:	68 00 10 00 00       	push   $0x1000
  3045c6:	6a 00                	push   $0x0
  3045c8:	50                   	push   %eax
  3045c9:	e8 b1 f9 ff ff       	call   303f7f <memset>
  3045ce:	83 c4 0c             	add    $0xc,%esp
  3045d1:	a1 6c 57 30 00       	mov    0x30576c,%eax
  3045d6:	68 00 10 00 00       	push   $0x1000
  3045db:	6a 00                	push   $0x0
  3045dd:	50                   	push   %eax
  3045de:	e8 9c f9 ff ff       	call   303f7f <memset>
  3045e3:	83 c4 0c             	add    $0xc,%esp
  3045e6:	a1 70 57 30 00       	mov    0x305770,%eax
  3045eb:	68 00 10 00 00       	push   $0x1000
  3045f0:	6a 00                	push   $0x0
  3045f2:	50                   	push   %eax
  3045f3:	e8 87 f9 ff ff       	call   303f7f <memset>
  3045f8:	83 c4 0c             	add    $0xc,%esp
  3045fb:	a1 74 57 30 00       	mov    0x305774,%eax
  304600:	68 00 10 00 00       	push   $0x1000
  304605:	6a 00                	push   $0x0
  304607:	50                   	push   %eax
  304608:	e8 72 f9 ff ff       	call   303f7f <memset>
  30460d:	83 c4 0c             	add    $0xc,%esp
  304610:	c7 45 f4 00 00 00 00 	movl   $0x0,-0xc(%ebp)
  304617:	e9 0d 02 00 00       	jmp    304829 <config_pgds+0x2f2>
  30461c:	a1 54 57 30 00       	mov    0x305754,%eax
  304621:	8b 55 f4             	mov    -0xc(%ebp),%edx
  304624:	c1 e2 02             	shl    $0x2,%edx
  304627:	01 d0                	add    %edx,%eax
  304629:	c7 00 03 00 00 00    	movl   $0x3,(%eax)
  30462f:	a1 54 57 30 00       	mov    0x305754,%eax
  304634:	8b 55 f4             	mov    -0xc(%ebp),%edx
  304637:	c1 e2 02             	shl    $0x2,%edx
  30463a:	01 d0                	add    %edx,%eax
  30463c:	8b 55 f4             	mov    -0xc(%ebp),%edx
  30463f:	81 e2 ff ff 0f 00    	and    $0xfffff,%edx
  304645:	89 d1                	mov    %edx,%ecx
  304647:	83 e1 0f             	and    $0xf,%ecx
  30464a:	89 cb                	mov    %ecx,%ebx
  30464c:	c1 e3 04             	shl    $0x4,%ebx
  30464f:	0f b6 48 01          	movzbl 0x1(%eax),%ecx
  304653:	83 e1 0f             	and    $0xf,%ecx
  304656:	09 d9                	or     %ebx,%ecx
  304658:	88 48 01             	mov    %cl,0x1(%eax)
  30465b:	89 d1                	mov    %edx,%ecx
  30465d:	c1 e9 04             	shr    $0x4,%ecx
  304660:	0f b6 d9             	movzbl %cl,%ebx
  304663:	0f b6 48 02          	movzbl 0x2(%eax),%ecx
  304667:	83 e1 00             	and    $0x0,%ecx
  30466a:	09 d9                	or     %ebx,%ecx
  30466c:	88 48 02             	mov    %cl,0x2(%eax)
  30466f:	c1 ea 0c             	shr    $0xc,%edx
  304672:	0f b6 ca             	movzbl %dl,%ecx
  304675:	0f b6 50 03          	movzbl 0x3(%eax),%edx
  304679:	83 e2 00             	and    $0x0,%edx
  30467c:	09 ca                	or     %ecx,%edx
  30467e:	88 50 03             	mov    %dl,0x3(%eax)
  304681:	a1 5c 57 30 00       	mov    0x30575c,%eax
  304686:	8b 55 f4             	mov    -0xc(%ebp),%edx
  304689:	c1 e2 02             	shl    $0x2,%edx
  30468c:	01 d0                	add    %edx,%eax
  30468e:	c7 00 03 00 00 00    	movl   $0x3,(%eax)
  304694:	a1 5c 57 30 00       	mov    0x30575c,%eax
  304699:	8b 55 f4             	mov    -0xc(%ebp),%edx
  30469c:	c1 e2 02             	shl    $0x2,%edx
  30469f:	01 d0                	add    %edx,%eax
  3046a1:	8b 55 f4             	mov    -0xc(%ebp),%edx
  3046a4:	81 e2 ff ff 0f 00    	and    $0xfffff,%edx
  3046aa:	89 d1                	mov    %edx,%ecx
  3046ac:	83 e1 0f             	and    $0xf,%ecx
  3046af:	89 cb                	mov    %ecx,%ebx
  3046b1:	c1 e3 04             	shl    $0x4,%ebx
  3046b4:	0f b6 48 01          	movzbl 0x1(%eax),%ecx
  3046b8:	83 e1 0f             	and    $0xf,%ecx
  3046bb:	09 d9                	or     %ebx,%ecx
  3046bd:	88 48 01             	mov    %cl,0x1(%eax)
  3046c0:	89 d1                	mov    %edx,%ecx
  3046c2:	c1 e9 04             	shr    $0x4,%ecx
  3046c5:	0f b6 d9             	movzbl %cl,%ebx
  3046c8:	0f b6 48 02          	movzbl 0x2(%eax),%ecx
  3046cc:	83 e1 00             	and    $0x0,%ecx
  3046cf:	09 d9                	or     %ebx,%ecx
  3046d1:	88 48 02             	mov    %cl,0x2(%eax)
  3046d4:	c1 ea 0c             	shr    $0xc,%edx
  3046d7:	0f b6 ca             	movzbl %dl,%ecx
  3046da:	0f b6 50 03          	movzbl 0x3(%eax),%edx
  3046de:	83 e2 00             	and    $0x0,%edx
  3046e1:	09 ca                	or     %ecx,%edx
  3046e3:	88 50 03             	mov    %dl,0x3(%eax)
  3046e6:	a1 6c 57 30 00       	mov    0x30576c,%eax
  3046eb:	8b 55 f4             	mov    -0xc(%ebp),%edx
  3046ee:	c1 e2 02             	shl    $0x2,%edx
  3046f1:	01 d0                	add    %edx,%eax
  3046f3:	c7 00 03 00 00 00    	movl   $0x3,(%eax)
  3046f9:	a1 6c 57 30 00       	mov    0x30576c,%eax
  3046fe:	8b 55 f4             	mov    -0xc(%ebp),%edx
  304701:	c1 e2 02             	shl    $0x2,%edx
  304704:	01 d0                	add    %edx,%eax
  304706:	8b 55 f4             	mov    -0xc(%ebp),%edx
  304709:	81 e2 ff ff 0f 00    	and    $0xfffff,%edx
  30470f:	89 d1                	mov    %edx,%ecx
  304711:	83 e1 0f             	and    $0xf,%ecx
  304714:	89 cb                	mov    %ecx,%ebx
  304716:	c1 e3 04             	shl    $0x4,%ebx
  304719:	0f b6 48 01          	movzbl 0x1(%eax),%ecx
  30471d:	83 e1 0f             	and    $0xf,%ecx
  304720:	09 d9                	or     %ebx,%ecx
  304722:	88 48 01             	mov    %cl,0x1(%eax)
  304725:	89 d1                	mov    %edx,%ecx
  304727:	c1 e9 04             	shr    $0x4,%ecx
  30472a:	0f b6 d9             	movzbl %cl,%ebx
  30472d:	0f b6 48 02          	movzbl 0x2(%eax),%ecx
  304731:	83 e1 00             	and    $0x0,%ecx
  304734:	09 d9                	or     %ebx,%ecx
  304736:	88 48 02             	mov    %cl,0x2(%eax)
  304739:	c1 ea 0c             	shr    $0xc,%edx
  30473c:	0f b6 ca             	movzbl %dl,%ecx
  30473f:	0f b6 50 03          	movzbl 0x3(%eax),%edx
  304743:	83 e2 00             	and    $0x0,%edx
  304746:	09 ca                	or     %ecx,%edx
  304748:	88 50 03             	mov    %dl,0x3(%eax)
  30474b:	a1 60 57 30 00       	mov    0x305760,%eax
  304750:	8b 55 f4             	mov    -0xc(%ebp),%edx
  304753:	c1 e2 02             	shl    $0x2,%edx
  304756:	01 d0                	add    %edx,%eax
  304758:	c7 00 07 00 00 00    	movl   $0x7,(%eax)
  30475e:	8b 45 f4             	mov    -0xc(%ebp),%eax
  304761:	8d 88 00 04 00 00    	lea    0x400(%eax),%ecx
  304767:	a1 60 57 30 00       	mov    0x305760,%eax
  30476c:	8b 55 f4             	mov    -0xc(%ebp),%edx
  30476f:	c1 e2 02             	shl    $0x2,%edx
  304772:	01 d0                	add    %edx,%eax
  304774:	89 ca                	mov    %ecx,%edx
  304776:	81 e2 ff ff 0f 00    	and    $0xfffff,%edx
  30477c:	89 d1                	mov    %edx,%ecx
  30477e:	83 e1 0f             	and    $0xf,%ecx
  304781:	89 cb                	mov    %ecx,%ebx
  304783:	c1 e3 04             	shl    $0x4,%ebx
  304786:	0f b6 48 01          	movzbl 0x1(%eax),%ecx
  30478a:	83 e1 0f             	and    $0xf,%ecx
  30478d:	09 d9                	or     %ebx,%ecx
  30478f:	88 48 01             	mov    %cl,0x1(%eax)
  304792:	89 d1                	mov    %edx,%ecx
  304794:	c1 e9 04             	shr    $0x4,%ecx
  304797:	0f b6 d9             	movzbl %cl,%ebx
  30479a:	0f b6 48 02          	movzbl 0x2(%eax),%ecx
  30479e:	83 e1 00             	and    $0x0,%ecx
  3047a1:	09 d9                	or     %ebx,%ecx
  3047a3:	88 48 02             	mov    %cl,0x2(%eax)
  3047a6:	c1 ea 0c             	shr    $0xc,%edx
  3047a9:	0f b6 ca             	movzbl %dl,%ecx
  3047ac:	0f b6 50 03          	movzbl 0x3(%eax),%edx
  3047b0:	83 e2 00             	and    $0x0,%edx
  3047b3:	09 ca                	or     %ecx,%edx
  3047b5:	88 50 03             	mov    %dl,0x3(%eax)
  3047b8:	a1 70 57 30 00       	mov    0x305770,%eax
  3047bd:	8b 55 f4             	mov    -0xc(%ebp),%edx
  3047c0:	c1 e2 02             	shl    $0x2,%edx
  3047c3:	01 d0                	add    %edx,%eax
  3047c5:	c7 00 07 00 00 00    	movl   $0x7,(%eax)
  3047cb:	8b 45 f4             	mov    -0xc(%ebp),%eax
  3047ce:	8d 88 00 08 00 00    	lea    0x800(%eax),%ecx
  3047d4:	a1 70 57 30 00       	mov    0x305770,%eax
  3047d9:	8b 55 f4             	mov    -0xc(%ebp),%edx
  3047dc:	c1 e2 02             	shl    $0x2,%edx
  3047df:	01 d0                	add    %edx,%eax
  3047e1:	89 ca                	mov    %ecx,%edx
  3047e3:	81 e2 ff ff 0f 00    	and    $0xfffff,%edx
  3047e9:	89 d1                	mov    %edx,%ecx
  3047eb:	83 e1 0f             	and    $0xf,%ecx
  3047ee:	89 cb                	mov    %ecx,%ebx
  3047f0:	c1 e3 04             	shl    $0x4,%ebx
  3047f3:	0f b6 48 01          	movzbl 0x1(%eax),%ecx
  3047f7:	83 e1 0f             	and    $0xf,%ecx
  3047fa:	09 d9                	or     %ebx,%ecx
  3047fc:	88 48 01             	mov    %cl,0x1(%eax)
  3047ff:	89 d1                	mov    %edx,%ecx
  304801:	c1 e9 04             	shr    $0x4,%ecx
  304804:	0f b6 d9             	movzbl %cl,%ebx
  304807:	0f b6 48 02          	movzbl 0x2(%eax),%ecx
  30480b:	83 e1 00             	and    $0x0,%ecx
  30480e:	09 d9                	or     %ebx,%ecx
  304810:	88 48 02             	mov    %cl,0x2(%eax)
  304813:	c1 ea 0c             	shr    $0xc,%edx
  304816:	0f b6 ca             	movzbl %dl,%ecx
  304819:	0f b6 50 03          	movzbl 0x3(%eax),%edx
  30481d:	83 e2 00             	and    $0x0,%edx
  304820:	09 ca                	or     %ecx,%edx
  304822:	88 50 03             	mov    %dl,0x3(%eax)
  304825:	83 45 f4 01          	addl   $0x1,-0xc(%ebp)
  304829:	81 7d f4 ff 03 00 00 	cmpl   $0x3ff,-0xc(%ebp)
  304830:	0f 8e e6 fd ff ff    	jle    30461c <config_pgds+0xe5>
  304836:	a1 50 57 30 00       	mov    0x305750,%eax
  30483b:	c7 00 03 00 00 00    	movl   $0x3,(%eax)
  304841:	a1 54 57 30 00       	mov    0x305754,%eax
  304846:	c1 e8 0c             	shr    $0xc,%eax
  304849:	89 c2                	mov    %eax,%edx
  30484b:	a1 50 57 30 00       	mov    0x305750,%eax
  304850:	81 e2 ff ff 0f 00    	and    $0xfffff,%edx
  304856:	89 d1                	mov    %edx,%ecx
  304858:	83 e1 0f             	and    $0xf,%ecx
  30485b:	89 cb                	mov    %ecx,%ebx
  30485d:	c1 e3 04             	shl    $0x4,%ebx
  304860:	0f b6 48 01          	movzbl 0x1(%eax),%ecx
  304864:	83 e1 0f             	and    $0xf,%ecx
  304867:	09 d9                	or     %ebx,%ecx
  304869:	88 48 01             	mov    %cl,0x1(%eax)
  30486c:	89 d1                	mov    %edx,%ecx
  30486e:	c1 e9 04             	shr    $0x4,%ecx
  304871:	0f b6 d9             	movzbl %cl,%ebx
  304874:	0f b6 48 02          	movzbl 0x2(%eax),%ecx
  304878:	83 e1 00             	and    $0x0,%ecx
  30487b:	09 d9                	or     %ebx,%ecx
  30487d:	88 48 02             	mov    %cl,0x2(%eax)
  304880:	c1 ea 0c             	shr    $0xc,%edx
  304883:	0f b6 ca             	movzbl %dl,%ecx
  304886:	0f b6 50 03          	movzbl 0x3(%eax),%edx
  30488a:	83 e2 00             	and    $0x0,%edx
  30488d:	09 ca                	or     %ecx,%edx
  30488f:	88 50 03             	mov    %dl,0x3(%eax)
  304892:	a1 64 57 30 00       	mov    0x305764,%eax
  304897:	c7 00 07 00 00 00    	movl   $0x7,(%eax)
  30489d:	a1 64 57 30 00       	mov    0x305764,%eax
  3048a2:	0f b6 50 01          	movzbl 0x1(%eax),%edx
  3048a6:	83 e2 0f             	and    $0xf,%edx
  3048a9:	88 50 01             	mov    %dl,0x1(%eax)
  3048ac:	0f b6 50 02          	movzbl 0x2(%eax),%edx
  3048b0:	83 e2 00             	and    $0x0,%edx
  3048b3:	83 ca f0             	or     $0xfffffff0,%edx
  3048b6:	88 50 02             	mov    %dl,0x2(%eax)
  3048b9:	0f b6 50 03          	movzbl 0x3(%eax),%edx
  3048bd:	83 e2 00             	and    $0x0,%edx
  3048c0:	88 50 03             	mov    %dl,0x3(%eax)
  3048c3:	a1 74 57 30 00       	mov    0x305774,%eax
  3048c8:	c7 00 07 00 00 00    	movl   $0x7,(%eax)
  3048ce:	a1 74 57 30 00       	mov    0x305774,%eax
  3048d3:	0f b6 50 01          	movzbl 0x1(%eax),%edx
  3048d7:	83 e2 0f             	and    $0xf,%edx
  3048da:	88 50 01             	mov    %dl,0x1(%eax)
  3048dd:	0f b6 50 02          	movzbl 0x2(%eax),%edx
  3048e1:	83 e2 00             	and    $0x0,%edx
  3048e4:	83 ca f0             	or     $0xfffffff0,%edx
  3048e7:	88 50 02             	mov    %dl,0x2(%eax)
  3048ea:	0f b6 50 03          	movzbl 0x3(%eax),%edx
  3048ee:	83 e2 00             	and    $0x0,%edx
  3048f1:	88 50 03             	mov    %dl,0x3(%eax)
  3048f4:	a1 58 57 30 00       	mov    0x305758,%eax
  3048f9:	c7 00 03 00 00 00    	movl   $0x3,(%eax)
  3048ff:	a1 5c 57 30 00       	mov    0x30575c,%eax
  304904:	c1 e8 0c             	shr    $0xc,%eax
  304907:	89 c2                	mov    %eax,%edx
  304909:	a1 58 57 30 00       	mov    0x305758,%eax
  30490e:	81 e2 ff ff 0f 00    	and    $0xfffff,%edx
  304914:	89 d1                	mov    %edx,%ecx
  304916:	83 e1 0f             	and    $0xf,%ecx
  304919:	89 cb                	mov    %ecx,%ebx
  30491b:	c1 e3 04             	shl    $0x4,%ebx
  30491e:	0f b6 48 01          	movzbl 0x1(%eax),%ecx
  304922:	83 e1 0f             	and    $0xf,%ecx
  304925:	09 d9                	or     %ebx,%ecx
  304927:	88 48 01             	mov    %cl,0x1(%eax)
  30492a:	89 d1                	mov    %edx,%ecx
  30492c:	c1 e9 04             	shr    $0x4,%ecx
  30492f:	0f b6 d9             	movzbl %cl,%ebx
  304932:	0f b6 48 02          	movzbl 0x2(%eax),%ecx
  304936:	83 e1 00             	and    $0x0,%ecx
  304939:	09 d9                	or     %ebx,%ecx
  30493b:	88 48 02             	mov    %cl,0x2(%eax)
  30493e:	c1 ea 0c             	shr    $0xc,%edx
  304941:	0f b6 ca             	movzbl %dl,%ecx
  304944:	0f b6 50 03          	movzbl 0x3(%eax),%edx
  304948:	83 e2 00             	and    $0x0,%edx
  30494b:	09 ca                	or     %ecx,%edx
  30494d:	88 50 03             	mov    %dl,0x3(%eax)
  304950:	a1 58 57 30 00       	mov    0x305758,%eax
  304955:	83 c0 04             	add    $0x4,%eax
  304958:	c7 00 07 00 00 00    	movl   $0x7,(%eax)
  30495e:	a1 60 57 30 00       	mov    0x305760,%eax
  304963:	c1 e8 0c             	shr    $0xc,%eax
  304966:	89 c2                	mov    %eax,%edx
  304968:	a1 58 57 30 00       	mov    0x305758,%eax
  30496d:	83 c0 04             	add    $0x4,%eax
  304970:	81 e2 ff ff 0f 00    	and    $0xfffff,%edx
  304976:	89 d1                	mov    %edx,%ecx
  304978:	83 e1 0f             	and    $0xf,%ecx
  30497b:	89 cb                	mov    %ecx,%ebx
  30497d:	c1 e3 04             	shl    $0x4,%ebx
  304980:	0f b6 48 01          	movzbl 0x1(%eax),%ecx
  304984:	83 e1 0f             	and    $0xf,%ecx
  304987:	09 d9                	or     %ebx,%ecx
  304989:	88 48 01             	mov    %cl,0x1(%eax)
  30498c:	89 d1                	mov    %edx,%ecx
  30498e:	c1 e9 04             	shr    $0x4,%ecx
  304991:	0f b6 d9             	movzbl %cl,%ebx
  304994:	0f b6 48 02          	movzbl 0x2(%eax),%ecx
  304998:	83 e1 00             	and    $0x0,%ecx
  30499b:	09 d9                	or     %ebx,%ecx
  30499d:	88 48 02             	mov    %cl,0x2(%eax)
  3049a0:	c1 ea 0c             	shr    $0xc,%edx
  3049a3:	0f b6 ca             	movzbl %dl,%ecx
  3049a6:	0f b6 50 03          	movzbl 0x3(%eax),%edx
  3049aa:	83 e2 00             	and    $0x0,%edx
  3049ad:	09 ca                	or     %ecx,%edx
  3049af:	88 50 03             	mov    %dl,0x3(%eax)
  3049b2:	a1 58 57 30 00       	mov    0x305758,%eax
  3049b7:	83 c0 08             	add    $0x8,%eax
  3049ba:	c7 00 07 00 00 00    	movl   $0x7,(%eax)
  3049c0:	a1 64 57 30 00       	mov    0x305764,%eax
  3049c5:	c1 e8 0c             	shr    $0xc,%eax
  3049c8:	89 c2                	mov    %eax,%edx
  3049ca:	a1 58 57 30 00       	mov    0x305758,%eax
  3049cf:	83 c0 08             	add    $0x8,%eax
  3049d2:	81 e2 ff ff 0f 00    	and    $0xfffff,%edx
  3049d8:	89 d1                	mov    %edx,%ecx
  3049da:	83 e1 0f             	and    $0xf,%ecx
  3049dd:	89 cb                	mov    %ecx,%ebx
  3049df:	c1 e3 04             	shl    $0x4,%ebx
  3049e2:	0f b6 48 01          	movzbl 0x1(%eax),%ecx
  3049e6:	83 e1 0f             	and    $0xf,%ecx
  3049e9:	09 d9                	or     %ebx,%ecx
  3049eb:	88 48 01             	mov    %cl,0x1(%eax)
  3049ee:	89 d1                	mov    %edx,%ecx
  3049f0:	c1 e9 04             	shr    $0x4,%ecx
  3049f3:	0f b6 d9             	movzbl %cl,%ebx
  3049f6:	0f b6 48 02          	movzbl 0x2(%eax),%ecx
  3049fa:	83 e1 00             	and    $0x0,%ecx
  3049fd:	09 d9                	or     %ebx,%ecx
  3049ff:	88 48 02             	mov    %cl,0x2(%eax)
  304a02:	c1 ea 0c             	shr    $0xc,%edx
  304a05:	0f b6 ca             	movzbl %dl,%ecx
  304a08:	0f b6 50 03          	movzbl 0x3(%eax),%edx
  304a0c:	83 e2 00             	and    $0x0,%edx
  304a0f:	09 ca                	or     %ecx,%edx
  304a11:	88 50 03             	mov    %dl,0x3(%eax)
  304a14:	a1 68 57 30 00       	mov    0x305768,%eax
  304a19:	c7 00 03 00 00 00    	movl   $0x3,(%eax)
  304a1f:	a1 6c 57 30 00       	mov    0x30576c,%eax
  304a24:	c1 e8 0c             	shr    $0xc,%eax
  304a27:	89 c2                	mov    %eax,%edx
  304a29:	a1 68 57 30 00       	mov    0x305768,%eax
  304a2e:	81 e2 ff ff 0f 00    	and    $0xfffff,%edx
  304a34:	89 d1                	mov    %edx,%ecx
  304a36:	83 e1 0f             	and    $0xf,%ecx
  304a39:	89 cb                	mov    %ecx,%ebx
  304a3b:	c1 e3 04             	shl    $0x4,%ebx
  304a3e:	0f b6 48 01          	movzbl 0x1(%eax),%ecx
  304a42:	83 e1 0f             	and    $0xf,%ecx
  304a45:	09 d9                	or     %ebx,%ecx
  304a47:	88 48 01             	mov    %cl,0x1(%eax)
  304a4a:	89 d1                	mov    %edx,%ecx
  304a4c:	c1 e9 04             	shr    $0x4,%ecx
  304a4f:	0f b6 d9             	movzbl %cl,%ebx
  304a52:	0f b6 48 02          	movzbl 0x2(%eax),%ecx
  304a56:	83 e1 00             	and    $0x0,%ecx
  304a59:	09 d9                	or     %ebx,%ecx
  304a5b:	88 48 02             	mov    %cl,0x2(%eax)
  304a5e:	c1 ea 0c             	shr    $0xc,%edx
  304a61:	0f b6 ca             	movzbl %dl,%ecx
  304a64:	0f b6 50 03          	movzbl 0x3(%eax),%edx
  304a68:	83 e2 00             	and    $0x0,%edx
  304a6b:	09 ca                	or     %ecx,%edx
  304a6d:	88 50 03             	mov    %dl,0x3(%eax)
  304a70:	a1 68 57 30 00       	mov    0x305768,%eax
  304a75:	83 c0 04             	add    $0x4,%eax
  304a78:	c7 00 03 00 00 00    	movl   $0x3,(%eax)
  304a7e:	a1 74 57 30 00       	mov    0x305774,%eax
  304a83:	c1 e8 0c             	shr    $0xc,%eax
  304a86:	89 c2                	mov    %eax,%edx
  304a88:	a1 68 57 30 00       	mov    0x305768,%eax
  304a8d:	83 c0 04             	add    $0x4,%eax
  304a90:	81 e2 ff ff 0f 00    	and    $0xfffff,%edx
  304a96:	89 d1                	mov    %edx,%ecx
  304a98:	83 e1 0f             	and    $0xf,%ecx
  304a9b:	89 cb                	mov    %ecx,%ebx
  304a9d:	c1 e3 04             	shl    $0x4,%ebx
  304aa0:	0f b6 48 01          	movzbl 0x1(%eax),%ecx
  304aa4:	83 e1 0f             	and    $0xf,%ecx
  304aa7:	09 d9                	or     %ebx,%ecx
  304aa9:	88 48 01             	mov    %cl,0x1(%eax)
  304aac:	89 d1                	mov    %edx,%ecx
  304aae:	c1 e9 04             	shr    $0x4,%ecx
  304ab1:	0f b6 d9             	movzbl %cl,%ebx
  304ab4:	0f b6 48 02          	movzbl 0x2(%eax),%ecx
  304ab8:	83 e1 00             	and    $0x0,%ecx
  304abb:	09 d9                	or     %ebx,%ecx
  304abd:	88 48 02             	mov    %cl,0x2(%eax)
  304ac0:	c1 ea 0c             	shr    $0xc,%edx
  304ac3:	0f b6 ca             	movzbl %dl,%ecx
  304ac6:	0f b6 50 03          	movzbl 0x3(%eax),%edx
  304aca:	83 e2 00             	and    $0x0,%edx
  304acd:	09 ca                	or     %ecx,%edx
  304acf:	88 50 03             	mov    %dl,0x3(%eax)
  304ad2:	a1 68 57 30 00       	mov    0x305768,%eax
  304ad7:	83 c0 08             	add    $0x8,%eax
  304ada:	c7 00 07 00 00 00    	movl   $0x7,(%eax)
  304ae0:	a1 70 57 30 00       	mov    0x305770,%eax
  304ae5:	c1 e8 0c             	shr    $0xc,%eax
  304ae8:	89 c2                	mov    %eax,%edx
  304aea:	a1 68 57 30 00       	mov    0x305768,%eax
  304aef:	83 c0 08             	add    $0x8,%eax
  304af2:	81 e2 ff ff 0f 00    	and    $0xfffff,%edx
  304af8:	89 d1                	mov    %edx,%ecx
  304afa:	83 e1 0f             	and    $0xf,%ecx
  304afd:	89 cb                	mov    %ecx,%ebx
  304aff:	c1 e3 04             	shl    $0x4,%ebx
  304b02:	0f b6 48 01          	movzbl 0x1(%eax),%ecx
  304b06:	83 e1 0f             	and    $0xf,%ecx
  304b09:	09 d9                	or     %ebx,%ecx
  304b0b:	88 48 01             	mov    %cl,0x1(%eax)
  304b0e:	89 d1                	mov    %edx,%ecx
  304b10:	c1 e9 04             	shr    $0x4,%ecx
  304b13:	0f b6 d9             	movzbl %cl,%ebx
  304b16:	0f b6 48 02          	movzbl 0x2(%eax),%ecx
  304b1a:	83 e1 00             	and    $0x0,%ecx
  304b1d:	09 d9                	or     %ebx,%ecx
  304b1f:	88 48 02             	mov    %cl,0x2(%eax)
  304b22:	c1 ea 0c             	shr    $0xc,%edx
  304b25:	0f b6 ca             	movzbl %dl,%ecx
  304b28:	0f b6 50 03          	movzbl 0x3(%eax),%edx
  304b2c:	83 e2 00             	and    $0x0,%edx
  304b2f:	09 ca                	or     %ecx,%edx
  304b31:	88 50 03             	mov    %dl,0x3(%eax)
  304b34:	83 ec 04             	sub    $0x4,%esp
  304b37:	68 00 00 40 00       	push   $0x400000
  304b3c:	6a 00                	push   $0x0
  304b3e:	68 58 56 30 00       	push   $0x305658
  304b43:	e8 88 e5 ff ff       	call   3030d0 <printf>
  304b48:	83 c4 10             	add    $0x10,%esp
  304b4b:	83 ec 04             	sub    $0x4,%esp
  304b4e:	68 00 f0 7f 00       	push   $0x7ff000
  304b53:	68 00 00 40 00       	push   $0x400000
  304b58:	68 80 56 30 00       	push   $0x305680
  304b5d:	e8 6e e5 ff ff       	call   3030d0 <printf>
  304b62:	83 c4 10             	add    $0x10,%esp
  304b65:	83 ec 04             	sub    $0x4,%esp
  304b68:	68 00 f0 bf 00       	push   $0xbff000
  304b6d:	68 00 00 80 00       	push   $0x800000
  304b72:	68 a4 56 30 00       	push   $0x3056a4
  304b77:	e8 54 e5 ff ff       	call   3030d0 <printf>
  304b7c:	83 c4 10             	add    $0x10,%esp
  304b7f:	a1 50 57 30 00       	mov    0x305750,%eax
  304b84:	0f 22 d8             	mov    %eax,%cr3
  304b87:	0f 20 c0             	mov    %cr0,%eax
  304b8a:	89 45 f0             	mov    %eax,-0x10(%ebp)
  304b8d:	8b 45 f0             	mov    -0x10(%ebp),%eax
  304b90:	89 45 ec             	mov    %eax,-0x14(%ebp)
  304b93:	8b 45 ec             	mov    -0x14(%ebp),%eax
  304b96:	0d 00 00 00 80       	or     $0x80000000,%eax
  304b9b:	0f 22 c0             	mov    %eax,%cr0
  304b9e:	83 ec 0c             	sub    $0xc,%esp
  304ba1:	68 c7 56 30 00       	push   $0x3056c7
  304ba6:	e8 25 e5 ff ff       	call   3030d0 <printf>
  304bab:	83 c4 10             	add    $0x10,%esp
  304bae:	90                   	nop
  304baf:	8b 5d fc             	mov    -0x4(%ebp),%ebx
  304bb2:	c9                   	leave
  304bb3:	c3                   	ret

00304bb4 <config_clock_interrupt>:
  304bb4:	55                   	push   %ebp
  304bb5:	89 e5                	mov    %esp,%ebp
  304bb7:	53                   	push   %ebx
  304bb8:	83 ec 10             	sub    $0x10,%esp
  304bbb:	0f 01 4d f2          	sidtl  -0xe(%ebp)
  304bbf:	8b 45 f4             	mov    -0xc(%ebp),%eax
  304bc2:	05 00 01 00 00       	add    $0x100,%eax
  304bc7:	89 45 f8             	mov    %eax,-0x8(%ebp)
  304bca:	b8 5e 40 30 00       	mov    $0x30405e,%eax
  304bcf:	89 c2                	mov    %eax,%edx
  304bd1:	8b 45 f8             	mov    -0x8(%ebp),%eax
  304bd4:	0f b7 ca             	movzwl %dx,%ecx
  304bd7:	0f b6 d9             	movzbl %cl,%ebx
  304bda:	0f b6 08             	movzbl (%eax),%ecx
  304bdd:	83 e1 00             	and    $0x0,%ecx
  304be0:	09 d9                	or     %ebx,%ecx
  304be2:	88 08                	mov    %cl,(%eax)
  304be4:	66 c1 ea 08          	shr    $0x8,%dx
  304be8:	0f b7 ca             	movzwl %dx,%ecx
  304beb:	0f b6 50 01          	movzbl 0x1(%eax),%edx
  304bef:	83 e2 00             	and    $0x0,%edx
  304bf2:	09 ca                	or     %ecx,%edx
  304bf4:	88 50 01             	mov    %dl,0x1(%eax)
  304bf7:	b8 5e 40 30 00       	mov    $0x30405e,%eax
  304bfc:	c1 e8 10             	shr    $0x10,%eax
  304bff:	89 c2                	mov    %eax,%edx
  304c01:	8b 45 f8             	mov    -0x8(%ebp),%eax
  304c04:	0f b7 ca             	movzwl %dx,%ecx
  304c07:	0f b6 d9             	movzbl %cl,%ebx
  304c0a:	0f b6 48 06          	movzbl 0x6(%eax),%ecx
  304c0e:	83 e1 00             	and    $0x0,%ecx
  304c11:	09 d9                	or     %ebx,%ecx
  304c13:	88 48 06             	mov    %cl,0x6(%eax)
  304c16:	66 c1 ea 08          	shr    $0x8,%dx
  304c1a:	0f b7 ca             	movzwl %dx,%ecx
  304c1d:	0f b6 50 07          	movzbl 0x7(%eax),%edx
  304c21:	83 e2 00             	and    $0x0,%edx
  304c24:	09 ca                	or     %ecx,%edx
  304c26:	88 50 07             	mov    %dl,0x7(%eax)
  304c29:	8b 45 f8             	mov    -0x8(%ebp),%eax
  304c2c:	0f b6 50 05          	movzbl 0x5(%eax),%edx
  304c30:	83 ca 60             	or     $0x60,%edx
  304c33:	88 50 05             	mov    %dl,0x5(%eax)
  304c36:	90                   	nop
  304c37:	8b 5d fc             	mov    -0x4(%ebp),%ebx
  304c3a:	c9                   	leave
  304c3b:	c3                   	ret

00304c3c <config_task>:
  304c3c:	55                   	push   %ebp
  304c3d:	89 e5                	mov    %esp,%ebp
  304c3f:	8b 45 08             	mov    0x8(%ebp),%eax
  304c42:	8b 55 0c             	mov    0xc(%ebp),%edx
  304c45:	89 10                	mov    %edx,(%eax)
  304c47:	8b 45 08             	mov    0x8(%ebp),%eax
  304c4a:	8b 55 10             	mov    0x10(%ebp),%edx
  304c4d:	89 50 04             	mov    %edx,0x4(%eax)
  304c50:	8b 45 08             	mov    0x8(%ebp),%eax
  304c53:	8b 55 14             	mov    0x14(%ebp),%edx
  304c56:	89 50 08             	mov    %edx,0x8(%eax)
  304c59:	8b 45 08             	mov    0x8(%ebp),%eax
  304c5c:	83 c0 0c             	add    $0xc,%eax
  304c5f:	6a 3c                	push   $0x3c
  304c61:	6a 00                	push   $0x0
  304c63:	50                   	push   %eax
  304c64:	e8 16 f3 ff ff       	call   303f7f <memset>
  304c69:	83 c4 0c             	add    $0xc,%esp
  304c6c:	8b 45 08             	mov    0x8(%ebp),%eax
  304c6f:	c6 40 48 00          	movb   $0x0,0x48(%eax)
  304c73:	90                   	nop
  304c74:	c9                   	leave
  304c75:	c3                   	ret

00304c76 <tp>:
  304c76:	55                   	push   %ebp
  304c77:	89 e5                	mov    %esp,%ebp
  304c79:	83 ec 08             	sub    $0x8,%esp
  304c7c:	e8 9d f5 ff ff       	call   30421e <config_segmentation>
  304c81:	e8 b1 f8 ff ff       	call   304537 <config_pgds>
  304c86:	e8 29 ff ff ff       	call   304bb4 <config_clock_interrupt>
  304c8b:	8b 15 58 57 30 00    	mov    0x305758,%edx
  304c91:	a1 78 57 30 00       	mov    0x305778,%eax
  304c96:	52                   	push   %edx
  304c97:	50                   	push   %eax
  304c98:	68 00 40 40 00       	push   $0x404000
  304c9d:	68 80 84 30 00       	push   $0x308480
  304ca2:	e8 95 ff ff ff       	call   304c3c <config_task>
  304ca7:	83 c4 10             	add    $0x10,%esp
  304caa:	8b 15 68 57 30 00    	mov    0x305768,%edx
  304cb0:	a1 7c 57 30 00       	mov    0x30577c,%eax
  304cb5:	52                   	push   %edx
  304cb6:	50                   	push   %eax
  304cb7:	68 00 40 80 00       	push   $0x804000
  304cbc:	68 cc 84 30 00       	push   $0x3084cc
  304cc1:	e8 76 ff ff ff       	call   304c3c <config_task>
  304cc6:	83 c4 10             	add    $0x10,%esp
  304cc9:	fb                   	sti
  304cca:	90                   	nop
  304ccb:	8b 0d 80 84 30 00    	mov    0x308480,%ecx
  304cd1:	8b 15 88 84 30 00    	mov    0x308488,%edx
  304cd7:	a1 84 84 30 00       	mov    0x308484,%eax
  304cdc:	83 ec 04             	sub    $0x4,%esp
  304cdf:	51                   	push   %ecx
  304ce0:	52                   	push   %edx
  304ce1:	50                   	push   %eax
  304ce2:	e8 3a f3 ff ff       	call   304021 <ring_0_to_ring_3_task>
  304ce7:	83 c4 10             	add    $0x10,%esp
  304cea:	90                   	nop
  304ceb:	c9                   	leave
  304cec:	c3                   	ret
  304ced:	66 90                	xchg   %ax,%ax
  304cef:	90                   	nop

00304cf0 <__divdi3>:
  304cf0:	f3 0f 1e fb          	endbr32
  304cf4:	55                   	push   %ebp
  304cf5:	57                   	push   %edi
  304cf6:	56                   	push   %esi
  304cf7:	53                   	push   %ebx
  304cf8:	83 ec 1c             	sub    $0x1c,%esp
  304cfb:	8b 5c 24 34          	mov    0x34(%esp),%ebx
  304cff:	8b 4c 24 30          	mov    0x30(%esp),%ecx
  304d03:	c7 44 24 08 00 00 00 	movl   $0x0,0x8(%esp)
  304d0a:	00 
  304d0b:	8b 44 24 38          	mov    0x38(%esp),%eax
  304d0f:	8b 54 24 3c          	mov    0x3c(%esp),%edx
  304d13:	89 0c 24             	mov    %ecx,(%esp)
  304d16:	89 dd                	mov    %ebx,%ebp
  304d18:	89 5c 24 04          	mov    %ebx,0x4(%esp)
  304d1c:	85 db                	test   %ebx,%ebx
  304d1e:	79 18                	jns    304d38 <__divdi3+0x48>
  304d20:	f7 d9                	neg    %ecx
  304d22:	c7 44 24 08 ff ff ff 	movl   $0xffffffff,0x8(%esp)
  304d29:	ff 
  304d2a:	83 d3 00             	adc    $0x0,%ebx
  304d2d:	89 0c 24             	mov    %ecx,(%esp)
  304d30:	f7 db                	neg    %ebx
  304d32:	89 5c 24 04          	mov    %ebx,0x4(%esp)
  304d36:	89 dd                	mov    %ebx,%ebp
  304d38:	89 d3                	mov    %edx,%ebx
  304d3a:	85 d2                	test   %edx,%edx
  304d3c:	79 0d                	jns    304d4b <__divdi3+0x5b>
  304d3e:	f7 d8                	neg    %eax
  304d40:	f7 54 24 08          	notl   0x8(%esp)
  304d44:	83 d2 00             	adc    $0x0,%edx
  304d47:	f7 da                	neg    %edx
  304d49:	89 d3                	mov    %edx,%ebx
  304d4b:	89 c7                	mov    %eax,%edi
  304d4d:	8b 04 24             	mov    (%esp),%eax
  304d50:	85 db                	test   %ebx,%ebx
  304d52:	75 14                	jne    304d68 <__divdi3+0x78>
  304d54:	39 fd                	cmp    %edi,%ebp
  304d56:	73 58                	jae    304db0 <__divdi3+0xc0>
  304d58:	89 ea                	mov    %ebp,%edx
  304d5a:	31 f6                	xor    %esi,%esi
  304d5c:	f7 f7                	div    %edi
  304d5e:	89 c5                	mov    %eax,%ebp
  304d60:	eb 0e                	jmp    304d70 <__divdi3+0x80>
  304d62:	8d b6 00 00 00 00    	lea    0x0(%esi),%esi
  304d68:	39 dd                	cmp    %ebx,%ebp
  304d6a:	73 24                	jae    304d90 <__divdi3+0xa0>
  304d6c:	31 f6                	xor    %esi,%esi
  304d6e:	31 ed                	xor    %ebp,%ebp
  304d70:	8b 4c 24 08          	mov    0x8(%esp),%ecx
  304d74:	89 e8                	mov    %ebp,%eax
  304d76:	89 f2                	mov    %esi,%edx
  304d78:	85 c9                	test   %ecx,%ecx
  304d7a:	74 07                	je     304d83 <__divdi3+0x93>
  304d7c:	f7 d8                	neg    %eax
  304d7e:	83 d2 00             	adc    $0x0,%edx
  304d81:	f7 da                	neg    %edx
  304d83:	83 c4 1c             	add    $0x1c,%esp
  304d86:	5b                   	pop    %ebx
  304d87:	5e                   	pop    %esi
  304d88:	5f                   	pop    %edi
  304d89:	5d                   	pop    %ebp
  304d8a:	c3                   	ret
  304d8b:	2e 8d 74 26 00       	lea    %cs:0x0(%esi,%eiz,1),%esi
  304d90:	0f bd c3             	bsr    %ebx,%eax
  304d93:	83 f0 1f             	xor    $0x1f,%eax
  304d96:	89 c6                	mov    %eax,%esi
  304d98:	75 36                	jne    304dd0 <__divdi3+0xe0>
  304d9a:	39 eb                	cmp    %ebp,%ebx
  304d9c:	72 07                	jb     304da5 <__divdi3+0xb5>
  304d9e:	31 ed                	xor    %ebp,%ebp
  304da0:	39 3c 24             	cmp    %edi,(%esp)
  304da3:	72 cb                	jb     304d70 <__divdi3+0x80>
  304da5:	bd 01 00 00 00       	mov    $0x1,%ebp
  304daa:	eb c4                	jmp    304d70 <__divdi3+0x80>
  304dac:	8d 74 26 00          	lea    0x0(%esi,%eiz,1),%esi
  304db0:	85 ff                	test   %edi,%edi
  304db2:	75 0b                	jne    304dbf <__divdi3+0xcf>
  304db4:	b8 01 00 00 00       	mov    $0x1,%eax
  304db9:	31 d2                	xor    %edx,%edx
  304dbb:	f7 f3                	div    %ebx
  304dbd:	89 c7                	mov    %eax,%edi
  304dbf:	89 e8                	mov    %ebp,%eax
  304dc1:	31 d2                	xor    %edx,%edx
  304dc3:	f7 f7                	div    %edi
  304dc5:	89 c6                	mov    %eax,%esi
  304dc7:	8b 04 24             	mov    (%esp),%eax
  304dca:	f7 f7                	div    %edi
  304dcc:	89 c5                	mov    %eax,%ebp
  304dce:	eb a0                	jmp    304d70 <__divdi3+0x80>
  304dd0:	b8 20 00 00 00       	mov    $0x20,%eax
  304dd5:	89 f1                	mov    %esi,%ecx
  304dd7:	89 fa                	mov    %edi,%edx
  304dd9:	29 f0                	sub    %esi,%eax
  304ddb:	d3 e3                	shl    %cl,%ebx
  304ddd:	89 c1                	mov    %eax,%ecx
  304ddf:	d3 ea                	shr    %cl,%edx
  304de1:	89 f1                	mov    %esi,%ecx
  304de3:	09 da                	or     %ebx,%edx
  304de5:	d3 e7                	shl    %cl,%edi
  304de7:	89 eb                	mov    %ebp,%ebx
  304de9:	89 c1                	mov    %eax,%ecx
  304deb:	d3 eb                	shr    %cl,%ebx
  304ded:	89 54 24 0c          	mov    %edx,0xc(%esp)
  304df1:	89 f1                	mov    %esi,%ecx
  304df3:	8b 14 24             	mov    (%esp),%edx
  304df6:	d3 e5                	shl    %cl,%ebp
  304df8:	89 c1                	mov    %eax,%ecx
  304dfa:	d3 ea                	shr    %cl,%edx
  304dfc:	09 d5                	or     %edx,%ebp
  304dfe:	89 da                	mov    %ebx,%edx
  304e00:	89 e8                	mov    %ebp,%eax
  304e02:	f7 74 24 0c          	divl   0xc(%esp)
  304e06:	89 d3                	mov    %edx,%ebx
  304e08:	89 c5                	mov    %eax,%ebp
  304e0a:	f7 e7                	mul    %edi
  304e0c:	39 d3                	cmp    %edx,%ebx
  304e0e:	72 0f                	jb     304e1f <__divdi3+0x12f>
  304e10:	8b 3c 24             	mov    (%esp),%edi
  304e13:	89 f1                	mov    %esi,%ecx
  304e15:	d3 e7                	shl    %cl,%edi
  304e17:	39 c7                	cmp    %eax,%edi
  304e19:	73 07                	jae    304e22 <__divdi3+0x132>
  304e1b:	39 d3                	cmp    %edx,%ebx
  304e1d:	75 03                	jne    304e22 <__divdi3+0x132>
  304e1f:	83 ed 01             	sub    $0x1,%ebp
  304e22:	31 f6                	xor    %esi,%esi
  304e24:	e9 47 ff ff ff       	jmp    304d70 <__divdi3+0x80>
  304e29:	66 90                	xchg   %ax,%ax
  304e2b:	66 90                	xchg   %ax,%ax
  304e2d:	66 90                	xchg   %ax,%ax
  304e2f:	90                   	nop

00304e30 <__moddi3>:
  304e30:	f3 0f 1e fb          	endbr32
  304e34:	55                   	push   %ebp
  304e35:	57                   	push   %edi
  304e36:	56                   	push   %esi
  304e37:	53                   	push   %ebx
  304e38:	83 ec 2c             	sub    $0x2c,%esp
  304e3b:	8b 54 24 44          	mov    0x44(%esp),%edx
  304e3f:	8b 44 24 40          	mov    0x40(%esp),%eax
  304e43:	c7 44 24 0c 00 00 00 	movl   $0x0,0xc(%esp)
  304e4a:	00 
  304e4b:	8b 4c 24 48          	mov    0x48(%esp),%ecx
  304e4f:	8b 5c 24 4c          	mov    0x4c(%esp),%ebx
  304e53:	89 d6                	mov    %edx,%esi
  304e55:	85 d2                	test   %edx,%edx
  304e57:	79 11                	jns    304e6a <__moddi3+0x3a>
  304e59:	f7 d8                	neg    %eax
  304e5b:	c7 44 24 0c ff ff ff 	movl   $0xffffffff,0xc(%esp)
  304e62:	ff 
  304e63:	83 d2 00             	adc    $0x0,%edx
  304e66:	f7 da                	neg    %edx
  304e68:	89 d6                	mov    %edx,%esi
  304e6a:	89 df                	mov    %ebx,%edi
  304e6c:	85 db                	test   %ebx,%ebx
  304e6e:	0f 88 04 01 00 00    	js     304f78 <__moddi3+0x148>
  304e74:	89 44 24 18          	mov    %eax,0x18(%esp)
  304e78:	89 cb                	mov    %ecx,%ebx
  304e7a:	89 fd                	mov    %edi,%ebp
  304e7c:	75 32                	jne    304eb0 <__moddi3+0x80>
  304e7e:	39 de                	cmp    %ebx,%esi
  304e80:	0f 83 ca 00 00 00    	jae    304f50 <__moddi3+0x120>
  304e86:	8b 44 24 18          	mov    0x18(%esp),%eax
  304e8a:	89 f2                	mov    %esi,%edx
  304e8c:	f7 f3                	div    %ebx
  304e8e:	89 d1                	mov    %edx,%ecx
  304e90:	89 c8                	mov    %ecx,%eax
  304e92:	31 d2                	xor    %edx,%edx
  304e94:	8b 4c 24 0c          	mov    0xc(%esp),%ecx
  304e98:	85 c9                	test   %ecx,%ecx
  304e9a:	74 07                	je     304ea3 <__moddi3+0x73>
  304e9c:	f7 d8                	neg    %eax
  304e9e:	83 d2 00             	adc    $0x0,%edx
  304ea1:	f7 da                	neg    %edx
  304ea3:	83 c4 2c             	add    $0x2c,%esp
  304ea6:	5b                   	pop    %ebx
  304ea7:	5e                   	pop    %esi
  304ea8:	5f                   	pop    %edi
  304ea9:	5d                   	pop    %ebp
  304eaa:	c3                   	ret
  304eab:	2e 8d 74 26 00       	lea    %cs:0x0(%esi,%eiz,1),%esi
  304eb0:	39 fe                	cmp    %edi,%esi
  304eb2:	0f 82 07 01 00 00    	jb     304fbf <__moddi3+0x18f>
  304eb8:	0f bd c7             	bsr    %edi,%eax
  304ebb:	83 f0 1f             	xor    $0x1f,%eax
  304ebe:	89 c7                	mov    %eax,%edi
  304ec0:	ba 20 00 00 00       	mov    $0x20,%edx
  304ec5:	89 f9                	mov    %edi,%ecx
  304ec7:	89 d8                	mov    %ebx,%eax
  304ec9:	29 fa                	sub    %edi,%edx
  304ecb:	d3 e5                	shl    %cl,%ebp
  304ecd:	89 d1                	mov    %edx,%ecx
  304ecf:	89 54 24 1c          	mov    %edx,0x1c(%esp)
  304ed3:	d3 e8                	shr    %cl,%eax
  304ed5:	89 f9                	mov    %edi,%ecx
  304ed7:	d3 e3                	shl    %cl,%ebx
  304ed9:	09 c5                	or     %eax,%ebp
  304edb:	89 d1                	mov    %edx,%ecx
  304edd:	89 f0                	mov    %esi,%eax
  304edf:	d3 e8                	shr    %cl,%eax
  304ee1:	89 5c 24 10          	mov    %ebx,0x10(%esp)
  304ee5:	89 f9                	mov    %edi,%ecx
  304ee7:	89 d3                	mov    %edx,%ebx
  304ee9:	89 c2                	mov    %eax,%edx
  304eeb:	8b 44 24 18          	mov    0x18(%esp),%eax
  304eef:	d3 e6                	shl    %cl,%esi
  304ef1:	89 d9                	mov    %ebx,%ecx
  304ef3:	d3 e8                	shr    %cl,%eax
  304ef5:	89 f9                	mov    %edi,%ecx
  304ef7:	09 f0                	or     %esi,%eax
  304ef9:	8b 74 24 18          	mov    0x18(%esp),%esi
  304efd:	f7 f5                	div    %ebp
  304eff:	d3 e6                	shl    %cl,%esi
  304f01:	89 d3                	mov    %edx,%ebx
  304f03:	89 74 24 18          	mov    %esi,0x18(%esp)
  304f07:	f7 64 24 10          	mull   0x10(%esp)
  304f0b:	89 c6                	mov    %eax,%esi
  304f0d:	89 d1                	mov    %edx,%ecx
  304f0f:	39 d3                	cmp    %edx,%ebx
  304f11:	72 08                	jb     304f1b <__moddi3+0xeb>
  304f13:	75 10                	jne    304f25 <__moddi3+0xf5>
  304f15:	39 44 24 18          	cmp    %eax,0x18(%esp)
  304f19:	73 0a                	jae    304f25 <__moddi3+0xf5>
  304f1b:	2b 44 24 10          	sub    0x10(%esp),%eax
  304f1f:	19 ea                	sbb    %ebp,%edx
  304f21:	89 d1                	mov    %edx,%ecx
  304f23:	89 c6                	mov    %eax,%esi
  304f25:	8b 6c 24 18          	mov    0x18(%esp),%ebp
  304f29:	29 f5                	sub    %esi,%ebp
  304f2b:	19 cb                	sbb    %ecx,%ebx
  304f2d:	0f b6 4c 24 1c       	movzbl 0x1c(%esp),%ecx
  304f32:	89 de                	mov    %ebx,%esi
  304f34:	d3 e6                	shl    %cl,%esi
  304f36:	89 f9                	mov    %edi,%ecx
  304f38:	d3 ed                	shr    %cl,%ebp
  304f3a:	d3 eb                	shr    %cl,%ebx
  304f3c:	09 ee                	or     %ebp,%esi
  304f3e:	89 da                	mov    %ebx,%edx
  304f40:	89 f0                	mov    %esi,%eax
  304f42:	e9 4d ff ff ff       	jmp    304e94 <__moddi3+0x64>
  304f47:	2e 8d b4 26 00 00 00 	lea    %cs:0x0(%esi,%eiz,1),%esi
  304f4e:	00 
  304f4f:	90                   	nop
  304f50:	85 db                	test   %ebx,%ebx
  304f52:	75 0b                	jne    304f5f <__moddi3+0x12f>
  304f54:	b8 01 00 00 00       	mov    $0x1,%eax
  304f59:	31 d2                	xor    %edx,%edx
  304f5b:	f7 f3                	div    %ebx
  304f5d:	89 c3                	mov    %eax,%ebx
  304f5f:	89 f0                	mov    %esi,%eax
  304f61:	31 d2                	xor    %edx,%edx
  304f63:	f7 f3                	div    %ebx
  304f65:	8b 44 24 18          	mov    0x18(%esp),%eax
  304f69:	f7 f3                	div    %ebx
  304f6b:	89 d1                	mov    %edx,%ecx
  304f6d:	e9 1e ff ff ff       	jmp    304e90 <__moddi3+0x60>
  304f72:	8d b6 00 00 00 00    	lea    0x0(%esi),%esi
  304f78:	f7 d9                	neg    %ecx
  304f7a:	89 44 24 18          	mov    %eax,0x18(%esp)
  304f7e:	83 d3 00             	adc    $0x0,%ebx
  304f81:	89 4c 24 10          	mov    %ecx,0x10(%esp)
  304f85:	f7 db                	neg    %ebx
  304f87:	89 5c 24 14          	mov    %ebx,0x14(%esp)
  304f8b:	89 dd                	mov    %ebx,%ebp
  304f8d:	89 cb                	mov    %ecx,%ebx
  304f8f:	0f 84 e9 fe ff ff    	je     304e7e <__moddi3+0x4e>
  304f95:	89 c1                	mov    %eax,%ecx
  304f97:	39 ee                	cmp    %ebp,%esi
  304f99:	72 26                	jb     304fc1 <__moddi3+0x191>
  304f9b:	0f bd c5             	bsr    %ebp,%eax
  304f9e:	83 f0 1f             	xor    $0x1f,%eax
  304fa1:	89 c7                	mov    %eax,%edi
  304fa3:	0f 85 17 ff ff ff    	jne    304ec0 <__moddi3+0x90>
  304fa9:	39 f5                	cmp    %esi,%ebp
  304fab:	72 06                	jb     304fb3 <__moddi3+0x183>
  304fad:	39 5c 24 18          	cmp    %ebx,0x18(%esp)
  304fb1:	72 0e                	jb     304fc1 <__moddi3+0x191>
  304fb3:	8b 44 24 18          	mov    0x18(%esp),%eax
  304fb7:	2b 44 24 10          	sub    0x10(%esp),%eax
  304fbb:	1b 74 24 14          	sbb    0x14(%esp),%esi
  304fbf:	89 c1                	mov    %eax,%ecx
  304fc1:	89 c8                	mov    %ecx,%eax
  304fc3:	89 f2                	mov    %esi,%edx
  304fc5:	e9 ca fe ff ff       	jmp    304e94 <__moddi3+0x64>
  304fca:	66 90                	xchg   %ax,%ax
  304fcc:	66 90                	xchg   %ax,%ax
  304fce:	66 90                	xchg   %ax,%ax

00304fd0 <__udivdi3>:
  304fd0:	f3 0f 1e fb          	endbr32
  304fd4:	55                   	push   %ebp
  304fd5:	57                   	push   %edi
  304fd6:	56                   	push   %esi
  304fd7:	53                   	push   %ebx
  304fd8:	83 ec 1c             	sub    $0x1c,%esp
  304fdb:	8b 44 24 3c          	mov    0x3c(%esp),%eax
  304fdf:	8b 6c 24 30          	mov    0x30(%esp),%ebp
  304fe3:	8b 74 24 34          	mov    0x34(%esp),%esi
  304fe7:	8b 5c 24 38          	mov    0x38(%esp),%ebx
  304feb:	85 c0                	test   %eax,%eax
  304fed:	75 19                	jne    305008 <__udivdi3+0x38>
  304fef:	39 de                	cmp    %ebx,%esi
  304ff1:	73 4d                	jae    305040 <__udivdi3+0x70>
  304ff3:	31 ff                	xor    %edi,%edi
  304ff5:	89 e8                	mov    %ebp,%eax
  304ff7:	89 f2                	mov    %esi,%edx
  304ff9:	f7 f3                	div    %ebx
  304ffb:	89 fa                	mov    %edi,%edx
  304ffd:	83 c4 1c             	add    $0x1c,%esp
  305000:	5b                   	pop    %ebx
  305001:	5e                   	pop    %esi
  305002:	5f                   	pop    %edi
  305003:	5d                   	pop    %ebp
  305004:	c3                   	ret
  305005:	8d 76 00             	lea    0x0(%esi),%esi
  305008:	39 c6                	cmp    %eax,%esi
  30500a:	73 14                	jae    305020 <__udivdi3+0x50>
  30500c:	31 ff                	xor    %edi,%edi
  30500e:	31 c0                	xor    %eax,%eax
  305010:	89 fa                	mov    %edi,%edx
  305012:	83 c4 1c             	add    $0x1c,%esp
  305015:	5b                   	pop    %ebx
  305016:	5e                   	pop    %esi
  305017:	5f                   	pop    %edi
  305018:	5d                   	pop    %ebp
  305019:	c3                   	ret
  30501a:	8d b6 00 00 00 00    	lea    0x0(%esi),%esi
  305020:	0f bd f8             	bsr    %eax,%edi
  305023:	83 f7 1f             	xor    $0x1f,%edi
  305026:	75 48                	jne    305070 <__udivdi3+0xa0>
  305028:	39 f0                	cmp    %esi,%eax
  30502a:	72 06                	jb     305032 <__udivdi3+0x62>
  30502c:	31 c0                	xor    %eax,%eax
  30502e:	39 dd                	cmp    %ebx,%ebp
  305030:	72 de                	jb     305010 <__udivdi3+0x40>
  305032:	b8 01 00 00 00       	mov    $0x1,%eax
  305037:	eb d7                	jmp    305010 <__udivdi3+0x40>
  305039:	8d b4 26 00 00 00 00 	lea    0x0(%esi,%eiz,1),%esi
  305040:	89 d9                	mov    %ebx,%ecx
  305042:	85 db                	test   %ebx,%ebx
  305044:	75 0b                	jne    305051 <__udivdi3+0x81>
  305046:	b8 01 00 00 00       	mov    $0x1,%eax
  30504b:	31 d2                	xor    %edx,%edx
  30504d:	f7 f3                	div    %ebx
  30504f:	89 c1                	mov    %eax,%ecx
  305051:	31 d2                	xor    %edx,%edx
  305053:	89 f0                	mov    %esi,%eax
  305055:	f7 f1                	div    %ecx
  305057:	89 c6                	mov    %eax,%esi
  305059:	89 e8                	mov    %ebp,%eax
  30505b:	89 f7                	mov    %esi,%edi
  30505d:	f7 f1                	div    %ecx
  30505f:	89 fa                	mov    %edi,%edx
  305061:	83 c4 1c             	add    $0x1c,%esp
  305064:	5b                   	pop    %ebx
  305065:	5e                   	pop    %esi
  305066:	5f                   	pop    %edi
  305067:	5d                   	pop    %ebp
  305068:	c3                   	ret
  305069:	8d b4 26 00 00 00 00 	lea    0x0(%esi,%eiz,1),%esi
  305070:	89 f9                	mov    %edi,%ecx
  305072:	ba 20 00 00 00       	mov    $0x20,%edx
  305077:	29 fa                	sub    %edi,%edx
  305079:	d3 e0                	shl    %cl,%eax
  30507b:	89 44 24 08          	mov    %eax,0x8(%esp)
  30507f:	89 d1                	mov    %edx,%ecx
  305081:	89 d8                	mov    %ebx,%eax
  305083:	d3 e8                	shr    %cl,%eax
  305085:	89 c1                	mov    %eax,%ecx
  305087:	8b 44 24 08          	mov    0x8(%esp),%eax
  30508b:	09 c1                	or     %eax,%ecx
  30508d:	89 f0                	mov    %esi,%eax
  30508f:	89 4c 24 08          	mov    %ecx,0x8(%esp)
  305093:	89 f9                	mov    %edi,%ecx
  305095:	d3 e3                	shl    %cl,%ebx
  305097:	89 d1                	mov    %edx,%ecx
  305099:	d3 e8                	shr    %cl,%eax
  30509b:	89 f9                	mov    %edi,%ecx
  30509d:	89 5c 24 0c          	mov    %ebx,0xc(%esp)
  3050a1:	89 eb                	mov    %ebp,%ebx
  3050a3:	d3 e6                	shl    %cl,%esi
  3050a5:	89 d1                	mov    %edx,%ecx
  3050a7:	d3 eb                	shr    %cl,%ebx
  3050a9:	09 f3                	or     %esi,%ebx
  3050ab:	89 c6                	mov    %eax,%esi
  3050ad:	89 f2                	mov    %esi,%edx
  3050af:	89 d8                	mov    %ebx,%eax
  3050b1:	f7 74 24 08          	divl   0x8(%esp)
  3050b5:	89 d6                	mov    %edx,%esi
  3050b7:	89 c3                	mov    %eax,%ebx
  3050b9:	f7 64 24 0c          	mull   0xc(%esp)
  3050bd:	39 d6                	cmp    %edx,%esi
  3050bf:	72 1f                	jb     3050e0 <__udivdi3+0x110>
  3050c1:	89 f9                	mov    %edi,%ecx
  3050c3:	d3 e5                	shl    %cl,%ebp
  3050c5:	39 c5                	cmp    %eax,%ebp
  3050c7:	73 04                	jae    3050cd <__udivdi3+0xfd>
  3050c9:	39 d6                	cmp    %edx,%esi
  3050cb:	74 13                	je     3050e0 <__udivdi3+0x110>
  3050cd:	89 d8                	mov    %ebx,%eax
  3050cf:	31 ff                	xor    %edi,%edi
  3050d1:	e9 3a ff ff ff       	jmp    305010 <__udivdi3+0x40>
  3050d6:	2e 8d b4 26 00 00 00 	lea    %cs:0x0(%esi,%eiz,1),%esi
  3050dd:	00 
  3050de:	66 90                	xchg   %ax,%ax
  3050e0:	8d 43 ff             	lea    -0x1(%ebx),%eax
  3050e3:	31 ff                	xor    %edi,%edi
  3050e5:	e9 26 ff ff ff       	jmp    305010 <__udivdi3+0x40>
  3050ea:	66 90                	xchg   %ax,%ax
  3050ec:	66 90                	xchg   %ax,%ax
  3050ee:	66 90                	xchg   %ax,%ax

003050f0 <__umoddi3>:
  3050f0:	f3 0f 1e fb          	endbr32
  3050f4:	55                   	push   %ebp
  3050f5:	57                   	push   %edi
  3050f6:	56                   	push   %esi
  3050f7:	53                   	push   %ebx
  3050f8:	83 ec 1c             	sub    $0x1c,%esp
  3050fb:	8b 5c 24 34          	mov    0x34(%esp),%ebx
  3050ff:	8b 44 24 3c          	mov    0x3c(%esp),%eax
  305103:	8b 74 24 30          	mov    0x30(%esp),%esi
  305107:	8b 7c 24 38          	mov    0x38(%esp),%edi
  30510b:	89 da                	mov    %ebx,%edx
  30510d:	85 c0                	test   %eax,%eax
  30510f:	75 17                	jne    305128 <__umoddi3+0x38>
  305111:	39 fb                	cmp    %edi,%ebx
  305113:	73 53                	jae    305168 <__umoddi3+0x78>
  305115:	89 f0                	mov    %esi,%eax
  305117:	f7 f7                	div    %edi
  305119:	89 d0                	mov    %edx,%eax
  30511b:	31 d2                	xor    %edx,%edx
  30511d:	83 c4 1c             	add    $0x1c,%esp
  305120:	5b                   	pop    %ebx
  305121:	5e                   	pop    %esi
  305122:	5f                   	pop    %edi
  305123:	5d                   	pop    %ebp
  305124:	c3                   	ret
  305125:	8d 76 00             	lea    0x0(%esi),%esi
  305128:	89 f1                	mov    %esi,%ecx
  30512a:	39 c3                	cmp    %eax,%ebx
  30512c:	73 12                	jae    305140 <__umoddi3+0x50>
  30512e:	89 f0                	mov    %esi,%eax
  305130:	83 c4 1c             	add    $0x1c,%esp
  305133:	5b                   	pop    %ebx
  305134:	5e                   	pop    %esi
  305135:	5f                   	pop    %edi
  305136:	5d                   	pop    %ebp
  305137:	c3                   	ret
  305138:	2e 8d b4 26 00 00 00 	lea    %cs:0x0(%esi,%eiz,1),%esi
  30513f:	00 
  305140:	0f bd e8             	bsr    %eax,%ebp
  305143:	83 f5 1f             	xor    $0x1f,%ebp
  305146:	75 48                	jne    305190 <__umoddi3+0xa0>
  305148:	39 d8                	cmp    %ebx,%eax
  30514a:	0f 82 d0 00 00 00    	jb     305220 <__umoddi3+0x130>
  305150:	39 fe                	cmp    %edi,%esi
  305152:	0f 83 c8 00 00 00    	jae    305220 <__umoddi3+0x130>
  305158:	89 c8                	mov    %ecx,%eax
  30515a:	83 c4 1c             	add    $0x1c,%esp
  30515d:	5b                   	pop    %ebx
  30515e:	5e                   	pop    %esi
  30515f:	5f                   	pop    %edi
  305160:	5d                   	pop    %ebp
  305161:	c3                   	ret
  305162:	8d b6 00 00 00 00    	lea    0x0(%esi),%esi
  305168:	89 f9                	mov    %edi,%ecx
  30516a:	85 ff                	test   %edi,%edi
  30516c:	75 0b                	jne    305179 <__umoddi3+0x89>
  30516e:	b8 01 00 00 00       	mov    $0x1,%eax
  305173:	31 d2                	xor    %edx,%edx
  305175:	f7 f7                	div    %edi
  305177:	89 c1                	mov    %eax,%ecx
  305179:	89 d8                	mov    %ebx,%eax
  30517b:	31 d2                	xor    %edx,%edx
  30517d:	f7 f1                	div    %ecx
  30517f:	89 f0                	mov    %esi,%eax
  305181:	f7 f1                	div    %ecx
  305183:	89 d0                	mov    %edx,%eax
  305185:	31 d2                	xor    %edx,%edx
  305187:	eb 94                	jmp    30511d <__umoddi3+0x2d>
  305189:	8d b4 26 00 00 00 00 	lea    0x0(%esi,%eiz,1),%esi
  305190:	89 e9                	mov    %ebp,%ecx
  305192:	ba 20 00 00 00       	mov    $0x20,%edx
  305197:	29 ea                	sub    %ebp,%edx
  305199:	d3 e0                	shl    %cl,%eax
  30519b:	89 44 24 08          	mov    %eax,0x8(%esp)
  30519f:	89 d1                	mov    %edx,%ecx
  3051a1:	89 f8                	mov    %edi,%eax
  3051a3:	d3 e8                	shr    %cl,%eax
  3051a5:	89 54 24 04          	mov    %edx,0x4(%esp)
  3051a9:	8b 54 24 04          	mov    0x4(%esp),%edx
  3051ad:	89 c1                	mov    %eax,%ecx
  3051af:	8b 44 24 08          	mov    0x8(%esp),%eax
  3051b3:	09 c1                	or     %eax,%ecx
  3051b5:	89 d8                	mov    %ebx,%eax
  3051b7:	89 4c 24 08          	mov    %ecx,0x8(%esp)
  3051bb:	89 e9                	mov    %ebp,%ecx
  3051bd:	d3 e7                	shl    %cl,%edi
  3051bf:	89 d1                	mov    %edx,%ecx
  3051c1:	d3 e8                	shr    %cl,%eax
  3051c3:	89 e9                	mov    %ebp,%ecx
  3051c5:	89 7c 24 0c          	mov    %edi,0xc(%esp)
  3051c9:	d3 e3                	shl    %cl,%ebx
  3051cb:	89 c7                	mov    %eax,%edi
  3051cd:	89 d1                	mov    %edx,%ecx
  3051cf:	89 f0                	mov    %esi,%eax
  3051d1:	d3 e8                	shr    %cl,%eax
  3051d3:	89 fa                	mov    %edi,%edx
  3051d5:	89 e9                	mov    %ebp,%ecx
  3051d7:	09 d8                	or     %ebx,%eax
  3051d9:	d3 e6                	shl    %cl,%esi
  3051db:	f7 74 24 08          	divl   0x8(%esp)
  3051df:	89 d3                	mov    %edx,%ebx
  3051e1:	f7 64 24 0c          	mull   0xc(%esp)
  3051e5:	89 c7                	mov    %eax,%edi
  3051e7:	89 d1                	mov    %edx,%ecx
  3051e9:	39 d3                	cmp    %edx,%ebx
  3051eb:	72 06                	jb     3051f3 <__umoddi3+0x103>
  3051ed:	75 10                	jne    3051ff <__umoddi3+0x10f>
  3051ef:	39 c6                	cmp    %eax,%esi
  3051f1:	73 0c                	jae    3051ff <__umoddi3+0x10f>
  3051f3:	2b 44 24 0c          	sub    0xc(%esp),%eax
  3051f7:	1b 54 24 08          	sbb    0x8(%esp),%edx
  3051fb:	89 d1                	mov    %edx,%ecx
  3051fd:	89 c7                	mov    %eax,%edi
  3051ff:	89 f2                	mov    %esi,%edx
  305201:	29 fa                	sub    %edi,%edx
  305203:	19 cb                	sbb    %ecx,%ebx
  305205:	0f b6 4c 24 04       	movzbl 0x4(%esp),%ecx
  30520a:	89 d8                	mov    %ebx,%eax
  30520c:	d3 e0                	shl    %cl,%eax
  30520e:	89 e9                	mov    %ebp,%ecx
  305210:	d3 ea                	shr    %cl,%edx
  305212:	d3 eb                	shr    %cl,%ebx
  305214:	09 d0                	or     %edx,%eax
  305216:	89 da                	mov    %ebx,%edx
  305218:	83 c4 1c             	add    $0x1c,%esp
  30521b:	5b                   	pop    %ebx
  30521c:	5e                   	pop    %esi
  30521d:	5f                   	pop    %edi
  30521e:	5d                   	pop    %ebp
  30521f:	c3                   	ret
  305220:	89 da                	mov    %ebx,%edx
  305222:	89 f1                	mov    %esi,%ecx
  305224:	29 f9                	sub    %edi,%ecx
  305226:	19 c2                	sbb    %eax,%edx
  305228:	89 c8                	mov    %ecx,%eax
  30522a:	e9 2b ff ff ff       	jmp    30515a <__umoddi3+0x6a>

Déassemblage de la section .rodata :

00305230 <.rodata>:
  305230:	0a 73 65             	or     0x65(%ebx),%dh
  305233:	63 6f 73             	arpl   %ebp,0x73(%edi)
  305236:	2d 30 37 30 30       	sub    $0x30303730,%eax
  30523b:	35 63 33 2d 64       	xor    $0x642d3363,%eax
  305240:	31 33                	xor    %esi,(%ebx)
  305242:	37                   	aaa
  305243:	63 37                	arpl   %esi,(%edi)
  305245:	62 20                	bound  %esp,(%eax)
  305247:	28 63 29             	sub    %ah,0x29(%ebx)
  30524a:	20 41 69             	and    %al,0x69(%ecx)
  30524d:	72 62                	jb     3052b1 <__umoddi3+0x1c1>
  30524f:	75 73                	jne    3052c4 <__umoddi3+0x1d4>
  305251:	0a 00                	or     (%eax),%al
  305253:	68 61 6c 74 65       	push   $0x65746c61
  305258:	64 20 21             	and    %ah,%fs:(%ecx)
  30525b:	00 30                	add    %dh,(%eax)
  30525d:	78 00                	js     30525f <__umoddi3+0x16f>
  30525f:	75 6e                	jne    3052cf <__umoddi3+0x1df>
  305261:	73 75                	jae    3052d8 <__umoddi3+0x1e8>
  305263:	70 70                	jo     3052d5 <__umoddi3+0x1e5>
  305265:	6f                   	outsl  %ds:(%esi),(%dx)
  305266:	72 74                	jb     3052dc <__umoddi3+0x1ec>
  305268:	65 64 20 66 6f       	gs and %ah,%fs:0x6f(%esi)
  30526d:	72 6d                	jb     3052dc <__umoddi3+0x1ec>
  30526f:	61                   	popa
  305270:	74 20                	je     305292 <__umoddi3+0x1a2>
  305272:	61                   	popa
  305273:	72 67                	jb     3052dc <__umoddi3+0x1ec>
  305275:	20 27                	and    %ah,(%edi)
  305277:	25 63 27 0a 00       	and    $0xa2763,%eax
  30527c:	0a 49 44             	or     0x44(%ecx),%cl
  30527f:	54                   	push   %esp
  305280:	20 65 76             	and    %ah,0x76(%ebp)
  305283:	65 6e                	outsb  %gs:(%esi),(%dx)
  305285:	74 0a                	je     305291 <__umoddi3+0x1a1>
  305287:	20 2e                	and    %ch,(%esi)
  305289:	20 69 6e             	and    %ch,0x6e(%ecx)
  30528c:	74 20                	je     3052ae <__umoddi3+0x1be>
  30528e:	20 20                	and    %ah,(%eax)
  305290:	20 23                	and    %ah,(%ebx)
  305292:	25 64 0a 20 2e       	and    $0x2e200a64,%eax
  305297:	20 65 72             	and    %ah,0x72(%ebp)
  30529a:	72 6f                	jb     30530b <__umoddi3+0x21b>
  30529c:	72 20                	jb     3052be <__umoddi3+0x1ce>
  30529e:	20 30                	and    %dh,(%eax)
  3052a0:	78 25                	js     3052c7 <__umoddi3+0x1d7>
  3052a2:	78 0a                	js     3052ae <__umoddi3+0x1be>
  3052a4:	20 2e                	and    %ch,(%esi)
  3052a6:	20 63 73             	and    %ah,0x73(%ebx)
  3052a9:	3a 65 69             	cmp    0x69(%ebp),%ah
  3052ac:	70 20                	jo     3052ce <__umoddi3+0x1de>
  3052ae:	30 78 25             	xor    %bh,0x25(%eax)
  3052b1:	78 3a                	js     3052ed <__umoddi3+0x1fd>
  3052b3:	30 78 25             	xor    %bh,0x25(%eax)
  3052b6:	78 0a                	js     3052c2 <__umoddi3+0x1d2>
  3052b8:	20 2e                	and    %ch,(%esi)
  3052ba:	20 73 73             	and    %dh,0x73(%ebx)
  3052bd:	3a 65 73             	cmp    0x73(%ebp),%ah
  3052c0:	70 20                	jo     3052e2 <__umoddi3+0x1f2>
  3052c2:	30 78 25             	xor    %bh,0x25(%eax)
  3052c5:	78 3a                	js     305301 <__umoddi3+0x211>
  3052c7:	30 78 25             	xor    %bh,0x25(%eax)
  3052ca:	78 0a                	js     3052d6 <__umoddi3+0x1e6>
  3052cc:	20 2e                	and    %ch,(%esi)
  3052ce:	20 65 66             	and    %ah,0x66(%ebp)
  3052d1:	6c                   	insb   (%dx),%es:(%edi)
  3052d2:	61                   	popa
  3052d3:	67 73 20             	addr16 jae 3052f6 <__umoddi3+0x206>
  3052d6:	30 78 25             	xor    %bh,0x25(%eax)
  3052d9:	78 0a                	js     3052e5 <__umoddi3+0x1f5>
  3052db:	0a 2d 20 47 50 52    	or     0x52504720,%ch
  3052e1:	0a 65 61             	or     0x61(%ebp),%ah
  3052e4:	78 20                	js     305306 <__umoddi3+0x216>
  3052e6:	20 20                	and    %ah,(%eax)
  3052e8:	20 20                	and    %ah,(%eax)
  3052ea:	3a 20                	cmp    (%eax),%ah
  3052ec:	30 78 25             	xor    %bh,0x25(%eax)
  3052ef:	78 0a                	js     3052fb <__umoddi3+0x20b>
  3052f1:	65 63 78 20          	arpl   %edi,%gs:0x20(%eax)
  3052f5:	20 20                	and    %ah,(%eax)
  3052f7:	20 20                	and    %ah,(%eax)
  3052f9:	3a 20                	cmp    (%eax),%ah
  3052fb:	30 78 25             	xor    %bh,0x25(%eax)
  3052fe:	78 0a                	js     30530a <__umoddi3+0x21a>
  305300:	65 64 78 20          	gs fs js 305324 <__umoddi3+0x234>
  305304:	20 20                	and    %ah,(%eax)
  305306:	20 20                	and    %ah,(%eax)
  305308:	3a 20                	cmp    (%eax),%ah
  30530a:	30 78 25             	xor    %bh,0x25(%eax)
  30530d:	78 0a                	js     305319 <__umoddi3+0x229>
  30530f:	65 62 78 20          	bound  %edi,%gs:0x20(%eax)
  305313:	20 20                	and    %ah,(%eax)
  305315:	20 20                	and    %ah,(%eax)
  305317:	3a 20                	cmp    (%eax),%ah
  305319:	30 78 25             	xor    %bh,0x25(%eax)
  30531c:	78 0a                	js     305328 <__umoddi3+0x238>
  30531e:	65 73 70             	gs jae 305391 <__umoddi3+0x2a1>
  305321:	20 20                	and    %ah,(%eax)
  305323:	20 20                	and    %ah,(%eax)
  305325:	20 3a                	and    %bh,(%edx)
  305327:	20 30                	and    %dh,(%eax)
  305329:	78 25                	js     305350 <__umoddi3+0x260>
  30532b:	78 0a                	js     305337 <__umoddi3+0x247>
  30532d:	65 62 70 20          	bound  %esi,%gs:0x20(%eax)
  305331:	20 20                	and    %ah,(%eax)
  305333:	20 20                	and    %ah,(%eax)
  305335:	3a 20                	cmp    (%eax),%ah
  305337:	30 78 25             	xor    %bh,0x25(%eax)
  30533a:	78 0a                	js     305346 <__umoddi3+0x256>
  30533c:	65 73 69             	gs jae 3053a8 <__umoddi3+0x2b8>
  30533f:	20 20                	and    %ah,(%eax)
  305341:	20 20                	and    %ah,(%eax)
  305343:	20 3a                	and    %bh,(%edx)
  305345:	20 30                	and    %dh,(%eax)
  305347:	78 25                	js     30536e <__umoddi3+0x27e>
  305349:	78 0a                	js     305355 <__umoddi3+0x265>
  30534b:	65 64 69 20 20 20 20 	gs imul $0x20202020,%fs:(%eax),%esp
  305352:	20 
  305353:	3a 20                	cmp    (%eax),%ah
  305355:	30 78 25             	xor    %bh,0x25(%eax)
  305358:	78 0a                	js     305364 <__umoddi3+0x274>
  30535a:	00 69 67             	add    %ch,0x67(%ecx)
  30535d:	6e                   	outsb  %ds:(%esi),(%dx)
  30535e:	6f                   	outsl  %ds:(%esi),(%dx)
  30535f:	72 65                	jb     3053c6 <__umoddi3+0x2d6>
  305361:	20 49 52             	and    %cl,0x52(%ecx)
  305364:	51                   	push   %ecx
  305365:	20 25 64 0a 00 00    	and    %ah,0xa64
  30536b:	00 44 69 76          	add    %al,0x76(%ecx,%ebp,2)
  30536f:	69 64 65 20 62 79 20 	imul   $0x7a207962,0x20(%ebp,%eiz,2),%esp
  305376:	7a 
  305377:	65 72 6f             	gs jb  3053e9 <__umoddi3+0x2f9>
  30537a:	00 44 65 62          	add    %al,0x62(%ebp,%eiz,2)
  30537e:	75 67                	jne    3053e7 <__umoddi3+0x2f7>
  305380:	00 4e 4d             	add    %cl,0x4d(%esi)
  305383:	49                   	dec    %ecx
  305384:	20 69 6e             	and    %ch,0x6e(%ecx)
  305387:	74 65                	je     3053ee <__umoddi3+0x2fe>
  305389:	72 72                	jb     3053fd <__umoddi3+0x30d>
  30538b:	75 70                	jne    3053fd <__umoddi3+0x30d>
  30538d:	74 00                	je     30538f <__umoddi3+0x29f>
  30538f:	42                   	inc    %edx
  305390:	72 65                	jb     3053f7 <__umoddi3+0x307>
  305392:	61                   	popa
  305393:	6b 70 6f 69          	imul   $0x69,0x6f(%eax),%esi
  305397:	6e                   	outsb  %ds:(%esi),(%dx)
  305398:	74 00                	je     30539a <__umoddi3+0x2aa>
  30539a:	4f                   	dec    %edi
  30539b:	76 65                	jbe    305402 <__umoddi3+0x312>
  30539d:	72 66                	jb     305405 <__umoddi3+0x315>
  30539f:	6c                   	insb   (%dx),%es:(%edi)
  3053a0:	6f                   	outsl  %ds:(%esi),(%dx)
  3053a1:	77 00                	ja     3053a3 <__umoddi3+0x2b3>
  3053a3:	42                   	inc    %edx
  3053a4:	4f                   	dec    %edi
  3053a5:	55                   	push   %ebp
  3053a6:	4e                   	dec    %esi
  3053a7:	44                   	inc    %esp
  3053a8:	20 72 61             	and    %dh,0x61(%edx)
  3053ab:	6e                   	outsb  %ds:(%esi),(%dx)
  3053ac:	67 65 20 65 78       	and    %ah,%gs:0x78(%di)
  3053b1:	63 65 65             	arpl   %esp,0x65(%ebp)
  3053b4:	64 65 64 00 49 6e    	fs gs add %cl,%fs:0x6e(%ecx)
  3053ba:	76 61                	jbe    30541d <__umoddi3+0x32d>
  3053bc:	6c                   	insb   (%dx),%es:(%edi)
  3053bd:	69 64 20 4f 70 63 6f 	imul   $0x646f6370,0x4f(%eax,%eiz,1),%esp
  3053c4:	64 
  3053c5:	65 00 44 65 76       	add    %al,%gs:0x76(%ebp,%eiz,2)
  3053ca:	69 63 65 20 6e 6f 74 	imul   $0x746f6e20,0x65(%ebx),%esp
  3053d1:	20 61 76             	and    %ah,0x76(%ecx)
  3053d4:	61                   	popa
  3053d5:	69 6c 61 62 6c 65 00 	imul   $0x4400656c,0x62(%ecx,%eiz,2),%ebp
  3053dc:	44 
  3053dd:	6f                   	outsl  %ds:(%esi),(%dx)
  3053de:	75 62                	jne    305442 <__umoddi3+0x352>
  3053e0:	6c                   	insb   (%dx),%es:(%edi)
  3053e1:	65 20 66 61          	and    %ah,%gs:0x61(%esi)
  3053e5:	75 6c                	jne    305453 <__umoddi3+0x363>
  3053e7:	74 00                	je     3053e9 <__umoddi3+0x2f9>
  3053e9:	43                   	inc    %ebx
  3053ea:	6f                   	outsl  %ds:(%esi),(%dx)
  3053eb:	70 72                	jo     30545f <__umoddi3+0x36f>
  3053ed:	6f                   	outsl  %ds:(%esi),(%dx)
  3053ee:	63 65 73             	arpl   %esp,0x73(%ebp)
  3053f1:	73 6f                	jae    305462 <__umoddi3+0x372>
  3053f3:	72 20                	jb     305415 <__umoddi3+0x325>
  3053f5:	73 65                	jae    30545c <__umoddi3+0x36c>
  3053f7:	67 6d                	insl   (%dx),%es:(%di)
  3053f9:	65 6e                	outsb  %gs:(%esi),(%dx)
  3053fb:	74 20                	je     30541d <__umoddi3+0x32d>
  3053fd:	6f                   	outsl  %ds:(%esi),(%dx)
  3053fe:	76 65                	jbe    305465 <__umoddi3+0x375>
  305400:	72 72                	jb     305474 <__umoddi3+0x384>
  305402:	75 6e                	jne    305472 <__umoddi3+0x382>
  305404:	00 49 6e             	add    %cl,0x6e(%ecx)
  305407:	76 61                	jbe    30546a <__umoddi3+0x37a>
  305409:	6c                   	insb   (%dx),%es:(%edi)
  30540a:	69 64 20 54 53 53 00 	imul   $0x53005353,0x54(%eax,%eiz,1),%esp
  305411:	53 
  305412:	65 67 6d             	gs insl (%dx),%es:(%di)
  305415:	65 6e                	outsb  %gs:(%esi),(%dx)
  305417:	74 20                	je     305439 <__umoddi3+0x349>
  305419:	6e                   	outsb  %ds:(%esi),(%dx)
  30541a:	6f                   	outsl  %ds:(%esi),(%dx)
  30541b:	74 20                	je     30543d <__umoddi3+0x34d>
  30541d:	70 72                	jo     305491 <__umoddi3+0x3a1>
  30541f:	65 73 65             	gs jae 305487 <__umoddi3+0x397>
  305422:	6e                   	outsb  %ds:(%esi),(%dx)
  305423:	74 00                	je     305425 <__umoddi3+0x335>
  305425:	53                   	push   %ebx
  305426:	74 61                	je     305489 <__umoddi3+0x399>
  305428:	63 6b 20             	arpl   %ebp,0x20(%ebx)
  30542b:	66 61                	popaw
  30542d:	75 6c                	jne    30549b <__umoddi3+0x3ab>
  30542f:	74 00                	je     305431 <__umoddi3+0x341>
  305431:	47                   	inc    %edi
  305432:	65 6e                	outsb  %gs:(%esi),(%dx)
  305434:	65 72 61             	gs jb  305498 <__umoddi3+0x3a8>
  305437:	6c                   	insb   (%dx),%es:(%edi)
  305438:	20 70 72             	and    %dh,0x72(%eax)
  30543b:	6f                   	outsl  %ds:(%esi),(%dx)
  30543c:	74 65                	je     3054a3 <__umoddi3+0x3b3>
  30543e:	63 74 69 6f          	arpl   %esi,0x6f(%ecx,%ebp,2)
  305442:	6e                   	outsb  %ds:(%esi),(%dx)
  305443:	00 50 61             	add    %dl,0x61(%eax)
  305446:	67 65 20 66 61       	and    %ah,%gs:0x61(%bp)
  30544b:	75 6c                	jne    3054b9 <__umoddi3+0x3c9>
  30544d:	74 00                	je     30544f <__umoddi3+0x35f>
  30544f:	49                   	dec    %ecx
  305450:	6e                   	outsb  %ds:(%esi),(%dx)
  305451:	74 65                	je     3054b8 <__umoddi3+0x3c8>
  305453:	6c                   	insb   (%dx),%es:(%edi)
  305454:	20 52 65             	and    %dl,0x65(%edx)
  305457:	73 65                	jae    3054be <__umoddi3+0x3ce>
  305459:	72 76                	jb     3054d1 <__umoddi3+0x3e1>
  30545b:	65 64 00 46 6c       	gs add %al,%fs:0x6c(%esi)
  305460:	6f                   	outsl  %ds:(%esi),(%dx)
  305461:	61                   	popa
  305462:	74 69                	je     3054cd <__umoddi3+0x3dd>
  305464:	6e                   	outsb  %ds:(%esi),(%dx)
  305465:	67 20 70 6f          	and    %dh,0x6f(%bx,%si)
  305469:	69 6e 74 20 65 72 72 	imul   $0x72726520,0x74(%esi),%ebp
  305470:	6f                   	outsl  %ds:(%esi),(%dx)
  305471:	72 00                	jb     305473 <__umoddi3+0x383>
  305473:	41                   	inc    %ecx
  305474:	6c                   	insb   (%dx),%es:(%edi)
  305475:	69 67 6e 6d 65 6e 74 	imul   $0x746e656d,0x6e(%edi),%esp
  30547c:	20 63 68             	and    %ah,0x68(%ebx)
  30547f:	65 63 6b 00          	arpl   %ebp,%gs:0x0(%ebx)
  305483:	4d                   	dec    %ebp
  305484:	61                   	popa
  305485:	63 68 69             	arpl   %ebp,0x69(%eax)
  305488:	6e                   	outsb  %ds:(%esi),(%dx)
  305489:	65 20 63 68          	and    %ah,%gs:0x68(%ebx)
  30548d:	65 63 6b 00          	arpl   %ebp,%gs:0x0(%ebx)
  305491:	53                   	push   %ebx
  305492:	49                   	dec    %ecx
  305493:	4d                   	dec    %ebp
  305494:	44                   	inc    %esp
  305495:	20 66 6c             	and    %ah,0x6c(%esi)
  305498:	6f                   	outsl  %ds:(%esi),(%dx)
  305499:	61                   	popa
  30549a:	74 69                	je     305505 <__umoddi3+0x415>
  30549c:	6e                   	outsb  %ds:(%esi),(%dx)
  30549d:	67 20 70 6f          	and    %dh,0x6f(%bx,%si)
  3054a1:	69 6e 74 00 0a 45 78 	imul   $0x78450a00,0x74(%esi),%ebp
  3054a8:	63 65 70             	arpl   %esp,0x70(%ebp)
  3054ab:	74 69                	je     305516 <__umoddi3+0x426>
  3054ad:	6f                   	outsl  %ds:(%esi),(%dx)
  3054ae:	6e                   	outsb  %ds:(%esi),(%dx)
  3054af:	3a 20                	cmp    (%eax),%ah
  3054b1:	25 73 0a 00 23       	and    $0x23000a73,%eax
  3054b6:	4e                   	dec    %esi
  3054b7:	4d                   	dec    %ebp
  3054b8:	49                   	dec    %ecx
  3054b9:	20 28                	and    %ch,(%eax)
  3054bb:	69 67 6e 6f 72 65 64 	imul   $0x6465726f,0x6e(%edi),%esp
  3054c2:	29 0a                	sub    %ecx,(%edx)
  3054c4:	00 00                	add    %al,(%eax)
  3054c6:	00 00                	add    %al,(%eax)
  3054c8:	23 50 46             	and    0x46(%eax),%edx
  3054cb:	20 64 65 74          	and    %ah,0x74(%ebp,%eiz,2)
  3054cf:	61                   	popa
  3054d0:	69 6c 73 3a 20 70 3a 	imul   $0x253a7020,0x3a(%ebx,%esi,2),%ebp
  3054d7:	25 
  3054d8:	64 20 77 72          	and    %dh,%fs:0x72(%edi)
  3054dc:	3a 25 64 20 75 73    	cmp    0x73752064,%ah
  3054e2:	3a 25 64 20 69 64    	cmp    0x64692064,%ah
  3054e8:	3a 25 64 20 61 64    	cmp    0x64612064,%ah
  3054ee:	64 72 20             	fs jb  305511 <__umoddi3+0x421>
  3054f1:	30 78 25             	xor    %bh,0x25(%eax)
  3054f4:	78 0a                	js     305500 <__umoddi3+0x410>
  3054f6:	00 00                	add    %al,(%eax)
  3054f8:	23 47 50             	and    0x50(%edi),%eax
  3054fb:	20 64 65 74          	and    %ah,0x74(%ebp,%eiz,2)
  3054ff:	61                   	popa
  305500:	69 6c 73 3a 20 65 78 	imul   $0x74786520,0x3a(%ebx,%esi,2),%ebp
  305507:	74 
  305508:	3a 25 64 20 69 64    	cmp    0x64692064,%ah
  30550e:	74 3a                	je     30554a <__umoddi3+0x45a>
  305510:	25 64 20 74 69       	and    $0x69742064,%eax
  305515:	3a 25 64 20 69 6e    	cmp    0x6e692064,%ah
  30551b:	64 65 78 3a          	fs gs js 305559 <__umoddi3+0x469>
  30551f:	25 64 0a 00 63       	and    $0x63000a64,%eax
  305524:	72 30                	jb     305556 <__umoddi3+0x466>
  305526:	20 3d 20 25 70 0a    	and    %bh,0xa702520
  30552c:	00 63 72             	add    %ah,0x72(%ebx)
  30552f:	33 20                	xor    (%eax),%esp
  305531:	3d 20 25 70 0a       	cmp    $0xa702520,%eax
  305536:	00 63 72             	add    %ah,0x72(%ebx)
  305539:	34 20                	xor    $0x20,%al
  30553b:	3d 20 25 70 0a       	cmp    $0xa702520,%eax
  305540:	00 66 61             	add    %ah,0x61(%esi)
  305543:	74 61                	je     3055a6 <__umoddi3+0x4b6>
  305545:	6c                   	insb   (%dx),%es:(%edi)
  305546:	20 65 78             	and    %ah,0x78(%ebp)
  305549:	63 65 70             	arpl   %esp,0x70(%ebp)
  30554c:	74 69                	je     3055b7 <__umoddi3+0x4c7>
  30554e:	6f                   	outsl  %ds:(%esi),(%dx)
  30554f:	6e                   	outsb  %ds:(%esi),(%dx)
  305550:	20 21                	and    %ah,(%ecx)
  305552:	0a 00                	or     (%eax),%al
  305554:	0a 2d 3d 20 53 74    	or     0x7453203d,%ch
  30555a:	61                   	popa
  30555b:	63 6b 20             	arpl   %ebp,0x20(%ebx)
  30555e:	54                   	push   %esp
  30555f:	72 61                	jb     3055c2 <__umoddi3+0x4d2>
  305561:	63 65 20             	arpl   %esp,0x20(%ebp)
  305564:	3d 2d 0a 00 25       	cmp    $0x25000a2d,%eax
  305569:	70 0a                	jo     305575 <__umoddi3+0x485>
  30556b:	00 0a                	add    %cl,(%edx)
  30556d:	49                   	dec    %ecx
  30556e:	44                   	inc    %esp
  30556f:	54                   	push   %esp
  305570:	20 65 76             	and    %ah,0x76(%ebp)
  305573:	65 6e                	outsb  %gs:(%esi),(%dx)
  305575:	74 0a                	je     305581 <__umoddi3+0x491>
  305577:	20 2e                	and    %ch,(%esi)
  305579:	20 69 6e             	and    %ch,0x6e(%ecx)
  30557c:	74 20                	je     30559e <__umoddi3+0x4ae>
  30557e:	20 20                	and    %ah,(%eax)
  305580:	20 23                	and    %ah,(%ebx)
  305582:	25 64 0a 20 2e       	and    $0x2e200a64,%eax
  305587:	20 65 72             	and    %ah,0x72(%ebp)
  30558a:	72 6f                	jb     3055fb <__umoddi3+0x50b>
  30558c:	72 20                	jb     3055ae <__umoddi3+0x4be>
  30558e:	20 30                	and    %dh,(%eax)
  305590:	78 25                	js     3055b7 <__umoddi3+0x4c7>
  305592:	78 0a                	js     30559e <__umoddi3+0x4ae>
  305594:	20 2e                	and    %ch,(%esi)
  305596:	20 63 73             	and    %ah,0x73(%ebx)
  305599:	3a 65 69             	cmp    0x69(%ebp),%ah
  30559c:	70 20                	jo     3055be <__umoddi3+0x4ce>
  30559e:	30 78 25             	xor    %bh,0x25(%eax)
  3055a1:	78 3a                	js     3055dd <__umoddi3+0x4ed>
  3055a3:	30 78 25             	xor    %bh,0x25(%eax)
  3055a6:	78 0a                	js     3055b2 <__umoddi3+0x4c2>
  3055a8:	20 2e                	and    %ch,(%esi)
  3055aa:	20 73 73             	and    %dh,0x73(%ebx)
  3055ad:	3a 65 73             	cmp    0x73(%ebp),%ah
  3055b0:	70 20                	jo     3055d2 <__umoddi3+0x4e2>
  3055b2:	30 78 25             	xor    %bh,0x25(%eax)
  3055b5:	78 3a                	js     3055f1 <__umoddi3+0x501>
  3055b7:	30 78 25             	xor    %bh,0x25(%eax)
  3055ba:	78 0a                	js     3055c6 <__umoddi3+0x4d6>
  3055bc:	20 2e                	and    %ch,(%esi)
  3055be:	20 65 66             	and    %ah,0x66(%ebp)
  3055c1:	6c                   	insb   (%dx),%es:(%edi)
  3055c2:	61                   	popa
  3055c3:	67 73 20             	addr16 jae 3055e6 <__umoddi3+0x4f6>
  3055c6:	30 78 25             	xor    %bh,0x25(%eax)
  3055c9:	78 0a                	js     3055d5 <__umoddi3+0x4e5>
  3055cb:	0a 2d 20 47 50 52    	or     0x52504720,%ch
  3055d1:	0a 65 61             	or     0x61(%ebp),%ah
  3055d4:	78 20                	js     3055f6 <__umoddi3+0x506>
  3055d6:	20 20                	and    %ah,(%eax)
  3055d8:	20 20                	and    %ah,(%eax)
  3055da:	3a 20                	cmp    (%eax),%ah
  3055dc:	30 78 25             	xor    %bh,0x25(%eax)
  3055df:	78 0a                	js     3055eb <__umoddi3+0x4fb>
  3055e1:	65 63 78 20          	arpl   %edi,%gs:0x20(%eax)
  3055e5:	20 20                	and    %ah,(%eax)
  3055e7:	20 20                	and    %ah,(%eax)
  3055e9:	3a 20                	cmp    (%eax),%ah
  3055eb:	30 78 25             	xor    %bh,0x25(%eax)
  3055ee:	78 0a                	js     3055fa <__umoddi3+0x50a>
  3055f0:	65 64 78 20          	gs fs js 305614 <__umoddi3+0x524>
  3055f4:	20 20                	and    %ah,(%eax)
  3055f6:	20 20                	and    %ah,(%eax)
  3055f8:	3a 20                	cmp    (%eax),%ah
  3055fa:	30 78 25             	xor    %bh,0x25(%eax)
  3055fd:	78 0a                	js     305609 <__umoddi3+0x519>
  3055ff:	65 62 78 20          	bound  %edi,%gs:0x20(%eax)
  305603:	20 20                	and    %ah,(%eax)
  305605:	20 20                	and    %ah,(%eax)
  305607:	3a 20                	cmp    (%eax),%ah
  305609:	30 78 25             	xor    %bh,0x25(%eax)
  30560c:	78 0a                	js     305618 <__umoddi3+0x528>
  30560e:	65 73 70             	gs jae 305681 <__umoddi3+0x591>
  305611:	20 20                	and    %ah,(%eax)
  305613:	20 20                	and    %ah,(%eax)
  305615:	20 3a                	and    %bh,(%edx)
  305617:	20 30                	and    %dh,(%eax)
  305619:	78 25                	js     305640 <__umoddi3+0x550>
  30561b:	78 0a                	js     305627 <__umoddi3+0x537>
  30561d:	65 62 70 20          	bound  %esi,%gs:0x20(%eax)
  305621:	20 20                	and    %ah,(%eax)
  305623:	20 20                	and    %ah,(%eax)
  305625:	3a 20                	cmp    (%eax),%ah
  305627:	30 78 25             	xor    %bh,0x25(%eax)
  30562a:	78 0a                	js     305636 <__umoddi3+0x546>
  30562c:	65 73 69             	gs jae 305698 <__umoddi3+0x5a8>
  30562f:	20 20                	and    %ah,(%eax)
  305631:	20 20                	and    %ah,(%eax)
  305633:	20 3a                	and    %bh,(%edx)
  305635:	20 30                	and    %dh,(%eax)
  305637:	78 25                	js     30565e <__umoddi3+0x56e>
  305639:	78 0a                	js     305645 <__umoddi3+0x555>
  30563b:	65 64 69 20 20 20 20 	gs imul $0x20202020,%fs:(%eax),%esp
  305642:	20 
  305643:	3a 20                	cmp    (%eax),%ah
  305645:	30 78 25             	xor    %bh,0x25(%eax)
  305648:	78 0a                	js     305654 <__umoddi3+0x564>
  30564a:	00 65 62             	add    %ah,0x62(%ebp)
  30564d:	70 3a                	jo     305689 <__umoddi3+0x599>
  30564f:	20 30                	and    %dh,(%eax)
  305651:	78 25                	js     305678 <__umoddi3+0x588>
  305653:	78 0a                	js     30565f <__umoddi3+0x56f>
  305655:	00 78 00             	add    %bh,0x0(%eax)
  305658:	69 64 65 6e 74 69 74 	imul   $0x79746974,0x6e(%ebp,%eiz,2),%esp
  30565f:	79 
  305660:	20 6d 61             	and    %ch,0x61(%ebp)
  305663:	70 70                	jo     3056d5 <__umoddi3+0x5e5>
  305665:	69 6e 67 20 66 72 6f 	imul   $0x6f726620,0x67(%esi),%ebp
  30566c:	6d                   	insl   (%dx),%es:(%edi)
  30566d:	20 30                	and    %dh,(%eax)
  30566f:	78 25                	js     305696 <__umoddi3+0x5a6>
  305671:	78 20                	js     305693 <__umoddi3+0x5a3>
  305673:	74 6f                	je     3056e4 <__hextable>
  305675:	20 30                	and    %dh,(%eax)
  305677:	78 25                	js     30569e <__umoddi3+0x5ae>
  305679:	78 20                	js     30569b <__umoddi3+0x5ab>
  30567b:	0a 00                	or     (%eax),%al
  30567d:	00 00                	add    %al,(%eax)
  30567f:	00 74 61 73          	add    %dh,0x73(%ecx,%eiz,2)
  305683:	6b 20 31             	imul   $0x31,(%eax),%esp
  305686:	20 6d 61             	and    %ch,0x61(%ebp)
  305689:	70 70                	jo     3056fb <__hextable+0x17>
  30568b:	69 6e 67 20 66 72 6f 	imul   $0x6f726620,0x67(%esi),%ebp
  305692:	6d                   	insl   (%dx),%es:(%edi)
  305693:	20 30                	and    %dh,(%eax)
  305695:	78 25                	js     3056bc <__umoddi3+0x5cc>
  305697:	78 20                	js     3056b9 <__umoddi3+0x5c9>
  305699:	74 6f                	je     30570a <exception_names+0xa>
  30569b:	20 30                	and    %dh,(%eax)
  30569d:	78 25                	js     3056c4 <__umoddi3+0x5d4>
  30569f:	78 20                	js     3056c1 <__umoddi3+0x5d1>
  3056a1:	0a 00                	or     (%eax),%al
  3056a3:	00 74 61 73          	add    %dh,0x73(%ecx,%eiz,2)
  3056a7:	6b 20 32             	imul   $0x32,(%eax),%esp
  3056aa:	20 6d 61             	and    %ch,0x61(%ebp)
  3056ad:	70 70                	jo     30571f <exception_names+0x1f>
  3056af:	69 6e 67 20 66 72 6f 	imul   $0x6f726620,0x67(%esi),%ebp
  3056b6:	6d                   	insl   (%dx),%es:(%edi)
  3056b7:	20 30                	and    %dh,(%eax)
  3056b9:	78 25                	js     3056e0 <info>
  3056bb:	78 20                	js     3056dd <__umoddi3+0x5ed>
  3056bd:	74 6f                	je     30572e <exception_names+0x2e>
  3056bf:	20 30                	and    %dh,(%eax)
  3056c1:	78 25                	js     3056e8 <__hextable+0x4>
  3056c3:	78 20                	js     3056e5 <__hextable+0x1>
  3056c5:	0a 00                	or     (%eax),%al
  3056c7:	70 61                	jo     30572a <exception_names+0x2a>
  3056c9:	67 69 6e 61 74 69 6f 	imul   $0x6e6f6974,0x61(%bp),%ebp
  3056d0:	6e 
  3056d1:	20 65 6e             	and    %ah,0x6e(%ebp)
  3056d4:	61                   	popa
  3056d5:	62 6c 65 64          	bound  %ebp,0x64(%ebp,%eiz,2)
  3056d9:	0a 00                	or     (%eax),%al

Déassemblage de la section .data :

003056e0 <info>:
  3056e0:	80 57 30 00          	adcb   $0x0,0x30(%edi)

003056e4 <__hextable>:
  3056e4:	30 31                	xor    %dh,(%ecx)
  3056e6:	32 33                	xor    (%ebx),%dh
  3056e8:	34 35                	xor    $0x35,%al
  3056ea:	36 37                	ss aaa
  3056ec:	38 39                	cmp    %bh,(%ecx)
  3056ee:	61                   	popa
  3056ef:	62 63 64             	bound  %esp,0x64(%ebx)
  3056f2:	65 66 00 00          	data16 add %al,%gs:(%eax)
	...

00305700 <exception_names>:
  305700:	6c                   	insb   (%dx),%es:(%edi)
  305701:	53                   	push   %ebx
  305702:	30 00                	xor    %al,(%eax)
  305704:	7b 53                	jnp    305759 <pgd_task_1+0x1>
  305706:	30 00                	xor    %al,(%eax)
  305708:	81 53 30 00 8f 53 30 	adcl   $0x30538f00,0x30(%ebx)
  30570f:	00 9a 53 30 00 a3    	add    %bl,-0x5cffcfad(%edx)
  305715:	53                   	push   %ebx
  305716:	30 00                	xor    %al,(%eax)
  305718:	b8 53 30 00 c7       	mov    $0xc7003053,%eax
  30571d:	53                   	push   %ebx
  30571e:	30 00                	xor    %al,(%eax)
  305720:	dc 53 30             	fcoml  0x30(%ebx)
  305723:	00 e9                	add    %ch,%cl
  305725:	53                   	push   %ebx
  305726:	30 00                	xor    %al,(%eax)
  305728:	05 54 30 00 11       	add    $0x11003054,%eax
  30572d:	54                   	push   %esp
  30572e:	30 00                	xor    %al,(%eax)
  305730:	25 54 30 00 31       	and    $0x31003054,%eax
  305735:	54                   	push   %esp
  305736:	30 00                	xor    %al,(%eax)
  305738:	44                   	inc    %esp
  305739:	54                   	push   %esp
  30573a:	30 00                	xor    %al,(%eax)
  30573c:	4f                   	dec    %edi
  30573d:	54                   	push   %esp
  30573e:	30 00                	xor    %al,(%eax)
  305740:	5e                   	pop    %esi
  305741:	54                   	push   %esp
  305742:	30 00                	xor    %al,(%eax)
  305744:	73 54                	jae    30579a <__info+0x1a>
  305746:	30 00                	xor    %al,(%eax)
  305748:	83 54 30 00 91       	adcl   $0xffffff91,0x0(%eax,%esi,1)
  30574d:	54                   	push   %esp
  30574e:	30 00                	xor    %al,(%eax)

00305750 <pgd>:
  305750:	00 00                	add    %al,(%eax)
  305752:	35 00          	xor    $0x35100000,%eax

00305754 <pgd_ptb>:
  305754:	00 10                	add    %dl,(%eax)
  305756:	35 00          	xor    $0x35200000,%eax

00305758 <pgd_task_1>:
  305758:	00 20                	add    %ah,(%eax)
  30575a:	35 00          	xor    $0x35300000,%eax

0030575c <pgd_task_1_ptb_0>:
  30575c:	00 30                	add    %dh,(%eax)
  30575e:	35 00          	xor    $0x35400000,%eax

00305760 <pgd_task_1_ptb_1>:
  305760:	00 40 35             	add    %al,0x35(%eax)
	...

00305764 <pgd_task_1_ptb_2>:
  305764:	00 50 35             	add    %dl,0x35(%eax)
	...

00305768 <pgd_task_2>:
  305768:	00 60 35             	add    %ah,0x35(%eax)
	...

0030576c <pgd_task_2_ptb_0>:
  30576c:	00 70 35             	add    %dh,0x35(%eax)
	...

00305770 <pgd_task_2_ptb_1>:
  305770:	00 80 35 00      	add    %al,-0x6fffffcb(%eax)

00305774 <pgd_task_2_ptb_2>:
  305774:	00 90 35 00      	add    %dl,0x3ffc0035(%eax)

00305778 <task1_stack_base>:
  305778:	fc                   	cld
  305779:	3f                   	aas
  30577a:	40                   	inc    %eax
	...

0030577c <task2_stack_base>:
  30577c:	fc                   	cld
  30577d:	3f                   	aas
  30577e:	80                   	.byte 0x80
	...

Déassemblage de la section .task1_stack :

00400000 <task1_stack>:
	...

Déassemblage de la section .task1_code :

00404000 <task1_function>:
  404000:	55                   	push   %ebp
  404001:	89 e5                	mov    %esp,%ebp
  404003:	90                   	nop
  404004:	eb fd                	jmp    404003 <task1_function+0x3>
  404006:	66 90                	xchg   %ax,%ax

Déassemblage de la section .task2_stack :

00800000 <task2_stack>:
	...

Déassemblage de la section .task2_code :

00804000 <task2_function>:
  804000:	55                   	push   %ebp
  804001:	89 e5                	mov    %esp,%ebp
  804003:	90                   	nop
  804004:	eb fd                	jmp    804003 <task2_function+0x3>
  804006:	66 90                	xchg   %ax,%ax

Déassemblage de la section .debug_line :

00000000 <.debug_line>:
   0:	4c                   	dec    %esp
   1:	00 00                	add    %al,(%eax)
   3:	00 05 00 04 00 2e    	add    %al,0x2e000400
   9:	00 00                	add    %al,(%eax)
   b:	00 01                	add    %al,(%ecx)
   d:	01 01                	add    %eax,(%ecx)
   f:	fb                   	sti
  10:	0e                   	push   %cs
  11:	0d 00 01 01 01       	or     $0x1010100,%eax
  16:	01 00                	add    %eax,(%eax)
  18:	00 00                	add    %al,(%eax)
  1a:	01 00                	add    %eax,(%eax)
  1c:	00 01                	add    %al,(%ecx)
  1e:	01 01                	add    %eax,(%ecx)
  20:	1f                   	pop    %ds
  21:	02 00                	add    (%eax),%al
  23:	00 00                	add    %al,(%eax)
  25:	00 25 00 00 00 02    	add    %ah,0x2000000
  2b:	01 1f                	add    %ebx,(%edi)
  2d:	02 0f                	add    (%edi),%cl
  2f:	02 34 00             	add    (%eax,%eax,1),%dh
  32:	00 00                	add    %al,(%eax)
  34:	01 34 00             	add    %esi,(%eax,%eax,1)
  37:	00 00                	add    %al,(%eax)
  39:	01 00                	add    %eax,(%eax)
  3b:	05 02 10 30 30       	add    $0x30301002,%eax
  40:	00 03                	add    %al,(%ebx)
  42:	0a 01                	or     (%ecx),%al
  44:	21 59 2f             	and    %ebx,0x2f(%ecx)
  47:	21 2f                	and    %ebp,(%edi)
  49:	5b                   	pop    %ebx
  4a:	21 02                	and    %eax,(%edx)
  4c:	02 00                	add    (%eax),%al
  4e:	01 01                	add    %eax,(%ecx)
  50:	89 00                	mov    %eax,(%eax)
  52:	00 00                	add    %al,(%eax)
  54:	05 00 04 00 5f       	add    $0x5f000400,%eax
  59:	00 00                	add    %al,(%eax)
  5b:	00 01                	add    %al,(%ecx)
  5d:	01 01                	add    %eax,(%ecx)
  5f:	fb                   	sti
  60:	0e                   	push   %cs
  61:	0d 00 01 01 01       	or     $0x1010100,%eax
  66:	01 00                	add    %eax,(%eax)
  68:	00 00                	add    %al,(%eax)
  6a:	01 00                	add    %eax,(%eax)
  6c:	00 01                	add    %al,(%ecx)
  6e:	01 01                	add    %eax,(%ecx)
  70:	1f                   	pop    %ds
  71:	03 00                	add    (%eax),%eax
  73:	00 00                	add    %al,(%eax)
  75:	00 25 00 00 00 53    	add    %ah,0x53000000
  7b:	00 00                	add    %al,(%eax)
  7d:	00 02                	add    %al,(%edx)
  7f:	01 1f                	add    %ebx,(%edi)
  81:	02 0f                	add    (%edi),%cl
  83:	0b 4b 00             	or     0x0(%ebx),%ecx
  86:	00 00                	add    %al,(%eax)
  88:	01 4b 00             	add    %ecx,0x0(%ebx)
  8b:	00 00                	add    %al,(%eax)
  8d:	01 65 00             	add    %esp,0x0(%ebp)
  90:	00 00                	add    %al,(%eax)
  92:	02 6d 00             	add    0x0(%ebp),%ch
  95:	00 00                	add    %al,(%eax)
  97:	02 72 00             	add    0x0(%edx),%dh
  9a:	00 00                	add    %al,(%eax)
  9c:	02 78 00             	add    0x0(%eax),%bh
  9f:	00 00                	add    %al,(%eax)
  a1:	02 7f 00             	add    0x0(%edi),%bh
  a4:	00 00                	add    %al,(%eax)
  a6:	02 86 00 00 00 02    	add    0x2000000(%esi),%al
  ac:	8d 00                	lea    (%eax),%eax
  ae:	00 00                	add    %al,(%eax)
  b0:	02 93 00 00 00 02    	add    0x2000000(%ebx),%dl
  b6:	9b                   	fwait
  b7:	00 00                	add    %al,(%eax)
  b9:	00 02                	add    %al,(%edx)
  bb:	05 01 00 05 02       	add    $0x2050001,%eax
  c0:	23 30                	and    (%eax),%esi
  c2:	30 00                	xor    %al,(%eax)
  c4:	03 12                	add    (%edx),%edx
  c6:	01 05 08 91 05 0e    	add    %eax,0xe059108
  cc:	58                   	pop    %eax
  cd:	05 04 5a 59 59       	add    $0x59595a04,%eax
  d2:	59                   	pop    %ecx
  d3:	f4                   	hlt
  d4:	5a                   	pop    %edx
  d5:	05 01 f3 02 03       	add    $0x302f301,%eax
  da:	00 01                	add    %al,(%ecx)
  dc:	01 84 03 00 00 05 00 	add    %eax,0x50000(%ebx,%eax,1)
  e3:	04 00                	add    $0x0,%al
  e5:	46                   	inc    %esi
  e6:	00 00                	add    %al,(%eax)
  e8:	00 01                	add    %al,(%ecx)
  ea:	01 01                	add    %eax,(%ecx)
  ec:	fb                   	sti
  ed:	0e                   	push   %cs
  ee:	0d 00 01 01 01       	or     $0x1010100,%eax
  f3:	01 00                	add    %eax,(%eax)
  f5:	00 00                	add    %al,(%eax)
  f7:	01 00                	add    %eax,(%eax)
  f9:	00 01                	add    %al,(%ecx)
  fb:	01 01                	add    %eax,(%ecx)
  fd:	1f                   	pop    %ds
  fe:	03 00                	add    (%eax),%eax
 100:	00 00                	add    %al,(%eax)
 102:	00 25 00 00 00 53    	add    %ah,0x53000000
 108:	00 00                	add    %al,(%eax)
 10a:	00 02                	add    %al,(%edx)
 10c:	01 1f                	add    %ebx,(%edi)
 10e:	02 0f                	add    (%edi),%cl
 110:	06                   	push   %es
 111:	b2 00                	mov    $0x0,%dl
 113:	00 00                	add    %al,(%eax)
 115:	01 ba 00 00 00 02    	add    %edi,0x2000000(%edx)
 11b:	b2 00                	mov    $0x0,%dl
 11d:	00 00                	add    %al,(%eax)
 11f:	01 65 00             	add    %esp,0x0(%ebp)
 122:	00 00                	add    %al,(%eax)
 124:	02 93 00 00 00 02    	add    0x2000000(%ebx),%dl
 12a:	86 00                	xchg   %al,(%eax)
 12c:	00 00                	add    %al,(%eax)
 12e:	02 05 01 00 05 02    	add    0x2050001,%al
 134:	6d                   	insl   (%dx),%es:(%edi)
 135:	30 30                	xor    %dh,(%eax)
 137:	00 03                	add    %al,(%ebx)
 139:	fc                   	cld
 13a:	00 01                	add    %al,(%ecx)
 13c:	05 0a c9 05 06       	add    $0x605c90a,%eax
 141:	66 05 10 59          	add    $0x5910,%ax
 145:	05 18 58 05 1c       	add    $0x1c055818,%eax
 14a:	66 05 14 90          	add    $0x9014,%ax
 14e:	05 20 3c 05 01       	add    $0x1053c20,%eax
 153:	67 04 02             	addr16 add $0x2,%al
 156:	03 8a 7f 66 05 04    	add    0x405667f(%edx),%ecx
 15c:	69 22 67 08 23 05    	imul   $0x5230867,(%edx),%esp
 162:	0e                   	push   %cs
 163:	00 02                	add    %al,(%edx)
 165:	04 01                	add    $0x1,%al
 167:	59                   	pop    %ecx
 168:	05 01 4f 05 04       	add    $0x4054f01,%eax
 16d:	6a 05                	push   $0x5
 16f:	0d 67 05 0b 08       	or     $0x80b0567,%eax
 174:	4d                   	dec    %ebp
 175:	05 01 3d 31 05       	add    $0x5313d01,%eax
 17a:	04 6a                	add    $0x6a,%al
 17c:	05 0d 67 05 0b       	add    $0xb05670d,%eax
 181:	08 77 05             	or     %dh,0x5(%edi)
 184:	01 3d 31 05 0d 69    	add    %edi,0x690d0531
 18a:	05 04 08 9f 05       	add    $0x59f0804,%eax
 18f:	0b 08                	or     (%eax),%ecx
 191:	67 05 01 3d 31 05    	addr16 add $0x5313d01,%eax
 197:	09 3d 05 1d 2f 05    	or     %edi,0x52f1d05
 19d:	1b 90 05 07 3c 05    	sbb    0x53c0705(%eax),%edx
 1a3:	0a 08                	or     (%eax),%cl
 1a5:	1f                   	pop    %ds
 1a6:	05 01 a0 4d 05       	add    $0x54da001,%eax
 1ab:	18 3d 05 04 3c 05    	sbb    %bh,0x53c0405
 1b1:	01 08                	add    %ecx,(%eax)
 1b3:	21 40 05             	and    %eax,0x5(%eax)
 1b6:	09 08                	or     %ecx,(%eax)
 1b8:	23 05 04 74 05 19    	and    0x19057404,%eax
 1be:	30 05 1b 66 05 14    	xor    %al,0x1405661b
 1c4:	3c 05                	cmp    $0x5,%al
 1c6:	0b 08                	or     (%eax),%ecx
 1c8:	3c 05                	cmp    $0x5,%al
 1ca:	07                   	pop    %es
 1cb:	67 00 02             	add    %al,(%bp,%si)
 1ce:	04 01                	add    $0x1,%al
 1d0:	06                   	push   %es
 1d1:	66 00 02             	data16 add %al,(%edx)
 1d4:	04 02                	add    $0x2,%al
 1d6:	74 00                	je     1d8 <mbh-0x2ffe28>
 1d8:	02 04 04             	add    (%esp,%eax,1),%al
 1db:	58                   	pop    %eax
 1dc:	05 15 00 02 04       	add    $0x4020015,%eax
 1e1:	02 06                	add    (%esi),%al
 1e3:	e1 05                	loope  1ea <mbh-0x2ffe16>
 1e5:	0f 00 02             	sldt   (%edx)
 1e8:	04 01                	add    $0x1,%al
 1ea:	4a                   	dec    %edx
 1eb:	05 01 87 4d 05       	add    $0x54d8701,%eax
 1f0:	06                   	push   %es
 1f1:	08 32                	or     %dh,(%edx)
 1f3:	05 0e 83 05 11       	add    $0x1105830e,%eax
 1f8:	08 4c 05 0b          	or     %cl,0xb(%ebp,%eax,1)
 1fc:	67 05 06 76 05 07    	addr16 add $0x7057606,%eax
 202:	68 05 0d f3 05       	push   $0x5f30d05
 207:	09 a1 05 26 30 05    	or     %esp,0x5302605(%ecx)
 20d:	2b 08                	sub    (%eax),%ecx
 20f:	3c 05                	cmp    $0x5,%al
 211:	0f 3c                	(bad)
 213:	05 17 3c 05 1a       	add    $0x1a053c17,%eax
 218:	3c 05                	cmp    $0x5,%al
 21a:	13 66 05             	adc    0x5(%esi),%esp
 21d:	2b 2e                	sub    (%esi),%ebp
 21f:	05 1e 2e 05 0d       	add    $0xd052e1e,%eax
 224:	2f                   	das
 225:	05 0a 08 8d 05       	add    $0x58d080a,%eax
 22a:	09 88 05 23 2f 05    	or     %ecx,0x52f2305(%eax)
 230:	2b 3c 05 27 3c 05 07 	sub    0x7053c27(,%eax,1),%edi
 237:	58                   	pop    %eax
 238:	05 0d 08 49 05       	add    $0x549080d,%eax
 23d:	10 3c 05 0a 66 05 01 	adc    %bh,0x105660a(,%eax,1)
 244:	4c                   	dec    %esp
 245:	5b                   	pop    %ebx
 246:	05 06 08 32 05       	add    $0x5320806,%eax
 24b:	0e                   	push   %cs
 24c:	83 05 11 08 4c 05 0b 	addl   $0xb,0x54c0811
 253:	67 05 09 76 05 26    	addr16 add $0x26057609,%eax
 259:	30 05 2b 08 3c 05    	xor    %al,0x53c082b
 25f:	0f 3c                	(bad)
 261:	05 17 3c 05 1a       	add    $0x1a053c17,%eax
 266:	3c 05                	cmp    $0x5,%al
 268:	13 66 05             	adc    0x5(%esi),%esp
 26b:	2b 2e                	sub    (%esi),%ebp
 26d:	05 1e 2e 05 0d       	add    $0xd052e1e,%eax
 272:	2f                   	das
 273:	05 0a 08 8d 05       	add    $0x58d080a,%eax
 278:	09 88 05 23 2f 05    	or     %ecx,0x52f2305(%eax)
 27e:	2b 3c 05 27 3c 05 07 	sub    0x7053c27(,%eax,1),%edi
 285:	58                   	pop    %eax
 286:	05 0d 08 49 05       	add    $0x549080d,%eax
 28b:	10 3c 05 0a 66 05 01 	adc    %bh,0x105660a(,%eax,1)
 292:	4c                   	dec    %esp
 293:	60                   	pusha
 294:	05 0f 08 22 05       	add    $0x522080f,%eax
 299:	06                   	push   %es
 29a:	76 05                	jbe    2a1 <mbh-0x2ffd5f>
 29c:	12 00                	adc    (%eax),%al
 29e:	02 04 01             	add    (%ecx,%eax,1),%al
 2a1:	66 05 11 67          	add    $0x6711,%ax
 2a5:	05 09 76 05 23       	add    $0x23057609,%eax
 2aa:	30 05 1c d6 05 10    	xor    %al,0x1005d61c
 2b0:	82 05 0d 9f 05 0a 08 	addb   $0x8,0xa059f0d
 2b7:	2f                   	das
 2b8:	05 10 4b 05 14       	add    $0x14054b10,%eax
 2bd:	45                   	inc    %ebp
 2be:	00 02                	add    %al,(%edx)
 2c0:	04 01                	add    $0x1,%al
 2c2:	06                   	push   %es
 2c3:	66 05 28 00          	add    $0x28,%ax
 2c7:	02 04 02             	add    (%edx,%eax,1),%al
 2ca:	06                   	push   %es
 2cb:	66 05 17 00          	add    $0x17,%ax
 2cf:	02 04 03             	add    (%ebx,%eax,1),%al
 2d2:	82 05 07 6e 05 09 67 	addb   $0x67,0x9056e07
 2d9:	05 1e 2f 05 07       	add    $0x7052f1e,%eax
 2de:	ac                   	lods   %ds:(%esi),%al
 2df:	05 0d 08 1f 05       	add    $0x51f080d,%eax
 2e4:	0a 90 05 0b 4d 05    	or     0x54d0b05(%eax),%dl
 2ea:	01 3d 32 05 04 08    	add    %edi,0x8040532
 2f0:	21 05 01 08 91 40    	and    %eax,0x40910801
 2f6:	05 11 6c 05 0b       	add    $0xb056c11,%eax
 2fb:	67 75 05             	addr16 jne 303 <mbh-0x2ffcfd>
 2fe:	08 75 05             	or     %dh,0x5(%ebp)
 301:	09 75 05             	or     %esi,0x5(%ebp)
 304:	06                   	push   %es
 305:	76 05                	jbe    30c <mbh-0x2ffcf4>
 307:	0f 00 02             	sldt   (%edx)
 30a:	04 01                	add    $0x1,%al
 30c:	9e                   	sahf
 30d:	05 09 4c 05 12       	add    $0x12054c09,%eax
 312:	5a                   	pop    %edx
 313:	05 09 90 68 05       	add    $0x5689009,%eax
 318:	0c a1                	or     $0xa1,%al
 31a:	05 0f 67 05 15       	add    $0x1505670f,%eax
 31f:	67 05 0d 77 05 14    	addr16 add $0x1405770d,%eax
 325:	57                   	push   %edi
 326:	05 0d 75 05 13       	add    $0x1305750d,%eax
 32b:	59                   	pop    %ecx
 32c:	05 12 67 05 0d       	add    $0xd056712,%eax
 331:	83 05 0c 5c 05 13 67 	addl   $0x67,0x13055c0c
 338:	05 0d d7 05 13       	add    $0x1305d70d,%eax
 33d:	08 67 05             	or     %ah,0x5(%edi)
 340:	11 67 05             	adc    %esp,0x5(%edi)
 343:	0d d7 05 13 08       	or     $0x81305d7,%eax
 348:	67 05 1e 67 05 16    	addr16 add $0x1605671e,%eax
 34e:	00 02                	add    %al,(%edx)
 350:	04 01                	add    $0x1,%al
 352:	ac                   	lods   %ds:(%esi),%al
 353:	05 0d 9f 05 13       	add    $0x13059f0d,%eax
 358:	08 d7                	or     %dl,%bh
 35a:	05 16 67 05 0d       	add    $0xd056716,%eax
 35f:	08 3d 05 13 08 d9    	or     %bh,0xd9081305
 365:	05 1d 00 02 04       	add    $0x402001d,%eax
 36a:	01 66 05             	add    %esp,0x5(%esi)
 36d:	0f a1                	pop    %fs
 36f:	05 16 67 05 14       	add    $0x14056716,%eax
 374:	08 59 05             	or     %bl,0x5(%ecx)
 377:	18 67 05             	sbb    %ah,0x5(%edi)
 37a:	16                   	push   %ss
 37b:	00 02                	add    %al,(%edx)
 37d:	04 01                	add    $0x1,%al
 37f:	ac                   	lods   %ds:(%esi),%al
 380:	05 14 91 05 22       	add    $0x22059114,%eax
 385:	67 05 16 00 02 04    	addr16 add $0x4020016,%eax
 38b:	01 ac 05 21 a0 05 16 	add    %ebp,0x1605a021(%ebp,%eax,1)
 392:	00 02                	add    %al,(%edx)
 394:	04 01                	add    $0x1,%al
 396:	ac                   	lods   %ds:(%esi),%al
 397:	05 0d a0 05 29       	add    $0x2905a00d,%eax
 39c:	03 74 08 4a          	add    0x4a(%eax,%ecx,1),%esi
 3a0:	05 13 03 0e 58       	add    $0x580e0313,%eax
 3a5:	05 1d 00 02 04       	add    $0x402001d,%eax
 3aa:	01 66 05             	add    %esp,0x5(%esi)
 3ad:	0f a1                	pop    %fs
 3af:	05 16 67 05 14       	add    $0x14056716,%eax
 3b4:	08 59 05             	or     %bl,0x5(%ecx)
 3b7:	18 67 05             	sbb    %ah,0x5(%edi)
 3ba:	16                   	push   %ss
 3bb:	00 02                	add    %al,(%edx)
 3bd:	04 01                	add    $0x1,%al
 3bf:	ac                   	lods   %ds:(%esi),%al
 3c0:	05 14 bb 05 22       	add    $0x2205bb14,%eax
 3c5:	67 05 16 00 02 04    	addr16 add $0x4020016,%eax
 3cb:	01 ac 05 21 e6 05 16 	add    %ebp,0x1605e621(%ebp,%eax,1)
 3d2:	00 02                	add    %al,(%edx)
 3d4:	04 01                	add    $0x1,%al
 3d6:	ac                   	lods   %ds:(%esi),%al
 3d7:	05 0f ca 05 10       	add    $0x1005ca0f,%eax
 3dc:	67 05 29 03 73 08    	addr16 add $0x8730329,%eax
 3e2:	4a                   	dec    %edx
 3e3:	05 10 03 0f 58       	add    $0x580f0310,%eax
 3e8:	05 29 03 71 08       	add    $0x8710329,%eax
 3ed:	90                   	nop
 3ee:	05 13 03 12 58       	add    $0x58120313,%eax
 3f3:	05 16 67 05 0d       	add    $0xd056716,%eax
 3f8:	08 3d 05 13 08 91    	or     %bh,0x91081305
 3fe:	05 16 67 05 0d       	add    $0xd056716,%eax
 403:	08 3d 05 13 08 d9    	or     %bh,0xd9081305
 409:	05 1e 67 05 16       	add    $0x1605671e,%eax
 40e:	00 02                	add    %al,(%edx)
 410:	04 01                	add    $0x1,%al
 412:	ac                   	lods   %ds:(%esi),%al
 413:	05 0d 9f 08 67       	add    $0x67089f0d,%eax
 418:	05 14 08 af 05       	add    $0x5af0814,%eax
 41d:	1e                   	push   %ds
 41e:	00 02                	add    %al,(%edx)
 420:	04 01                	add    $0x1,%al
 422:	66 05 14 6a          	add    $0x6a14,%ax
 426:	05 0d 67 08 86       	add    $0x8608670d,%eax
 42b:	05 11 08 4d 05       	add    $0x54d0811,%eax
 430:	0e                   	push   %cs
 431:	75 92                	jne    3c5 <mbh-0x2ffc3b>
 433:	05 11 68 05 0f       	add    $0xf056811,%eax
 438:	75 05                	jne    43f <mbh-0x2ffbc1>
 43a:	0a 93 05 0d 03 6c    	or     0x6c030d05(%ebx),%dl
 440:	08 82 05 0a 03 b0    	or     %al,-0x4ffcf5fb(%edx)
 446:	7f 20                	jg     468 <mbh-0x2ffb98>
 448:	05 0c 03 e7 00       	add    $0xe7030c,%eax
 44d:	d6                   	(bad)
 44e:	05 14 3c 05 17       	add    $0x17053c14,%eax
 453:	3c 05                	cmp    $0x5,%al
 455:	10 66 05             	adc    %ah,0x5(%esi)
 458:	1b 2e                	sbb    (%esi),%ebp
 45a:	05 0e 3d 05 01       	add    $0x1053d0e,%eax
 45f:	3d 02 02 00 01       	cmp    $0x1000202,%eax
 464:	01 30                	add    %esi,(%eax)
 466:	01 00                	add    %eax,(%eax)
 468:	00 05 00 04 00 3c    	add    %al,0x3c000400
 46e:	00 00                	add    %al,(%eax)
 470:	00 01                	add    %al,(%ecx)
 472:	01 01                	add    %eax,(%ecx)
 474:	fb                   	sti
 475:	0e                   	push   %cs
 476:	0d 00 01 01 01       	or     $0x1010100,%eax
 47b:	01 00                	add    %eax,(%eax)
 47d:	00 00                	add    %al,(%eax)
 47f:	01 00                	add    %eax,(%eax)
 481:	00 01                	add    %al,(%ecx)
 483:	01 01                	add    %eax,(%ecx)
 485:	1f                   	pop    %ds
 486:	03 00                	add    (%eax),%eax
 488:	00 00                	add    %al,(%eax)
 48a:	00 25 00 00 00 53    	add    %ah,0x53000000
 490:	00 00                	add    %al,(%eax)
 492:	00 02                	add    %al,(%edx)
 494:	01 1f                	add    %ebx,(%edi)
 496:	02 0f                	add    (%edi),%cl
 498:	04 d2                	add    $0xd2,%al
 49a:	00 00                	add    %al,(%eax)
 49c:	00 01                	add    %al,(%ecx)
 49e:	d2 00                	rolb   %cl,(%eax)
 4a0:	00 00                	add    %al,(%eax)
 4a2:	01 65 00             	add    %esp,0x0(%ebp)
 4a5:	00 00                	add    %al,(%eax)
 4a7:	02 86 00 00 00 02    	add    0x2000000(%esi),%al
 4ad:	05 01 00 05 02       	add    $0x2050001,%eax
 4b2:	9f                   	lahf
 4b3:	38 30                	cmp    %dh,(%eax)
 4b5:	00 16                	add    %dl,(%esi)
 4b7:	05 09 c9 05 07       	add    $0x705c909,%eax
 4bc:	2f                   	das
 4bd:	05 0a 9d 05 01       	add    $0x1059d0a,%eax
 4c2:	08 a0 4d 05 04 cc    	or     %ah,-0x33fbfab3(%eax)
 4c8:	05 0c c9 4b 05       	add    $0x54bc90c,%eax
 4cd:	04 9f                	add    $0x9f,%al
 4cf:	05 0f bc 05 0c       	add    $0xc05bc0f,%eax
 4d4:	9f                   	lahf
 4d5:	05 04 9f bc 05       	add    $0x5bc9f04,%eax
 4da:	0c ca                	or     $0xca,%al
 4dc:	05 0e 4b 9f 05       	add    $0x59f4b0e,%eax
 4e1:	04 9f                	add    $0x9f,%al
 4e3:	05 01 bb 3f 05       	add    $0x53fbb01,%eax
 4e8:	04 ce                	add    $0xce,%al
 4ea:	c9                   	leave
 4eb:	9f                   	lahf
 4ec:	05 0c cb 05 11       	add    $0x1105cb0c,%eax
 4f1:	4b                   	dec    %ebx
 4f2:	05 04 9f 05 0c       	add    $0xc059f04,%eax
 4f7:	03 0b                	add    (%ebx),%ecx
 4f9:	ba 05 04 4c bd       	mov    $0xbd4c0405,%edx
 4fe:	05 01 c9 3f 05       	add    $0x53fc901,%eax
 503:	04 3d                	add    $0x3d,%al
 505:	c9                   	leave
 506:	05 01 c9 3f 05       	add    $0x53fc901,%eax
 50b:	09 c9                	or     %ecx,%ecx
 50d:	05 1f 30 05 10       	add    $0x1005301f,%eax
 512:	d6                   	(bad)
 513:	05 17 58 05 13       	add    $0x13055817,%eax
 518:	66 05 1d 2e          	add    $0x2e1d,%ax
 51c:	05 0a 2f 05 0e       	add    $0xe052f0a,%eax
 521:	66 05 0a 8d          	add    $0x8d0a,%ax
 525:	05 20 08 66 05       	add    $0x5660820,%eax
 52a:	26 00 02             	add    %al,%es:(%edx)
 52d:	04 01                	add    $0x1,%al
 52f:	4a                   	dec    %edx
 530:	05 20 00 02 04       	add    $0x4020020,%eax
 535:	01 66 05             	add    %esp,0x5(%esi)
 538:	01 5d 3f             	add    %ebx,0x3f(%ebp)
 53b:	05 09 c9 05 0a       	add    $0xa05c909,%eax
 540:	30 05 09 08 66 05    	xor    %al,0x5660809
 546:	0a 4c 05 0d          	or     0xd(%ebp,%eax,1),%cl
 54a:	08 4b 05             	or     %cl,0x5(%ebx)
 54d:	11 66 05             	adc    %esp,0x5(%esi)
 550:	0d 8b 05 12 66       	or     $0x6612058b,%eax
 555:	05 01 60 4d 05       	add    $0x54d6001,%eax
 55a:	10 69 05             	adc    %ch,0x5(%ecx)
 55d:	0b 67 05             	or     0x5(%edi),%esp
 560:	04 76                	add    $0x76,%al
 562:	05 0e 08 3d 05       	add    $0x53d080e,%eax
 567:	01 3d 31 05 10 69    	add    %edi,0x69100531
 56d:	05 0b 67 05 04       	add    $0x405670b,%eax
 572:	76 05                	jbe    579 <mbh-0x2ffa87>
 574:	0e                   	push   %cs
 575:	08 3d 05 01 3d 31    	or     %bh,0x313d0105
 57b:	05 0b 67 05 09       	add    $0x905670b,%eax
 580:	76 05                	jbe    587 <mbh-0x2ffa79>
 582:	0a 2f                	or     (%edi),%ch
 584:	05 09 08 4a 05       	add    $0x54a0809,%eax
 589:	0a 4c 05 0b          	or     0xb(%ebp,%eax,1),%cl
 58d:	ad                   	lods   %ds:(%esi),%eax
 58e:	05 0a 46 05 01       	add    $0x105460a,%eax
 593:	6c                   	insb   (%dx),%es:(%edi)
 594:	02 04 00             	add    (%eax,%eax,1),%al
 597:	01 01                	add    %eax,(%ecx)
 599:	86 00                	xchg   %al,(%eax)
 59b:	00 00                	add    %al,(%eax)
 59d:	05 00 04 00 3c       	add    $0x3c000400,%eax
 5a2:	00 00                	add    %al,(%eax)
 5a4:	00 01                	add    %al,(%ecx)
 5a6:	01 01                	add    %eax,(%ecx)
 5a8:	fb                   	sti
 5a9:	0e                   	push   %cs
 5aa:	0d 00 01 01 01       	or     $0x1010100,%eax
 5af:	01 00                	add    %eax,(%eax)
 5b1:	00 00                	add    %al,(%eax)
 5b3:	01 00                	add    %eax,(%eax)
 5b5:	00 01                	add    %al,(%ecx)
 5b7:	01 01                	add    %eax,(%ecx)
 5b9:	1f                   	pop    %ds
 5ba:	03 00                	add    (%eax),%eax
 5bc:	00 00                	add    %al,(%eax)
 5be:	00 25 00 00 00 53    	add    %ah,0x53000000
 5c4:	00 00                	add    %al,(%eax)
 5c6:	00 02                	add    %al,(%edx)
 5c8:	01 1f                	add    %ebx,(%edi)
 5ca:	02 0f                	add    (%edi),%cl
 5cc:	04 e8                	add    $0xe8,%al
 5ce:	00 00                	add    %al,(%eax)
 5d0:	00 01                	add    %al,(%ecx)
 5d2:	e8 00 00 00 01       	call   10005d7 <task2_function+0x7fc5d7>
 5d7:	8d 00                	lea    (%eax),%eax
 5d9:	00 00                	add    %al,(%eax)
 5db:	02 65 00             	add    0x0(%ebp),%ah
 5de:	00 00                	add    %al,(%eax)
 5e0:	02 05 01 00 05 02    	add    0x2050001,%al
 5e6:	44                   	inc    %esp
 5e7:	3b 30                	cmp    (%eax),%esi
 5e9:	00 16                	add    %dl,(%esi)
 5eb:	05 0d 03 0b 66       	add    $0x660b030d,%eax
 5f0:	05 04 4b 9f 05       	add    $0x59f4b04,%eax
 5f5:	0d a5 05 04 4b       	or     $0x4b0405a5,%eax
 5fa:	05 0d a0 05 04       	add    $0x405a00d,%eax
 5ff:	4b                   	dec    %ebx
 600:	05 0d a5 05 15       	add    $0x1505a50d,%eax
 605:	4b                   	dec    %ebx
 606:	05 04 9f 05 0d       	add    $0xd059f04,%eax
 60b:	a0 05 12 4b 05       	mov    0x54b1205,%al
 610:	04 c9                	add    $0xc9,%al
 612:	05 0d 03 09 9e       	add    $0x9e09030d,%eax
 617:	05 04 4b 9f 05       	add    $0x59f4b04,%eax
 61c:	01 9f 02 03 00 01    	add    %ebx,0x1000302(%edi)
 622:	01 ac 00 00 00 05 00 	add    %ebp,0x50000(%eax,%eax,1)
 629:	04 00                	add    $0x0,%al
 62b:	4b                   	dec    %ebx
 62c:	00 00                	add    %al,(%eax)
 62e:	00 01                	add    %al,(%ecx)
 630:	01 01                	add    %eax,(%ecx)
 632:	fb                   	sti
 633:	0e                   	push   %cs
 634:	0d 00 01 01 01       	or     $0x1010100,%eax
 639:	01 00                	add    %eax,(%eax)
 63b:	00 00                	add    %al,(%eax)
 63d:	01 00                	add    %eax,(%eax)
 63f:	00 01                	add    %al,(%ecx)
 641:	01 01                	add    %eax,(%ecx)
 643:	1f                   	pop    %ds
 644:	03 00                	add    (%eax),%eax
 646:	00 00                	add    %al,(%eax)
 648:	00 25 00 00 00 53    	add    %ah,0x53000000
 64e:	00 00                	add    %al,(%eax)
 650:	00 02                	add    %al,(%edx)
 652:	01 1f                	add    %ebx,(%edi)
 654:	02 0f                	add    (%edi),%cl
 656:	07                   	pop    %es
 657:	fd                   	std
 658:	00 00                	add    %al,(%eax)
 65a:	00 01                	add    %al,(%ecx)
 65c:	fd                   	std
 65d:	00 00                	add    %al,(%eax)
 65f:	00 01                	add    %al,(%ecx)
 661:	65 00 00             	add    %al,%gs:(%eax)
 664:	00 02                	add    %al,(%edx)
 666:	04 01                	add    $0x1,%al
 668:	00 00                	add    %al,(%eax)
 66a:	02 0a                	add    (%edx),%cl
 66c:	01 00                	add    %eax,(%eax)
 66e:	00 02                	add    %al,(%edx)
 670:	7f 00                	jg     672 <mbh-0x2ff98e>
 672:	00 00                	add    %al,(%eax)
 674:	02 93 00 00 00 02    	add    0x2000000(%ebx),%dl
 67a:	05 01 00 05 02       	add    $0x2050001,%eax
 67f:	cc                   	int3
 680:	3b 30                	cmp    (%eax),%esi
 682:	00 03                	add    %al,(%ebx)
 684:	0a 01                	or     (%ecx),%al
 686:	05 08 6b 05 09       	add    $0x9056b08,%eax
 68b:	77 05                	ja     692 <mbh-0x2ff96e>
 68d:	04 74                	add    $0x74,%al
 68f:	05 07 59 05 1f       	add    $0x1f055907,%eax
 694:	00 02                	add    %al,(%edx)
 696:	04 03                	add    $0x3,%al
 698:	02 85 01 11 05 27    	add    0x27051101(%ebp),%al
 69e:	00 02                	add    %al,(%edx)
 6a0:	04 03                	add    $0x3,%al
 6a2:	4a                   	dec    %edx
 6a3:	05 0f 00 02 04       	add    $0x402000f,%eax
 6a8:	01 4a cb             	add    %ecx,-0x35(%edx)
 6ab:	75 05                	jne    6b2 <mbh-0x2ff94e>
 6ad:	04 67                	add    $0x67,%al
 6af:	05 01 4b 3f 05       	add    $0x53f4b01,%eax
 6b4:	04 bb                	add    $0xbb,%al
 6b6:	05 0c 03 1c 02       	add    $0x21c030c,%eax
 6bb:	a2 01 01 05 06       	mov    %al,0x6050101
 6c0:	a0 05 07 67 05       	mov    0x5670705,%al
 6c5:	01 85 05 07 2d 05    	add    %eax,0x52d0705(%ebp)
 6cb:	01 08                	add    %ecx,(%eax)
 6cd:	4b                   	dec    %ebx
 6ce:	02 09                	add    (%ecx),%cl
 6d0:	00 01                	add    %al,(%ecx)
 6d2:	01 3b                	add    %edi,(%ebx)
 6d4:	03 00                	add    (%eax),%eax
 6d6:	00 05 00 04 00 2e    	add    %al,0x2e000400
 6dc:	00 00                	add    %al,(%eax)
 6de:	00 01                	add    %al,(%ecx)
 6e0:	01 01                	add    %eax,(%ecx)
 6e2:	fb                   	sti
 6e3:	0e                   	push   %cs
 6e4:	0d 00 01 01 01       	or     $0x1010100,%eax
 6e9:	01 00                	add    %eax,(%eax)
 6eb:	00 00                	add    %al,(%eax)
 6ed:	01 00                	add    %eax,(%eax)
 6ef:	00 01                	add    %al,(%ecx)
 6f1:	01 01                	add    %eax,(%ecx)
 6f3:	1f                   	pop    %ds
 6f4:	02 00                	add    (%eax),%al
 6f6:	00 00                	add    %al,(%eax)
 6f8:	00 25 00 00 00 02    	add    %ah,0x2000000
 6fe:	01 1f                	add    %ebx,(%edi)
 700:	02 0f                	add    (%edi),%cl
 702:	02 11                	add    (%ecx),%dl
 704:	01 00                	add    %eax,(%eax)
 706:	00 01                	add    %al,(%ecx)
 708:	11 01                	adc    %eax,(%ecx)
 70a:	00 00                	add    %al,(%eax)
 70c:	01 00                	add    %eax,(%eax)
 70e:	05 02 79 3d 30       	add    $0x303d7902,%eax
 713:	00 03                	add    %al,(%ebx)
 715:	0d 01 21 2f 2f       	or     $0x2f2f2101,%eax
 71a:	30 21                	xor    %ah,(%ecx)
 71c:	30 2f                	xor    %ch,(%edi)
 71e:	03 11                	add    (%ecx),%edx
 720:	20 21                	and    %ah,(%ecx)
 722:	2f                   	das
 723:	5b                   	pop    %ebx
 724:	21 3d 02 01 00 01    	and    %edi,0x1000102
 72a:	01 00                	add    %eax,(%eax)
 72c:	05 02 10 20 30       	add    $0x30201002,%eax
 731:	00 03                	add    %al,(%ebx)
 733:	38 01                	cmp    %al,(%ecx)
 735:	2f                   	das
 736:	2f                   	das
 737:	be 2f 2f be 2f       	mov    $0x2fbe2f2f,%esi
 73c:	2f                   	das
 73d:	be 2f 2f be 2f       	mov    $0x2fbe2f2f,%esi
 742:	2f                   	das
 743:	be 2f 2f be 2f       	mov    $0x2fbe2f2f,%esi
 748:	2f                   	das
 749:	be 2f 2f be 2f       	mov    $0x2fbe2f2f,%esi
 74e:	da 2f                	fisubrl (%edi)
 750:	2f                   	das
 751:	be 2f da 2f da       	mov    $0xda2fda2f,%esi
 756:	2f                   	das
 757:	da 2f                	fisubrl (%edi)
 759:	da 2f                	fisubrl (%edi)
 75b:	da 2f                	fisubrl (%edi)
 75d:	2f                   	das
 75e:	be 2f 2f be 2f       	mov    $0x2fbe2f2f,%esi
 763:	da 2f                	fisubrl (%edi)
 765:	2f                   	das
 766:	be 2f 2f bf 02       	mov    $0x2bf2f2f,%esi
 76b:	c0 01 18             	rolb   $0x18,(%ecx)
 76e:	2f                   	das
 76f:	2f                   	das
 770:	b8 2f 2f b8 2f       	mov    $0x2fb82f2f,%eax
 775:	2f                   	das
 776:	b8 2f 2f b8 2f       	mov    $0x2fb82f2f,%eax
 77b:	2f                   	das
 77c:	b8 2f 2f b8 2f       	mov    $0x2fb82f2f,%eax
 781:	2f                   	das
 782:	b8 2f 2f c0 2f       	mov    $0x2fc02f2f,%eax
 787:	2f                   	das
 788:	b8 2f 2f b8 2f       	mov    $0x2fb82f2f,%eax
 78d:	2f                   	das
 78e:	b8 2f 2f b8 2f       	mov    $0x2fb82f2f,%eax
 793:	2f                   	das
 794:	b8 2f 2f b8 2f       	mov    $0x2fb82f2f,%eax
 799:	2f                   	das
 79a:	b8 2f 2f c0 2f       	mov    $0x2fc02f2f,%eax
 79f:	2f                   	das
 7a0:	b8 2f 2f b8 2f       	mov    $0x2fb82f2f,%eax
 7a5:	2f                   	das
 7a6:	b8 2f 2f b8 2f       	mov    $0x2fb82f2f,%eax
 7ab:	2f                   	das
 7ac:	b8 2f 2f b8 2f       	mov    $0x2fb82f2f,%eax
 7b1:	2f                   	das
 7b2:	b8 2f 2f b8 2f       	mov    $0x2fb82f2f,%eax
 7b7:	2f                   	das
 7b8:	b8 2f 2f b8 2f       	mov    $0x2fb82f2f,%eax
 7bd:	2f                   	das
 7be:	b8 2f 2f b8 2f       	mov    $0x2fb82f2f,%eax
 7c3:	2f                   	das
 7c4:	b8 2f 2f b8 2f       	mov    $0x2fb82f2f,%eax
 7c9:	2f                   	das
 7ca:	b8 2f 2f b8 2f       	mov    $0x2fb82f2f,%eax
 7cf:	2f                   	das
 7d0:	b8 2f 2f b8 2f       	mov    $0x2fb82f2f,%eax
 7d5:	2f                   	das
 7d6:	b8 2f 2f b8 2f       	mov    $0x2fb82f2f,%eax
 7db:	2f                   	das
 7dc:	b8 2f 2f b8 2f       	mov    $0x2fb82f2f,%eax
 7e1:	2f                   	das
 7e2:	b8 2f 2f b8 2f       	mov    $0x2fb82f2f,%eax
 7e7:	2f                   	das
 7e8:	b8 2f 2f b8 2f       	mov    $0x2fb82f2f,%eax
 7ed:	2f                   	das
 7ee:	b8 2f 2f b8 2f       	mov    $0x2fb82f2f,%eax
 7f3:	2f                   	das
 7f4:	b8 2f 2f b8 2f       	mov    $0x2fb82f2f,%eax
 7f9:	2f                   	das
 7fa:	b8 2f 2f b8 2f       	mov    $0x2fb82f2f,%eax
 7ff:	2f                   	das
 800:	b8 2f 2f b8 2f       	mov    $0x2fb82f2f,%eax
 805:	2f                   	das
 806:	b8 2f 2f b8 2f       	mov    $0x2fb82f2f,%eax
 80b:	2f                   	das
 80c:	b8 2f 2f b8 2f       	mov    $0x2fb82f2f,%eax
 811:	2f                   	das
 812:	b8 2f 2f b8 2f       	mov    $0x2fb82f2f,%eax
 817:	2f                   	das
 818:	b8 2f 2f b8 2f       	mov    $0x2fb82f2f,%eax
 81d:	2f                   	das
 81e:	b8 2f 2f b8 2f       	mov    $0x2fb82f2f,%eax
 823:	2f                   	das
 824:	b8 2f 2f b8 2f       	mov    $0x2fb82f2f,%eax
 829:	2f                   	das
 82a:	b8 2f 2f b8 2f       	mov    $0x2fb82f2f,%eax
 82f:	2f                   	das
 830:	b8 2f 2f b8 2f       	mov    $0x2fb82f2f,%eax
 835:	2f                   	das
 836:	b8 2f 2f b8 2f       	mov    $0x2fb82f2f,%eax
 83b:	2f                   	das
 83c:	b8 2f 2f b8 2f       	mov    $0x2fb82f2f,%eax
 841:	2f                   	das
 842:	b8 2f 2f b8 2f       	mov    $0x2fb82f2f,%eax
 847:	2f                   	das
 848:	b8 2f 2f b8 2f       	mov    $0x2fb82f2f,%eax
 84d:	2f                   	das
 84e:	b8 2f 2f b8 2f       	mov    $0x2fb82f2f,%eax
 853:	2f                   	das
 854:	b8 2f 2f b8 2f       	mov    $0x2fb82f2f,%eax
 859:	2f                   	das
 85a:	b8 2f 2f b8 2f       	mov    $0x2fb82f2f,%eax
 85f:	2f                   	das
 860:	b8 2f 2f b8 2f       	mov    $0x2fb82f2f,%eax
 865:	2f                   	das
 866:	b8 2f 2f b8 2f       	mov    $0x2fb82f2f,%eax
 86b:	2f                   	das
 86c:	b8 2f 2f b8 2f       	mov    $0x2fb82f2f,%eax
 871:	2f                   	das
 872:	b8 2f 2f b8 2f       	mov    $0x2fb82f2f,%eax
 877:	2f                   	das
 878:	b8 2f 2f b8 2f       	mov    $0x2fb82f2f,%eax
 87d:	2f                   	das
 87e:	b8 2f 2f b8 2f       	mov    $0x2fb82f2f,%eax
 883:	2f                   	das
 884:	b8 2f 2f b8 2f       	mov    $0x2fb82f2f,%eax
 889:	2f                   	das
 88a:	b8 2f 2f b8 2f       	mov    $0x2fb82f2f,%eax
 88f:	59                   	pop    %ecx
 890:	8e 2f                	mov    (%edi),%gs
 892:	59                   	pop    %ecx
 893:	8e 2f                	mov    (%edi),%gs
 895:	59                   	pop    %ecx
 896:	8e 2f                	mov    (%edi),%gs
 898:	59                   	pop    %ecx
 899:	8e 2f                	mov    (%edi),%gs
 89b:	59                   	pop    %ecx
 89c:	8e 2f                	mov    (%edi),%gs
 89e:	59                   	pop    %ecx
 89f:	8e 2f                	mov    (%edi),%gs
 8a1:	59                   	pop    %ecx
 8a2:	8e 2f                	mov    (%edi),%gs
 8a4:	59                   	pop    %ecx
 8a5:	8e 2f                	mov    (%edi),%gs
 8a7:	59                   	pop    %ecx
 8a8:	8e 2f                	mov    (%edi),%gs
 8aa:	59                   	pop    %ecx
 8ab:	8e 2f                	mov    (%edi),%gs
 8ad:	59                   	pop    %ecx
 8ae:	8e 2f                	mov    (%edi),%gs
 8b0:	59                   	pop    %ecx
 8b1:	8e 2f                	mov    (%edi),%gs
 8b3:	59                   	pop    %ecx
 8b4:	8e 2f                	mov    (%edi),%gs
 8b6:	59                   	pop    %ecx
 8b7:	8e 2f                	mov    (%edi),%gs
 8b9:	59                   	pop    %ecx
 8ba:	8e 2f                	mov    (%edi),%gs
 8bc:	59                   	pop    %ecx
 8bd:	8e 2f                	mov    (%edi),%gs
 8bf:	59                   	pop    %ecx
 8c0:	8e 2f                	mov    (%edi),%gs
 8c2:	59                   	pop    %ecx
 8c3:	8e 2f                	mov    (%edi),%gs
 8c5:	59                   	pop    %ecx
 8c6:	8e 2f                	mov    (%edi),%gs
 8c8:	59                   	pop    %ecx
 8c9:	8e 2f                	mov    (%edi),%gs
 8cb:	59                   	pop    %ecx
 8cc:	8e 2f                	mov    (%edi),%gs
 8ce:	59                   	pop    %ecx
 8cf:	8e 2f                	mov    (%edi),%gs
 8d1:	59                   	pop    %ecx
 8d2:	8e 2f                	mov    (%edi),%gs
 8d4:	59                   	pop    %ecx
 8d5:	8e 2f                	mov    (%edi),%gs
 8d7:	59                   	pop    %ecx
 8d8:	8e 2f                	mov    (%edi),%gs
 8da:	59                   	pop    %ecx
 8db:	8e 2f                	mov    (%edi),%gs
 8dd:	59                   	pop    %ecx
 8de:	8e 2f                	mov    (%edi),%gs
 8e0:	59                   	pop    %ecx
 8e1:	8e 2f                	mov    (%edi),%gs
 8e3:	59                   	pop    %ecx
 8e4:	8e 2f                	mov    (%edi),%gs
 8e6:	59                   	pop    %ecx
 8e7:	8e 2f                	mov    (%edi),%gs
 8e9:	59                   	pop    %ecx
 8ea:	8e 2f                	mov    (%edi),%gs
 8ec:	59                   	pop    %ecx
 8ed:	8e 2f                	mov    (%edi),%gs
 8ef:	59                   	pop    %ecx
 8f0:	8e 2f                	mov    (%edi),%gs
 8f2:	59                   	pop    %ecx
 8f3:	8e 2f                	mov    (%edi),%gs
 8f5:	59                   	pop    %ecx
 8f6:	8e 2f                	mov    (%edi),%gs
 8f8:	59                   	pop    %ecx
 8f9:	8e 2f                	mov    (%edi),%gs
 8fb:	59                   	pop    %ecx
 8fc:	8e 2f                	mov    (%edi),%gs
 8fe:	59                   	pop    %ecx
 8ff:	8e 2f                	mov    (%edi),%gs
 901:	59                   	pop    %ecx
 902:	8e 2f                	mov    (%edi),%gs
 904:	59                   	pop    %ecx
 905:	8e 2f                	mov    (%edi),%gs
 907:	59                   	pop    %ecx
 908:	8e 2f                	mov    (%edi),%gs
 90a:	59                   	pop    %ecx
 90b:	8e 2f                	mov    (%edi),%gs
 90d:	59                   	pop    %ecx
 90e:	8e 2f                	mov    (%edi),%gs
 910:	59                   	pop    %ecx
 911:	8e 2f                	mov    (%edi),%gs
 913:	59                   	pop    %ecx
 914:	8e 2f                	mov    (%edi),%gs
 916:	59                   	pop    %ecx
 917:	8e 2f                	mov    (%edi),%gs
 919:	59                   	pop    %ecx
 91a:	8e 2f                	mov    (%edi),%gs
 91c:	59                   	pop    %ecx
 91d:	8e 2f                	mov    (%edi),%gs
 91f:	59                   	pop    %ecx
 920:	8e 2f                	mov    (%edi),%gs
 922:	59                   	pop    %ecx
 923:	8e 2f                	mov    (%edi),%gs
 925:	59                   	pop    %ecx
 926:	8e 2f                	mov    (%edi),%gs
 928:	59                   	pop    %ecx
 929:	8e 2f                	mov    (%edi),%gs
 92b:	59                   	pop    %ecx
 92c:	8e 2f                	mov    (%edi),%gs
 92e:	59                   	pop    %ecx
 92f:	8e 2f                	mov    (%edi),%gs
 931:	59                   	pop    %ecx
 932:	8e 2f                	mov    (%edi),%gs
 934:	59                   	pop    %ecx
 935:	8e 2f                	mov    (%edi),%gs
 937:	59                   	pop    %ecx
 938:	8e 2f                	mov    (%edi),%gs
 93a:	59                   	pop    %ecx
 93b:	8e 2f                	mov    (%edi),%gs
 93d:	59                   	pop    %ecx
 93e:	8e 2f                	mov    (%edi),%gs
 940:	59                   	pop    %ecx
 941:	8e 2f                	mov    (%edi),%gs
 943:	59                   	pop    %ecx
 944:	8e 2f                	mov    (%edi),%gs
 946:	59                   	pop    %ecx
 947:	8e 2f                	mov    (%edi),%gs
 949:	59                   	pop    %ecx
 94a:	8e 2f                	mov    (%edi),%gs
 94c:	59                   	pop    %ecx
 94d:	8e 2f                	mov    (%edi),%gs
 94f:	59                   	pop    %ecx
 950:	8e 2f                	mov    (%edi),%gs
 952:	59                   	pop    %ecx
 953:	8e 2f                	mov    (%edi),%gs
 955:	59                   	pop    %ecx
 956:	8e 2f                	mov    (%edi),%gs
 958:	59                   	pop    %ecx
 959:	8e 2f                	mov    (%edi),%gs
 95b:	59                   	pop    %ecx
 95c:	8e 2f                	mov    (%edi),%gs
 95e:	59                   	pop    %ecx
 95f:	8e 2f                	mov    (%edi),%gs
 961:	59                   	pop    %ecx
 962:	8e 2f                	mov    (%edi),%gs
 964:	59                   	pop    %ecx
 965:	8e 2f                	mov    (%edi),%gs
 967:	59                   	pop    %ecx
 968:	8e 2f                	mov    (%edi),%gs
 96a:	59                   	pop    %ecx
 96b:	8e 2f                	mov    (%edi),%gs
 96d:	59                   	pop    %ecx
 96e:	8e 2f                	mov    (%edi),%gs
 970:	59                   	pop    %ecx
 971:	8e 2f                	mov    (%edi),%gs
 973:	59                   	pop    %ecx
 974:	8e 2f                	mov    (%edi),%gs
 976:	59                   	pop    %ecx
 977:	8e 2f                	mov    (%edi),%gs
 979:	59                   	pop    %ecx
 97a:	8e 2f                	mov    (%edi),%gs
 97c:	59                   	pop    %ecx
 97d:	8e 2f                	mov    (%edi),%gs
 97f:	59                   	pop    %ecx
 980:	8e 2f                	mov    (%edi),%gs
 982:	59                   	pop    %ecx
 983:	8e 2f                	mov    (%edi),%gs
 985:	59                   	pop    %ecx
 986:	8e 2f                	mov    (%edi),%gs
 988:	59                   	pop    %ecx
 989:	8e 2f                	mov    (%edi),%gs
 98b:	59                   	pop    %ecx
 98c:	8e 2f                	mov    (%edi),%gs
 98e:	59                   	pop    %ecx
 98f:	8e 2f                	mov    (%edi),%gs
 991:	59                   	pop    %ecx
 992:	8e 2f                	mov    (%edi),%gs
 994:	59                   	pop    %ecx
 995:	8e 2f                	mov    (%edi),%gs
 997:	59                   	pop    %ecx
 998:	8e 2f                	mov    (%edi),%gs
 99a:	59                   	pop    %ecx
 99b:	8e 2f                	mov    (%edi),%gs
 99d:	59                   	pop    %ecx
 99e:	8e 2f                	mov    (%edi),%gs
 9a0:	59                   	pop    %ecx
 9a1:	8e 2f                	mov    (%edi),%gs
 9a3:	59                   	pop    %ecx
 9a4:	8e 2f                	mov    (%edi),%gs
 9a6:	59                   	pop    %ecx
 9a7:	8e 2f                	mov    (%edi),%gs
 9a9:	59                   	pop    %ecx
 9aa:	8e 2f                	mov    (%edi),%gs
 9ac:	59                   	pop    %ecx
 9ad:	8e 2f                	mov    (%edi),%gs
 9af:	59                   	pop    %ecx
 9b0:	8e 2f                	mov    (%edi),%gs
 9b2:	59                   	pop    %ecx
 9b3:	8e 2f                	mov    (%edi),%gs
 9b5:	59                   	pop    %ecx
 9b6:	8e 2f                	mov    (%edi),%gs
 9b8:	59                   	pop    %ecx
 9b9:	8e 2f                	mov    (%edi),%gs
 9bb:	59                   	pop    %ecx
 9bc:	8e 2f                	mov    (%edi),%gs
 9be:	59                   	pop    %ecx
 9bf:	8e 2f                	mov    (%edi),%gs
 9c1:	59                   	pop    %ecx
 9c2:	8e 2f                	mov    (%edi),%gs
 9c4:	59                   	pop    %ecx
 9c5:	8e 2f                	mov    (%edi),%gs
 9c7:	59                   	pop    %ecx
 9c8:	8e 2f                	mov    (%edi),%gs
 9ca:	59                   	pop    %ecx
 9cb:	8e 2f                	mov    (%edi),%gs
 9cd:	59                   	pop    %ecx
 9ce:	8e 2f                	mov    (%edi),%gs
 9d0:	59                   	pop    %ecx
 9d1:	8e 2f                	mov    (%edi),%gs
 9d3:	59                   	pop    %ecx
 9d4:	8e 2f                	mov    (%edi),%gs
 9d6:	59                   	pop    %ecx
 9d7:	8e 2f                	mov    (%edi),%gs
 9d9:	59                   	pop    %ecx
 9da:	8e 2f                	mov    (%edi),%gs
 9dc:	59                   	pop    %ecx
 9dd:	8e 2f                	mov    (%edi),%gs
 9df:	59                   	pop    %ecx
 9e0:	8e 2f                	mov    (%edi),%gs
 9e2:	59                   	pop    %ecx
 9e3:	8e 2f                	mov    (%edi),%gs
 9e5:	59                   	pop    %ecx
 9e6:	8e 2f                	mov    (%edi),%gs
 9e8:	59                   	pop    %ecx
 9e9:	8e 2f                	mov    (%edi),%gs
 9eb:	59                   	pop    %ecx
 9ec:	8e 2f                	mov    (%edi),%gs
 9ee:	59                   	pop    %ecx
 9ef:	8e 2f                	mov    (%edi),%gs
 9f1:	59                   	pop    %ecx
 9f2:	8e 2f                	mov    (%edi),%gs
 9f4:	59                   	pop    %ecx
 9f5:	8e 2f                	mov    (%edi),%gs
 9f7:	59                   	pop    %ecx
 9f8:	8e 2f                	mov    (%edi),%gs
 9fa:	59                   	pop    %ecx
 9fb:	8e 2f                	mov    (%edi),%gs
 9fd:	59                   	pop    %ecx
 9fe:	8e 2f                	mov    (%edi),%gs
 a00:	59                   	pop    %ecx
 a01:	8e 2f                	mov    (%edi),%gs
 a03:	59                   	pop    %ecx
 a04:	8e 2f                	mov    (%edi),%gs
 a06:	59                   	pop    %ecx
 a07:	8e 2f                	mov    (%edi),%gs
 a09:	59                   	pop    %ecx
 a0a:	8e 2f                	mov    (%edi),%gs
 a0c:	59                   	pop    %ecx
 a0d:	02 05 00 01 01 93    	add    0x93010100,%al
 a13:	00 00                	add    %al,(%eax)
 a15:	00 05 00 04 00 50    	add    %al,0x50000400
 a1b:	00 00                	add    %al,(%eax)
 a1d:	00 01                	add    %al,(%ecx)
 a1f:	01 01                	add    %eax,(%ecx)
 a21:	fb                   	sti
 a22:	0e                   	push   %cs
 a23:	0d 00 01 01 01       	or     $0x1010100,%eax
 a28:	01 00                	add    %eax,(%eax)
 a2a:	00 00                	add    %al,(%eax)
 a2c:	01 00                	add    %eax,(%eax)
 a2e:	00 01                	add    %al,(%ecx)
 a30:	01 01                	add    %eax,(%ecx)
 a32:	1f                   	pop    %ds
 a33:	03 00                	add    (%eax),%eax
 a35:	00 00                	add    %al,(%eax)
 a37:	00 25 00 00 00 53    	add    %ah,0x53000000
 a3d:	00 00                	add    %al,(%eax)
 a3f:	00 02                	add    %al,(%edx)
 a41:	01 1f                	add    %ebx,(%edi)
 a43:	02 0f                	add    (%edi),%cl
 a45:	08 26                	or     %ah,(%esi)
 a47:	01 00                	add    %eax,(%eax)
 a49:	00 01                	add    %al,(%ecx)
 a4b:	26 01 00             	add    %eax,%es:(%eax)
 a4e:	00 01                	add    %al,(%ecx)
 a50:	65 00 00             	add    %al,%gs:(%eax)
 a53:	00 02                	add    %al,(%edx)
 a55:	04 01                	add    $0x1,%al
 a57:	00 00                	add    %al,(%eax)
 a59:	02 0a                	add    (%edx),%cl
 a5b:	01 00                	add    %eax,(%eax)
 a5d:	00 02                	add    %al,(%edx)
 a5f:	7f 00                	jg     a61 <mbh-0x2ff59f>
 a61:	00 00                	add    %al,(%eax)
 a63:	02 93 00 00 00 02    	add    0x2000000(%ebx),%dl
 a69:	2d 01 00 00 02       	sub    $0x2000001,%eax
 a6e:	05 01 00 05 02       	add    $0x2050001,%eax
 a73:	93                   	xchg   %eax,%ebx
 a74:	3d 30 00 03 20       	cmp    $0x20030030,%eax
 a79:	01 05 04 ad 05 12    	add    %eax,0x1205ad04
 a7f:	02 22                	add    (%edx),%ah
 a81:	14 05                	adc    $0x5,%al
 a83:	04 9e                	add    $0x9e,%al
 a85:	05 07 08 bd f3       	add    $0xf3bd0807,%eax
 a8a:	5c                   	pop    %esp
 a8b:	02 5a 18             	add    0x18(%edx),%bl
 a8e:	31 02                	xor    %eax,(%edx)
 a90:	59                   	pop    %ecx
 a91:	17                   	pop    %ss
 a92:	05 04 23 08 91       	add    $0x91082304,%eax
 a97:	08 91 05 1c 08 91    	or     %dl,-0x6ef7e3fb(%ecx)
 a9d:	05 04 66 bb 05       	add    $0x5bb6604,%eax
 aa2:	01 f3                	add    %esi,%ebx
 aa4:	02 07                	add    (%edi),%al
 aa6:	00 01                	add    %al,(%ecx)
 aa8:	01 7c 00 00          	add    %edi,0x0(%eax,%eax,1)
 aac:	00 05 00 04 00 3c    	add    %al,0x3c000400
 ab2:	00 00                	add    %al,(%eax)
 ab4:	00 01                	add    %al,(%ecx)
 ab6:	01 01                	add    %eax,(%ecx)
 ab8:	fb                   	sti
 ab9:	0e                   	push   %cs
 aba:	0d 00 01 01 01       	or     $0x1010100,%eax
 abf:	01 00                	add    %eax,(%eax)
 ac1:	00 00                	add    %al,(%eax)
 ac3:	01 00                	add    %eax,(%eax)
 ac5:	00 01                	add    %al,(%ecx)
 ac7:	01 01                	add    %eax,(%ecx)
 ac9:	1f                   	pop    %ds
 aca:	03 00                	add    (%eax),%eax
 acc:	00 00                	add    %al,(%eax)
 ace:	00 25 00 00 00 53    	add    %ah,0x53000000
 ad4:	00 00                	add    %al,(%eax)
 ad6:	00 02                	add    %al,(%edx)
 ad8:	01 1f                	add    %ebx,(%edi)
 ada:	02 0f                	add    (%edi),%cl
 adc:	04 44                	add    $0x44,%al
 ade:	01 00                	add    %eax,(%eax)
 ae0:	00 01                	add    %al,(%ecx)
 ae2:	44                   	inc    %esp
 ae3:	01 00                	add    %eax,(%eax)
 ae5:	00 01                	add    %al,(%ecx)
 ae7:	65 00 00             	add    %al,%gs:(%eax)
 aea:	00 02                	add    %al,(%edx)
 aec:	93                   	xchg   %eax,%ebx
 aed:	00 00                	add    %al,(%eax)
 aef:	00 02                	add    %al,(%edx)
 af1:	05 01 00 05 02       	add    $0x2050001,%eax
 af6:	29 3f                	sub    %edi,(%edi)
 af8:	30 00                	xor    %al,(%eax)
 afa:	1a 05 04 69 05 08    	sbb    0x8056904,%al
 b00:	f4                   	hlt
 b01:	05 09 67 05 1e       	add    $0x1e056709,%eax
 b06:	30 05 19 66 05 0b    	xor    %al,0xb056619
 b0c:	2e 05 19 3d 05 0b    	cs add $0xb053d19,%eax
 b12:	58                   	pop    %eax
 b13:	05 07 3d 05 0e       	add    $0xe053d07,%eax
 b18:	08 2a                	or     %ch,(%edx)
 b1a:	00 02                	add    %al,(%edx)
 b1c:	04 01                	add    $0x1,%al
 b1e:	06                   	push   %es
 b1f:	66 05 01 06          	add    $0x601,%ax
 b23:	96                   	xchg   %eax,%esi
 b24:	02 03                	add    (%ebx),%al
 b26:	00 01                	add    %al,(%ecx)
 b28:	01 49 02             	add    %ecx,0x2(%ecx)
 b2b:	00 00                	add    %al,(%eax)
 b2d:	05 00 04 00 56       	add    $0x56000400,%eax
 b32:	00 00                	add    %al,(%eax)
 b34:	00 01                	add    %al,(%ecx)
 b36:	01 01                	add    %eax,(%ecx)
 b38:	fb                   	sti
 b39:	0e                   	push   %cs
 b3a:	0d 00 01 01 01       	or     $0x1010100,%eax
 b3f:	01 00                	add    %eax,(%eax)
 b41:	00 00                	add    %al,(%eax)
 b43:	01 00                	add    %eax,(%eax)
 b45:	00 01                	add    %al,(%ecx)
 b47:	01 01                	add    %eax,(%ecx)
 b49:	1f                   	pop    %ds
 b4a:	02 00                	add    (%eax),%al
 b4c:	00 00                	add    %al,(%eax)
 b4e:	00 53 00             	add    %dl,0x0(%ebx)
 b51:	00 00                	add    %al,(%eax)
 b53:	02 01                	add    (%ecx),%al
 b55:	1f                   	pop    %ds
 b56:	02 0f                	add    (%edi),%cl
 b58:	0a 4c 01 00          	or     0x0(%ecx,%eax,1),%cl
 b5c:	00 00                	add    %al,(%eax)
 b5e:	ba 00 00 00 01       	mov    $0x1000000,%edx
 b63:	4c                   	dec    %esp
 b64:	01 00                	add    %eax,(%eax)
 b66:	00 00                	add    %al,(%eax)
 b68:	65 00 00             	add    %al,%gs:(%eax)
 b6b:	00 01                	add    %al,(%ecx)
 b6d:	04 01                	add    $0x1,%al
 b6f:	00 00                	add    %al,(%eax)
 b71:	01 51 01             	add    %edx,0x1(%ecx)
 b74:	00 00                	add    %al,(%eax)
 b76:	01 5a 01             	add    %ebx,0x1(%edx)
 b79:	00 00                	add    %al,(%eax)
 b7b:	01 0a                	add    %ecx,(%edx)
 b7d:	01 00                	add    %eax,(%eax)
 b7f:	00 01                	add    %al,(%ecx)
 b81:	7f 00                	jg     b83 <mbh-0x2ff47d>
 b83:	00 00                	add    %al,(%eax)
 b85:	01 93 00 00 00 01    	add    %edx,0x1000000(%ebx)
 b8b:	05 01 00 05 02       	add    $0x2050001,%eax
 b90:	7f 3f                	jg     bd1 <mbh-0x2ff42f>
 b92:	30 00                	xor    %al,(%eax)
 b94:	03 32                	add    (%edx),%esi
 b96:	01 05 0e cc 05 06    	add    %eax,0x605cc0e
 b9c:	68 05 0e 67 05       	push   $0x5670e05
 ba1:	04 5a                	add    $0x5a,%al
 ba3:	05 06 08 4c 05       	add    $0x54c0806,%eax
 ba8:	14 68                	adc    $0x68,%al
 baa:	05 0f 08 9e 05       	add    $0x59e080f,%eax
 baf:	07                   	pop    %es
 bb0:	59                   	pop    %ecx
 bb1:	05 0b 08 59 05       	add    $0x559080b,%eax
 bb6:	19 3c 05 13 66 05 06 	sbb    %edi,0x6056613(,%eax,1)
 bbd:	5b                   	pop    %ebx
 bbe:	05 07 67 05 0b       	add    $0xb056707,%eax
 bc3:	08 68 05             	or     %ch,0x5(%eax)
 bc6:	01 3d 04 02 57 05    	add    %edi,0x5570204
 bcc:	05 3d 75 75 75       	add    $0x7575753d,%eax
 bd1:	05 0d 75 05 02       	add    $0x205750d,%eax
 bd6:	83 05 05 67 05 02 03 	addl   $0x3,0x2056705
 bdd:	0c ba                	or     $0xba,%al
 bdf:	05 01 21 05 1c       	add    $0x1c052101,%eax
 be4:	03 16                	add    (%esi),%edx
 be6:	3c 05                	cmp    $0x5,%al
 be8:	04 3d                	add    $0x3d,%al
 bea:	05 01 b2 05 3d       	add    $0x3d05b201,%eax
 bef:	3e 05 02 bb 05 23    	ds add $0x2305bb02,%eax
 bf5:	03 1c 02             	add    (%edx,%eax,1),%ebx
 bf8:	a2 01 01 05 06       	mov    %al,0x6050101
 bfd:	58                   	pop    %eax
 bfe:	05 02 67 05 20       	add    $0x20056702,%eax
 c03:	08 67 05             	or     %ah,0x5(%edi)
 c06:	19 66 05             	sbb    %esp,0x5(%esi)
 c09:	1f                   	pop    %ds
 c0a:	66 05 19 ad          	add    $0xad19,%ax
 c0e:	05 27 58 05 02       	add    $0x2055827,%eax
 c13:	ae                   	scas   %es:(%edi),%al
 c14:	75 75                	jne    c8b <mbh-0x2ff375>
 c16:	75 05                	jne    c1d <mbh-0x2ff3e3>
 c18:	13 76 05             	adc    0x5(%esi),%esi
 c1b:	1f                   	pop    %ds
 c1c:	83 05 0d c8 05 05 59 	addl   $0x59,0x505c80d
 c23:	05 16 f4 05 05       	add    $0x505f416,%eax
 c28:	d6                   	(bad)
 c29:	05 07 4d 05 18       	add    $0x18054d07,%eax
 c2e:	03 0e                	add    (%esi),%ecx
 c30:	e4 05                	in     $0x5,%al
 c32:	03 03                	add    (%ebx),%eax
 c34:	77 c8                	ja     bfe <mbh-0x2ff402>
 c36:	03 0a                	add    (%edx),%ecx
 c38:	08 3c ad f4 05 04 22 	or     %bh,0x220405f4(,%ebp,4)
 c3f:	05 01 ae 96 05       	add    $0x596ae01,%eax
 c44:	0d 69 05 02 08       	or     $0x8020569,%eax
 c49:	3e 02 90 01 13 02 90 	add    %ds:-0x6ffdecff(%eax),%dl
 c50:	01 13                	add    %edx,(%ebx)
 c52:	02 90 01 13 05 0d    	add    0xd051301(%eax),%dl
 c58:	02 90 01 14 05 10    	add    0x10051401(%eax),%dl
 c5e:	75 05                	jne    c65 <mbh-0x2ff39b>
 c60:	02 68 4c             	add    0x4c(%eax),%ch
 c63:	76 75                	jbe    cda <mbh-0x2ff326>
 c65:	75 75                	jne    cdc <mbh-0x2ff324>
 c67:	75 05                	jne    c6e <mbh-0x2ff392>
 c69:	0f 76 05 0d 66 05 10 	pcmpeqd 0x1005660d,%mm0
 c70:	59                   	pop    %ecx
 c71:	05 05 91 02 65       	add    $0x65029105,%eax
 c76:	13 05 01 85 3f 05    	adc    0x53f8501,%eax
 c7c:	02 75 08             	add    0x8(%ebp),%dh
 c7f:	4b                   	dec    %ebx
 c80:	08 4c 08 4b          	or     %cl,0x4b(%eax,%ecx,1)
 c84:	08 4b 08             	or     %cl,0x8(%ebx)
 c87:	4b                   	dec    %ebx
 c88:	08 4c 08 4b          	or     %cl,0x4b(%eax,%ecx,1)
 c8c:	08 4b 08             	or     %cl,0x8(%ebx)
 c8f:	4b                   	dec    %ebx
 c90:	05 0a 08 4c 05       	add    $0x54c080a,%eax
 c95:	02 74 05 04          	add    0x4(%ebp,%eax,1),%dh
 c99:	5b                   	pop    %ebx
 c9a:	02 65 13             	add    0x13(%ebp),%ah
 c9d:	02 65 13             	add    0x13(%ebp),%ah
 ca0:	05 03 02 65 15       	add    $0x15650203,%eax
 ca5:	05 04 02 6d 13       	add    $0x136d0204,%eax
 caa:	05 16 00 02 04       	add    $0x4020016,%eax
 caf:	03 03                	add    (%ebx),%eax
 cb1:	77 02                	ja     cb5 <mbh-0x2ff34b>
 cb3:	6d                   	insl   (%dx),%es:(%edi)
 cb4:	01 05 0f 00 02 04    	add    %eax,0x402000f
 cba:	01 4a 05             	add    %ecx,0x5(%edx)
 cbd:	02 03                	add    (%ebx),%al
 cbf:	0c c8                	or     $0xc8,%al
 cc1:	02 5c 15 02          	add    0x2(%ebp,%edx,1),%bl
 cc5:	31 13                	xor    %edx,(%ebx)
 cc7:	02 31                	add    (%ecx),%dh
 cc9:	15 02 5c 13 02       	adc    $0x2135c02,%eax
 cce:	62 13                	bound  %edx,(%ebx)
 cd0:	02 62 17             	add    0x17(%edx),%ah
 cd3:	02 5c 13 02          	add    0x2(%ebx,%edx,1),%bl
 cd7:	62 13                	bound  %edx,(%ebx)
 cd9:	02 62 18             	add    0x18(%edx),%ah
 cdc:	08 67 08             	or     %ah,0x8(%edi)
 cdf:	91                   	xchg   %eax,%ecx
 ce0:	08 92 05 11 83 05    	or     %dl,0x5831105(%edx)
 ce6:	0b 90 05 02 3d ae    	or     -0x51c2fdfb(%eax),%edx
 cec:	05 01 f3 69 05       	add    $0x569f301,%eax
 cf1:	02 77 05             	add    0x5(%edi),%dh
 cf4:	0d 4b 05 06 3c       	or     $0x3c06054b,%eax
 cf9:	05 12 83 05 10       	add    $0x10058312,%eax
 cfe:	74 05                	je     d05 <mbh-0x2ff2fb>
 d00:	1e                   	push   %ds
 d01:	02 26                	add    (%esi),%ah
 d03:	13 05 3c 58 05 12    	adc    0x1205583c,%eax
 d09:	3c 05                	cmp    $0x5,%al
 d0b:	10 2e                	adc    %ch,(%esi)
 d0d:	05 0b 02 28 13       	add    $0x1328020b,%eax
 d12:	05 01 c9 05 4f       	add    $0x4f05c901,%eax
 d17:	68 05 14 3d 05       	push   $0x53d1405
 d1c:	11 83 05 0f 91 05    	adc    %eax,0x5910f05(%ebx)
 d22:	0c 92                	or     $0x92,%al
 d24:	05 05 66 05 16       	add    $0x16056605,%eax
 d29:	c9                   	leave
 d2a:	05 01 75 05 0b       	add    $0xb057501,%eax
 d2f:	3f                   	aas
 d30:	05 02 67 59 59       	add    $0x59596702,%eax
 d35:	05 05 59 08 d7       	add    $0xd7085905,%eax
 d3a:	05 02 08 d7 30       	add    $0x30d70802,%eax
 d3f:	05 01 08 d7 02       	add    $0x2d70801,%eax
 d44:	03 00                	add    (%eax),%eax
 d46:	01 01                	add    %eax,(%ecx)
 d48:	04 02                	add    $0x2,%al
 d4a:	05 01 00 05 02       	add    $0x2050001,%eax
 d4f:	00 40 40             	add    %al,0x40(%eax)
 d52:	00 03                	add    %al,(%ebx)
 d54:	e0 00                	loopne d56 <mbh-0x2ff2aa>
 d56:	01 05 07 3d 02 03    	add    %eax,0x3023d07
 d5c:	00 01                	add    %al,(%ecx)
 d5e:	01 04 02             	add    %eax,(%edx,%eax,1)
 d61:	05 01 00 05 02       	add    $0x2050001,%eax
 d66:	00 40 80             	add    %al,-0x80(%eax)
 d69:	00 03                	add    %al,(%ebx)
 d6b:	e9 00 01 05 07       	jmp    7050e70 <task2_function+0x684ce70>
 d70:	3d 02 03 00 01       	cmp    $0x1000302,%eax
 d75:	01                   	.byte 0x1

Déassemblage de la section .debug_line_str :

00000000 <.debug_line_str>:
   0:	2f                   	das
   1:	68 6f 6d 65 2f       	push   $0x2f656d6f
   6:	73 61                	jae    69 <mbh-0x2fff97>
   8:	6e                   	outsb  %ds:(%esi),(%dx)
   9:	69 6d 2f 74 6c 73 2d 	imul   $0x2d736c74,0x2f(%ebp),%ebp
  10:	73 65                	jae    77 <mbh-0x2fff89>
  12:	63 2f                	arpl   %ebp,(%edi)
  14:	73 65                	jae    7b <mbh-0x2fff85>
  16:	63 6f 73             	arpl   %ebp,0x73(%edi)
  19:	2d 6e 67 2f 74       	sub    $0x742f676e,%eax
  1e:	70 5f                	jo     7f <mbh-0x2fff81>
  20:	65 78 61             	gs js  84 <mbh-0x2fff7c>
  23:	6d                   	insl   (%dx),%es:(%edi)
  24:	00 2e                	add    %ch,(%esi)
  26:	2e 2f                	cs das
  28:	6b 65 72 6e          	imul   $0x6e,0x72(%ebp),%esp
  2c:	65 6c                	gs insb (%dx),%es:(%edi)
  2e:	2f                   	das
  2f:	63 6f 72             	arpl   %ebp,0x72(%edi)
  32:	65 00 65 6e          	add    %ah,%gs:0x6e(%ebp)
  36:	74 72                	je     aa <mbh-0x2fff56>
  38:	79 2e                	jns    68 <mbh-0x2fff98>
  3a:	73 00                	jae    3c <mbh-0x2fffc4>
  3c:	2e 2e 2f             	cs cs das
  3f:	6b 65 72 6e          	imul   $0x6e,0x72(%ebp),%esp
  43:	65 6c                	gs insb (%dx),%es:(%edi)
  45:	2f                   	das
  46:	63 6f 72             	arpl   %ebp,0x72(%edi)
  49:	65 2f                	gs das
  4b:	73 74                	jae    c1 <mbh-0x2fff3f>
  4d:	61                   	popa
  4e:	72 74                	jb     c4 <mbh-0x2fff3c>
  50:	2e 63 00             	arpl   %eax,%cs:(%eax)
  53:	2e 2e 2f             	cs cs das
  56:	6b 65 72 6e          	imul   $0x6e,0x72(%ebp),%esp
  5a:	65 6c                	gs insb (%dx),%es:(%edi)
  5c:	2f                   	das
  5d:	69 6e 63 6c 75 64 65 	imul   $0x6564756c,0x63(%esi),%ebp
  64:	00 74 79 70          	add    %dh,0x70(%ecx,%edi,2)
  68:	65 73 2e             	gs jae 99 <mbh-0x2fff67>
  6b:	68 00 67 72 75       	push   $0x75726700
  70:	62 5f 6d             	bound  %ebx,0x6d(%edi)
  73:	62 69 2e             	bound  %ebp,0x2e(%ecx)
  76:	68 00 69 6e 66       	push   $0x666e6900
  7b:	6f                   	outsl  %ds:(%esi),(%dx)
  7c:	2e 68 00 69 6e 74    	cs push $0x746e6900
  82:	72 2e                	jb     b2 <mbh-0x2fff4e>
  84:	68 00 75 61 72       	push   $0x72617500
  89:	74 2e                	je     b9 <mbh-0x2fff47>
  8b:	68 00 70 69 63       	push   $0x63697000
  90:	2e 68 00 70 72 69    	cs push $0x69727000
  96:	6e                   	outsb  %ds:(%esi),(%dx)
  97:	74 2e                	je     c7 <mbh-0x2fff39>
  99:	68 00 73 74 61       	push   $0x61747300
  9e:	72 74                	jb     114 <mbh-0x2ffeec>
  a0:	2e 68 00 2e 2e 2f    	cs push $0x2f2e2e00
  a6:	6b 65 72 6e          	imul   $0x6e,0x72(%ebp),%esp
  aa:	65 6c                	gs insb (%dx),%es:(%edi)
  ac:	2f                   	das
  ad:	63 6f 72             	arpl   %ebp,0x72(%edi)
  b0:	65 2f                	gs das
  b2:	70 72                	jo     126 <mbh-0x2ffeda>
  b4:	69 6e 74 2e 63 00 73 	imul   $0x7300632e,0x74(%esi),%ebp
  bb:	74 72                	je     12f <mbh-0x2ffed1>
  bd:	69 6e 67 2e 68 00 2e 	imul   $0x2e00682e,0x67(%esi),%ebp
  c4:	2e 2f                	cs das
  c6:	6b 65 72 6e          	imul   $0x6e,0x72(%ebp),%esp
  ca:	65 6c                	gs insb (%dx),%es:(%edi)
  cc:	2f                   	das
  cd:	63 6f 72             	arpl   %ebp,0x72(%edi)
  d0:	65 2f                	gs das
  d2:	75 61                	jne    135 <mbh-0x2ffecb>
  d4:	72 74                	jb     14a <mbh-0x2ffeb6>
  d6:	2e 63 00             	arpl   %eax,%cs:(%eax)
  d9:	2e 2e 2f             	cs cs das
  dc:	6b 65 72 6e          	imul   $0x6e,0x72(%ebp),%esp
  e0:	65 6c                	gs insb (%dx),%es:(%edi)
  e2:	2f                   	das
  e3:	63 6f 72             	arpl   %ebp,0x72(%edi)
  e6:	65 2f                	gs das
  e8:	70 69                	jo     153 <mbh-0x2ffead>
  ea:	63 2e                	arpl   %ebp,(%esi)
  ec:	63 00                	arpl   %eax,(%eax)
  ee:	2e 2e 2f             	cs cs das
  f1:	6b 65 72 6e          	imul   $0x6e,0x72(%ebp),%esp
  f5:	65 6c                	gs insb (%dx),%es:(%edi)
  f7:	2f                   	das
  f8:	63 6f 72             	arpl   %ebp,0x72(%edi)
  fb:	65 2f                	gs das
  fd:	69 6e 74 72 2e 63 00 	imul   $0x632e72,0x74(%esi),%ebp
 104:	67 70 72             	addr16 jo 179 <mbh-0x2ffe87>
 107:	2e 68 00 65 78 63    	cs push $0x63786500
 10d:	70 2e                	jo     13d <mbh-0x2ffec3>
 10f:	68 00 69 64 74       	push   $0x74646900
 114:	2e 73 00             	jae,pn 117 <mbh-0x2ffee9>
 117:	2e 2e 2f             	cs cs das
 11a:	6b 65 72 6e          	imul   $0x6e,0x72(%ebp),%esp
 11e:	65 6c                	gs insb (%dx),%es:(%edi)
 120:	2f                   	das
 121:	63 6f 72             	arpl   %ebp,0x72(%edi)
 124:	65 2f                	gs das
 126:	65 78 63             	gs js  18c <mbh-0x2ffe74>
 129:	70 2e                	jo     159 <mbh-0x2ffea7>
 12b:	63 00                	arpl   %eax,(%eax)
 12d:	64 65 62 75 67       	fs bound %esi,%gs:0x67(%ebp)
 132:	2e 68 00 2e 2e 2f    	cs push $0x2f2e2e00
 138:	6b 65 72 6e          	imul   $0x6e,0x72(%ebp),%esp
 13c:	65 6c                	gs insb (%dx),%es:(%edi)
 13e:	2f                   	das
 13f:	63 6f 72             	arpl   %ebp,0x72(%edi)
 142:	65 2f                	gs das
 144:	73 74                	jae    1ba <mbh-0x2ffe46>
 146:	61                   	popa
 147:	63 6b 2e             	arpl   %ebp,0x2e(%ebx)
 14a:	63 00                	arpl   %eax,(%eax)
 14c:	74 70                	je     1be <mbh-0x2ffe42>
 14e:	2e 63 00             	arpl   %eax,%cs:(%eax)
 151:	73 65                	jae    1b8 <mbh-0x2ffe48>
 153:	67 6d                	insl   (%dx),%es:(%di)
 155:	65 6d                	gs insl (%dx),%es:(%edi)
 157:	2e 68 00 70 61 67    	cs push $0x67617000
 15d:	65 6d                	gs insl (%dx),%es:(%edi)
 15f:	65 6d                	gs insl (%dx),%es:(%edi)
 161:	2e                   	cs
 162:	68                   	.byte 0x68
	...

Déassemblage de la section .debug_info :

00000000 <.debug_info>:
       0:	20 00                	and    %al,(%eax)
       2:	00 00                	add    %al,(%eax)
       4:	05 00 01 04 00       	add    $0x40100,%eax
       9:	00 00                	add    %al,(%eax)
       b:	00 01                	add    %al,(%ecx)
       d:	00 00                	add    %al,(%eax)
       f:	00 00                	add    %al,(%eax)
      11:	10 30                	adc    %dh,(%eax)
      13:	30 00                	xor    %al,(%eax)
      15:	13 00                	adc    (%eax),%eax
      17:	00 00                	add    %al,(%eax)
      19:	00 17                	add    %dl,(%edi)
      1b:	00 00                	add    %al,(%eax)
      1d:	00 3c 00             	add    %bh,(%eax,%eax,1)
      20:	00 00                	add    %al,(%eax)
      22:	01 80 71 04 00 00    	add    %eax,0x471(%eax)
      28:	05 00 01 04 14       	add    $0x14040100,%eax
      2d:	00 00                	add    %al,(%eax)
      2f:	00 10                	add    %dl,(%eax)
      31:	21 04 00             	and    %eax,(%eax,%eax,1)
      34:	00 1d 3c 00 00 00    	add    %bl,0x3c
      3a:	00 00                	add    %al,(%eax)
      3c:	00 00                	add    %al,(%eax)
      3e:	23 30                	and    (%eax),%esi
      40:	30 00                	xor    %al,(%eax)
      42:	4a                   	dec    %edx
      43:	00 00                	add    %al,(%eax)
      45:	00 50 00             	add    %dl,0x0(%eax)
      48:	00 00                	add    %al,(%eax)
      4a:	03 01                	add    (%ecx),%eax
      4c:	08 db                	or     %bl,%bl
      4e:	01 00                	add    %eax,(%eax)
      50:	00 03                	add    %al,(%ebx)
      52:	02 07                	add    (%edi),%al
      54:	7d 02                	jge    58 <mbh-0x2fffa8>
      56:	00 00                	add    %al,(%eax)
      58:	02 a4 00 00 00 02 1c 	add    0x1c020000(%eax,%eax,1),%ah
      5f:	20 4a 00             	and    %cl,0x0(%edx)
      62:	00 00                	add    %al,(%eax)
      64:	06                   	push   %es
      65:	34 00                	xor    $0x0,%al
      67:	00 00                	add    %al,(%eax)
      69:	09 40 00             	or     %eax,0x0(%eax)
      6c:	00 00                	add    %al,(%eax)
      6e:	03 04 07             	add    (%edi,%eax,1),%eax
      71:	1f                   	pop    %ds
      72:	02 00                	add    (%eax),%al
      74:	00 03                	add    %al,(%ebx)
      76:	08 07                	or     %al,(%edi)
      78:	15 02 00 00 03       	adc    $0x3000002,%eax
      7d:	01 06                	add    %eax,(%esi)
      7f:	dd 01                	fldl   (%ecx)
      81:	00 00                	add    %al,(%eax)
      83:	03 02                	add    (%edx),%eax
      85:	05 ad 00 00 00       	add    $0xad,%eax
      8a:	11 04 05 69 6e 74 00 	adc    %eax,0x746e69(,%eax,1)
      91:	03 08                	add    (%eax),%ecx
      93:	05 6a 01 00 00       	add    $0x16a,%eax
      98:	03 01                	add    (%ecx),%eax
      9a:	06                   	push   %es
      9b:	e4 01                	in     $0x1,%al
      9d:	00 00                	add    %al,(%eax)
      9f:	06                   	push   %es
      a0:	74 00                	je     a2 <mbh-0x2fff5e>
      a2:	00 00                	add    %al,(%eax)
      a4:	02 b7 00 00 00 02    	add    0x2000000(%edi),%dh
      aa:	25 20 8c 00 00       	and    $0x8c20,%eax
      af:	00 03                	add    %al,(%ebx)
      b1:	04 07                	add    $0x7,%al
      b3:	1a 02                	sbb    (%edx),%al
      b5:	00 00                	add    %al,(%eax)
      b7:	02 ec                	add    %ah,%ch
      b9:	03 00                	add    (%eax),%eax
      bb:	00 03                	add    %al,(%ebx)
      bd:	60                   	pusha
      be:	21 26                	and    %esp,(%esi)
      c0:	00 00                	add    %al,(%eax)
      c2:	00 02                	add    %al,(%edx)
      c4:	11 01                	adc    %eax,(%ecx)
      c6:	00 00                	add    %al,(%eax)
      c8:	03 61 21             	add    0x21(%ecx),%esp
      cb:	2d 00 00 00 02       	sub    $0x2000000,%eax
      d0:	9a 00 00 00 03 62 21 	lcall  $0x2162,$0x3000000
      d7:	4a                   	dec    %edx
      d8:	00 00                	add    %al,(%eax)
      da:	00 02                	add    %al,(%edx)
      dc:	90                   	nop
      dd:	02 00                	add    (%eax),%al
      df:	00 03                	add    %al,(%ebx)
      e1:	63 21                	arpl   %esp,(%ecx)
      e3:	51                   	push   %ecx
      e4:	00 00                	add    %al,(%eax)
      e6:	00 05 c5 03 00 00    	add    %al,0x3c5
      ec:	10 03                	adc    %al,(%ebx)
      ee:	7f 08                	jg     f8 <mbh-0x2fff08>
      f0:	01 01                	add    %eax,(%ecx)
      f2:	00 00                	add    %al,(%eax)
      f4:	01 3e                	add    %edi,(%esi)
      f6:	03 00                	add    (%eax),%eax
      f8:	00 81 16 ab 00 00    	add    %al,0xab16(%ecx)
      fe:	00 00                	add    %al,(%eax)
     100:	01 24 01             	add    %esp,(%ecx,%eax,1)
     103:	00 00                	add    %al,(%eax)
     105:	82 16 ab             	adcb   $0xab,(%esi)
     108:	00 00                	add    %al,(%eax)
     10a:	00 04 01             	add    %al,(%ecx,%eax,1)
     10d:	f8                   	clc
     10e:	05 00 00 83 16       	add    $0x16830000,%eax
     113:	ab                   	stos   %eax,%es:(%edi)
     114:	00 00                	add    %al,(%eax)
     116:	00 08                	add    %cl,(%eax)
     118:	01 db                	add    %ebx,%ebx
     11a:	05 00 00 84 16       	add    $0x16840000,%eax
     11f:	ab                   	stos   %eax,%es:(%edi)
     120:	00 00                	add    %al,(%eax)
     122:	00 0c 00             	add    %cl,(%eax,%eax,1)
     125:	02 0e                	add    (%esi),%cl
     127:	03 00                	add    (%eax),%eax
     129:	00 03                	add    %al,(%ebx)
     12b:	86 2c c3             	xchg   %ch,(%ebx,%eax,8)
     12e:	00 00                	add    %al,(%eax)
     130:	00 05 c8 02 00 00    	add    %al,0x2c8
     136:	10 03                	adc    %al,(%ebx)
     138:	89 08                	mov    %ecx,(%eax)
     13a:	4c                   	dec    %esp
     13b:	01 00                	add    %eax,(%eax)
     13d:	00 07                	add    %al,(%edi)
     13f:	6e                   	outsb  %ds:(%esi),(%dx)
     140:	75 6d                	jne    1af <mbh-0x2ffe51>
     142:	00 03                	add    %al,(%ebx)
     144:	8b 16                	mov    (%esi),%edx
     146:	ab                   	stos   %eax,%es:(%edi)
     147:	00 00                	add    %al,(%eax)
     149:	00 00                	add    %al,(%eax)
     14b:	01 5b 03             	add    %ebx,0x3(%ebx)
     14e:	00 00                	add    %al,(%eax)
     150:	8c 16                	mov    %ss,(%esi)
     152:	ab                   	stos   %eax,%es:(%edi)
     153:	00 00                	add    %al,(%eax)
     155:	00 04 01             	add    %al,(%ecx,%eax,1)
     158:	f8                   	clc
     159:	05 00 00 8d 16       	add    $0x168d0000,%eax
     15e:	ab                   	stos   %eax,%es:(%edi)
     15f:	00 00                	add    %al,(%eax)
     161:	00 08                	add    %cl,(%eax)
     163:	01 5a 01             	add    %ebx,0x1(%edx)
     166:	00 00                	add    %al,(%eax)
     168:	8e 16                	mov    (%esi),%ss
     16a:	ab                   	stos   %eax,%es:(%edi)
     16b:	00 00                	add    %al,(%eax)
     16d:	00 0c 00             	add    %cl,(%eax,%eax,1)
     170:	02 35 01 00 00 03    	add    0x3000001,%dh
     176:	90                   	nop
     177:	33 0d 01 00 00 0a    	xor    0xa000001,%ecx
     17d:	10 a5 76 01 00 00    	adc    %ah,0x176(%ebp)
     183:	0b fe                	or     %esi,%edi
     185:	00 00                	add    %al,(%eax)
     187:	00 a7 23 01 01 00    	add    %ah,0x10123(%edi)
     18d:	00 0b                	add    %cl,(%ebx)
     18f:	fa                   	cli
     190:	01 00                	add    %eax,(%eax)
     192:	00 a8 2a 4c 01 00    	add    %ch,0x14c2a(%eax)
     198:	00 00                	add    %al,(%eax)
     19a:	0c 08                	or     $0x8,%al
     19c:	cf                   	iret
     19d:	96                   	xchg   %eax,%esi
     19e:	01 00                	add    %eax,(%eax)
     1a0:	00 01                	add    %al,(%ecx)
     1a2:	e4 05                	in     $0x5,%al
     1a4:	00 00                	add    %al,(%eax)
     1a6:	d1 1a                	rcrl   $1,(%edx)
     1a8:	ab                   	stos   %eax,%es:(%edi)
     1a9:	00 00                	add    %al,(%eax)
     1ab:	00 00                	add    %al,(%eax)
     1ad:	01 7e 01             	add    %edi,0x1(%esi)
     1b0:	00 00                	add    %al,(%eax)
     1b2:	d2 1a                	rcrb   %cl,(%edx)
     1b4:	9f                   	lahf
     1b5:	00 00                	add    %al,(%eax)
     1b7:	00 04 00             	add    %al,(%eax,%eax,1)
     1ba:	0c 06                	or     $0x6,%al
     1bc:	d4 e6                	aam    $0xe6
     1be:	01 00                	add    %eax,(%eax)
     1c0:	00 01                	add    %al,(%ecx)
     1c2:	be 00 00 00 d6       	mov    $0xd6000000,%esi
     1c7:	19 93 00 00 00 00    	sbb    %edx,0x0(%ebx)
     1cd:	01 46 03             	add    %eax,0x3(%esi)
     1d0:	00 00                	add    %al,(%eax)
     1d2:	d7                   	xlat   %ds:(%ebx)
     1d3:	19 93 00 00 00 01    	sbb    %edx,0x1000000(%ebx)
     1d9:	01 4a 02             	add    %ecx,0x2(%edx)
     1dc:	00 00                	add    %al,(%eax)
     1de:	d8 19                	fcomps (%ecx)
     1e0:	93                   	xchg   %eax,%ebx
     1e1:	00 00                	add    %al,(%eax)
     1e3:	00 02                	add    %al,(%edx)
     1e5:	01 85 03 00 00 d9    	add    %eax,-0x26fffffd(%ebp)
     1eb:	19 93 00 00 00 03    	sbb    %edx,0x3000000(%ebx)
     1f1:	01 9d 01 00 00 da    	add    %ebx,-0x25ffffff(%ebp)
     1f7:	19 93 00 00 00 04    	sbb    %edx,0x4000000(%ebx)
     1fd:	01 52 00             	add    %edx,0x0(%edx)
     200:	00 00                	add    %al,(%eax)
     202:	db 19                	fistpl (%ecx)
     204:	93                   	xchg   %eax,%ebx
     205:	00 00                	add    %al,(%eax)
     207:	00 05 00 0a 08 cd    	add    %al,0xcd080a00
     20d:	f8                   	clc
     20e:	01 00                	add    %eax,(%eax)
     210:	00 0d 76 01 00 00    	add    %cl,0x176
     216:	0d 96 01 00 00       	or     $0x196,%eax
     21b:	00 05 b9 02 00 00    	add    %al,0x2b9
     221:	78 03                	js     226 <mbh-0x2ffdda>
     223:	92                   	xchg   %eax,%edx
     224:	08 4f 03             	or     %cl,0x3(%edi)
     227:	00 00                	add    %al,(%eax)
     229:	01 46 0b             	add    %eax,0xb(%esi)
     22c:	00 00                	add    %al,(%eax)
     22e:	95                   	xchg   %eax,%ebp
     22f:	16                   	push   %ss
     230:	ab                   	stos   %eax,%es:(%edi)
     231:	00 00                	add    %al,(%eax)
     233:	00 00                	add    %al,(%eax)
     235:	01 02                	add    %eax,(%edx)
     237:	02 00                	add    (%eax),%al
     239:	00 98 16 ab 00 00    	add    %bl,0xab16(%eax)
     23f:	00 04 01             	add    %al,(%ecx,%eax,1)
     242:	6e                   	outsb  %ds:(%esi),(%dx)
     243:	03 00                	add    (%eax),%eax
     245:	00 99 16 ab 00 00    	add    %bl,0xab16(%ecx)
     24b:	00 08                	add    %cl,(%eax)
     24d:	01 ad 02 00 00 9c    	add    %ebp,-0x63fffffe(%ebp)
     253:	16                   	push   %ss
     254:	ab                   	stos   %eax,%es:(%edi)
     255:	00 00                	add    %al,(%eax)
     257:	00 0c 01             	add    %cl,(%ecx,%eax,1)
     25a:	f0 00 00             	lock add %al,(%eax)
     25d:	00 9f 16 ab 00 00    	add    %bl,0xab16(%edi)
     263:	00 10                	add    %dl,(%eax)
     265:	01 e1                	add    %esp,%ecx
     267:	03 00                	add    (%eax),%eax
     269:	00 a2 16 ab 00 00    	add    %ah,0xab16(%edx)
     26f:	00 14 01             	add    %dl,(%ecx,%eax,1)
     272:	07                   	pop    %es
     273:	01 00                	add    %eax,(%eax)
     275:	00 a3 16 ab 00 00    	add    %ah,0xab16(%ebx)
     27b:	00 18                	add    %bl,(%eax)
     27d:	07                   	pop    %es
     27e:	75 00                	jne    280 <mbh-0x2ffd80>
     280:	03 a9 05 58 01 00    	add    0x15805(%ecx),%ebp
     286:	00 1c 01             	add    %bl,(%ecx,%eax,1)
     289:	3e 02 00             	add    %ds:(%eax),%al
     28c:	00 ac 16 ab 00 00 00 	add    %ch,0xab(%esi,%edx,1)
     293:	2c 01                	sub    $0x1,%al
     295:	6d                   	insl   (%dx),%es:(%edi)
     296:	00 00                	add    %al,(%eax)
     298:	00 ad 16 ab 00 00    	add    %ch,0xab16(%ebp)
     29e:	00 30                	add    %dh,(%eax)
     2a0:	01 60 03             	add    %esp,0x3(%eax)
     2a3:	00 00                	add    %al,(%eax)
     2a5:	b0 16                	mov    $0x16,%al
     2a7:	ab                   	stos   %eax,%es:(%edi)
     2a8:	00 00                	add    %al,(%eax)
     2aa:	00 34 01             	add    %dh,(%ecx,%eax,1)
     2ad:	e4 00                	in     $0x0,%al
     2af:	00 00                	add    %al,(%eax)
     2b1:	b1 16                	mov    $0x16,%cl
     2b3:	ab                   	stos   %eax,%es:(%edi)
     2b4:	00 00                	add    %al,(%eax)
     2b6:	00 38                	add    %bh,(%eax)
     2b8:	01 78 03             	add    %edi,0x3(%eax)
     2bb:	00 00                	add    %al,(%eax)
     2bd:	b4 16                	mov    $0x16,%ah
     2bf:	ab                   	stos   %eax,%es:(%edi)
     2c0:	00 00                	add    %al,(%eax)
     2c2:	00 3c 01             	add    %bh,(%ecx,%eax,1)
     2c5:	fe 03                	incb   (%ebx)
     2c7:	00 00                	add    %al,(%eax)
     2c9:	b7 16                	mov    $0x16,%bh
     2cb:	ab                   	stos   %eax,%es:(%edi)
     2cc:	00 00                	add    %al,(%eax)
     2ce:	00 40 01             	add    %al,0x1(%eax)
     2d1:	60                   	pusha
     2d2:	01 00                	add    %eax,(%eax)
     2d4:	00 ba 16 ab 00 00    	add    %bh,0xab16(%edx)
     2da:	00 44 01 e9          	add    %al,-0x17(%ecx,%eax,1)
     2de:	01 00                	add    %eax,(%eax)
     2e0:	00 bd 16 ab 00 00    	add    %bh,0xab16(%ebp)
     2e6:	00 48 01             	add    %cl,0x1(%eax)
     2e9:	cd 01                	int    $0x1
     2eb:	00 00                	add    %al,(%eax)
     2ed:	be 16 ab 00 00       	mov    $0xab16,%esi
     2f2:	00 4c 01 0c          	add    %cl,0xc(%ecx,%eax,1)
     2f6:	02 00                	add    (%eax),%al
     2f8:	00 bf 16 9f 00 00    	add    %bh,0x9f16(%edi)
     2fe:	00 50 01             	add    %dl,0x1(%eax)
     301:	0f 04                	(bad)
     303:	00 00                	add    %al,(%eax)
     305:	c0 16 9f             	rclb   $0x9f,(%esi)
     308:	00 00                	add    %al,(%eax)
     30a:	00 52 01             	add    %dl,0x1(%edx)
     30d:	88 00                	mov    %al,(%eax)
     30f:	00 00                	add    %al,(%eax)
     311:	c1 16 9f             	rcll   $0x9f,(%esi)
     314:	00 00                	add    %al,(%eax)
     316:	00 54 01 2c          	add    %dl,0x2c(%ecx,%eax,1)
     31a:	03 00                	add    (%eax),%eax
     31c:	00 c2                	add    %al,%dl
     31e:	16                   	push   %ss
     31f:	9f                   	lahf
     320:	00 00                	add    %al,(%eax)
     322:	00 56 01             	add    %dl,0x1(%esi)
     325:	77 00                	ja     327 <mbh-0x2ffcd9>
     327:	00 00                	add    %al,(%eax)
     329:	c4 16                	les    (%esi),%edx
     32b:	b7 00                	mov    $0x0,%bh
     32d:	00 00                	add    %al,(%eax)
     32f:	58                   	pop    %eax
     330:	01 eb                	add    %ebp,%ebx
     332:	02 00                	add    (%eax),%al
     334:	00 c5                	add    %al,%ch
     336:	16                   	push   %ss
     337:	ab                   	stos   %eax,%es:(%edi)
     338:	00 00                	add    %al,(%eax)
     33a:	00 60 01             	add    %ah,0x1(%eax)
     33d:	2c 02                	sub    $0x2,%al
     33f:	00 00                	add    %al,(%eax)
     341:	c6                   	(bad)
     342:	16                   	push   %ss
     343:	ab                   	stos   %eax,%es:(%edi)
     344:	00 00                	add    %al,(%eax)
     346:	00 64 01 b2          	add    %ah,-0x4e(%ecx,%eax,1)
     34a:	03 00                	add    (%eax),%eax
     34c:	00 c7                	add    %al,%bh
     34e:	16                   	push   %ss
     34f:	ab                   	stos   %eax,%es:(%edi)
     350:	00 00                	add    %al,(%eax)
     352:	00 68 01             	add    %ch,0x1(%eax)
     355:	bd 01 00 00 c8       	mov    $0xc8000001,%ebp
     35a:	15 93 00 00 00       	adc    $0x93,%eax
     35f:	6c                   	insb   (%dx),%es:(%edi)
     360:	01 fd                	add    %edi,%ebp
     362:	02 00                	add    (%eax),%al
     364:	00 cc                	add    %cl,%ah
     366:	15 93 00 00 00       	adc    $0x93,%eax
     36b:	6d                   	insl   (%dx),%es:(%edi)
     36c:	12 e6                	adc    %dh,%ah
     36e:	01 00                	add    %eax,(%eax)
     370:	00 70 00             	add    %dh,0x0(%eax)
     373:	02 a1 03 00 00 03    	add    0x3000003(%ecx),%ah
     379:	df 1f                	fistps (%edi)
     37b:	f8                   	clc
     37c:	01 00                	add    %eax,(%eax)
     37e:	00 02                	add    %al,(%edx)
     380:	78 01                	js     383 <mbh-0x2ffc7d>
     382:	00 00                	add    %al,(%eax)
     384:	04 08                	add    $0x8,%al
     386:	21 4f 03             	and    %ecx,0x3(%edi)
     389:	00 00                	add    %al,(%eax)
     38b:	05 6b 02 00 00       	add    $0x26b,%eax
     390:	04 05                	add    $0x5,%al
     392:	08 10                	or     %dl,(%eax)
     394:	82 03 00             	addb   $0x0,(%ebx)
     397:	00 07                	add    %al,(%edi)
     399:	6d                   	insl   (%dx),%es:(%edi)
     39a:	62 69 00             	bound  %ebp,0x0(%ecx)
     39d:	05 0a 0b 82 03       	add    $0x3820b0a,%eax
     3a2:	00 00                	add    %al,(%eax)
     3a4:	00 00                	add    %al,(%eax)
     3a6:	08 5b 03             	or     %bl,0x3(%ebx)
     3a9:	00 00                	add    %al,(%eax)
     3ab:	02 ab 03 00 00 05    	add    0x5000003(%ebx),%ch
     3b1:	0c 1b                	or     $0x1b,%al
     3b3:	67 03 00             	add    (%bx,%si),%eax
     3b6:	00 13                	add    %dl,(%ebx)
     3b8:	45                   	inc    %ebp
     3b9:	00 00                	add    %al,(%eax)
     3bb:	00 a3 03 00 00 14    	add    %ah,0x14000003(%ebx)
     3c1:	4a                   	dec    %edx
     3c2:	00 00                	add    %al,(%eax)
     3c4:	00 02                	add    %al,(%edx)
     3c6:	00 06                	add    %al,(%esi)
     3c8:	93                   	xchg   %eax,%ebx
     3c9:	03 00                	add    (%eax),%eax
     3cb:	00 09                	add    %cl,(%ecx)
     3cd:	a3 03 00 00 15       	mov    %eax,0x15000003
     3d2:	6d                   	insl   (%dx),%es:(%edi)
     3d3:	62 68 00             	bound  %ebp,0x0(%eax)
     3d6:	01 09                	add    %ecx,(%ecx)
     3d8:	21 a8 03 00 00 04    	and    %ebp,0x4000003(%eax)
     3de:	05 03 00 00 30       	add    $0x30000003,%eax
     3e3:	00 16                	add    %dl,(%esi)
     3e5:	dd 00                	fldl   (%eax)
     3e7:	00 00                	add    %al,(%eax)
     3e9:	01 0f                	add    %ecx,(%edi)
     3eb:	0f 87 03 00 00 10    	ja     100003f4 <task2_function+0xf7fc3f4>
     3f1:	05 03 80 57 30       	add    $0x30578003,%eax
     3f6:	00 17                	add    %dl,(%edi)
     3f8:	df 00                	filds  (%eax)
     3fa:	00 00                	add    %al,(%eax)
     3fc:	01 10                	add    %edx,(%eax)
     3fe:	10 e5                	adc    %ah,%ch
     400:	03 00                	add    (%eax),%eax
     402:	00 05 03 e0 56 30    	add    %al,0x3056e003
     408:	00 08                	add    %cl,(%eax)
     40a:	87 03                	xchg   %eax,(%ebx)
     40c:	00 00                	add    %al,(%eax)
     40e:	18 f8                	sbb    %bh,%al
     410:	00 00                	add    %al,(%eax)
     412:	00 09                	add    %cl,(%ecx)
     414:	0c 0a                	or     $0xa,%al
     416:	fd                   	std
     417:	03 00                	add    (%eax),%eax
     419:	00 0e                	add    %cl,(%esi)
     41b:	fd                   	std
     41c:	03 00                	add    (%eax),%eax
     41e:	00 04 00             	add    %al,(%eax,%eax,1)
     421:	08 7b 00             	or     %bh,0x0(%ebx)
     424:	00 00                	add    %al,(%eax)
     426:	19 74 70 00          	sbb    %esi,0x0(%eax,%esi,2)
     42a:	0a 08                	or     (%eax),%cl
     42c:	0d 0f 04 00 00       	or     $0x40f,%eax
     431:	04 00                	add    $0x0,%al
     433:	1a b4 06 00 00 09 0d 	sbb    0xd090000(%esi,%eax,1),%dh
     43a:	0a 80 00 00 00 26    	or     0x26000000(%eax),%al
     440:	04 00                	add    $0x0,%al
     442:	00 0e                	add    %cl,(%esi)
     444:	fd                   	std
     445:	03 00                	add    (%eax),%eax
     447:	00 04 00             	add    %al,(%eax,%eax,1)
     44a:	1b a3 02 00 00 06    	sbb    0x6000002(%ebx),%esp
     450:	76 06                	jbe    458 <mbh-0x2ffba8>
     452:	34 04                	xor    $0x4,%al
     454:	00 00                	add    %al,(%eax)
     456:	04 00                	add    $0x0,%al
     458:	0f 48 00             	cmovs  (%eax),%eax
     45b:	00 00                	add    %al,(%eax)
     45d:	07                   	pop    %es
     45e:	43                   	inc    %ebx
     45f:	01 09                	add    %ecx,(%ecx)
     461:	43                   	inc    %ebx
     462:	04 00                	add    $0x0,%al
     464:	00 04 00             	add    %al,(%eax,%eax,1)
     467:	0f 2c 01             	cvttps2pi (%ecx),%mm0
     46a:	00 00                	add    %al,(%eax)
     46c:	08 01                	or     %al,(%ecx)
     46e:	01 06                	add    %eax,(%esi)
     470:	52                   	push   %edx
     471:	04 00                	add    $0x0,%al
     473:	00 04 00             	add    %al,(%eax,%eax,1)
     476:	1c 77                	sbb    $0x77,%al
     478:	02 00                	add    (%eax),%al
     47a:	00 01                	add    %al,(%ecx)
     47c:	12 22                	adc    (%edx),%ah
     47e:	23 30                	and    (%eax),%esi
     480:	30 00                	xor    %al,(%eax)
     482:	4a                   	dec    %edx
     483:	00 00                	add    %al,(%eax)
     485:	00 01                	add    %al,(%ecx)
     487:	9c                   	pushf
     488:	1d 6d 62 69 00       	sbb    $0x69626d,%eax
     48d:	01 12                	add    %edx,(%edx)
     48f:	2f                   	das
     490:	82 03 00             	addb   $0x0,(%ebx)
     493:	00 02                	add    %al,(%edx)
     495:	91                   	xchg   %eax,%ecx
     496:	6c                   	insb   (%dx),%es:(%edi)
     497:	00 00                	add    %al,(%eax)
     499:	b7 0a                	mov    $0xa,%bh
     49b:	00 00                	add    %al,(%eax)
     49d:	05 00 01 04 c5       	add    $0xc5040100,%eax
     4a2:	01 00                	add    %eax,(%eax)
     4a4:	00 19                	add    %bl,(%ecx)
     4a6:	21 04 00             	and    %eax,(%eax,%eax,1)
     4a9:	00 1d a3 00 00 00    	add    %bl,0xa3
     4af:	00 00                	add    %al,(%eax)
     4b1:	00 00                	add    %al,(%eax)
     4b3:	6d                   	insl   (%dx),%es:(%edi)
     4b4:	30 30                	xor    %dh,(%eax)
     4b6:	00 32                	add    %dh,(%edx)
     4b8:	08 00                	or     %al,(%eax)
     4ba:	00 dd                	add    %bl,%ch
     4bc:	00 00                	add    %al,(%eax)
     4be:	00 02                	add    %al,(%edx)
     4c0:	f6 03 00             	testb  $0x0,(%ebx)
     4c3:	00 03                	add    %al,(%ebx)
     4c5:	1a 20                	sbb    (%eax),%ah
     4c7:	32 00                	xor    (%eax),%al
     4c9:	00 00                	add    %al,(%eax)
     4cb:	0a 01                	or     (%ecx),%al
     4cd:	08 db                	or     %bl,%bl
     4cf:	01 00                	add    %eax,(%eax)
     4d1:	00 02                	add    %al,(%edx)
     4d3:	1b 01                	sbb    (%ecx),%eax
     4d5:	00 00                	add    %al,(%eax)
     4d7:	03 1b                	add    (%ebx),%ebx
     4d9:	20 45 00             	and    %al,0x0(%ebp)
     4dc:	00 00                	add    %al,(%eax)
     4de:	0a 02                	or     (%edx),%al
     4e0:	07                   	pop    %es
     4e1:	7d 02                	jge    4e5 <mbh-0x2ffb1b>
     4e3:	00 00                	add    %al,(%eax)
     4e5:	02 a4 00 00 00 03 1c 	add    0x1c030000(%eax,%eax,1),%ah
     4ec:	20 58 00             	and    %bl,0x0(%eax)
     4ef:	00 00                	add    %al,(%eax)
     4f1:	0a 04 07             	or     (%edi,%eax,1),%al
     4f4:	1f                   	pop    %ds
     4f5:	02 00                	add    (%eax),%al
     4f7:	00 02                	add    %al,(%edx)
     4f9:	9a 02 00 00 03 1d 20 	lcall  $0x201d,$0x3000002
     500:	6b 00 00             	imul   $0x0,(%eax),%eax
     503:	00 0a                	add    %cl,(%edx)
     505:	08 07                	or     %al,(%edi)
     507:	15 02 00 00 02       	adc    $0x2000002,%eax
     50c:	03 08                	add    (%eax),%ecx
     50e:	00 00                	add    %al,(%eax)
     510:	03 1f                	add    (%edi),%ebx
     512:	20 7e 00             	and    %bh,0x0(%esi)
     515:	00 00                	add    %al,(%eax)
     517:	0a 01                	or     (%ecx),%al
     519:	06                   	push   %es
     51a:	dd 01                	fldl   (%ecx)
     51c:	00 00                	add    %al,(%eax)
     51e:	02 50 07             	add    0x7(%eax),%dl
     521:	00 00                	add    %al,(%eax)
     523:	03 20                	add    (%eax),%esp
     525:	20 91 00 00 00 0a    	and    %dl,0xa000000(%ecx)
     52b:	02 05 ad 00 00 00    	add    0xad,%al
     531:	02 0d 06 00 00 03    	add    0x3000006,%cl
     537:	21 20                	and    %esp,(%eax)
     539:	a4                   	movsb  %ds:(%esi),%es:(%edi)
     53a:	00 00                	add    %al,(%eax)
     53c:	00 1a                	add    %bl,(%edx)
     53e:	04 05                	add    $0x5,%al
     540:	69 6e 74 00 02 f0 06 	imul   $0x6f00200,0x74(%esi),%ebp
     547:	00 00                	add    %al,(%eax)
     549:	03 22                	add    (%edx),%esp
     54b:	20 b7 00 00 00 0a    	and    %dh,0xa000000(%edi)
     551:	08 05 6a 01 00 00    	or     %al,0x16a
     557:	02 16                	add    (%esi),%dl
     559:	06                   	push   %es
     55a:	00 00                	add    %al,(%eax)
     55c:	03 24 20             	add    (%eax,%eiz,1),%esp
     55f:	ca 00 00             	lret   $0x0
     562:	00 08                	add    %cl,(%eax)
     564:	cf                   	iret
     565:	00 00                	add    %al,(%eax)
     567:	00 0a                	add    %cl,(%edx)
     569:	01 06                	add    %eax,(%esi)
     56b:	e4 01                	in     $0x1,%al
     56d:	00 00                	add    %al,(%eax)
     56f:	1b cf                	sbb    %edi,%ecx
     571:	00 00                	add    %al,(%eax)
     573:	00 02                	add    %al,(%edx)
     575:	b7 00                	mov    $0x0,%bh
     577:	00 00                	add    %al,(%eax)
     579:	03 25 20 e7 00 00    	add    0xe720,%esp
     57f:	00 0a                	add    %cl,(%edx)
     581:	04 07                	add    $0x7,%al
     583:	1a 02                	sbb    (%edx),%al
     585:	00 00                	add    %al,(%eax)
     587:	02 b0 07 00 00 03    	add    0x3000007(%eax),%dh
     58d:	26 20 e7             	es and %ah,%bh
     590:	00 00                	add    %al,(%eax)
     592:	00 1c 07             	add    %bl,(%edi,%eax,1)
     595:	04 58                	add    $0x58,%al
     597:	00 00                	add    %al,(%eax)
     599:	00 03                	add    %al,(%ebx)
     59b:	29 0e                	sub    %ecx,(%esi)
     59d:	15 01 00 00 17       	adc    $0x17000001,%eax
     5a2:	90                   	nop
     5a3:	07                   	pop    %es
     5a4:	00 00                	add    %al,(%eax)
     5a6:	00 17                	add    %dl,(%edi)
     5a8:	19 08                	sbb    %ecx,(%eax)
     5aa:	00 00                	add    %al,(%eax)
     5ac:	01 00                	add    %eax,(%eax)
     5ae:	02 5c 06 00          	add    0x0(%esi,%eax,1),%bl
     5b2:	00 03                	add    %al,(%ebx)
     5b4:	29 20                	sub    %esp,(%eax)
     5b6:	fa                   	cli
     5b7:	00 00                	add    %al,(%eax)
     5b9:	00 0c 02             	add    %cl,(%edx,%eax,1)
     5bc:	4c                   	dec    %esp
     5bd:	04 42                	add    $0x42,%al
     5bf:	01 00                	add    %eax,(%eax)
     5c1:	00 03                	add    %al,(%ebx)
     5c3:	fd                   	std
     5c4:	05 00 00 4e 0f       	add    $0xf4e0000,%eax
     5c9:	26 00 00             	add    %al,%es:(%eax)
     5cc:	00 00                	add    %al,(%eax)
     5ce:	03 f9                	add    %ecx,%edi
     5d0:	06                   	push   %es
     5d1:	00 00                	add    %al,(%eax)
     5d3:	4f                   	dec    %edi
     5d4:	0f 26 00             	mov    %eax,%tr0
     5d7:	00 00                	add    %al,(%eax)
     5d9:	01 00                	add    %eax,(%eax)
     5db:	12 35 06 00 00 02    	adc    0x2000006,%dh
     5e1:	45                   	inc    %ebp
     5e2:	74 01                	je     5e5 <mbh-0x2ffa1b>
     5e4:	00 00                	add    %al,(%eax)
     5e6:	06                   	push   %es
     5e7:	72 61                	jb     64a <mbh-0x2ff9b6>
     5e9:	77 00                	ja     5eb <mbh-0x2ffa15>
     5eb:	47                   	inc    %edi
     5ec:	0d 39 00 00 00       	or     $0x39,%eax
     5f1:	09 3a                	or     %edi,(%edx)
     5f3:	07                   	pop    %es
     5f4:	00 00                	add    %al,(%eax)
     5f6:	48                   	dec    %eax
     5f7:	0d 85 00 00 00       	or     $0x85,%eax
     5fc:	09 bb 06 00 00 49    	or     %edi,0x49000006(%ebx)
     602:	0d 74 01 00 00       	or     $0x174,%eax
     607:	0b 21                	or     (%ecx),%esp
     609:	01 00                	add    %eax,(%eax)
     60b:	00 00                	add    %al,(%eax)
     60d:	0e                   	push   %cs
     60e:	26 00 00             	add    %al,%es:(%eax)
     611:	00 84 01 00 00 10 58 	add    %al,0x58100000(%ecx,%eax,1)
     618:	00 00                	add    %al,(%eax)
     61a:	00 01                	add    %al,(%ecx)
     61c:	00 02                	add    %al,(%edx)
     61e:	63 06                	arpl   %eax,(%esi)
     620:	00 00                	add    %al,(%eax)
     622:	03 53 1b             	add    0x1b(%ebx),%edx
     625:	42                   	inc    %edx
     626:	01 00                	add    %eax,(%eax)
     628:	00 0c 04             	add    %cl,(%esp,%eax,1)
     62b:	5f                   	pop    %edi
     62c:	04 b1                	add    $0xb1,%al
     62e:	01 00                	add    %eax,(%eax)
     630:	00 03                	add    %al,(%ebx)
     632:	ff 06                	incl   (%esi)
     634:	00 00                	add    %al,(%eax)
     636:	61                   	popa
     637:	0f 84 01 00 00 00    	je     63e <mbh-0x2ff9c2>
     63d:	03 fc                	add    %esp,%edi
     63f:	07                   	pop    %es
     640:	00 00                	add    %al,(%eax)
     642:	62 0f                	bound  %ecx,(%edi)
     644:	84 01                	test   %al,(%ecx)
     646:	00 00                	add    %al,(%eax)
     648:	02 00                	add    (%eax),%al
     64a:	0c 02                	or     $0x2,%al
     64c:	6b 0a d2             	imul   $0xffffffd2,(%edx),%ecx
     64f:	01 00                	add    %eax,(%eax)
     651:	00 03                	add    %al,(%ebx)
     653:	fd                   	std
     654:	05 00 00 6d 15       	add    $0x156d0000,%eax
     659:	26 00 00             	add    %al,%es:(%eax)
     65c:	00 00                	add    %al,(%eax)
     65e:	03 f9                	add    %ecx,%edi
     660:	06                   	push   %es
     661:	00 00                	add    %al,(%eax)
     663:	6e                   	outsb  %ds:(%esi),(%dx)
     664:	15 26 00 00 00       	adc    $0x26,%eax
     669:	01 00                	add    %eax,(%eax)
     66b:	15 02 69 07 eb       	adc    $0xeb076902,%eax
     670:	01 00                	add    %eax,(%eax)
     672:	00 0b                	add    %cl,(%ebx)
     674:	b1 01                	mov    $0x1,%cl
     676:	00 00                	add    %al,(%eax)
     678:	09 00                	or     %eax,(%eax)
     67a:	07                   	pop    %es
     67b:	00 00                	add    %al,(%eax)
     67d:	72 13                	jb     692 <mbh-0x2ff96e>
     67f:	39 00                	cmp    %eax,(%eax)
     681:	00 00                	add    %al,(%eax)
     683:	00 0c 04             	add    %cl,(%esp,%eax,1)
     686:	67 04 05             	addr16 add $0x5,%al
     689:	02 00                	add    (%eax),%al
     68b:	00 16                	add    %dl,(%esi)
     68d:	d2 01                	rolb   %cl,(%ecx)
     68f:	00 00                	add    %al,(%eax)
     691:	03 fd                	add    %ebp,%edi
     693:	07                   	pop    %es
     694:	00 00                	add    %al,(%eax)
     696:	76 10                	jbe    6a8 <mbh-0x2ff958>
     698:	39 00                	cmp    %eax,(%eax)
     69a:	00 00                	add    %al,(%eax)
     69c:	02 00                	add    (%eax),%al
     69e:	12 14 07             	adc    (%edi,%eax,1),%dl
     6a1:	00 00                	add    %al,(%eax)
     6a3:	04 58                	add    $0x58,%al
     6a5:	3c 02                	cmp    $0x2,%al
     6a7:	00 00                	add    %al,(%eax)
     6a9:	06                   	push   %es
     6aa:	72 61                	jb     70d <mbh-0x2ff8f3>
     6ac:	77 00                	ja     6ae <mbh-0x2ff952>
     6ae:	5a                   	pop    %edx
     6af:	0d 4c 00 00 00       	or     $0x4c,%eax
     6b4:	09 3a                	or     %edi,(%edx)
     6b6:	07                   	pop    %es
     6b7:	00 00                	add    %al,(%eax)
     6b9:	5b                   	pop    %ebx
     6ba:	0d 98 00 00 00       	or     $0x98,%eax
     6bf:	09 bb 06 00 00 5c    	or     %edi,0x5c000006(%ebx)
     6c5:	0d 3c 02 00 00       	or     $0x23c,%eax
     6ca:	0b 90 01 00 00 0b    	or     0xb000001(%eax),%edx
     6d0:	eb 01                	jmp    6d3 <mbh-0x2ff92d>
     6d2:	00 00                	add    %al,(%eax)
     6d4:	00 0e                	add    %cl,(%esi)
     6d6:	26 00 00             	add    %al,%es:(%eax)
     6d9:	00 4c 02 00          	add    %cl,0x0(%edx,%eax,1)
     6dd:	00 10                	add    %dl,(%eax)
     6df:	58                   	pop    %eax
     6e0:	00 00                	add    %al,(%eax)
     6e2:	00 03                	add    %al,(%ebx)
     6e4:	00 02                	add    %al,(%edx)
     6e6:	7e 07                	jle    6ef <mbh-0x2ff911>
     6e8:	00 00                	add    %al,(%eax)
     6ea:	03 7a 1b             	add    0x1b(%edx),%edi
     6ed:	05 02 00 00 0c       	add    $0xc000002,%eax
     6f2:	08 86 04 79 02 00    	or     %al,0x27904(%esi)
     6f8:	00 03                	add    %al,(%ebx)
     6fa:	e1 06                	loope  702 <mbh-0x2ff8fe>
     6fc:	00 00                	add    %al,(%eax)
     6fe:	88 0f                	mov    %cl,(%edi)
     700:	4c                   	dec    %esp
     701:	02 00                	add    (%eax),%al
     703:	00 00                	add    %al,(%eax)
     705:	03 34 07             	add    (%edi,%eax,1),%esi
     708:	00 00                	add    %al,(%eax)
     70a:	89 0f                	mov    %ecx,(%edi)
     70c:	4c                   	dec    %esp
     70d:	02 00                	add    (%eax),%al
     70f:	00 04 00             	add    %al,(%eax,%eax,1)
     712:	0c 02                	or     $0x2,%al
     714:	96                   	xchg   %eax,%esi
     715:	10 9a 02 00 00 03    	adc    %bl,0x3000002(%edx)
     71b:	fd                   	std
     71c:	05 00 00 98 1b       	add    $0x1b980000,%eax
     721:	26 00 00             	add    %al,%es:(%eax)
     724:	00 00                	add    %al,(%eax)
     726:	03 f9                	add    %ecx,%edi
     728:	06                   	push   %es
     729:	00 00                	add    %al,(%eax)
     72b:	99                   	cltd
     72c:	1b 26                	sbb    (%esi),%esp
     72e:	00 00                	add    %al,(%eax)
     730:	00 01                	add    %al,(%ecx)
     732:	00 15 02 94 0d b3    	add    %dl,0xb30d9402
     738:	02 00                	add    (%eax),%al
     73a:	00 0b                	add    %cl,(%ebx)
     73c:	79 02                	jns    740 <mbh-0x2ff8c0>
     73e:	00 00                	add    %al,(%eax)
     740:	09 00                	or     %eax,(%eax)
     742:	07                   	pop    %es
     743:	00 00                	add    %al,(%eax)
     745:	9d                   	popf
     746:	19 39                	sbb    %edi,(%ecx)
     748:	00 00                	add    %al,(%eax)
     74a:	00 00                	add    %al,(%eax)
     74c:	0c 04                	or     $0x4,%al
     74e:	92                   	xchg   %eax,%edx
     74f:	0a cd                	or     %ch,%cl
     751:	02 00                	add    (%eax),%al
     753:	00 16                	add    %dl,(%esi)
     755:	9a 02 00 00 03 fd 07 	lcall  $0x7fd,$0x3000002
     75c:	00 00                	add    %al,(%eax)
     75e:	a1 16 39 00 00       	mov    0x3916,%eax
     763:	00 02                	add    %al,(%edx)
     765:	00 15 04 90 07 e6    	add    %dl,0xe6079004
     76b:	02 00                	add    (%eax),%al
     76d:	00 0b                	add    %cl,(%ebx)
     76f:	b3 02                	mov    $0x2,%bl
     771:	00 00                	add    %al,(%eax)
     773:	06                   	push   %es
     774:	6c                   	insb   (%dx),%es:(%edi)
     775:	6f                   	outsl  %ds:(%esi),(%dx)
     776:	77 00                	ja     778 <mbh-0x2ff888>
     778:	a5                   	movsl  %ds:(%esi),%es:(%edi)
     779:	14 4c                	adc    $0x4c,%al
     77b:	00 00                	add    %al,(%eax)
     77d:	00 00                	add    %al,(%eax)
     77f:	0c 08                	or     $0x8,%al
     781:	8e 04 00             	mov    (%eax,%eax,1),%es
     784:	03 00                	add    (%eax),%eax
     786:	00 16                	add    %dl,(%esi)
     788:	cd 02                	int    $0x2
     78a:	00 00                	add    %al,(%eax)
     78c:	03 35 07 00 00 a9    	add    0xa9000007,%esi
     792:	11 4c 00 00          	adc    %ecx,0x0(%eax,%eax,1)
     796:	00 04 00             	add    %al,(%eax,%eax,1)
     799:	12 84 06 00 00 08 7f 	adc    0x7f080000(%esi,%eax,1),%al
     7a0:	37                   	aaa
     7a1:	03 00                	add    (%eax),%eax
     7a3:	00 06                	add    %al,(%esi)
     7a5:	72 61                	jb     808 <mbh-0x2ff7f8>
     7a7:	77 00                	ja     7a9 <mbh-0x2ff857>
     7a9:	81 0d 5f 00 00 00 09 	orl    $0x73a09,0x5f
     7b0:	3a 07 00 
     7b3:	00 82 0d ab 00 00    	add    %al,0xab0d(%edx)
     7b9:	00 09                	add    %cl,(%ecx)
     7bb:	bb 06 00 00 83       	mov    $0x83000006,%ebx
     7c0:	0d 37 03 00 00       	or     $0x337,%eax
     7c5:	0b 58 02             	or     0x2(%eax),%ebx
     7c8:	00 00                	add    %al,(%eax)
     7ca:	0b e6                	or     %esi,%esp
     7cc:	02 00                	add    (%eax),%al
     7ce:	00 00                	add    %al,(%eax)
     7d0:	0e                   	push   %cs
     7d1:	26 00 00             	add    %al,%es:(%eax)
     7d4:	00 47 03             	add    %al,0x3(%edi)
     7d7:	00 00                	add    %al,(%eax)
     7d9:	10 58 00             	adc    %bl,0x0(%eax)
     7dc:	00 00                	add    %al,(%eax)
     7de:	07                   	pop    %es
     7df:	00 02                	add    %al,(%edx)
     7e1:	11 08                	adc    %ecx,(%eax)
     7e3:	00 00                	add    %al,(%eax)
     7e5:	03 ad 1b 00 03 00    	add    0x3001b(%ebp),%ebp
     7eb:	00 13                	add    %dl,(%ebx)
     7ed:	0a 07                	or     (%edi),%al
     7ef:	00 00                	add    %al,(%eax)
     7f1:	04 b9                	add    $0xb9,%al
     7f3:	77 03                	ja     7f8 <mbh-0x2ff808>
     7f5:	00 00                	add    %al,(%eax)
     7f7:	03 ca                	add    %edx,%ecx
     7f9:	07                   	pop    %es
     7fa:	00 00                	add    %al,(%eax)
     7fc:	bb 0d 39 00 00       	mov    $0x390d,%ebx
     801:	00 00                	add    %al,(%eax)
     803:	03 1f                	add    (%edi),%ebx
     805:	0d 00 00 bc 0d       	or     $0xdbc0000,%eax
     80a:	39 00                	cmp    %eax,(%eax)
     80c:	00 00                	add    %al,(%eax)
     80e:	02 00                	add    (%eax),%al
     810:	02 f3                	add    %bl,%dh
     812:	07                   	pop    %es
     813:	00 00                	add    %al,(%eax)
     815:	03 be 1b 53 03 00    	add    0x3531b(%esi),%edi
     81b:	00 13                	add    %dl,(%ebx)
     81d:	86 07                	xchg   %al,(%edi)
     81f:	00 00                	add    %al,(%eax)
     821:	06                   	push   %es
     822:	c0 a7 03 00 00 03 ca 	shlb   $0xca,0x3000003(%edi)
     829:	07                   	pop    %es
     82a:	00 00                	add    %al,(%eax)
     82c:	c2 0d 4c             	ret    $0x4c0d
     82f:	00 00                	add    %al,(%eax)
     831:	00 00                	add    %al,(%eax)
     833:	03 1f                	add    (%edi),%ebx
     835:	0d 00 00 c3 0d       	or     $0xdc30000,%eax
     83a:	39 00                	cmp    %eax,(%eax)
     83c:	00 00                	add    %al,(%eax)
     83e:	04 00                	add    $0x0,%al
     840:	02 47 06             	add    0x6(%edi),%al
     843:	00 00                	add    %al,(%eax)
     845:	03 c5                	add    %ebp,%eax
     847:	1b 83 03 00 00 13    	sbb    0x13000003(%ebx),%eax
     84d:	2b 06                	sub    (%esi),%eax
     84f:	00 00                	add    %al,(%eax)
     851:	0a c7                	or     %bh,%al
     853:	d7                   	xlat   %ds:(%ebx)
     854:	03 00                	add    (%eax),%eax
     856:	00 03                	add    %al,(%ebx)
     858:	ca 07 00             	lret   $0x7
     85b:	00 c9                	add    %cl,%cl
     85d:	0d 5f 00 00 00       	or     $0x5f,%eax
     862:	00 03                	add    %al,(%ebx)
     864:	1f                   	pop    %ds
     865:	0d 00 00 ca 0d       	or     $0xdca0000,%eax
     86a:	39 00                	cmp    %eax,(%eax)
     86c:	00 00                	add    %al,(%eax)
     86e:	08 00                	or     %al,(%eax)
     870:	02 75 07             	add    0x7(%ebp),%dh
     873:	00 00                	add    %al,(%eax)
     875:	03 cc                	add    %esp,%ecx
     877:	1b b3 03 00 00 12    	sbb    0x12000003(%ebx),%esi
     87d:	a7                   	cmpsl  %es:(%edi),%ds:(%esi)
     87e:	07                   	pop    %es
     87f:	00 00                	add    %al,(%eax)
     881:	08 d1                	or     %dl,%cl
     883:	61                   	popa
     884:	04 00                	add    $0x0,%al
     886:	00 09                	add    %cl,(%ecx)
     888:	50                   	push   %eax
     889:	06                   	push   %es
     88a:	00 00                	add    %al,(%eax)
     88c:	d3 0e                	rorl   %cl,(%esi)
     88e:	ee                   	out    %al,(%dx)
     88f:	00 00                	add    %al,(%eax)
     891:	00 09                	add    %cl,(%ecx)
     893:	f8                   	clc
     894:	05 00 00 d5 0f       	add    $0xfd50000,%eax
     899:	61                   	popa
     89a:	04 00                	add    $0x0,%al
     89c:	00 06                	add    %al,(%esi)
     89e:	75 38                	jne    8d8 <mbh-0x2ff728>
     8a0:	00 d6                	add    %dl,%dh
     8a2:	0f 63 04 00          	packsswb (%eax,%eax,1),%mm0
     8a6:	00 06                	add    %al,(%esi)
     8a8:	75 31                	jne    8db <mbh-0x2ff725>
     8aa:	36 00 d7             	ss add %dl,%bh
     8ad:	0f 68 04 00          	punpckhbw (%eax,%eax,1),%mm0
     8b1:	00 06                	add    %al,(%esi)
     8b3:	75 33                	jne    8e8 <mbh-0x2ff718>
     8b5:	32 00                	xor    (%eax),%al
     8b7:	d8 0f                	fmuls  (%edi)
     8b9:	6d                   	insl   (%dx),%es:(%edi)
     8ba:	04 00                	add    $0x0,%al
     8bc:	00 06                	add    %al,(%esi)
     8be:	75 36                	jne    8f6 <mbh-0x2ff70a>
     8c0:	34 00                	xor    $0x0,%al
     8c2:	d9 0f                	(bad)  (%edi)
     8c4:	72 04                	jb     8ca <mbh-0x2ff736>
     8c6:	00 00                	add    %al,(%eax)
     8c8:	06                   	push   %es
     8c9:	73 74                	jae    93f <mbh-0x2ff6c1>
     8cb:	72 00                	jb     8cd <mbh-0x2ff733>
     8cd:	db 0e                	fisttpl (%esi)
     8cf:	be 00 00 00 06       	mov    $0x6000000,%esi
     8d4:	66 31 36             	xor    %si,(%esi)
     8d7:	00 dd                	add    %bl,%ch
     8d9:	0f 77                	emms
     8db:	04 00                	add    $0x0,%al
     8dd:	00 06                	add    %al,(%esi)
     8df:	66 33 32             	xor    (%edx),%si
     8e2:	00 de                	add    %bl,%dh
     8e4:	0f 7c                	(bad)
     8e6:	04 00                	add    $0x0,%al
     8e8:	00 06                	add    %al,(%esi)
     8ea:	66 36 34 00          	data16 ss xor $0x0,%al
     8ee:	df 0f                	fisttps (%edi)
     8f0:	81 04 00 00 0b 47 03 	addl   $0x3470b00,(%eax,%eax,1)
     8f7:	00 00                	add    %al,(%eax)
     8f9:	00 1d 04 08 26 00    	add    %bl,0x260804
     8ff:	00 00                	add    %al,(%eax)
     901:	08 39                	or     %bh,(%ecx)
     903:	00 00                	add    %al,(%eax)
     905:	00 08                	add    %cl,(%eax)
     907:	4c                   	dec    %esp
     908:	00 00                	add    %al,(%eax)
     90a:	00 08                	add    %cl,(%eax)
     90c:	5f                   	pop    %edi
     90d:	00 00                	add    %al,(%eax)
     90f:	00 08                	add    %cl,(%eax)
     911:	77 03                	ja     916 <mbh-0x2ff6ea>
     913:	00 00                	add    %al,(%eax)
     915:	08 a7 03 00 00 08    	or     %ah,0x8000003(%edi)
     91b:	d7                   	xlat   %ds:(%ebx)
     91c:	03 00                	add    (%eax),%eax
     91e:	00 02                	add    %al,(%edx)
     920:	0b 08                	or     (%eax),%ecx
     922:	00 00                	add    %al,(%eax)
     924:	03 e3                	add    %ebx,%esp
     926:	1b e3                	sbb    %ebx,%esp
     928:	03 00                	add    (%eax),%eax
     92a:	00 13                	add    %dl,(%ebx)
     92c:	24 06                	and    $0x6,%al
     92e:	00 00                	add    %al,(%eax)
     930:	0c e8                	or     $0xe8,%al
     932:	b6 04                	mov    $0x4,%dh
     934:	00 00                	add    %al,(%eax)
     936:	03 05 07 00 00 ea    	add    0xea000007,%eax
     93c:	0b 86 04 00 00 00    	or     0x4(%esi),%eax
     942:	1e                   	push   %ds
     943:	73 7a                	jae    9bf <mbh-0x2ff641>
     945:	00 03                	add    %al,(%ebx)
     947:	eb 0b                	jmp    954 <mbh-0x2ff6ac>
     949:	db 00                	fildl  (%eax)
     94b:	00 00                	add    %al,(%eax)
     94d:	08 00                	or     %al,(%eax)
     94f:	02 c0                	add    %al,%al
     951:	06                   	push   %es
     952:	00 00                	add    %al,(%eax)
     954:	03 ed                	add    %ebp,%ebp
     956:	1b 92 04 00 00 02    	sbb    0x2000004(%edx),%edx
     95c:	7c 06                	jl     964 <mbh-0x2ff69c>
     95e:	00 00                	add    %al,(%eax)
     960:	04 0a                	add    $0xa,%al
     962:	22 ce                	and    %dh,%cl
     964:	04 00                	add    $0x0,%al
     966:	00 1f                	add    %bl,(%edi)
     968:	04 72                	add    $0x72,%al
     96a:	06                   	push   %es
     96b:	00 00                	add    %al,(%eax)
     96d:	cf                   	iret
     96e:	00 00                	add    %al,(%eax)
     970:	00 0e                	add    %cl,(%esi)
     972:	cf                   	iret
     973:	00 00                	add    %al,(%eax)
     975:	00 e9                	add    %ch,%cl
     977:	04 00                	add    $0x0,%al
     979:	00 20                	add    %ah,(%eax)
     97b:	58                   	pop    %eax
     97c:	00 00                	add    %al,(%eax)
     97e:	00 ff                	add    %bh,%bh
     980:	03 00                	add    (%eax),%eax
     982:	04 1d                	add    $0x1d,%al
     984:	06                   	push   %es
     985:	00 00                	add    %al,(%eax)
     987:	07                   	pop    %es
     988:	0d d8 04 00 00       	or     $0x4d8,%eax
     98d:	05 03 a0 57 30       	add    $0x3057a003,%eax
     992:	00 0e                	add    %cl,(%esi)
     994:	cf                   	iret
     995:	00 00                	add    %al,(%eax)
     997:	00 0a                	add    %cl,(%edx)
     999:	05 00 00 10 58       	add    $0x58100000,%eax
     99e:	00 00                	add    %al,(%eax)
     9a0:	00 0f                	add    %cl,(%edi)
     9a2:	00 04 6a             	add    %al,(%edx,%ebp,2)
     9a5:	07                   	pop    %es
     9a6:	00 00                	add    %al,(%eax)
     9a8:	81 0d fa 04 00 00 05 	orl    $0x56e40305,0x4fa
     9af:	03 e4 56 
     9b2:	30 00                	xor    %al,(%eax)
     9b4:	21 82 08 00 00 05    	and    %eax,0x5000008(%edx)
     9ba:	45                   	inc    %ebp
     9bb:	01 09                	add    %ecx,(%ecx)
     9bd:	db 00                	fildl  (%eax)
     9bf:	00 00                	add    %al,(%eax)
     9c1:	37                   	aaa
     9c2:	05 00 00 18 63       	add    $0x63180000,%eax
     9c7:	04 00                	add    $0x0,%al
     9c9:	00 18                	add    %bl,(%eax)
     9cb:	db 00                	fildl  (%eax)
     9cd:	00 00                	add    %al,(%eax)
     9cf:	00 22                	add    %ah,(%edx)
     9d1:	02 06                	add    (%esi),%al
     9d3:	00 00                	add    %al,(%eax)
     9d5:	05 46 01 09 46       	add    $0x46090146,%eax
     9da:	05 00 00 14 00       	add    $0x140000,%eax
     9df:	11 af 06 00 00 a2    	adc    %ebp,-0x5dfffffa(%edi)
     9e5:	db 00                	fildl  (%eax)
     9e7:	00 00                	add    %al,(%eax)
     9e9:	9c                   	pushf
     9ea:	34 30                	xor    $0x30,%al
     9ec:	00 03                	add    %al,(%ebx)
     9ee:	04 00                	add    $0x0,%al
     9f0:	00 01                	add    %al,(%ecx)
     9f2:	9c                   	pushf
     9f3:	d7                   	xlat   %ds:(%ebx)
     9f4:	06                   	push   %es
     9f5:	00 00                	add    %al,(%eax)
     9f7:	05 24 06 00 00       	add    $0x624,%eax
     9fc:	a2 1a ca 00 00       	mov    %al,0xca1a
     a01:	00 02                	add    %al,(%edx)
     a03:	91                   	xchg   %eax,%ecx
     a04:	00 01                	add    %al,(%ecx)
     a06:	6c                   	insb   (%dx),%es:(%edi)
     a07:	65 6e                	outsb  %gs:(%esi),(%dx)
     a09:	00 02                	add    %al,(%edx)
     a0b:	a2 29 db 00 00       	mov    %al,0xdb29
     a10:	00 02                	add    %al,(%edx)
     a12:	91                   	xchg   %eax,%ecx
     a13:	04 05                	add    $0x5,%al
     a15:	96                   	xchg   %eax,%esi
     a16:	07                   	pop    %es
     a17:	00 00                	add    %al,(%eax)
     a19:	a3 20 d7 06 00       	mov    %eax,0x6d720
     a1e:	00 02                	add    %al,(%edx)
     a20:	91                   	xchg   %eax,%ecx
     a21:	08 05 b9 07 00 00    	or     %al,0x7b9
     a27:	a3 30 c2 04 00       	mov    %eax,0x4c230
     a2c:	00 02                	add    %al,(%edx)
     a2e:	91                   	xchg   %eax,%ecx
     a2f:	0c 07                	or     $0x7,%al
     a31:	62 75 66             	bound  %esi,0x66(%ebp)
     a34:	00 a5 0d b6 04 00    	add    %ah,0x4b60d(%ebp)
     a3a:	00 03                	add    %al,(%ebx)
     a3c:	91                   	xchg   %eax,%ecx
     a3d:	8c 7f 04             	mov    %?,0x4(%edi)
     a40:	5b                   	pop    %ebx
     a41:	03 00                	add    (%eax),%eax
     a43:	00 a6 0d db 00 00    	add    %ah,0xdb0d(%esi)
     a49:	00 02                	add    %al,(%edx)
     a4b:	91                   	xchg   %eax,%ecx
     a4c:	6c                   	insb   (%dx),%es:(%edi)
     a4d:	07                   	pop    %es
     a4e:	63 00                	arpl   %eax,(%eax)
     a50:	a7                   	cmpsl  %es:(%edi),%ds:(%esi)
     a51:	0d cf 00 00 00       	or     $0xcf,%eax
     a56:	02 91 4f 04 6b 06    	add    0x66b044f(%ecx),%dl
     a5c:	00 00                	add    %al,(%eax)
     a5e:	a8 0d                	test   $0xd,%al
     a60:	15 01 00 00 02       	adc    $0x2000001,%eax
     a65:	91                   	xchg   %eax,%ecx
     a66:	68 07 6c 6e 67       	push   $0x676e6c07
     a6b:	00 a8 15 15 01 00    	add    %ch,0x11515(%eax)
     a71:	00 02                	add    %al,(%edx)
     a73:	91                   	xchg   %eax,%ecx
     a74:	64 0d 2d 35 30 00    	fs or  $0x30352d,%eax
     a7a:	20 00                	and    %al,(%eax)
     a7c:	00 00                	add    %al,(%eax)
     a7e:	f9                   	stc
     a7f:	05 00 00 04 c9       	add    $0xc9040000,%eax
     a84:	06                   	push   %es
     a85:	00 00                	add    %al,(%eax)
     a87:	c6                   	(bad)
     a88:	13 ca                	adc    %edx,%ecx
     a8a:	00 00                	add    %al,(%eax)
     a8c:	00 03                	add    %al,(%ebx)
     a8e:	91                   	xchg   %eax,%ecx
     a8f:	98                   	cwtl
     a90:	7f 00                	jg     a92 <mbh-0x2ff56e>
     a92:	0d 58 35 30 00       	or     $0x303558,%eax
     a97:	20 00                	and    %al,(%eax)
     a99:	00 00                	add    %al,(%eax)
     a9b:	16                   	push   %ss
     a9c:	06                   	push   %es
     a9d:	00 00                	add    %al,(%eax)
     a9f:	04 c9                	add    $0xc9,%al
     aa1:	06                   	push   %es
     aa2:	00 00                	add    %al,(%eax)
     aa4:	c9                   	leave
     aa5:	11 a4 00 00 00 03 91 	adc    %esp,-0x6efd0000(%eax,%eax,1)
     aac:	9c                   	pushf
     aad:	7f 00                	jg     aaf <mbh-0x2ff551>
     aaf:	0d 83 35 30 00       	or     $0x303583,%eax
     ab4:	2f                   	das
     ab5:	00 00                	add    %al,(%eax)
     ab7:	00 33                	add    %dh,(%ebx)
     ab9:	06                   	push   %es
     aba:	00 00                	add    %al,(%eax)
     abc:	04 c9                	add    $0xc9,%al
     abe:	06                   	push   %es
     abf:	00 00                	add    %al,(%eax)
     ac1:	cc                   	int3
     ac2:	16                   	push   %ss
     ac3:	5f                   	pop    %edi
     ac4:	00 00                	add    %al,(%eax)
     ac6:	00 03                	add    %al,(%ebx)
     ac8:	91                   	xchg   %eax,%ecx
     ac9:	a0 7f 00 0d bd       	mov    0xbd0d007f,%al
     ace:	35 30 00 2e 00       	xor    $0x2e0030,%eax
     ad3:	00 00                	add    %al,(%eax)
     ad5:	50                   	push   %eax
     ad6:	06                   	push   %es
     ad7:	00 00                	add    %al,(%eax)
     ad9:	04 c9                	add    $0xc9,%al
     adb:	06                   	push   %es
     adc:	00 00                	add    %al,(%eax)
     ade:	cf                   	iret
     adf:	16                   	push   %ss
     ae0:	5f                   	pop    %edi
     ae1:	00 00                	add    %al,(%eax)
     ae3:	00 03                	add    %al,(%ebx)
     ae5:	91                   	xchg   %eax,%ecx
     ae6:	a8 7f                	test   $0x7f,%al
     ae8:	00 0d 00 36 30 00    	add    %cl,0x303600
     aee:	7b 00                	jnp    af0 <mbh-0x2ff510>
     af0:	00 00                	add    %al,(%eax)
     af2:	6c                   	insb   (%dx),%es:(%edi)
     af3:	06                   	push   %es
     af4:	00 00                	add    %al,(%eax)
     af6:	04 c9                	add    $0xc9,%al
     af8:	06                   	push   %es
     af9:	00 00                	add    %al,(%eax)
     afb:	d4 16                	aam    $0x16
     afd:	ab                   	stos   %eax,%es:(%edi)
     afe:	00 00                	add    %al,(%eax)
     b00:	00 02                	add    %al,(%edx)
     b02:	91                   	xchg   %eax,%ecx
     b03:	58                   	pop    %eax
     b04:	00 23                	add    %ah,(%ebx)
     b06:	0c 00                	or     $0x0,%al
     b08:	00 00                	add    %al,(%eax)
     b0a:	84 06                	test   %al,(%esi)
     b0c:	00 00                	add    %al,(%eax)
     b0e:	04 c9                	add    $0xc9,%al
     b10:	06                   	push   %es
     b11:	00 00                	add    %al,(%eax)
     b13:	e2 16                	loop   b2b <mbh-0x2ff4d5>
     b15:	5f                   	pop    %edi
     b16:	00 00                	add    %al,(%eax)
     b18:	00 02                	add    %al,(%edx)
     b1a:	91                   	xchg   %eax,%ecx
     b1b:	50                   	push   %eax
     b1c:	00 0d 46 37 30 00    	add    %cl,0x303746
     b22:	29 00                	sub    %eax,(%eax)
     b24:	00 00                	add    %al,(%eax)
     b26:	a1 06 00 00 04       	mov    0x4000006,%eax
     b2b:	c9                   	leave
     b2c:	06                   	push   %es
     b2d:	00 00                	add    %al,(%eax)
     b2f:	f4                   	hlt
     b30:	16                   	push   %ss
     b31:	ab                   	stos   %eax,%es:(%edi)
     b32:	00 00                	add    %al,(%eax)
     b34:	00 03                	add    %al,(%ebx)
     b36:	91                   	xchg   %eax,%ecx
     b37:	b0 7f                	mov    $0x7f,%al
     b39:	00 0d 7a 37 30 00    	add    %cl,0x30377a
     b3f:	2e 00 00             	add    %al,%cs:(%eax)
     b42:	00 be 06 00 00 04    	add    %bh,0x4000006(%esi)
     b48:	c9                   	leave
     b49:	06                   	push   %es
     b4a:	00 00                	add    %al,(%eax)
     b4c:	f7 16                	notl   (%esi)
     b4e:	5f                   	pop    %edi
     b4f:	00 00                	add    %al,(%eax)
     b51:	00 03                	add    %al,(%ebx)
     b53:	91                   	xchg   %eax,%ecx
     b54:	b8 7f 00 24 b3       	mov    $0xb324007f,%eax
     b59:	37                   	aaa
     b5a:	30 00                	xor    %al,(%eax)
     b5c:	46                   	inc    %esi
     b5d:	00 00                	add    %al,(%eax)
     b5f:	00 04 c9             	add    %al,(%ecx,%ecx,8)
     b62:	06                   	push   %es
     b63:	00 00                	add    %al,(%eax)
     b65:	fc                   	cld
     b66:	16                   	push   %ss
     b67:	5f                   	pop    %edi
     b68:	00 00                	add    %al,(%eax)
     b6a:	00 02                	add    %al,(%edx)
     b6c:	91                   	xchg   %eax,%ecx
     b6d:	40                   	inc    %eax
     b6e:	00 00                	add    %al,(%eax)
     b70:	08 d6                	or     %dl,%dh
     b72:	00 00                	add    %al,(%eax)
     b74:	00 0f                	add    %cl,(%edi)
     b76:	59                   	pop    %ecx
     b77:	07                   	pop    %es
     b78:	00 00                	add    %al,(%eax)
     b7a:	9c                   	pushf
     b7b:	6d                   	insl   (%dx),%es:(%edi)
     b7c:	34 30                	xor    $0x30,%al
     b7e:	00 2f                	add    %ch,(%edi)
     b80:	00 00                	add    %al,(%eax)
     b82:	00 01                	add    %al,(%ecx)
     b84:	9c                   	pushf
     b85:	2b 07                	sub    (%edi),%eax
     b87:	00 00                	add    %al,(%eax)
     b89:	01 62 75             	add    %esp,0x75(%edx)
     b8c:	66 00 02             	data16 add %al,(%edx)
     b8f:	9c                   	pushf
     b90:	2f                   	das
     b91:	2b 07                	sub    (%edi),%eax
     b93:	00 00                	add    %al,(%eax)
     b95:	02 91 00 01 6c 65    	add    0x656c0100(%ecx),%dl
     b9b:	6e                   	outsb  %ds:(%esi),(%dx)
     b9c:	00 02                	add    %al,(%edx)
     b9e:	9c                   	pushf
     b9f:	3b db                	cmp    %ebx,%ebx
     ba1:	00 00                	add    %al,(%eax)
     ba3:	00 02                	add    %al,(%edx)
     ba5:	91                   	xchg   %eax,%ecx
     ba6:	04 05                	add    $0x5,%al
     ba8:	c9                   	leave
     ba9:	06                   	push   %es
     baa:	00 00                	add    %al,(%eax)
     bac:	9d                   	popf
     bad:	2e 5f                	cs pop %edi
     baf:	00 00                	add    %al,(%eax)
     bb1:	00 02                	add    %al,(%edx)
     bb3:	91                   	xchg   %eax,%ecx
     bb4:	70 05                	jo     bbb <mbh-0x2ff445>
     bb6:	c0 07 00             	rolb   $0x0,(%edi)
     bb9:	00 9d 3c db 00 00    	add    %bl,0xdb3c(%ebp)
     bbf:	00 02                	add    %al,(%edx)
     bc1:	91                   	xchg   %eax,%ecx
     bc2:	10 00                	adc    %al,(%eax)
     bc4:	08 b6 04 00 00 11    	or     %dh,0x11000004(%esi)
     bca:	26 07                	es pop %es
     bcc:	00 00                	add    %al,(%eax)
     bce:	84 db                	test   %bl,%bl
     bd0:	00 00                	add    %al,(%eax)
     bd2:	00 b3 33 30 00 ba    	add    %dh,-0x45ffcfcd(%ebx)
     bd8:	00 00                	add    %al,(%eax)
     bda:	00 01                	add    %al,(%ecx)
     bdc:	9c                   	pushf
     bdd:	ac                   	lods   %ds:(%esi),%al
     bde:	07                   	pop    %es
     bdf:	00 00                	add    %al,(%eax)
     be1:	01 62 75             	add    %esp,0x75(%edx)
     be4:	66 00 02             	data16 add %al,(%edx)
     be7:	84 20                	test   %ah,(%eax)
     be9:	2b 07                	sub    (%edi),%eax
     beb:	00 00                	add    %al,(%eax)
     bed:	02 91 00 01 6c 65    	add    0x656c0100(%ecx),%dl
     bf3:	6e                   	outsb  %ds:(%esi),(%dx)
     bf4:	00 02                	add    %al,(%edx)
     bf6:	84 2c db             	test   %ch,(%ebx,%ebx,8)
     bf9:	00 00                	add    %al,(%eax)
     bfb:	00 02                	add    %al,(%edx)
     bfd:	91                   	xchg   %eax,%ecx
     bfe:	04 05                	add    $0x5,%al
     c00:	c9                   	leave
     c01:	06                   	push   %es
     c02:	00 00                	add    %al,(%eax)
     c04:	85 1f                	test   %ebx,(%edi)
     c06:	5f                   	pop    %edi
     c07:	00 00                	add    %al,(%eax)
     c09:	00 02                	add    %al,(%edx)
     c0b:	91                   	xchg   %eax,%ecx
     c0c:	50                   	push   %eax
     c0d:	05 c0 07 00 00       	add    $0x7c0,%eax
     c12:	85 2d db 00 00 00    	test   %ebp,0xdb
     c18:	02 91 10 07 72 65    	add    0x65720710(%ecx),%dl
     c1e:	70 00                	jo     c20 <mbh-0x2ff3e0>
     c20:	87 0b                	xchg   %ecx,(%ebx)
     c22:	fa                   	cli
     c23:	04 00                	add    $0x0,%al
     c25:	00 02                	add    %al,(%edx)
     c27:	91                   	xchg   %eax,%ecx
     c28:	60                   	pusha
     c29:	07                   	pop    %es
     c2a:	73 7a                	jae    ca6 <mbh-0x2ff35a>
     c2c:	00 88 0b db 00 00    	add    %cl,0xdb0b(%eax)
     c32:	00 02                	add    %al,(%edx)
     c34:	91                   	xchg   %eax,%ecx
     c35:	70 07                	jo     c3e <mbh-0x2ff3c2>
     c37:	72 73                	jb     cac <mbh-0x2ff354>
     c39:	7a 00                	jp     c3b <mbh-0x2ff3c5>
     c3b:	88 0f                	mov    %cl,(%edi)
     c3d:	db 00                	fildl  (%eax)
     c3f:	00 00                	add    %al,(%eax)
     c41:	02 91 74 00 0f 9d    	add    -0x62f0ff8c(%ecx),%dl
     c47:	06                   	push   %es
     c48:	00 00                	add    %al,(%eax)
     c4a:	6b f5 32             	imul   $0x32,%ebp,%esi
     c4d:	30 00                	xor    %al,(%eax)
     c4f:	be 00 00 00 01       	mov    $0x1000000,%esi
     c54:	9c                   	pushf
     c55:	0a 08                	or     (%eax),%cl
     c57:	00 00                	add    %al,(%eax)
     c59:	01 62 75             	add    %esp,0x75(%edx)
     c5c:	66 00 02             	data16 add %al,(%edx)
     c5f:	6b 30 2b             	imul   $0x2b,(%eax),%esi
     c62:	07                   	pop    %es
     c63:	00 00                	add    %al,(%eax)
     c65:	02 91 00 01 6c 65    	add    0x656c0100(%ecx),%dl
     c6b:	6e                   	outsb  %ds:(%esi),(%dx)
     c6c:	00 02                	add    %al,(%edx)
     c6e:	6b 3c db 00          	imul   $0x0,(%ebx,%ebx,8),%edi
     c72:	00 00                	add    %al,(%eax)
     c74:	02 91 04 05 c9 06    	add    0x6c90504(%ecx),%dl
     c7a:	00 00                	add    %al,(%eax)
     c7c:	6b 4a 5f 00          	imul   $0x0,0x5f(%edx),%ecx
     c80:	00 00                	add    %al,(%eax)
     c82:	03 91 b8 7f 07 72    	add    0x72077fb8(%ecx),%edx
     c88:	65 70 00             	gs jo  c8b <mbh-0x2ff375>
     c8b:	6d                   	insl   (%dx),%es:(%edi)
     c8c:	0d 0a 08 00 00       	or     $0x80a,%eax
     c91:	02 91 58 07 64 65    	add    0x65640758(%ecx),%dl
     c97:	63 00                	arpl   %eax,(%eax)
     c99:	6e                   	outsb  %ds:(%esi),(%dx)
     c9a:	0d b6 04 00 00       	or     $0x4b6,%eax
     c9f:	02 91 4c 00 0e cf    	add    -0x30f1ffb4(%ecx),%dl
     ca5:	00 00                	add    %al,(%eax)
     ca7:	00 1a                	add    %bl,(%edx)
     ca9:	08 00                	or     %al,(%eax)
     cab:	00 10                	add    %dl,(%eax)
     cad:	58                   	pop    %eax
     cae:	00 00                	add    %al,(%eax)
     cb0:	00 17                	add    %dl,(%edi)
     cb2:	00 0f                	add    %cl,(%edi)
     cb4:	cf                   	iret
     cb5:	06                   	push   %es
     cb6:	00 00                	add    %al,(%eax)
     cb8:	50                   	push   %eax
     cb9:	17                   	pop    %ss
     cba:	32 30                	xor    (%eax),%dh
     cbc:	00 de                	add    %bl,%dh
     cbe:	00 00                	add    %al,(%eax)
     cc0:	00 01                	add    %al,(%ecx)
     cc2:	9c                   	pushf
     cc3:	78 08                	js     ccd <mbh-0x2ff333>
     cc5:	00 00                	add    %al,(%eax)
     cc7:	01 62 75             	add    %esp,0x75(%edx)
     cca:	66 00 02             	data16 add %al,(%edx)
     ccd:	50                   	push   %eax
     cce:	30 2b                	xor    %ch,(%ebx)
     cd0:	07                   	pop    %es
     cd1:	00 00                	add    %al,(%eax)
     cd3:	02 91 00 01 6c 65    	add    0x656c0100(%ecx),%dl
     cd9:	6e                   	outsb  %ds:(%esi),(%dx)
     cda:	00 02                	add    %al,(%edx)
     cdc:	50                   	push   %eax
     cdd:	3c db                	cmp    $0xdb,%al
     cdf:	00 00                	add    %al,(%eax)
     ce1:	00 02                	add    %al,(%edx)
     ce3:	91                   	xchg   %eax,%ecx
     ce4:	04 05                	add    $0x5,%al
     ce6:	c9                   	leave
     ce7:	06                   	push   %es
     ce8:	00 00                	add    %al,(%eax)
     cea:	50                   	push   %eax
     ceb:	4a                   	dec    %edx
     cec:	ab                   	stos   %eax,%es:(%edi)
     ced:	00 00                	add    %al,(%eax)
     cef:	00 03                	add    %al,(%ebx)
     cf1:	91                   	xchg   %eax,%ecx
     cf2:	b8 7f 07 72 65       	mov    $0x6572077f,%eax
     cf7:	70 00                	jo     cf9 <mbh-0x2ff307>
     cf9:	52                   	push   %edx
     cfa:	0d 0a 08 00 00       	or     $0x80a,%eax
     cff:	02 91 58 07 64 65    	add    0x65640758(%ecx),%dl
     d05:	63 00                	arpl   %eax,(%eax)
     d07:	53                   	push   %ebx
     d08:	0d b6 04 00 00       	or     $0x4b6,%eax
     d0d:	02 91 4c 00 0f d1    	add    -0x2ef0ffb4(%ecx),%dl
     d13:	07                   	pop    %es
     d14:	00 00                	add    %al,(%eax)
     d16:	44                   	inc    %esp
     d17:	a8 31                	test   $0x31,%al
     d19:	30 00                	xor    %al,(%eax)
     d1b:	6f                   	outsl  %ds:(%esi),(%dx)
     d1c:	00 00                	add    %al,(%eax)
     d1e:	00 01                	add    %al,(%ecx)
     d20:	9c                   	pushf
     d21:	e0 08                	loopne d2b <mbh-0x2ff2d5>
     d23:	00 00                	add    %al,(%eax)
     d25:	01 62 75             	add    %esp,0x75(%edx)
     d28:	66 00 02             	data16 add %al,(%edx)
     d2b:	44                   	inc    %esp
     d2c:	2f                   	das
     d2d:	2b 07                	sub    (%edi),%eax
     d2f:	00 00                	add    %al,(%eax)
     d31:	02 91 00 01 6c 65    	add    0x656c0100(%ecx),%dl
     d37:	6e                   	outsb  %ds:(%esi),(%dx)
     d38:	00 02                	add    %al,(%edx)
     d3a:	44                   	inc    %esp
     d3b:	3b db                	cmp    %ebx,%ebx
     d3d:	00 00                	add    %al,(%eax)
     d3f:	00 02                	add    %al,(%edx)
     d41:	91                   	xchg   %eax,%ecx
     d42:	04 05                	add    $0x5,%al
     d44:	c9                   	leave
     d45:	06                   	push   %es
     d46:	00 00                	add    %al,(%eax)
     d48:	45                   	inc    %ebp
     d49:	2e 5f                	cs pop %edi
     d4b:	00 00                	add    %al,(%eax)
     d4d:	00 02                	add    %al,(%edx)
     d4f:	91                   	xchg   %eax,%ecx
     d50:	60                   	pusha
     d51:	01 6e 00             	add    %ebp,0x0(%esi)
     d54:	02 45 3e             	add    0x3e(%ebp),%al
     d57:	4c                   	dec    %esp
     d58:	00 00                	add    %al,(%eax)
     d5a:	00 02                	add    %al,(%edx)
     d5c:	91                   	xchg   %eax,%ecx
     d5d:	10 07                	adc    %al,(%edi)
     d5f:	69 00 47 0d 4c 00    	imul   $0x4c0d47,(%eax),%eax
     d65:	00 00                	add    %al,(%eax)
     d67:	02 91 74 07 62 69    	add    0x69620774(%ecx),%dl
     d6d:	74 00                	je     d6f <mbh-0x2ff291>
     d6f:	47                   	inc    %edi
     d70:	10 4c 00 00          	adc    %cl,0x0(%eax,%eax,1)
     d74:	00 02                	add    %al,(%edx)
     d76:	91                   	xchg   %eax,%ecx
     d77:	70 00                	jo     d79 <mbh-0x2ff287>
     d79:	0f e2 07             	psrad  (%edi),%mm0
     d7c:	00 00                	add    %al,(%eax)
     d7e:	3f                   	aas
     d7f:	8d 31                	lea    (%ecx),%esi
     d81:	30 00                	xor    %al,(%eax)
     d83:	1b 00                	sbb    (%eax),%eax
     d85:	00 00                	add    %al,(%eax)
     d87:	01 9c 20 09 00 00 01 	add    %ebx,0x1000009(%eax,%eiz,1)
     d8e:	62 75 66             	bound  %esi,0x66(%ebp)
     d91:	00 02                	add    %al,(%edx)
     d93:	3f                   	aas
     d94:	2f                   	das
     d95:	2b 07                	sub    (%edi),%eax
     d97:	00 00                	add    %al,(%eax)
     d99:	02 91 00 01 6c 65    	add    0x656c0100(%ecx),%dl
     d9f:	6e                   	outsb  %ds:(%esi),(%dx)
     da0:	00 02                	add    %al,(%edx)
     da2:	3f                   	aas
     da3:	3b db                	cmp    %ebx,%ebx
     da5:	00 00                	add    %al,(%eax)
     da7:	00 02                	add    %al,(%edx)
     da9:	91                   	xchg   %eax,%ecx
     daa:	04 01                	add    $0x1,%al
     dac:	63 00                	arpl   %eax,(%eax)
     dae:	02 3f                	add    (%edi),%bh
     db0:	44                   	inc    %esp
     db1:	a4                   	movsb  %ds:(%esi),%es:(%edi)
     db2:	00 00                	add    %al,(%eax)
     db4:	00 02                	add    %al,(%edx)
     db6:	91                   	xchg   %eax,%ecx
     db7:	08 00                	or     %al,(%eax)
     db9:	0f 3f                	(bad)
     dbb:	07                   	pop    %es
     dbc:	00 00                	add    %al,(%eax)
     dbe:	39 5c 31 30          	cmp    %ebx,0x30(%ecx,%esi,1)
     dc2:	00 31                	add    %dh,(%ecx)
     dc4:	00 00                	add    %al,(%eax)
     dc6:	00 01                	add    %al,(%ecx)
     dc8:	9c                   	pushf
     dc9:	60                   	pusha
     dca:	09 00                	or     %eax,(%eax)
     dcc:	00 01                	add    %al,(%ecx)
     dce:	62 75 66             	bound  %esi,0x66(%ebp)
     dd1:	00 02                	add    %al,(%edx)
     dd3:	39 2f                	cmp    %ebp,(%edi)
     dd5:	2b 07                	sub    (%edi),%eax
     dd7:	00 00                	add    %al,(%eax)
     dd9:	02 91 00 01 6c 65    	add    0x656c0100(%ecx),%dl
     ddf:	6e                   	outsb  %ds:(%esi),(%dx)
     de0:	00 02                	add    %al,(%edx)
     de2:	39 3b                	cmp    %edi,(%ebx)
     de4:	db 00                	fildl  (%eax)
     de6:	00 00                	add    %al,(%eax)
     de8:	02 91 04 01 73 00    	add    0x730104(%ecx),%dl
     dee:	02 39                	add    (%ecx),%bh
     df0:	46                   	inc    %esi
     df1:	ca 00 00             	lret   $0x0
     df4:	00 02                	add    %al,(%edx)
     df6:	91                   	xchg   %eax,%ecx
     df7:	08 00                	or     %al,(%eax)
     df9:	11 9d 07 00 00 30    	adc    %ebx,0x30000007(%ebp)
     dff:	db 00                	fildl  (%eax)
     e01:	00 00                	add    %al,(%eax)
     e03:	1f                   	pop    %ds
     e04:	31 30                	xor    %esi,(%eax)
     e06:	00 3d 00 00 00 01    	add    %bh,0x1000000
     e0c:	9c                   	pushf
     e0d:	a3 09 00 00 05       	mov    %eax,0x5000009
     e12:	96                   	xchg   %eax,%esi
     e13:	07                   	pop    %es
     e14:	00 00                	add    %al,(%eax)
     e16:	30 1e                	xor    %bl,(%esi)
     e18:	d7                   	xlat   %ds:(%ebx)
     e19:	06                   	push   %es
     e1a:	00 00                	add    %al,(%eax)
     e1c:	02 91 00 05 b9 07    	add    0x7b90500(%ecx),%dl
     e22:	00 00                	add    %al,(%eax)
     e24:	30 2e                	xor    %ch,(%esi)
     e26:	c2 04 00             	ret    $0x4
     e29:	00 02                	add    %al,(%edx)
     e2b:	91                   	xchg   %eax,%ecx
     e2c:	04 04                	add    $0x4,%al
     e2e:	96                   	xchg   %eax,%esi
     e2f:	06                   	push   %es
     e30:	00 00                	add    %al,(%eax)
     e32:	32 0b                	xor    (%ebx),%cl
     e34:	db 00                	fildl  (%eax)
     e36:	00 00                	add    %al,(%eax)
     e38:	02 91 6c 00 11 b2    	add    -0x4deeff94(%ecx),%dl
     e3e:	06                   	push   %es
     e3f:	00 00                	add    %al,(%eax)
     e41:	24 db                	and    $0xdb,%al
     e43:	00 00                	add    %al,(%eax)
     e45:	00 f6                	add    %dh,%dh
     e47:	30 30                	xor    %dh,(%eax)
     e49:	00 29                	add    %ch,(%ecx)
     e4b:	00 00                	add    %al,(%eax)
     e4d:	00 01                	add    %al,(%ecx)
     e4f:	9c                   	pushf
     e50:	04 0a                	add    $0xa,%al
     e52:	00 00                	add    %al,(%eax)
     e54:	05 57 06 00 00       	add    $0x657,%eax
     e59:	24 17                	and    $0x17,%al
     e5b:	ca 00 00             	lret   $0x0
     e5e:	00 02                	add    %al,(%edx)
     e60:	91                   	xchg   %eax,%ecx
     e61:	00 01                	add    %al,(%ecx)
     e63:	6c                   	insb   (%dx),%es:(%edi)
     e64:	65 6e                	outsb  %gs:(%esi),(%dx)
     e66:	00 02                	add    %al,(%edx)
     e68:	24 24                	and    $0x24,%al
     e6a:	db 00                	fildl  (%eax)
     e6c:	00 00                	add    %al,(%eax)
     e6e:	02 91 04 05 96 07    	add    0x7960504(%ecx),%dl
     e74:	00 00                	add    %al,(%eax)
     e76:	24 35                	and    $0x35,%al
     e78:	d7                   	xlat   %ds:(%ebx)
     e79:	06                   	push   %es
     e7a:	00 00                	add    %al,(%eax)
     e7c:	02 91 08 14 04 b9    	add    -0x46fbebf8(%ecx),%dl
     e82:	07                   	pop    %es
     e83:	00 00                	add    %al,(%eax)
     e85:	26 0c c2             	es or  $0xc2,%al
     e88:	04 00                	add    $0x0,%al
     e8a:	00 02                	add    %al,(%edx)
     e8c:	91                   	xchg   %eax,%ecx
     e8d:	68 04 96 06 00       	push   $0x69604
     e92:	00 27                	add    %ah,(%edi)
     e94:	0c db                	or     $0xdb,%al
     e96:	00 00                	add    %al,(%eax)
     e98:	00 02                	add    %al,(%edx)
     e9a:	91                   	xchg   %eax,%ecx
     e9b:	6c                   	insb   (%dx),%es:(%edi)
     e9c:	00 11                	add    %dl,(%ecx)
     e9e:	b4 06                	mov    $0x6,%ah
     ea0:	00 00                	add    %al,(%eax)
     ea2:	18 db                	sbb    %bl,%bl
     ea4:	00 00                	add    %al,(%eax)
     ea6:	00 d0                	add    %dl,%al
     ea8:	30 30                	xor    %dh,(%eax)
     eaa:	00 26                	add    %ah,(%esi)
     eac:	00 00                	add    %al,(%eax)
     eae:	00 01                	add    %al,(%ecx)
     eb0:	9c                   	pushf
     eb1:	48                   	dec    %eax
     eb2:	0a 00                	or     (%eax),%al
     eb4:	00 05 96 07 00 00    	add    %al,0x796
     eba:	18 1b                	sbb    %bl,(%ebx)
     ebc:	d7                   	xlat   %ds:(%ebx)
     ebd:	06                   	push   %es
     ebe:	00 00                	add    %al,(%eax)
     ec0:	02 91 00 14 04 b9    	add    -0x46fbec00(%ecx),%dl
     ec6:	07                   	pop    %es
     ec7:	00 00                	add    %al,(%eax)
     ec9:	1a 0c c2             	sbb    (%edx,%eax,8),%cl
     ecc:	04 00                	add    $0x0,%al
     ece:	00 02                	add    %al,(%edx)
     ed0:	91                   	xchg   %eax,%ecx
     ed1:	68 04 96 06 00       	push   $0x69604
     ed6:	00 1b                	add    %bl,(%ebx)
     ed8:	0c db                	or     $0xdb,%al
     eda:	00 00                	add    %al,(%eax)
     edc:	00 02                	add    %al,(%edx)
     ede:	91                   	xchg   %eax,%ecx
     edf:	6c                   	insb   (%dx),%es:(%edi)
     ee0:	00 25 f8 00 00 00    	add    %ah,0xf8
     ee6:	02 09                	add    (%ecx),%cl
     ee8:	06                   	push   %es
     ee9:	a8 30                	test   $0x30,%al
     eeb:	30 00                	xor    %al,(%eax)
     eed:	28 00                	sub    %al,(%eax)
     eef:	00 00                	add    %al,(%eax)
     ef1:	01 9c 7c 0a 00 00 05 	add    %ebx,0x500000a(%esp,%edi,2)
     ef8:	96                   	xchg   %eax,%esi
     ef9:	07                   	pop    %es
     efa:	00 00                	add    %al,(%eax)
     efc:	09 18                	or     %ebx,(%eax)
     efe:	d7                   	xlat   %ds:(%ebx)
     eff:	06                   	push   %es
     f00:	00 00                	add    %al,(%eax)
     f02:	02 91 00 14 04 b9    	add    -0x46fbec00(%ecx),%dl
     f08:	07                   	pop    %es
     f09:	00 00                	add    %al,(%eax)
     f0b:	0b 0c c2             	or     (%edx,%eax,8),%ecx
     f0e:	04 00                	add    $0x0,%al
     f10:	00 02                	add    %al,(%edx)
     f12:	91                   	xchg   %eax,%ecx
     f13:	6c                   	insb   (%dx),%es:(%edi)
     f14:	00 26                	add    %ah,(%esi)
     f16:	e6 06                	out    %al,$0x6
     f18:	00 00                	add    %al,(%eax)
     f1a:	01 7c 14 6d          	add    %edi,0x6d(%esp,%edx,1)
     f1e:	30 30                	xor    %dh,(%eax)
     f20:	00 3b                	add    %bh,(%ebx)
     f22:	00 00                	add    %al,(%eax)
     f24:	00 01                	add    %al,(%ecx)
     f26:	9c                   	pushf
     f27:	01 62 75             	add    %esp,0x75(%edx)
     f2a:	66 00 01             	data16 add %al,(%ecx)
     f2d:	7c 28                	jl     f57 <mbh-0x2ff0a9>
     f2f:	2b 07                	sub    (%edi),%eax
     f31:	00 00                	add    %al,(%eax)
     f33:	02 91 00 01 6c 65    	add    0x656c0100(%ecx),%dl
     f39:	6e                   	outsb  %ds:(%esi),(%dx)
     f3a:	00 01                	add    %al,(%ecx)
     f3c:	7c 34                	jl     f72 <mbh-0x2ff08e>
     f3e:	db 00                	fildl  (%eax)
     f40:	00 00                	add    %al,(%eax)
     f42:	02 91 04 01 63 00    	add    0x630104(%ecx),%dl
     f48:	01 7c 3e cf          	add    %edi,-0x31(%esi,%edi,1)
     f4c:	00 00                	add    %al,(%eax)
     f4e:	00 02                	add    %al,(%edx)
     f50:	91                   	xchg   %eax,%ecx
     f51:	70 00                	jo     f53 <mbh-0x2ff0ad>
     f53:	00 10                	add    %dl,(%eax)
     f55:	09 00                	or     %eax,(%eax)
     f57:	00 05 00 01 04 f8    	add    %al,0xf8040100
     f5d:	03 00                	add    (%eax),%eax
     f5f:	00 18                	add    %bl,(%eax)
     f61:	21 04 00             	and    %eax,(%eax,%eax,1)
     f64:	00 1d c3 00 00 00    	add    %bl,0xc3
     f6a:	00 00                	add    %al,(%eax)
     f6c:	00 00                	add    %al,(%eax)
     f6e:	9f                   	lahf
     f6f:	38 30                	cmp    %dh,(%eax)
     f71:	00 a5 02 00 00 65    	add    %ah,0x65000002(%ebp)
     f77:	04 00                	add    $0x0,%al
     f79:	00 01                	add    %al,(%ecx)
     f7b:	f6 03 00             	testb  $0x0,(%ebx)
     f7e:	00 02                	add    %al,(%edx)
     f80:	1a 20                	sbb    (%eax),%ah
     f82:	32 00                	xor    (%eax),%al
     f84:	00 00                	add    %al,(%eax)
     f86:	0a 01                	or     (%ecx),%al
     f88:	08 db                	or     %bl,%bl
     f8a:	01 00                	add    %eax,(%eax)
     f8c:	00 01                	add    %al,(%ecx)
     f8e:	1b 01                	sbb    (%ecx),%eax
     f90:	00 00                	add    %al,(%eax)
     f92:	02 1b                	add    (%ebx),%bl
     f94:	20 45 00             	and    %al,0x0(%ebp)
     f97:	00 00                	add    %al,(%eax)
     f99:	0a 02                	or     (%edx),%al
     f9b:	07                   	pop    %es
     f9c:	7d 02                	jge    fa0 <mbh-0x2ff060>
     f9e:	00 00                	add    %al,(%eax)
     fa0:	01 a4 00 00 00 02 1c 	add    %esp,0x1c020000(%eax,%eax,1)
     fa7:	20 58 00             	and    %bl,0x0(%eax)
     faa:	00 00                	add    %al,(%eax)
     fac:	0a 04 07             	or     (%edi,%eax,1),%al
     faf:	1f                   	pop    %ds
     fb0:	02 00                	add    (%eax),%al
     fb2:	00 01                	add    %al,(%ecx)
     fb4:	9a 02 00 00 02 1d 20 	lcall  $0x201d,$0x2000002
     fbb:	6b 00 00             	imul   $0x0,(%eax),%eax
     fbe:	00 0a                	add    %cl,(%edx)
     fc0:	08 07                	or     %al,(%edi)
     fc2:	15 02 00 00 0a       	adc    $0xa000002,%eax
     fc7:	01 06                	add    %eax,(%esi)
     fc9:	dd 01                	fldl   (%ecx)
     fcb:	00 00                	add    %al,(%eax)
     fcd:	01 50 07             	add    %edx,0x7(%eax)
     fd0:	00 00                	add    %al,(%eax)
     fd2:	02 20                	add    (%eax),%ah
     fd4:	20 85 00 00 00 0a    	and    %al,0xa000000(%ebp)
     fda:	02 05 ad 00 00 00    	add    0xad,%al
     fe0:	01 0d 06 00 00 02    	add    %ecx,0x2000006
     fe6:	21 20                	and    %esp,(%eax)
     fe8:	98                   	cwtl
     fe9:	00 00                	add    %al,(%eax)
     feb:	00 19                	add    %bl,(%ecx)
     fed:	04 05                	add    $0x5,%al
     fef:	69 6e 74 00 01 f0 06 	imul   $0x6f00100,0x74(%esi),%ebp
     ff6:	00 00                	add    %al,(%eax)
     ff8:	02 22                	add    (%edx),%ah
     ffa:	20 ab 00 00 00 0a    	and    %ch,0xa000000(%ebx)
    1000:	08 05 6a 01 00 00    	or     %al,0x16a
    1006:	01 16                	add    %edx,(%esi)
    1008:	06                   	push   %es
    1009:	00 00                	add    %al,(%eax)
    100b:	02 24 20             	add    (%eax,%eiz,1),%ah
    100e:	be 00 00 00 0b       	mov    $0xb000000,%esi
    1013:	c3                   	ret
    1014:	00 00                	add    %al,(%eax)
    1016:	00 0a                	add    %cl,(%edx)
    1018:	01 06                	add    %eax,(%esi)
    101a:	e4 01                	in     $0x1,%al
    101c:	00 00                	add    %al,(%eax)
    101e:	01 b7 00 00 00 02    	add    %esi,0x2000000(%edi)
    1024:	25 20 d6 00 00       	and    $0xd620,%eax
    1029:	00 0a                	add    %cl,(%edx)
    102b:	04 07                	add    $0x7,%al
    102d:	1a 02                	sbb    (%edx),%al
    102f:	00 00                	add    %al,(%eax)
    1031:	01 b0 07 00 00 02    	add    %esi,0x2000007(%eax)
    1037:	26 20 d6             	es and %dl,%dh
    103a:	00 00                	add    %al,(%eax)
    103c:	00 07                	add    %al,(%edi)
    103e:	02 02                	add    (%edx),%al
    1040:	4c                   	dec    %esp
    1041:	04 0b                	add    $0xb,%al
    1043:	01 00                	add    %eax,(%eax)
    1045:	00 02                	add    %al,(%edx)
    1047:	fd                   	std
    1048:	05 00 00 4e 0f       	add    $0xf4e0000,%eax
    104d:	26 00 00             	add    %al,%es:(%eax)
    1050:	00 00                	add    %al,(%eax)
    1052:	02 f9                	add    %cl,%bh
    1054:	06                   	push   %es
    1055:	00 00                	add    %al,(%eax)
    1057:	4f                   	dec    %edi
    1058:	0f 26 00             	mov    %eax,%tr0
    105b:	00 00                	add    %al,(%eax)
    105d:	01 00                	add    %eax,(%eax)
    105f:	0c 35                	or     $0x35,%al
    1061:	06                   	push   %es
    1062:	00 00                	add    %al,(%eax)
    1064:	02 02                	add    (%edx),%al
    1066:	45                   	inc    %ebp
    1067:	3f                   	aas
    1068:	01 00                	add    %eax,(%eax)
    106a:	00 03                	add    %al,(%ebx)
    106c:	72 61                	jb     10cf <mbh-0x2fef31>
    106e:	77 00                	ja     1070 <mbh-0x2fef90>
    1070:	02 47 0d             	add    0xd(%edi),%al
    1073:	39 00                	cmp    %eax,(%eax)
    1075:	00 00                	add    %al,(%eax)
    1077:	09 3a                	or     %edi,(%edx)
    1079:	07                   	pop    %es
    107a:	00 00                	add    %al,(%eax)
    107c:	48                   	dec    %eax
    107d:	0d 79 00 00 00       	or     $0x79,%eax
    1082:	09 bb 06 00 00 49    	or     %edi,0x49000006(%ebx)
    1088:	0d 3f 01 00 00       	or     $0x13f,%eax
    108d:	04 e9                	add    $0xe9,%al
    108f:	00 00                	add    %al,(%eax)
    1091:	00 00                	add    %al,(%eax)
    1093:	11 26                	adc    %esp,(%esi)
    1095:	00 00                	add    %al,(%eax)
    1097:	00 4f 01             	add    %cl,0x1(%edi)
    109a:	00 00                	add    %al,(%eax)
    109c:	12 58 00             	adc    0x0(%eax),%bl
    109f:	00 00                	add    %al,(%eax)
    10a1:	01 00                	add    %eax,(%eax)
    10a3:	01 63 06             	add    %esp,0x6(%ebx)
    10a6:	00 00                	add    %al,(%eax)
    10a8:	02 53 1b             	add    0x1b(%ebx),%dl
    10ab:	0b 01                	or     (%ecx),%eax
    10ad:	00 00                	add    %al,(%eax)
    10af:	07                   	pop    %es
    10b0:	04 02                	add    $0x2,%al
    10b2:	5f                   	pop    %edi
    10b3:	04 7d                	add    $0x7d,%al
    10b5:	01 00                	add    %eax,(%eax)
    10b7:	00 02                	add    %al,(%edx)
    10b9:	ff 06                	incl   (%esi)
    10bb:	00 00                	add    %al,(%eax)
    10bd:	61                   	popa
    10be:	0f 4f 01             	cmovg  (%ecx),%eax
    10c1:	00 00                	add    %al,(%eax)
    10c3:	00 02                	add    %al,(%edx)
    10c5:	fc                   	cld
    10c6:	07                   	pop    %es
    10c7:	00 00                	add    %al,(%eax)
    10c9:	62 0f                	bound  %ecx,(%edi)
    10cb:	4f                   	dec    %edi
    10cc:	01 00                	add    %eax,(%eax)
    10ce:	00 02                	add    %al,(%edx)
    10d0:	00 07                	add    %al,(%edi)
    10d2:	02 02                	add    (%edx),%al
    10d4:	6b 0a 9f             	imul   $0xffffff9f,(%edx),%ecx
    10d7:	01 00                	add    %eax,(%eax)
    10d9:	00 02                	add    %al,(%edx)
    10db:	fd                   	std
    10dc:	05 00 00 6d 15       	add    $0x156d0000,%eax
    10e1:	26 00 00             	add    %al,%es:(%eax)
    10e4:	00 00                	add    %al,(%eax)
    10e6:	02 f9                	add    %cl,%bh
    10e8:	06                   	push   %es
    10e9:	00 00                	add    %al,(%eax)
    10eb:	6e                   	outsb  %ds:(%esi),(%dx)
    10ec:	15 26 00 00 00       	adc    $0x26,%eax
    10f1:	01 00                	add    %eax,(%eax)
    10f3:	13 02                	adc    (%edx),%eax
    10f5:	69 07 b8 01 00 00    	imul   $0x1b8,(%edi),%eax
    10fb:	04 7d                	add    $0x7d,%al
    10fd:	01 00                	add    %eax,(%eax)
    10ff:	00 09                	add    %cl,(%ecx)
    1101:	00 07                	add    %al,(%edi)
    1103:	00 00                	add    %al,(%eax)
    1105:	72 13                	jb     111a <mbh-0x2feee6>
    1107:	39 00                	cmp    %eax,(%eax)
    1109:	00 00                	add    %al,(%eax)
    110b:	00 07                	add    %al,(%edi)
    110d:	04 02                	add    $0x2,%al
    110f:	67 04 d3             	addr16 add $0xd3,%al
    1112:	01 00                	add    %eax,(%eax)
    1114:	00 14 9f             	add    %dl,(%edi,%ebx,4)
    1117:	01 00                	add    %eax,(%eax)
    1119:	00 02                	add    %al,(%edx)
    111b:	fd                   	std
    111c:	07                   	pop    %es
    111d:	00 00                	add    %al,(%eax)
    111f:	76 10                	jbe    1131 <mbh-0x2feecf>
    1121:	39 00                	cmp    %eax,(%eax)
    1123:	00 00                	add    %al,(%eax)
    1125:	02 00                	add    (%eax),%al
    1127:	0c 14                	or     $0x14,%al
    1129:	07                   	pop    %es
    112a:	00 00                	add    %al,(%eax)
    112c:	04 02                	add    $0x2,%al
    112e:	58                   	pop    %eax
    112f:	0c 02                	or     $0x2,%al
    1131:	00 00                	add    %al,(%eax)
    1133:	03 72 61             	add    0x61(%edx),%esi
    1136:	77 00                	ja     1138 <mbh-0x2feec8>
    1138:	02 5a 0d             	add    0xd(%edx),%bl
    113b:	4c                   	dec    %esp
    113c:	00 00                	add    %al,(%eax)
    113e:	00 09                	add    %cl,(%ecx)
    1140:	3a 07                	cmp    (%edi),%al
    1142:	00 00                	add    %al,(%eax)
    1144:	5b                   	pop    %ebx
    1145:	0d 8c 00 00 00       	or     $0x8c,%eax
    114a:	09 bb 06 00 00 5c    	or     %edi,0x5c000006(%ebx)
    1150:	0d 0c 02 00 00       	or     $0x20c,%eax
    1155:	04 5b                	add    $0x5b,%al
    1157:	01 00                	add    %eax,(%eax)
    1159:	00 04 b8             	add    %al,(%eax,%edi,4)
    115c:	01 00                	add    %eax,(%eax)
    115e:	00 00                	add    %al,(%eax)
    1160:	11 26                	adc    %esp,(%esi)
    1162:	00 00                	add    %al,(%eax)
    1164:	00 1c 02             	add    %bl,(%edx,%eax,1)
    1167:	00 00                	add    %al,(%eax)
    1169:	12 58 00             	adc    0x0(%eax),%bl
    116c:	00 00                	add    %al,(%eax)
    116e:	03 00                	add    (%eax),%eax
    1170:	01 7e 07             	add    %edi,0x7(%esi)
    1173:	00 00                	add    %al,(%eax)
    1175:	02 7a 1b             	add    0x1b(%edx),%bh
    1178:	d3 01                	roll   %cl,(%ecx)
    117a:	00 00                	add    %al,(%eax)
    117c:	07                   	pop    %es
    117d:	08 02                	or     %al,(%edx)
    117f:	86 04 4a             	xchg   %al,(%edx,%ecx,2)
    1182:	02 00                	add    (%eax),%al
    1184:	00 02                	add    %al,(%edx)
    1186:	e1 06                	loope  118e <mbh-0x2fee72>
    1188:	00 00                	add    %al,(%eax)
    118a:	88 0f                	mov    %cl,(%edi)
    118c:	1c 02                	sbb    $0x2,%al
    118e:	00 00                	add    %al,(%eax)
    1190:	00 02                	add    %al,(%edx)
    1192:	34 07                	xor    $0x7,%al
    1194:	00 00                	add    %al,(%eax)
    1196:	89 0f                	mov    %ecx,(%edi)
    1198:	1c 02                	sbb    $0x2,%al
    119a:	00 00                	add    %al,(%eax)
    119c:	04 00                	add    $0x0,%al
    119e:	07                   	pop    %es
    119f:	02 02                	add    (%edx),%al
    11a1:	96                   	xchg   %eax,%esi
    11a2:	10 6c 02 00          	adc    %ch,0x0(%edx,%eax,1)
    11a6:	00 02                	add    %al,(%edx)
    11a8:	fd                   	std
    11a9:	05 00 00 98 1b       	add    $0x1b980000,%eax
    11ae:	26 00 00             	add    %al,%es:(%eax)
    11b1:	00 00                	add    %al,(%eax)
    11b3:	02 f9                	add    %cl,%bh
    11b5:	06                   	push   %es
    11b6:	00 00                	add    %al,(%eax)
    11b8:	99                   	cltd
    11b9:	1b 26                	sbb    (%esi),%esp
    11bb:	00 00                	add    %al,(%eax)
    11bd:	00 01                	add    %al,(%ecx)
    11bf:	00 13                	add    %dl,(%ebx)
    11c1:	02 94 0d 85 02 00 00 	add    0x285(%ebp,%ecx,1),%dl
    11c8:	04 4a                	add    $0x4a,%al
    11ca:	02 00                	add    (%eax),%al
    11cc:	00 09                	add    %cl,(%ecx)
    11ce:	00 07                	add    %al,(%edi)
    11d0:	00 00                	add    %al,(%eax)
    11d2:	9d                   	popf
    11d3:	19 39                	sbb    %edi,(%ecx)
    11d5:	00 00                	add    %al,(%eax)
    11d7:	00 00                	add    %al,(%eax)
    11d9:	07                   	pop    %es
    11da:	04 02                	add    $0x2,%al
    11dc:	92                   	xchg   %eax,%edx
    11dd:	0a a0 02 00 00 14    	or     0x14000002(%eax),%ah
    11e3:	6c                   	insb   (%dx),%es:(%edi)
    11e4:	02 00                	add    (%eax),%al
    11e6:	00 02                	add    %al,(%edx)
    11e8:	fd                   	std
    11e9:	07                   	pop    %es
    11ea:	00 00                	add    %al,(%eax)
    11ec:	a1 16 39 00 00       	mov    0x3916,%eax
    11f1:	00 02                	add    %al,(%edx)
    11f3:	00 13                	add    %dl,(%ebx)
    11f5:	04 90                	add    $0x90,%al
    11f7:	07                   	pop    %es
    11f8:	ba 02 00 00 04       	mov    $0x4000002,%edx
    11fd:	85 02                	test   %eax,(%edx)
    11ff:	00 00                	add    %al,(%eax)
    1201:	03 6c 6f 77          	add    0x77(%edi,%ebp,2),%ebp
    1205:	00 02                	add    %al,(%edx)
    1207:	a5                   	movsl  %ds:(%esi),%es:(%edi)
    1208:	14 4c                	adc    $0x4c,%al
    120a:	00 00                	add    %al,(%eax)
    120c:	00 00                	add    %al,(%eax)
    120e:	07                   	pop    %es
    120f:	08 02                	or     %al,(%edx)
    1211:	8e 04 d5 02 00 00 14 	mov    0x14000002(,%edx,8),%es
    1218:	a0 02 00 00 02       	mov    0x2000002,%al
    121d:	35 07 00 00 a9       	xor    $0xa9000007,%eax
    1222:	11 4c 00 00          	adc    %ecx,0x0(%eax,%eax,1)
    1226:	00 04 00             	add    %al,(%eax,%eax,1)
    1229:	0c 84                	or     $0x84,%al
    122b:	06                   	push   %es
    122c:	00 00                	add    %al,(%eax)
    122e:	08 02                	or     %al,(%edx)
    1230:	7f 0e                	jg     1240 <mbh-0x2fedc0>
    1232:	03 00                	add    (%eax),%eax
    1234:	00 03                	add    %al,(%ebx)
    1236:	72 61                	jb     1299 <mbh-0x2fed67>
    1238:	77 00                	ja     123a <mbh-0x2fedc6>
    123a:	02 81 0d 5f 00 00    	add    0x5f0d(%ecx),%al
    1240:	00 09                	add    %cl,(%ecx)
    1242:	3a 07                	cmp    (%edi),%al
    1244:	00 00                	add    %al,(%eax)
    1246:	82 0d 9f 00 00 00 09 	orb    $0x9,0x9f
    124d:	bb 06 00 00 83       	mov    $0x83000006,%ebx
    1252:	0d 0e 03 00 00       	or     $0x30e,%eax
    1257:	04 28                	add    $0x28,%al
    1259:	02 00                	add    (%eax),%al
    125b:	00 04 ba             	add    %al,(%edx,%edi,4)
    125e:	02 00                	add    (%eax),%al
    1260:	00 00                	add    %al,(%eax)
    1262:	11 26                	adc    %esp,(%esi)
    1264:	00 00                	add    %al,(%eax)
    1266:	00 1e                	add    %bl,(%esi)
    1268:	03 00                	add    (%eax),%eax
    126a:	00 12                	add    %dl,(%edx)
    126c:	58                   	pop    %eax
    126d:	00 00                	add    %al,(%eax)
    126f:	00 07                	add    %al,(%edi)
    1271:	00 01                	add    %al,(%ecx)
    1273:	11 08                	adc    %ecx,(%eax)
    1275:	00 00                	add    %al,(%eax)
    1277:	02 ad 1b d5 02 00    	add    0x2d51b(%ebp),%ch
    127d:	00 0f                	add    %cl,(%edi)
    127f:	0a 07                	or     (%edi),%al
    1281:	00 00                	add    %al,(%eax)
    1283:	04 b9                	add    $0xb9,%al
    1285:	4e                   	dec    %esi
    1286:	03 00                	add    (%eax),%eax
    1288:	00 02                	add    %al,(%edx)
    128a:	ca 07 00             	lret   $0x7
    128d:	00 bb 0d 39 00 00    	add    %bh,0x390d(%ebx)
    1293:	00 00                	add    %al,(%eax)
    1295:	02 1f                	add    (%edi),%bl
    1297:	0d 00 00 bc 0d       	or     $0xdbc0000,%eax
    129c:	39 00                	cmp    %eax,(%eax)
    129e:	00 00                	add    %al,(%eax)
    12a0:	02 00                	add    (%eax),%al
    12a2:	01 f3                	add    %esi,%ebx
    12a4:	07                   	pop    %es
    12a5:	00 00                	add    %al,(%eax)
    12a7:	02 be 1b 2a 03 00    	add    0x32a1b(%esi),%bh
    12ad:	00 0f                	add    %cl,(%edi)
    12af:	86 07                	xchg   %al,(%edi)
    12b1:	00 00                	add    %al,(%eax)
    12b3:	06                   	push   %es
    12b4:	c0 7e 03 00          	sarb   $0x0,0x3(%esi)
    12b8:	00 02                	add    %al,(%edx)
    12ba:	ca 07 00             	lret   $0x7
    12bd:	00 c2                	add    %al,%dl
    12bf:	0d 4c 00 00 00       	or     $0x4c,%eax
    12c4:	00 02                	add    %al,(%edx)
    12c6:	1f                   	pop    %ds
    12c7:	0d 00 00 c3 0d       	or     $0xdc30000,%eax
    12cc:	39 00                	cmp    %eax,(%eax)
    12ce:	00 00                	add    %al,(%eax)
    12d0:	04 00                	add    $0x0,%al
    12d2:	01 47 06             	add    %eax,0x6(%edi)
    12d5:	00 00                	add    %al,(%eax)
    12d7:	02 c5                	add    %ch,%al
    12d9:	1b 5a 03             	sbb    0x3(%edx),%ebx
    12dc:	00 00                	add    %al,(%eax)
    12de:	0f 2b 06             	movntps %xmm0,(%esi)
    12e1:	00 00                	add    %al,(%eax)
    12e3:	0a c7                	or     %bh,%al
    12e5:	ae                   	scas   %es:(%edi),%al
    12e6:	03 00                	add    (%eax),%eax
    12e8:	00 02                	add    %al,(%edx)
    12ea:	ca 07 00             	lret   $0x7
    12ed:	00 c9                	add    %cl,%cl
    12ef:	0d 5f 00 00 00       	or     $0x5f,%eax
    12f4:	00 02                	add    %al,(%edx)
    12f6:	1f                   	pop    %ds
    12f7:	0d 00 00 ca 0d       	or     $0xdca0000,%eax
    12fc:	39 00                	cmp    %eax,(%eax)
    12fe:	00 00                	add    %al,(%eax)
    1300:	08 00                	or     %al,(%eax)
    1302:	01 75 07             	add    %esi,0x7(%ebp)
    1305:	00 00                	add    %al,(%eax)
    1307:	02 cc                	add    %ah,%cl
    1309:	1b 8a 03 00 00 0c    	sbb    0xc000003(%edx),%ecx
    130f:	a7                   	cmpsl  %es:(%edi),%ds:(%esi)
    1310:	07                   	pop    %es
    1311:	00 00                	add    %al,(%eax)
    1313:	08 02                	or     %al,(%edx)
    1315:	d1 41 04             	roll   $1,0x4(%ecx)
    1318:	00 00                	add    %al,(%eax)
    131a:	09 50 06             	or     %edx,0x6(%eax)
    131d:	00 00                	add    %al,(%eax)
    131f:	d3 0e                	rorl   %cl,(%esi)
    1321:	dd 00                	fldl   (%eax)
    1323:	00 00                	add    %al,(%eax)
    1325:	09 f8                	or     %edi,%eax
    1327:	05 00 00 d5 0f       	add    $0xfd50000,%eax
    132c:	41                   	inc    %ecx
    132d:	04 00                	add    $0x0,%al
    132f:	00 03                	add    %al,(%ebx)
    1331:	75 38                	jne    136b <mbh-0x2fec95>
    1333:	00 02                	add    %al,(%edx)
    1335:	d6                   	(bad)
    1336:	0f 43 04 00          	cmovae (%eax,%eax,1),%eax
    133a:	00 03                	add    %al,(%ebx)
    133c:	75 31                	jne    136f <mbh-0x2fec91>
    133e:	36 00 02             	add    %al,%ss:(%edx)
    1341:	d7                   	xlat   %ds:(%ebx)
    1342:	0f 48 04 00          	cmovs  (%eax,%eax,1),%eax
    1346:	00 03                	add    %al,(%ebx)
    1348:	75 33                	jne    137d <mbh-0x2fec83>
    134a:	32 00                	xor    (%eax),%al
    134c:	02 d8                	add    %al,%bl
    134e:	0f 4d 04 00          	cmovge (%eax,%eax,1),%eax
    1352:	00 03                	add    %al,(%ebx)
    1354:	75 36                	jne    138c <mbh-0x2fec74>
    1356:	34 00                	xor    $0x0,%al
    1358:	02 d9                	add    %cl,%bl
    135a:	0f 52 04 00          	rsqrtps (%eax,%eax,1),%xmm0
    135e:	00 03                	add    %al,(%ebx)
    1360:	73 74                	jae    13d6 <mbh-0x2fec2a>
    1362:	72 00                	jb     1364 <mbh-0x2fec9c>
    1364:	02 db                	add    %bl,%bl
    1366:	0e                   	push   %cs
    1367:	b2 00                	mov    $0x0,%dl
    1369:	00 00                	add    %al,(%eax)
    136b:	03 66 31             	add    0x31(%esi),%esp
    136e:	36 00 02             	add    %al,%ss:(%edx)
    1371:	dd 0f                	fisttpll (%edi)
    1373:	57                   	push   %edi
    1374:	04 00                	add    $0x0,%al
    1376:	00 03                	add    %al,(%ebx)
    1378:	66 33 32             	xor    (%edx),%si
    137b:	00 02                	add    %al,(%edx)
    137d:	de 0f                	fimuls (%edi)
    137f:	5c                   	pop    %esp
    1380:	04 00                	add    $0x0,%al
    1382:	00 03                	add    %al,(%ebx)
    1384:	66 36 34 00          	data16 ss xor $0x0,%al
    1388:	02 df                	add    %bh,%bl
    138a:	0f 61 04 00          	punpcklwd (%eax,%eax,1),%mm0
    138e:	00 04 1e             	add    %al,(%esi,%ebx,1)
    1391:	03 00                	add    (%eax),%eax
    1393:	00 00                	add    %al,(%eax)
    1395:	1a 04 0b             	sbb    (%ebx,%ecx,1),%al
    1398:	26 00 00             	add    %al,%es:(%eax)
    139b:	00 0b                	add    %cl,(%ebx)
    139d:	39 00                	cmp    %eax,(%eax)
    139f:	00 00                	add    %al,(%eax)
    13a1:	0b 4c 00 00          	or     0x0(%eax,%eax,1),%ecx
    13a5:	00 0b                	add    %cl,(%ebx)
    13a7:	5f                   	pop    %edi
    13a8:	00 00                	add    %al,(%eax)
    13aa:	00 0b                	add    %cl,(%ebx)
    13ac:	4e                   	dec    %esi
    13ad:	03 00                	add    (%eax),%eax
    13af:	00 0b                	add    %cl,(%ebx)
    13b1:	7e 03                	jle    13b6 <mbh-0x2fec4a>
    13b3:	00 00                	add    %al,(%eax)
    13b5:	0b ae 03 00 00 01    	or     0x1000003(%esi),%ebp
    13bb:	0b 08                	or     (%eax),%ecx
    13bd:	00 00                	add    %al,(%eax)
    13bf:	02 e3                	add    %bl,%ah
    13c1:	1b ba 03 00 00 0f    	sbb    0xf000003(%edx),%edi
    13c7:	24 06                	and    $0x6,%al
    13c9:	00 00                	add    %al,(%eax)
    13cb:	0c e8                	or     $0xe8,%al
    13cd:	96                   	xchg   %eax,%esi
    13ce:	04 00                	add    $0x0,%al
    13d0:	00 02                	add    %al,(%edx)
    13d2:	05 07 00 00 ea       	add    $0xea000007,%eax
    13d7:	0b 66 04             	or     0x4(%esi),%esp
    13da:	00 00                	add    %al,(%eax)
    13dc:	00 1b                	add    %bl,(%ebx)
    13de:	73 7a                	jae    145a <mbh-0x2feba6>
    13e0:	00 02                	add    %al,(%edx)
    13e2:	eb 0b                	jmp    13ef <mbh-0x2fec11>
    13e4:	ca 00 00             	lret   $0x0
    13e7:	00 08                	add    %cl,(%eax)
    13e9:	00 01                	add    %al,(%ecx)
    13eb:	c0 06 00             	rolb   $0x0,(%esi)
    13ee:	00 02                	add    %al,(%edx)
    13f0:	ed                   	in     (%dx),%eax
    13f1:	1b 72 04             	sbb    0x4(%edx),%esi
    13f4:	00 00                	add    %al,(%eax)
    13f6:	07                   	pop    %es
    13f7:	01 03                	add    %eax,(%ebx)
    13f9:	2f                   	das
    13fa:	04 eb                	add    $0xeb,%al
    13fc:	04 00                	add    $0x0,%al
    13fe:	00 05 1d 09 00 00    	add    %al,0x91d
    1404:	31 11                	xor    %edx,(%ecx)
    1406:	26 00 00             	add    %al,%es:(%eax)
    1409:	00 04 00             	add    %al,(%eax,%eax,1)
    140c:	08 63 74             	or     %ah,0x74(%ebx)
    140f:	6c                   	insb   (%dx),%es:(%edi)
    1410:	00 3c 11             	add    %bh,(%ecx,%edx,1)
    1413:	26 00 00             	add    %al,%es:(%eax)
    1416:	00 04 08             	add    %al,(%eax,%ecx,1)
    1419:	73 70                	jae    148b <mbh-0x2feb75>
    141b:	63 00                	arpl   %eax,(%eax)
    141d:	3d 11 26 00 00       	cmp    $0x2611,%eax
    1422:	00 05 05 37 09 00    	add    %al,0x93705
    1428:	00 3e                	add    %bh,(%esi)
    142a:	11 26                	adc    %esp,(%esi)
    142c:	00 00                	add    %al,(%eax)
    142e:	00 01                	add    %al,(%ecx)
    1430:	06                   	push   %es
    1431:	05 d8 08 00 00       	add    $0x8d8,%eax
    1436:	3f                   	aas
    1437:	11 26                	adc    %esp,(%esi)
    1439:	00 00                	add    %al,(%eax)
    143b:	00 01                	add    %al,(%ecx)
    143d:	07                   	pop    %es
    143e:	00 0c b9             	add    %cl,(%ecx,%edi,4)
    1441:	08 00                	or     %al,(%eax)
    1443:	00 01                	add    %al,(%ecx)
    1445:	03 2d 09 05 00 00    	add    0x509,%ebp
    144b:	04 a2                	add    $0xa2,%al
    144d:	04 00                	add    $0x0,%al
    144f:	00 03                	add    %al,(%ebx)
    1451:	72 61                	jb     14b4 <mbh-0x2feb4c>
    1453:	77 00                	ja     1455 <mbh-0x2febab>
    1455:	03 43 0c             	add    0xc(%ebx),%eax
    1458:	26 00 00             	add    %al,%es:(%eax)
    145b:	00 00                	add    %al,(%eax)
    145d:	01 de                	add    %ebx,%esi
    145f:	08 00                	or     %al,(%eax)
    1461:	00 03                	add    %al,(%ebx)
    1463:	45                   	inc    %ebp
    1464:	1b eb                	sbb    %ebx,%ebp
    1466:	04 00                	add    $0x0,%al
    1468:	00 07                	add    %al,(%edi)
    146a:	01 03                	add    %eax,(%ebx)
    146c:	56                   	push   %esi
    146d:	04 83                	add    $0x83,%al
    146f:	05 00 00 05 49       	add    $0x49050000,%eax
    1474:	08 00                	or     %al,(%eax)
    1476:	00 58 11             	add    %bl,0x11(%eax)
    1479:	26 00 00             	add    %al,%es:(%eax)
    147c:	00 01                	add    %al,(%ecx)
    147e:	00 05 32 08 00 00    	add    %al,0x832
    1484:	59                   	pop    %ecx
    1485:	11 26                	adc    %esp,(%esi)
    1487:	00 00                	add    %al,(%eax)
    1489:	00 01                	add    %al,(%ecx)
    148b:	01 08                	add    %ecx,(%eax)
    148d:	6c                   	insb   (%dx),%es:(%edi)
    148e:	73 72                	jae    1502 <mbh-0x2feafe>
    1490:	00 5a 11             	add    %bl,0x11(%edx)
    1493:	26 00 00             	add    %al,%es:(%eax)
    1496:	00 02                	add    %al,(%edx)
    1498:	08 6d 73             	or     %ch,0x73(%ebp)
    149b:	72 00                	jb     149d <mbh-0x2feb63>
    149d:	5b                   	pop    %ebx
    149e:	11 26                	adc    %esp,(%esi)
    14a0:	00 00                	add    %al,(%eax)
    14a2:	00 03                	add    %al,(%ebx)
    14a4:	05 cd 08 00 00       	add    $0x8cd,%eax
    14a9:	5c                   	pop    %esp
    14aa:	11 26                	adc    %esp,(%esi)
    14ac:	00 00                	add    %al,(%eax)
    14ae:	00 01                	add    %al,(%ecx)
    14b0:	04 05                	add    $0x5,%al
    14b2:	37                   	aaa
    14b3:	08 00                	or     %al,(%eax)
    14b5:	00 5d 11             	add    %bl,0x11(%ebp)
    14b8:	26 00 00             	add    %al,%es:(%eax)
    14bb:	00 01                	add    %al,(%ecx)
    14bd:	05 08 72 74 73       	add    $0x73747208,%eax
    14c2:	00 5e 11             	add    %bl,0x11(%esi)
    14c5:	26 00 00             	add    %al,%es:(%eax)
    14c8:	00 06                	add    %al,(%esi)
    14ca:	08 63 74             	or     %ah,0x74(%ebx)
    14cd:	73 00                	jae    14cf <mbh-0x2feb31>
    14cf:	5f                   	pop    %edi
    14d0:	11 26                	adc    %esp,(%esi)
    14d2:	00 00                	add    %al,(%eax)
    14d4:	00 07                	add    %al,(%edi)
    14d6:	00 0c 59             	add    %cl,(%ecx,%ebx,2)
    14d9:	08 00                	or     %al,(%eax)
    14db:	00 01                	add    %al,(%ecx)
    14dd:	03 54 a1 05          	add    0x5(%ecx,%eiz,4),%edx
    14e1:	00 00                	add    %al,(%eax)
    14e3:	04 15                	add    $0x15,%al
    14e5:	05 00 00 03 72       	add    $0x72030000,%eax
    14ea:	61                   	popa
    14eb:	77 00                	ja     14ed <mbh-0x2feb13>
    14ed:	03 63 0c             	add    0xc(%ebx),%esp
    14f0:	26 00 00             	add    %al,%es:(%eax)
    14f3:	00 00                	add    %al,(%eax)
    14f5:	01 26                	add    %esp,(%esi)
    14f7:	09 00                	or     %eax,(%eax)
    14f9:	00 03                	add    %al,(%ebx)
    14fb:	65 1b 83 05 00 00 07 	sbb    %gs:0x7000005(%ebx),%eax
    1502:	01 03                	add    %eax,(%ebx)
    1504:	a8 04                	test   $0x4,%al
    1506:	00 06                	add    %al,(%esi)
    1508:	00 00                	add    %al,(%eax)
    150a:	05 ef 08 00 00       	add    $0x8ef,%eax
    150f:	aa                   	stos   %al,%es:(%edi)
    1510:	11 26                	adc    %esp,(%esi)
    1512:	00 00                	add    %al,(%eax)
    1514:	00 01                	add    %al,(%ecx)
    1516:	00 08                	add    %cl,(%eax)
    1518:	72 78                	jb     1592 <mbh-0x2fea6e>
    151a:	00 ab 11 26 00 00    	add    %ch,0x2611(%ebx)
    1520:	00 01                	add    %al,(%ecx)
    1522:	08 74 78 00          	or     %dh,0x0(%eax,%edi,2)
    1526:	ac                   	lods   %ds:(%esi),%al
    1527:	11 26                	adc    %esp,(%esi)
    1529:	00 00                	add    %al,(%eax)
    152b:	00 02                	add    %al,(%edx)
    152d:	08 64 6d 61          	or     %ah,0x61(%ebp,%ebp,2)
    1531:	00 ad 11 26 00 00    	add    %ch,0x2611(%ebp)
    1537:	00 03                	add    %al,(%ebx)
    1539:	05 52 09 00 00       	add    $0x952,%eax
    153e:	ae                   	scas   %es:(%edi),%al
    153f:	11 26                	adc    %esp,(%esi)
    1541:	00 00                	add    %al,(%eax)
    1543:	00 02                	add    %al,(%edx)
    1545:	04 05                	add    $0x5,%al
    1547:	4e                   	dec    %esi
    1548:	08 00                	or     %al,(%eax)
    154a:	00 af 11 26 00 00    	add    %ch,0x2611(%edi)
    1550:	00 02                	add    %al,(%edx)
    1552:	06                   	push   %es
    1553:	00 0c 8d 08 00 00 01 	add    %cl,0x1000008(,%ecx,4)
    155a:	03 a6 1e 06 00 00    	add    0x61e(%esi),%esp
    1560:	04 ad                	add    $0xad,%al
    1562:	05 00 00 03 72       	add    $0x72030000,%eax
    1567:	61                   	popa
    1568:	77 00                	ja     156a <mbh-0x2fea96>
    156a:	03 b3 0c 26 00 00    	add    0x260c(%ebx),%esi
    1570:	00 00                	add    %al,(%eax)
    1572:	01 a1 08 00 00 03    	add    %esp,0x3000008(%ecx)
    1578:	b5 1b                	mov    $0x1b,%ch
    157a:	00 06                	add    %al,(%esi)
    157c:	00 00                	add    %al,(%eax)
    157e:	07                   	pop    %es
    157f:	01 03                	add    %eax,(%ebx)
    1581:	bd 04 73 06 00       	mov    $0x67304,%ebp
    1586:	00 05 49 09 00 00    	add    %al,0x949
    158c:	bf 10 26 00 00       	mov    $0x2610,%edi
    1591:	00 02                	add    %al,(%edx)
    1593:	00 05 d3 08 00 00    	add    %al,0x8d3
    1599:	c0 10 26             	rclb   $0x26,(%eax)
    159c:	00 00                	add    %al,(%eax)
    159e:	00 01                	add    %al,(%ecx)
    15a0:	02 05 b2 08 00 00    	add    0x8b2,%al
    15a6:	c1 10 26             	rcll   $0x26,(%eax)
    15a9:	00 00                	add    %al,(%eax)
    15ab:	00 03                	add    %al,(%ebx)
    15ad:	03 08                	add    (%eax),%ecx
    15af:	62 72 6b             	bound  %esi,0x6b(%edx)
    15b2:	00 c6                	add    %al,%dh
    15b4:	10 26                	adc    %ah,(%esi)
    15b6:	00 00                	add    %al,(%eax)
    15b8:	00 06                	add    %al,(%esi)
    15ba:	08 64 6c 61          	or     %ah,0x61(%esp,%ebp,2)
    15be:	00 c7                	add    %al,%bh
    15c0:	10 26                	adc    %ah,(%esi)
    15c2:	00 00                	add    %al,(%eax)
    15c4:	00 07                	add    %al,(%edi)
    15c6:	00 0c 1e             	add    %cl,(%esi,%ebx,1)
    15c9:	08 00                	or     %al,(%eax)
    15cb:	00 01                	add    %al,(%ecx)
    15cd:	03 bb 91 06 00 00    	add    0x691(%ebx),%edi
    15d3:	04 2a                	add    $0x2a,%al
    15d5:	06                   	push   %es
    15d6:	00 00                	add    %al,(%eax)
    15d8:	03 72 61             	add    0x61(%edx),%esi
    15db:	77 00                	ja     15dd <mbh-0x2fea23>
    15dd:	03 cb                	add    %ebx,%ecx
    15df:	0c 26                	or     $0x26,%al
    15e1:	00 00                	add    %al,(%eax)
    15e3:	00 00                	add    %al,(%eax)
    15e5:	01 0c 09             	add    %ecx,(%ecx,%ecx,1)
    15e8:	00 00                	add    %al,(%eax)
    15ea:	03 cd                	add    %ebp,%ecx
    15ec:	1b 73 06             	sbb    0x6(%ebx),%esi
    15ef:	00 00                	add    %al,(%eax)
    15f1:	1c 02                	sbb    $0x2,%al
    15f3:	06                   	push   %es
    15f4:	00 00                	add    %al,(%eax)
    15f6:	01 72 06             	add    %esi,0x6(%edx)
    15f9:	03 3b                	add    (%ebx),%edi
    15fb:	30 00                	xor    %al,(%eax)
    15fd:	41                   	inc    %ecx
    15fe:	00 00                	add    %al,(%eax)
    1600:	00 01                	add    %al,(%ecx)
    1602:	9c                   	pushf
    1603:	d8 06                	fadds  (%esi)
    1605:	00 00                	add    %al,(%eax)
    1607:	06                   	push   %es
    1608:	73 00                	jae    160a <mbh-0x2fe9f6>
    160a:	74 0b                	je     1617 <mbh-0x2fe9e9>
    160c:	ca 00 00             	lret   $0x0
    160f:	00 02                	add    %al,(%edx)
    1611:	91                   	xchg   %eax,%ecx
    1612:	74 10                	je     1624 <mbh-0x2fe9dc>
    1614:	12 3b                	adc    (%ebx),%bh
    1616:	30 00                	xor    %al,(%eax)
    1618:	0f 00 00             	sldt   (%eax)
    161b:	00 06                	add    %al,(%esi)
    161d:	5f                   	pop    %edi
    161e:	64 5f                	fs pop %edi
    1620:	00 77 0a             	add    %dh,0xa(%edi)
    1623:	26 00 00             	add    %al,%es:(%eax)
    1626:	00 02                	add    %al,(%edx)
    1628:	91                   	xchg   %eax,%ecx
    1629:	73 00                	jae    162b <mbh-0x2fe9d5>
    162b:	00 16                	add    %dl,(%esi)
    162d:	82 08 00             	orb    $0x0,(%eax)
    1630:	00 67 ca             	add    %ah,-0x36(%edi)
    1633:	00 00                	add    %al,(%eax)
    1635:	00 d7                	add    %dl,%bh
    1637:	3a 30                	cmp    (%eax),%dh
    1639:	00 2c 00             	add    %ch,(%eax,%eax,1)
    163c:	00 00                	add    %al,(%eax)
    163e:	01 9c 19 07 00 00 0d 	add    %ebx,0xd000007(%ecx,%ebx,1)
    1645:	05 07 00 00 67       	add    $0x67000007,%eax
    164a:	1c 43                	sbb    $0x43,%al
    164c:	04 00                	add    $0x0,%al
    164e:	00 02                	add    %al,(%edx)
    1650:	91                   	xchg   %eax,%ecx
    1651:	00 0e                	add    %cl,(%esi)
    1653:	6e                   	outsb  %ds:(%esi),(%dx)
    1654:	00 67 29             	add    %ah,0x29(%edi)
    1657:	ca 00 00             	lret   $0x0
    165a:	00 02                	add    %al,(%edx)
    165c:	91                   	xchg   %eax,%ecx
    165d:	04 06                	add    $0x6,%al
    165f:	62 75 66             	bound  %esi,0x66(%ebp)
    1662:	00 69 0d             	add    %ch,0xd(%ecx)
    1665:	96                   	xchg   %eax,%esi
    1666:	04 00                	add    $0x0,%al
    1668:	00 02                	add    %al,(%edx)
    166a:	91                   	xchg   %eax,%ecx
    166b:	6c                   	insb   (%dx),%es:(%edi)
    166c:	00 16                	add    %dl,(%esi)
    166e:	3f                   	aas
    166f:	09 00                	or     %eax,(%eax)
    1671:	00 5c ca 00          	add    %bl,0x0(%edx,%ecx,8)
    1675:	00 00                	add    %al,(%eax)
    1677:	ab                   	stos   %eax,%es:(%edi)
    1678:	3a 30                	cmp    (%eax),%dh
    167a:	00 2c 00             	add    %ch,(%eax,%eax,1)
    167d:	00 00                	add    %al,(%eax)
    167f:	01 9c 5a 07 00 00 0d 	add    %ebx,0xd000007(%edx,%ebx,2)
    1686:	05 07 00 00 5c       	add    $0x5c000007,%eax
    168b:	1b 43 04             	sbb    0x4(%ebx),%eax
    168e:	00 00                	add    %al,(%eax)
    1690:	02 91 00 0e 6e 00    	add    0x6e0e00(%ecx),%dl
    1696:	5c                   	pop    %esp
    1697:	28 ca                	sub    %cl,%dl
    1699:	00 00                	add    %al,(%eax)
    169b:	00 02                	add    %al,(%edx)
    169d:	91                   	xchg   %eax,%ecx
    169e:	04 06                	add    $0x6,%al
    16a0:	62 75 66             	bound  %esi,0x66(%ebp)
    16a3:	00 5e 0d             	add    %bl,0xd(%esi)
    16a6:	96                   	xchg   %eax,%esi
    16a7:	04 00                	add    $0x0,%al
    16a9:	00 02                	add    %al,(%edx)
    16ab:	91                   	xchg   %eax,%ecx
    16ac:	6c                   	insb   (%dx),%es:(%edi)
    16ad:	00 15 80 08 00 00    	add    %dl,0x880
    16b3:	50                   	push   %eax
    16b4:	14 4e                	adc    $0x4e,%al
    16b6:	3a 30                	cmp    (%eax),%dh
    16b8:	00 5d 00             	add    %bl,0x0(%ebp)
    16bb:	00 00                	add    %al,(%eax)
    16bd:	01 9c b2 07 00 00 0d 	add    %ebx,0xd000007(%edx,%esi,4)
    16c4:	07                   	pop    %es
    16c5:	09 00                	or     %eax,(%eax)
    16c7:	00 50 2a             	add    %dl,0x2a(%eax)
    16ca:	39 00                	cmp    %eax,(%eax)
    16cc:	00 00                	add    %al,(%eax)
    16ce:	02 91 64 0e 62 75    	add    0x75620e64(%ecx),%dl
    16d4:	66 00 50 3a          	data16 add %dl,0x3a(%eax)
    16d8:	b2 07                	mov    $0x7,%dl
    16da:	00 00                	add    %al,(%eax)
    16dc:	02 91 04 0e 6d 61    	add    0x616d0e04(%ecx),%dl
    16e2:	78 00                	js     16e4 <mbh-0x2fe91c>
    16e4:	50                   	push   %eax
    16e5:	46                   	inc    %esi
    16e6:	ca 00 00             	lret   $0x0
    16e9:	00 02                	add    %al,(%edx)
    16eb:	91                   	xchg   %eax,%ecx
    16ec:	08 10                	or     %dl,(%eax)
    16ee:	5d                   	pop    %ebp
    16ef:	3a 30                	cmp    (%eax),%dh
    16f1:	00 11                	add    %dl,(%ecx)
    16f3:	00 00                	add    %al,(%eax)
    16f5:	00 06                	add    %al,(%esi)
    16f7:	5f                   	pop    %edi
    16f8:	64 5f                	fs pop %edi
    16fa:	00 54 0a 26          	add    %dl,0x26(%edx,%ecx,1)
    16fe:	00 00                	add    %al,(%eax)
    1700:	00 02                	add    %al,(%edx)
    1702:	91                   	xchg   %eax,%ecx
    1703:	77 00                	ja     1705 <mbh-0x2fe8fb>
    1705:	00 0b                	add    %cl,(%ebx)
    1707:	96                   	xchg   %eax,%esi
    1708:	04 00                	add    $0x0,%al
    170a:	00 15 3d 09 00 00    	add    %dl,0x93d
    1710:	47                   	inc    %edi
    1711:	14 ea                	adc    $0xea,%al
    1713:	39 30                	cmp    %esi,(%eax)
    1715:	00 64 00 00          	add    %ah,0x0(%eax,%eax,1)
    1719:	00 01                	add    %al,(%ecx)
    171b:	9c                   	pushf
    171c:	2b 08                	sub    (%eax),%ecx
    171e:	00 00                	add    %al,(%eax)
    1720:	0d 07 09 00 00       	or     $0x907,%eax
    1725:	47                   	inc    %edi
    1726:	29 39                	sub    %edi,(%ecx)
    1728:	00 00                	add    %al,(%eax)
    172a:	00 02                	add    %al,(%edx)
    172c:	91                   	xchg   %eax,%ecx
    172d:	64 0e                	fs push %cs
    172f:	62 75 66             	bound  %esi,0x66(%ebp)
    1732:	00 47 39             	add    %al,0x39(%edi)
    1735:	b2 07                	mov    $0x7,%dl
    1737:	00 00                	add    %al,(%eax)
    1739:	02 91 04 0e 6d 61    	add    0x616d0e04(%ecx),%dl
    173f:	78 00                	js     1741 <mbh-0x2fe8bf>
    1741:	47                   	inc    %edi
    1742:	45                   	inc    %ebp
    1743:	ca 00 00             	lret   $0x0
    1746:	00 02                	add    %al,(%edx)
    1748:	91                   	xchg   %eax,%ecx
    1749:	08 17                	or     %dl,(%edi)
    174b:	f9                   	stc
    174c:	39 30                	cmp    %esi,(%eax)
    174e:	00 0e                	add    %cl,(%esi)
    1750:	00 00                	add    %al,(%eax)
    1752:	00 12                	add    %dl,(%edx)
    1754:	08 00                	or     %al,(%eax)
    1756:	00 06                	add    %al,(%esi)
    1758:	5f                   	pop    %edi
    1759:	64 5f                	fs pop %edi
    175b:	00 4b 1f             	add    %cl,0x1f(%ebx)
    175e:	26 00 00             	add    %al,%es:(%eax)
    1761:	00 02                	add    %al,(%edx)
    1763:	91                   	xchg   %eax,%ecx
    1764:	76 00                	jbe    1766 <mbh-0x2fe89a>
    1766:	10 25 3a 30 00 11    	adc    %ah,0x1100303a
    176c:	00 00                	add    %al,(%eax)
    176e:	00 06                	add    %al,(%esi)
    1770:	5f                   	pop    %edi
    1771:	64 5f                	fs pop %edi
    1773:	00 49 0a             	add    %cl,0xa(%ecx)
    1776:	26 00 00             	add    %al,%es:(%eax)
    1779:	00 02                	add    %al,(%edx)
    177b:	91                   	xchg   %eax,%ecx
    177c:	77 00                	ja     177e <mbh-0x2fe882>
    177e:	00 1d 48 00 00 00    	add    %bl,0x48
    1784:	01 41 06             	add    %eax,0x6(%ecx)
    1787:	ca 39 30             	lret   $0x3039
    178a:	00 20                	add    %ah,(%eax)
    178c:	00 00                	add    %al,(%eax)
    178e:	00 01                	add    %al,(%ecx)
    1790:	9c                   	pushf
    1791:	1e                   	push   %ds
    1792:	6d                   	insl   (%dx),%es:(%edi)
    1793:	08 00                	or     %al,(%eax)
    1795:	00 01                	add    %al,(%ecx)
    1797:	20 0d 5f 39 30 00    	and    %cl,0x30395f
    179d:	6b 00 00             	imul   $0x0,(%eax),%eax
    17a0:	00 01                	add    %al,(%ecx)
    17a2:	9c                   	pushf
    17a3:	7e 08                	jle    17ad <mbh-0x2fe853>
    17a5:	00 00                	add    %al,(%eax)
    17a7:	0d 07 09 00 00       	or     $0x907,%eax
    17ac:	20 29                	and    %ch,(%ecx)
    17ae:	39 00                	cmp    %eax,(%eax)
    17b0:	00 00                	add    %al,(%eax)
    17b2:	02 91 64 06 69 65    	add    0x65690664(%ecx),%dl
    17b8:	72 00                	jb     17ba <mbh-0x2fe846>
    17ba:	22 16                	and    (%esi),%dl
    17bc:	a1 05 00 00 02       	mov    0x2000005,%eax
    17c1:	91                   	xchg   %eax,%ecx
    17c2:	77 06                	ja     17ca <mbh-0x2fe836>
    17c4:	6c                   	insb   (%dx),%es:(%edi)
    17c5:	63 72 00             	arpl   %esi,0x0(%edx)
    17c8:	23 16                	and    (%esi),%edx
    17ca:	91                   	xchg   %eax,%ecx
    17cb:	06                   	push   %es
    17cc:	00 00                	add    %al,(%eax)
    17ce:	02 91 76 00 15 f6    	add    -0x9eaff8a(%ecx),%dl
    17d4:	08 00                	or     %al,(%eax)
    17d6:	00 0a                	add    %cl,(%edx)
    17d8:	0d d7 38 30 00       	or     $0x3038d7,%eax
    17dd:	88 00                	mov    %al,(%eax)
    17df:	00 00                	add    %al,(%eax)
    17e1:	01 9c be 08 00 00 0d 	add    %ebx,0xd000008(%esi,%edi,4)
    17e8:	07                   	pop    %es
    17e9:	09 00                	or     %eax,(%eax)
    17eb:	00 0a                	add    %cl,(%edx)
    17ed:	27                   	daa
    17ee:	39 00                	cmp    %eax,(%eax)
    17f0:	00 00                	add    %al,(%eax)
    17f2:	02 91 64 06 66 63    	add    0x63660664(%ecx),%dl
    17f8:	72 00                	jb     17fa <mbh-0x2fe806>
    17fa:	0c 16                	or     $0x16,%al
    17fc:	1e                   	push   %ds
    17fd:	06                   	push   %es
    17fe:	00 00                	add    %al,(%eax)
    1800:	02 91 77 06 65 66    	add    0x66650677(%ecx),%dl
    1806:	72 00                	jb     1808 <mbh-0x2fe7f8>
    1808:	0d 16 09 05 00       	or     $0x50916,%eax
    180d:	00 02                	add    %al,(%edx)
    180f:	91                   	xchg   %eax,%ecx
    1810:	76 00                	jbe    1812 <mbh-0x2fe7ee>
    1812:	1f                   	pop    %ds
    1813:	3c 08                	cmp    $0x8,%al
    1815:	00 00                	add    %al,(%eax)
    1817:	01 04 0d 9f 38 30 00 	add    %eax,0x30389f(,%ecx,1)
    181e:	38 00                	cmp    %al,(%eax)
    1820:	00 00                	add    %al,(%eax)
    1822:	01 9c 0d 07 09 00 00 	add    %ebx,0x907(%ebp,%ecx,1)
    1829:	04 28                	add    $0x28,%al
    182b:	39 00                	cmp    %eax,(%eax)
    182d:	00 00                	add    %al,(%eax)
    182f:	02 91 64 17 ae 38    	add    0x38ae1764(%ecx),%dl
    1835:	30 00                	xor    %al,(%eax)
    1837:	0a 00                	or     (%eax),%al
    1839:	00 00                	add    %al,(%eax)
    183b:	fa                   	cli
    183c:	08 00                	or     %al,(%eax)
    183e:	00 06                	add    %al,(%esi)
    1840:	5f                   	pop    %edi
    1841:	64 5f                	fs pop %edi
    1843:	00 07                	add    %al,(%edi)
    1845:	07                   	pop    %es
    1846:	26 00 00             	add    %al,%es:(%eax)
    1849:	00 02                	add    %al,(%edx)
    184b:	91                   	xchg   %eax,%ecx
    184c:	76 00                	jbe    184e <mbh-0x2fe7b2>
    184e:	10 b8 38 30 00 11    	adc    %bh,0x11003038(%eax)
    1854:	00 00                	add    %al,(%eax)
    1856:	00 06                	add    %al,(%esi)
    1858:	5f                   	pop    %edi
    1859:	64 5f                	fs pop %edi
    185b:	00 06                	add    %al,(%esi)
    185d:	0a 26                	or     (%esi),%ah
    185f:	00 00                	add    %al,(%eax)
    1861:	00 02                	add    %al,(%edx)
    1863:	91                   	xchg   %eax,%ecx
    1864:	77 00                	ja     1866 <mbh-0x2fe79a>
    1866:	00 00                	add    %al,(%eax)
    1868:	bc 02 00 00 05       	mov    $0x5000002,%esp
    186d:	00 01                	add    %al,(%ecx)
    186f:	04 f7                	add    $0xf7,%al
    1871:	05 00 00 0b 21       	add    $0x210b0000,%eax
    1876:	04 00                	add    $0x0,%al
    1878:	00 1d d9 00 00 00    	add    %bl,0xd9
    187e:	00 00                	add    %al,(%eax)
    1880:	00 00                	add    %al,(%eax)
    1882:	44                   	inc    %esp
    1883:	3b 30                	cmp    (%eax),%esi
    1885:	00 88 00 00 00 99    	add    %cl,-0x67000000(%eax)
    188b:	05 00 00 03 f6       	add    $0xf6030000,%eax
    1890:	03 00                	add    (%eax),%eax
    1892:	00 03                	add    %al,(%ebx)
    1894:	1a 20                	sbb    (%eax),%ah
    1896:	32 00                	xor    (%eax),%al
    1898:	00 00                	add    %al,(%eax)
    189a:	02 01                	add    (%ecx),%al
    189c:	08 db                	or     %bl,%bl
    189e:	01 00                	add    %eax,(%eax)
    18a0:	00 02                	add    %al,(%edx)
    18a2:	02 07                	add    (%edi),%al
    18a4:	7d 02                	jge    18a8 <mbh-0x2fe758>
    18a6:	00 00                	add    %al,(%eax)
    18a8:	02 04 07             	add    (%edi,%eax,1),%al
    18ab:	1f                   	pop    %ds
    18ac:	02 00                	add    (%eax),%al
    18ae:	00 02                	add    %al,(%edx)
    18b0:	08 07                	or     %al,(%edi)
    18b2:	15 02 00 00 02       	adc    $0x2000002,%eax
    18b7:	01 06                	add    %eax,(%esi)
    18b9:	dd 01                	fldl   (%ecx)
    18bb:	00 00                	add    %al,(%eax)
    18bd:	02 02                	add    (%edx),%al
    18bf:	05 ad 00 00 00       	add    $0xad,%eax
    18c4:	0c 04                	or     $0x4,%al
    18c6:	05 69 6e 74 00       	add    $0x746e69,%eax
    18cb:	02 08                	add    (%eax),%cl
    18cd:	05 6a 01 00 00       	add    $0x16a,%eax
    18d2:	02 01                	add    (%ecx),%al
    18d4:	06                   	push   %es
    18d5:	e4 01                	in     $0x1,%al
    18d7:	00 00                	add    %al,(%eax)
    18d9:	02 04 07             	add    (%edi,%eax,1),%al
    18dc:	1a 02                	sbb    (%edx),%al
    18de:	00 00                	add    %al,(%eax)
    18e0:	04 46                	add    $0x46,%al
    18e2:	cc                   	int3
    18e3:	00 00                	add    %al,(%eax)
    18e5:	00 01                	add    %al,(%ecx)
    18e7:	d6                   	(bad)
    18e8:	09 00                	or     %eax,(%eax)
    18ea:	00 48 11             	add    %cl,0x11(%eax)
    18ed:	26 00 00             	add    %al,%es:(%eax)
    18f0:	00 01                	add    %al,(%ecx)
    18f2:	00 01                	add    %al,(%ecx)
    18f4:	c5 09                	lds    (%ecx),%ecx
    18f6:	00 00                	add    %al,(%eax)
    18f8:	49                   	dec    %ecx
    18f9:	11 26                	adc    %esp,(%esi)
    18fb:	00 00                	add    %al,(%eax)
    18fd:	00 01                	add    %al,(%ecx)
    18ff:	01 01                	add    %eax,(%ecx)
    1901:	51                   	push   %ecx
    1902:	0a 00                	or     (%eax),%al
    1904:	00 4a 11             	add    %cl,0x11(%edx)
    1907:	26 00 00             	add    %al,%es:(%eax)
    190a:	00 01                	add    %al,(%ecx)
    190c:	02 01                	add    (%ecx),%al
    190e:	21 0a                	and    %ecx,(%edx)
    1910:	00 00                	add    %al,(%eax)
    1912:	4b                   	dec    %ebx
    1913:	11 26                	adc    %esp,(%esi)
    1915:	00 00                	add    %al,(%eax)
    1917:	00 01                	add    %al,(%ecx)
    1919:	03 05 6f 6e 65 00    	add    0x656e6f,%eax
    191f:	4c                   	dec    %esp
    1920:	26 00 00             	add    %al,%es:(%eax)
    1923:	00 01                	add    %al,(%ecx)
    1925:	04 01                	add    $0x1,%al
    1927:	4c                   	dec    %esp
    1928:	0a 00                	or     (%eax),%al
    192a:	00 4d 11             	add    %cl,0x11(%ebp)
    192d:	26 00 00             	add    %al,%es:(%eax)
    1930:	00 03                	add    %al,(%ebx)
    1932:	05 00 06 68 09       	add    $0x9680600,%eax
    1937:	00 00                	add    %al,(%eax)
    1939:	44                   	inc    %esp
    193a:	e7 00                	out    %eax,$0x0
    193c:	00 00                	add    %al,(%eax)
    193e:	09 78 00             	or     %edi,0x0(%eax)
    1941:	00 00                	add    %al,(%eax)
    1943:	07                   	pop    %es
    1944:	72 61                	jb     19a7 <mbh-0x2fe659>
    1946:	77 00                	ja     1948 <mbh-0x2fe6b8>
    1948:	51                   	push   %ecx
    1949:	0c 26                	or     $0x26,%al
    194b:	00 00                	add    %al,(%eax)
    194d:	00 00                	add    %al,(%eax)
    194f:	03 5d 09             	add    0x9(%ebp),%ebx
    1952:	00 00                	add    %al,(%eax)
    1954:	02 53 1b             	add    0x1b(%ebx),%dl
    1957:	cc                   	int3
    1958:	00 00                	add    %al,(%eax)
    195a:	00 04 6c             	add    %al,(%esp,%ebp,2)
    195d:	14 01                	adc    $0x1,%al
    195f:	00 00                	add    %al,(%eax)
    1961:	01 5d 0a             	add    %ebx,0xa(%ebp)
    1964:	00 00                	add    %al,(%eax)
    1966:	6e                   	outsb  %ds:(%esi),(%dx)
    1967:	10 26                	adc    %ah,(%esi)
    1969:	00 00                	add    %al,(%eax)
    196b:	00 03                	add    %al,(%ebx)
    196d:	00 01                	add    %al,(%ecx)
    196f:	e2 09                	loop   197a <mbh-0x2fe686>
    1971:	00 00                	add    %al,(%eax)
    1973:	6f                   	outsl  %ds:(%esi),(%dx)
    1974:	10 26                	adc    %ah,(%esi)
    1976:	00 00                	add    %al,(%eax)
    1978:	00 05 03 00 06 80    	add    %al,0x80060003
    197e:	09 00                	or     %eax,(%eax)
    1980:	00 6a 2f             	add    %ch,0x2f(%edx)
    1983:	01 00                	add    %eax,(%eax)
    1985:	00 09                	add    %cl,(%ecx)
    1987:	f3 00 00             	repz add %al,(%eax)
    198a:	00 07                	add    %al,(%edi)
    198c:	72 61                	jb     19ef <mbh-0x2fe611>
    198e:	77 00                	ja     1990 <mbh-0x2fe670>
    1990:	73 0c                	jae    199e <mbh-0x2fe662>
    1992:	26 00 00             	add    %al,%es:(%eax)
    1995:	00 00                	add    %al,(%eax)
    1997:	03 3c 0a             	add    (%edx,%ecx,1),%edi
    199a:	00 00                	add    %al,(%eax)
    199c:	02 75 1b             	add    0x1b(%ebp),%dh
    199f:	14 01                	adc    $0x1,%al
    19a1:	00 00                	add    %al,(%eax)
    19a3:	04 7e                	add    $0x7e,%al
    19a5:	aa                   	stos   %al,%es:(%edi)
    19a6:	01 00                	add    %eax,(%eax)
    19a8:	00 01                	add    %al,(%ecx)
    19aa:	98                   	cwtl
    19ab:	09 00                	or     %eax,(%eax)
    19ad:	00 80 11 26 00 00    	add    %al,0x2611(%eax)
    19b3:	00 01                	add    %al,(%ecx)
    19b5:	00 01                	add    %al,(%ecx)
    19b7:	9d                   	popf
    19b8:	09 00                	or     %eax,(%eax)
    19ba:	00 81 11 26 00 00    	add    %al,0x2611(%ecx)
    19c0:	00 01                	add    %al,(%ecx)
    19c2:	01 01                	add    %eax,(%ecx)
    19c4:	a2 09 00 00 82       	mov    %al,0x82000009
    19c9:	11 26                	adc    %esp,(%esi)
    19cb:	00 00                	add    %al,(%eax)
    19cd:	00 01                	add    %al,(%ecx)
    19cf:	02 01                	add    (%ecx),%al
    19d1:	a7                   	cmpsl  %es:(%edi),%ds:(%esi)
    19d2:	09 00                	or     %eax,(%eax)
    19d4:	00 83 11 26 00 00    	add    %al,0x2611(%ebx)
    19da:	00 01                	add    %al,(%ecx)
    19dc:	03 01                	add    (%ecx),%eax
    19de:	ac                   	lods   %ds:(%esi),%al
    19df:	09 00                	or     %eax,(%eax)
    19e1:	00 84 11 26 00 00 00 	add    %al,0x26(%ecx,%edx,1)
    19e8:	01 04 01             	add    %eax,(%ecx,%eax,1)
    19eb:	b1 09                	mov    $0x9,%cl
    19ed:	00 00                	add    %al,(%eax)
    19ef:	85 11                	test   %edx,(%ecx)
    19f1:	26 00 00             	add    %al,%es:(%eax)
    19f4:	00 01                	add    %al,(%ecx)
    19f6:	05 01 b6 09 00       	add    $0x9b601,%eax
    19fb:	00 86 11 26 00 00    	add    %al,0x2611(%esi)
    1a01:	00 01                	add    %al,(%ecx)
    1a03:	06                   	push   %es
    1a04:	01 bb 09 00 00 87    	add    %edi,-0x78fffff7(%ebx)
    1a0a:	11 26                	adc    %esp,(%esi)
    1a0c:	00 00                	add    %al,(%eax)
    1a0e:	00 01                	add    %al,(%ecx)
    1a10:	07                   	pop    %es
    1a11:	00 04 8a             	add    %al,(%edx,%ecx,4)
    1a14:	c9                   	leave
    1a15:	01 00                	add    %eax,(%eax)
    1a17:	00 05 69 64 00 8c    	add    %al,0x8c006469
    1a1d:	26 00 00             	add    %al,%es:(%eax)
    1a20:	00 03                	add    %al,(%ebx)
    1a22:	00 01                	add    %al,(%ecx)
    1a24:	5d                   	pop    %ebp
    1a25:	0a 00                	or     (%eax),%al
    1a27:	00 8d 11 26 00 00    	add    %cl,0x2611(%ebp)
    1a2d:	00 05 03 00 06 f1    	add    %al,0xf1060003
    1a33:	09 00                	or     %eax,(%eax)
    1a35:	00 7c f3 01          	add    %bh,0x1(%ebx,%esi,8)
    1a39:	00 00                	add    %al,(%eax)
    1a3b:	0a db                	or     %bl,%bl
    1a3d:	09 00                	or     %eax,(%eax)
    1a3f:	00 88 3b 01 00 00    	add    %cl,0x13b(%eax)
    1a45:	0a eb                	or     %bl,%ch
    1a47:	09 00                	or     %eax,(%eax)
    1a49:	00 8e aa 01 00 00    	add    %cl,0x1aa(%esi)
    1a4f:	07                   	pop    %es
    1a50:	72 61                	jb     1ab3 <mbh-0x2fe54d>
    1a52:	77 00                	ja     1a54 <mbh-0x2fe5ac>
    1a54:	90                   	nop
    1a55:	11 26                	adc    %esp,(%esi)
    1a57:	00 00                	add    %al,(%eax)
    1a59:	00 00                	add    %al,(%eax)
    1a5b:	03 31                	add    (%ecx),%esi
    1a5d:	0a 00                	or     (%eax),%al
    1a5f:	00 02                	add    %al,(%edx)
    1a61:	92                   	xchg   %eax,%edx
    1a62:	1b c9                	sbb    %ecx,%ecx
    1a64:	01 00                	add    %eax,(%eax)
    1a66:	00 04 99             	add    %al,(%ecx,%ebx,4)
    1a69:	51                   	push   %ecx
    1a6a:	02 00                	add    (%eax),%al
    1a6c:	00 05 78 38 36 00    	add    %al,0x363878
    1a72:	9b                   	fwait
    1a73:	26 00 00             	add    %al,%es:(%eax)
    1a76:	00 01                	add    %al,(%ecx)
    1a78:	00 01                	add    %al,(%ecx)
    1a7a:	c0 09 00             	rorb   $0x0,(%ecx)
    1a7d:	00 9c 11 26 00 00 00 	add    %bl,0x26(%ecx,%edx,1)
    1a84:	01 01                	add    %eax,(%ecx)
    1a86:	05 6d 73 00 9d       	add    $0x9d00736d,%eax
    1a8b:	26 00 00             	add    %al,%es:(%eax)
    1a8e:	00 01                	add    %al,(%ecx)
    1a90:	02 01                	add    (%ecx),%al
    1a92:	57                   	push   %edi
    1a93:	06                   	push   %es
    1a94:	00 00                	add    %al,(%eax)
    1a96:	9e                   	sahf
    1a97:	11 26                	adc    %esp,(%esi)
    1a99:	00 00                	add    %al,(%eax)
    1a9b:	00 01                	add    %al,(%ecx)
    1a9d:	03 01                	add    (%ecx),%eax
    1a9f:	58                   	pop    %eax
    1aa0:	0a 00                	or     (%eax),%al
    1aa2:	00 9f 11 26 00 00    	add    %bl,0x2611(%edi)
    1aa8:	00 01                	add    %al,(%ecx)
    1aaa:	04 01                	add    $0x1,%al
    1aac:	5d                   	pop    %ebp
    1aad:	0a 00                	or     (%eax),%al
    1aaf:	00 a0 11 26 00 00    	add    %ah,0x2611(%eax)
    1ab5:	00 03                	add    %al,(%ebx)
    1ab7:	05 00 06 09 0a       	add    $0xa090600,%eax
    1abc:	00 00                	add    %al,(%eax)
    1abe:	97                   	xchg   %eax,%edi
    1abf:	6c                   	insb   (%dx),%es:(%edi)
    1ac0:	02 00                	add    (%eax),%al
    1ac2:	00 09                	add    %cl,(%ecx)
    1ac4:	ff 01                	incl   (%ecx)
    1ac6:	00 00                	add    %al,(%eax)
    1ac8:	07                   	pop    %es
    1ac9:	72 61                	jb     1b2c <mbh-0x2fe4d4>
    1acb:	77 00                	ja     1acd <mbh-0x2fe533>
    1acd:	a4                   	movsb  %ds:(%esi),%es:(%edi)
    1ace:	0c 26                	or     $0x26,%al
    1ad0:	00 00                	add    %al,(%eax)
    1ad2:	00 00                	add    %al,(%eax)
    1ad4:	03 26                	add    (%esi),%esp
    1ad6:	0a 00                	or     (%eax),%al
    1ad8:	00 02                	add    %al,(%edx)
    1ada:	a6                   	cmpsb  %es:(%edi),%ds:(%esi)
    1adb:	1b 51 02             	sbb    0x2(%ecx),%edx
    1ade:	00 00                	add    %al,(%eax)
    1ae0:	0d 2c 01 00 00       	or     $0x12c,%eax
    1ae5:	01 04 06             	add    %eax,(%esi,%eax,1)
    1ae8:	44                   	inc    %esp
    1ae9:	3b 30                	cmp    (%eax),%esi
    1aeb:	00 88 00 00 00 01    	add    %cl,0x1000000(%eax)
    1af1:	9c                   	pushf
    1af2:	08 47 0a             	or     %al,0xa(%edi)
    1af5:	00 00                	add    %al,(%eax)
    1af7:	06                   	push   %es
    1af8:	e7 00                	out    %eax,$0x0
    1afa:	00 00                	add    %al,(%eax)
    1afc:	02 91 77 08 cc 09    	add    0x9cc0877(%ecx),%dl
    1b02:	00 00                	add    %al,(%eax)
    1b04:	07                   	pop    %es
    1b05:	2f                   	das
    1b06:	01 00                	add    %eax,(%eax)
    1b08:	00 02                	add    %al,(%edx)
    1b0a:	91                   	xchg   %eax,%ecx
    1b0b:	76 08                	jbe    1b15 <mbh-0x2fe4eb>
    1b0d:	d1 09                	rorl   $1,(%ecx)
    1b0f:	00 00                	add    %al,(%eax)
    1b11:	08 f3                	or     %dh,%bl
    1b13:	01 00                	add    %eax,(%eax)
    1b15:	00 02                	add    %al,(%edx)
    1b17:	91                   	xchg   %eax,%ecx
    1b18:	75 08                	jne    1b22 <mbh-0x2fe4de>
    1b1a:	d6                   	(bad)
    1b1b:	09 00                	or     %eax,(%eax)
    1b1d:	00 09                	add    %cl,(%ecx)
    1b1f:	6c                   	insb   (%dx),%es:(%edi)
    1b20:	02 00                	add    (%eax),%al
    1b22:	00 02                	add    %al,(%edx)
    1b24:	91                   	xchg   %eax,%ecx
    1b25:	74 00                	je     1b27 <mbh-0x2fe4d9>
    1b27:	00 e4                	add    %ah,%ah
    1b29:	08 00                	or     %al,(%eax)
    1b2b:	00 05 00 01 04 d1    	add    %al,0xd1040100
    1b31:	06                   	push   %es
    1b32:	00 00                	add    %al,(%eax)
    1b34:	16                   	push   %ss
    1b35:	21 04 00             	and    %eax,(%eax,%eax,1)
    1b38:	00 1d ee 00 00 00    	add    %bl,0xee
    1b3e:	00 00                	add    %al,(%eax)
    1b40:	00 00                	add    %al,(%eax)
    1b42:	cc                   	int3
    1b43:	3b 30                	cmp    (%eax),%esi
    1b45:	00 ad 01 00 00 23    	add    %ch,0x23000001(%ebp)
    1b4b:	06                   	push   %es
    1b4c:	00 00                	add    %al,(%eax)
    1b4e:	02 f6                	add    %dh,%dh
    1b50:	03 00                	add    (%eax),%eax
    1b52:	00 02                	add    %al,(%edx)
    1b54:	1a 20                	sbb    (%eax),%ah
    1b56:	32 00                	xor    (%eax),%al
    1b58:	00 00                	add    %al,(%eax)
    1b5a:	08 01                	or     %al,(%ecx)
    1b5c:	08 db                	or     %bl,%bl
    1b5e:	01 00                	add    %eax,(%eax)
    1b60:	00 02                	add    %al,(%edx)
    1b62:	1b 01                	sbb    (%ecx),%eax
    1b64:	00 00                	add    %al,(%eax)
    1b66:	02 1b                	add    (%ebx),%bl
    1b68:	20 45 00             	and    %al,0x0(%ebp)
    1b6b:	00 00                	add    %al,(%eax)
    1b6d:	08 02                	or     %al,(%edx)
    1b6f:	07                   	pop    %es
    1b70:	7d 02                	jge    1b74 <mbh-0x2fe48c>
    1b72:	00 00                	add    %al,(%eax)
    1b74:	02 a4 00 00 00 02 1c 	add    0x1c020000(%eax,%eax,1),%ah
    1b7b:	20 58 00             	and    %bl,0x0(%eax)
    1b7e:	00 00                	add    %al,(%eax)
    1b80:	08 04 07             	or     %al,(%edi,%eax,1)
    1b83:	1f                   	pop    %ds
    1b84:	02 00                	add    (%eax),%al
    1b86:	00 02                	add    %al,(%edx)
    1b88:	9a 02 00 00 02 1d 20 	lcall  $0x201d,$0x2000002
    1b8f:	6b 00 00             	imul   $0x0,(%eax),%eax
    1b92:	00 08                	add    %cl,(%eax)
    1b94:	08 07                	or     %al,(%edi)
    1b96:	15 02 00 00 08       	adc    $0x8000002,%eax
    1b9b:	01 06                	add    %eax,(%esi)
    1b9d:	dd 01                	fldl   (%ecx)
    1b9f:	00 00                	add    %al,(%eax)
    1ba1:	02 50 07             	add    0x7(%eax),%dl
    1ba4:	00 00                	add    %al,(%eax)
    1ba6:	02 20                	add    (%eax),%ah
    1ba8:	20 85 00 00 00 08    	and    %al,0x8000000(%ebp)
    1bae:	02 05 ad 00 00 00    	add    0xad,%al
    1bb4:	02 0d 06 00 00 02    	add    0x2000006,%cl
    1bba:	21 20                	and    %esp,(%eax)
    1bbc:	98                   	cwtl
    1bbd:	00 00                	add    %al,(%eax)
    1bbf:	00 17                	add    %dl,(%edi)
    1bc1:	04 05                	add    $0x5,%al
    1bc3:	69 6e 74 00 02 f0 06 	imul   $0x6f00200,0x74(%esi),%ebp
    1bca:	00 00                	add    %al,(%eax)
    1bcc:	02 22                	add    (%edx),%ah
    1bce:	20 ab 00 00 00 08    	and    %ch,0x8000000(%ebx)
    1bd4:	08 05 6a 01 00 00    	or     %al,0x16a
    1bda:	08 01                	or     %al,(%ecx)
    1bdc:	06                   	push   %es
    1bdd:	e4 01                	in     $0x1,%al
    1bdf:	00 00                	add    %al,(%eax)
    1be1:	18 b2 00 00 00 02    	sbb    %dh,0x2000000(%edx)
    1be7:	b7 00                	mov    $0x0,%bh
    1be9:	00 00                	add    %al,(%eax)
    1beb:	02 25 20 ca 00 00    	add    0xca20,%ah
    1bf1:	00 08                	add    %cl,(%eax)
    1bf3:	04 07                	add    $0x7,%al
    1bf5:	1a 02                	sbb    (%edx),%al
    1bf7:	00 00                	add    %al,(%eax)
    1bf9:	02 b0 07 00 00 02    	add    0x2000007(%eax),%dh
    1bff:	26 20 ca             	es and %cl,%dl
    1c02:	00 00                	add    %al,(%eax)
    1c04:	00 06                	add    %al,(%esi)
    1c06:	02 02                	add    (%edx),%al
    1c08:	4c                   	dec    %esp
    1c09:	04 01                	add    $0x1,%al
    1c0b:	01 00                	add    %eax,(%eax)
    1c0d:	00 04 fd 05 00 00 02 	add    %al,0x2000005(,%edi,8)
    1c14:	4e                   	dec    %esi
    1c15:	0f 26 00             	mov    %eax,%tr0
    1c18:	00 00                	add    %al,(%eax)
    1c1a:	00 04 f9             	add    %al,(%ecx,%edi,8)
    1c1d:	06                   	push   %es
    1c1e:	00 00                	add    %al,(%eax)
    1c20:	02 4f 0f             	add    0xf(%edi),%cl
    1c23:	26 00 00             	add    %al,%es:(%eax)
    1c26:	00 01                	add    %al,(%ecx)
    1c28:	00 09                	add    %cl,(%ecx)
    1c2a:	35 06 00 00 02       	xor    $0x2000006,%eax
    1c2f:	02 45 37             	add    0x37(%ebp),%al
    1c32:	01 00                	add    %eax,(%eax)
    1c34:	00 0a                	add    %cl,(%edx)
    1c36:	72 61                	jb     1c99 <mbh-0x2fe367>
    1c38:	77 00                	ja     1c3a <mbh-0x2fe3c6>
    1c3a:	02 47 0d             	add    0xd(%edi),%al
    1c3d:	39 00                	cmp    %eax,(%eax)
    1c3f:	00 00                	add    %al,(%eax)
    1c41:	07                   	pop    %es
    1c42:	3a 07                	cmp    (%edi),%al
    1c44:	00 00                	add    %al,(%eax)
    1c46:	02 48 0d             	add    0xd(%eax),%cl
    1c49:	79 00                	jns    1c4b <mbh-0x2fe3b5>
    1c4b:	00 00                	add    %al,(%eax)
    1c4d:	07                   	pop    %es
    1c4e:	bb 06 00 00 02       	mov    $0x2000006,%ebx
    1c53:	49                   	dec    %ecx
    1c54:	0d 37 01 00 00       	or     $0x137,%eax
    1c59:	03 dd                	add    %ebp,%ebx
    1c5b:	00 00                	add    %al,(%eax)
    1c5d:	00 00                	add    %al,(%eax)
    1c5f:	0c 26                	or     $0x26,%al
    1c61:	00 00                	add    %al,(%eax)
    1c63:	00 47 01             	add    %al,0x1(%edi)
    1c66:	00 00                	add    %al,(%eax)
    1c68:	0d 58 00 00 00       	or     $0x58,%eax
    1c6d:	01 00                	add    %eax,(%eax)
    1c6f:	02 63 06             	add    0x6(%ebx),%ah
    1c72:	00 00                	add    %al,(%eax)
    1c74:	02 53 1b             	add    0x1b(%ebx),%dl
    1c77:	01 01                	add    %eax,(%ecx)
    1c79:	00 00                	add    %al,(%eax)
    1c7b:	06                   	push   %es
    1c7c:	04 02                	add    $0x2,%al
    1c7e:	5f                   	pop    %edi
    1c7f:	04 77                	add    $0x77,%al
    1c81:	01 00                	add    %eax,(%eax)
    1c83:	00 04 ff             	add    %al,(%edi,%edi,8)
    1c86:	06                   	push   %es
    1c87:	00 00                	add    %al,(%eax)
    1c89:	02 61 0f             	add    0xf(%ecx),%ah
    1c8c:	47                   	inc    %edi
    1c8d:	01 00                	add    %eax,(%eax)
    1c8f:	00 00                	add    %al,(%eax)
    1c91:	04 fc                	add    $0xfc,%al
    1c93:	07                   	pop    %es
    1c94:	00 00                	add    %al,(%eax)
    1c96:	02 62 0f             	add    0xf(%edx),%ah
    1c99:	47                   	inc    %edi
    1c9a:	01 00                	add    %eax,(%eax)
    1c9c:	00 02                	add    %al,(%edx)
    1c9e:	00 06                	add    %al,(%esi)
    1ca0:	02 02                	add    (%edx),%al
    1ca2:	6b 0a 9b             	imul   $0xffffff9b,(%edx),%ecx
    1ca5:	01 00                	add    %eax,(%eax)
    1ca7:	00 04 fd 05 00 00 02 	add    %al,0x2000005(,%edi,8)
    1cae:	6d                   	insl   (%dx),%es:(%edi)
    1caf:	15 26 00 00 00       	adc    $0x26,%eax
    1cb4:	00 04 f9             	add    %al,(%ecx,%edi,8)
    1cb7:	06                   	push   %es
    1cb8:	00 00                	add    %al,(%eax)
    1cba:	02 6e 15             	add    0x15(%esi),%ch
    1cbd:	26 00 00             	add    %al,%es:(%eax)
    1cc0:	00 01                	add    %al,(%ecx)
    1cc2:	00 0f                	add    %cl,(%edi)
    1cc4:	02 02                	add    (%edx),%al
    1cc6:	69 07 b6 01 00 00    	imul   $0x1b6,(%edi),%eax
    1ccc:	03 77 01             	add    0x1(%edi),%esi
    1ccf:	00 00                	add    %al,(%eax)
    1cd1:	07                   	pop    %es
    1cd2:	00 07                	add    %al,(%edi)
    1cd4:	00 00                	add    %al,(%eax)
    1cd6:	02 72 13             	add    0x13(%edx),%dh
    1cd9:	39 00                	cmp    %eax,(%eax)
    1cdb:	00 00                	add    %al,(%eax)
    1cdd:	00 06                	add    %al,(%esi)
    1cdf:	04 02                	add    $0x2,%al
    1ce1:	67 04 d3             	addr16 add $0xd3,%al
    1ce4:	01 00                	add    %eax,(%eax)
    1ce6:	00 0e                	add    %cl,(%esi)
    1ce8:	9b                   	fwait
    1ce9:	01 00                	add    %eax,(%eax)
    1ceb:	00 00                	add    %al,(%eax)
    1ced:	04 fd                	add    $0xfd,%al
    1cef:	07                   	pop    %es
    1cf0:	00 00                	add    %al,(%eax)
    1cf2:	02 76 10             	add    0x10(%esi),%dh
    1cf5:	39 00                	cmp    %eax,(%eax)
    1cf7:	00 00                	add    %al,(%eax)
    1cf9:	02 00                	add    (%eax),%al
    1cfb:	09 14 07             	or     %edx,(%edi,%eax,1)
    1cfe:	00 00                	add    %al,(%eax)
    1d00:	04 02                	add    $0x2,%al
    1d02:	58                   	pop    %eax
    1d03:	0e                   	push   %cs
    1d04:	02 00                	add    (%eax),%al
    1d06:	00 0a                	add    %cl,(%edx)
    1d08:	72 61                	jb     1d6b <mbh-0x2fe295>
    1d0a:	77 00                	ja     1d0c <mbh-0x2fe2f4>
    1d0c:	02 5a 0d             	add    0xd(%edx),%bl
    1d0f:	4c                   	dec    %esp
    1d10:	00 00                	add    %al,(%eax)
    1d12:	00 07                	add    %al,(%edi)
    1d14:	3a 07                	cmp    (%edi),%al
    1d16:	00 00                	add    %al,(%eax)
    1d18:	02 5b 0d             	add    0xd(%ebx),%bl
    1d1b:	8c 00                	mov    %es,(%eax)
    1d1d:	00 00                	add    %al,(%eax)
    1d1f:	07                   	pop    %es
    1d20:	bb 06 00 00 02       	mov    $0x2000006,%ebx
    1d25:	5c                   	pop    %esp
    1d26:	0d 0e 02 00 00       	or     $0x20e,%eax
    1d2b:	03 53 01             	add    0x1(%ebx),%edx
    1d2e:	00 00                	add    %al,(%eax)
    1d30:	03 b6 01 00 00 00    	add    0x1(%esi),%esi
    1d36:	0c 26                	or     $0x26,%al
    1d38:	00 00                	add    %al,(%eax)
    1d3a:	00 1e                	add    %bl,(%esi)
    1d3c:	02 00                	add    (%eax),%al
    1d3e:	00 0d 58 00 00 00    	add    %cl,0x58
    1d44:	03 00                	add    (%eax),%eax
    1d46:	02 7e 07             	add    0x7(%esi),%bh
    1d49:	00 00                	add    %al,(%eax)
    1d4b:	02 7a 1b             	add    0x1b(%edx),%bh
    1d4e:	d3 01                	roll   %cl,(%ecx)
    1d50:	00 00                	add    %al,(%eax)
    1d52:	06                   	push   %es
    1d53:	08 02                	or     %al,(%edx)
    1d55:	86 04 4e             	xchg   %al,(%esi,%ecx,2)
    1d58:	02 00                	add    (%eax),%al
    1d5a:	00 04 e1             	add    %al,(%ecx,%eiz,8)
    1d5d:	06                   	push   %es
    1d5e:	00 00                	add    %al,(%eax)
    1d60:	02 88 0f 1e 02 00    	add    0x21e0f(%eax),%cl
    1d66:	00 00                	add    %al,(%eax)
    1d68:	04 34                	add    $0x34,%al
    1d6a:	07                   	pop    %es
    1d6b:	00 00                	add    %al,(%eax)
    1d6d:	02 89 0f 1e 02 00    	add    0x21e0f(%ecx),%cl
    1d73:	00 04 00             	add    %al,(%eax,%eax,1)
    1d76:	06                   	push   %es
    1d77:	02 02                	add    (%edx),%al
    1d79:	96                   	xchg   %eax,%esi
    1d7a:	10 72 02             	adc    %dh,0x2(%edx)
    1d7d:	00 00                	add    %al,(%eax)
    1d7f:	04 fd                	add    $0xfd,%al
    1d81:	05 00 00 02 98       	add    $0x98020000,%eax
    1d86:	1b 26                	sbb    (%esi),%esp
    1d88:	00 00                	add    %al,(%eax)
    1d8a:	00 00                	add    %al,(%eax)
    1d8c:	04 f9                	add    $0xf9,%al
    1d8e:	06                   	push   %es
    1d8f:	00 00                	add    %al,(%eax)
    1d91:	02 99 1b 26 00 00    	add    0x261b(%ecx),%bl
    1d97:	00 01                	add    %al,(%ecx)
    1d99:	00 0f                	add    %cl,(%edi)
    1d9b:	02 02                	add    (%edx),%al
    1d9d:	94                   	xchg   %eax,%esp
    1d9e:	0d 8d 02 00 00       	or     $0x28d,%eax
    1da3:	03 4e 02             	add    0x2(%esi),%ecx
    1da6:	00 00                	add    %al,(%eax)
    1da8:	07                   	pop    %es
    1da9:	00 07                	add    %al,(%edi)
    1dab:	00 00                	add    %al,(%eax)
    1dad:	02 9d 19 39 00 00    	add    0x3919(%ebp),%bl
    1db3:	00 00                	add    %al,(%eax)
    1db5:	06                   	push   %es
    1db6:	04 02                	add    $0x2,%al
    1db8:	92                   	xchg   %eax,%edx
    1db9:	0a aa 02 00 00 0e    	or     0xe000002(%edx),%ch
    1dbf:	72 02                	jb     1dc3 <mbh-0x2fe23d>
    1dc1:	00 00                	add    %al,(%eax)
    1dc3:	00 04 fd 07 00 00 02 	add    %al,0x2000007(,%edi,8)
    1dca:	a1 16 39 00 00       	mov    0x3916,%eax
    1dcf:	00 02                	add    %al,(%edx)
    1dd1:	00 0f                	add    %cl,(%edi)
    1dd3:	04 02                	add    $0x2,%al
    1dd5:	90                   	nop
    1dd6:	07                   	pop    %es
    1dd7:	c5 02                	lds    (%edx),%eax
    1dd9:	00 00                	add    %al,(%eax)
    1ddb:	03 8d 02 00 00 0a    	add    0xa000002(%ebp),%ecx
    1de1:	6c                   	insb   (%dx),%es:(%edi)
    1de2:	6f                   	outsl  %ds:(%esi),(%dx)
    1de3:	77 00                	ja     1de5 <mbh-0x2fe21b>
    1de5:	02 a5 14 4c 00 00    	add    0x4c14(%ebp),%ah
    1deb:	00 00                	add    %al,(%eax)
    1ded:	06                   	push   %es
    1dee:	08 02                	or     %al,(%edx)
    1df0:	8e 04 e2             	mov    (%edx,%eiz,8),%es
    1df3:	02 00                	add    (%eax),%al
    1df5:	00 0e                	add    %cl,(%esi)
    1df7:	aa                   	stos   %al,%es:(%edi)
    1df8:	02 00                	add    (%eax),%al
    1dfa:	00 00                	add    %al,(%eax)
    1dfc:	04 35                	add    $0x35,%al
    1dfe:	07                   	pop    %es
    1dff:	00 00                	add    %al,(%eax)
    1e01:	02 a9 11 4c 00 00    	add    0x4c11(%ecx),%ch
    1e07:	00 04 00             	add    %al,(%eax,%eax,1)
    1e0a:	09 84 06 00 00 08 02 	or     %eax,0x2080000(%esi,%eax,1)
    1e11:	7f 1d                	jg     1e30 <mbh-0x2fe1d0>
    1e13:	03 00                	add    (%eax),%eax
    1e15:	00 0a                	add    %cl,(%edx)
    1e17:	72 61                	jb     1e7a <mbh-0x2fe186>
    1e19:	77 00                	ja     1e1b <mbh-0x2fe1e5>
    1e1b:	02 81 0d 5f 00 00    	add    0x5f0d(%ecx),%al
    1e21:	00 07                	add    %al,(%edi)
    1e23:	3a 07                	cmp    (%edi),%al
    1e25:	00 00                	add    %al,(%eax)
    1e27:	02 82 0d 9f 00 00    	add    0x9f0d(%edx),%al
    1e2d:	00 07                	add    %al,(%edi)
    1e2f:	bb 06 00 00 02       	mov    $0x2000006,%ebx
    1e34:	83 0d 1d 03 00 00 03 	orl    $0x3,0x31d
    1e3b:	2a 02                	sub    (%edx),%al
    1e3d:	00 00                	add    %al,(%eax)
    1e3f:	03 c5                	add    %ebp,%eax
    1e41:	02 00                	add    (%eax),%al
    1e43:	00 00                	add    %al,(%eax)
    1e45:	0c 26                	or     $0x26,%al
    1e47:	00 00                	add    %al,(%eax)
    1e49:	00 2d 03 00 00 0d    	add    %ch,0xd000003
    1e4f:	58                   	pop    %eax
    1e50:	00 00                	add    %al,(%eax)
    1e52:	00 07                	add    %al,(%edi)
    1e54:	00 02                	add    %al,(%edx)
    1e56:	11 08                	adc    %ecx,(%eax)
    1e58:	00 00                	add    %al,(%eax)
    1e5a:	02 ad 1b e2 02 00    	add    0x2e21b(%ebp),%ch
    1e60:	00 10                	add    %dl,(%eax)
    1e62:	d9 0b                	(bad)  (%ebx)
    1e64:	00 00                	add    %al,(%eax)
    1e66:	04 03                	add    $0x3,%al
    1e68:	26 67 04 00          	es addr16 add $0x0,%al
    1e6c:	00 01                	add    %al,(%ecx)
    1e6e:	63 66 00             	arpl   %esp,0x0(%esi)
    1e71:	03 28                	add    (%eax),%ebp
    1e73:	0f 4c 00             	cmovl  (%eax),%eax
    1e76:	00 00                	add    %al,(%eax)
    1e78:	01 00                	add    %eax,(%eax)
    1e7a:	01 72 31             	add    %esi,0x31(%edx)
    1e7d:	00 03                	add    %al,(%ebx)
    1e7f:	29 0f                	sub    %ecx,(%edi)
    1e81:	4c                   	dec    %esp
    1e82:	00 00                	add    %al,(%eax)
    1e84:	00 01                	add    %al,(%ecx)
    1e86:	01 01                	add    %eax,(%ecx)
    1e88:	70 66                	jo     1ef0 <mbh-0x2fe110>
    1e8a:	00 03                	add    %al,(%ebx)
    1e8c:	2a 0f                	sub    (%edi),%cl
    1e8e:	4c                   	dec    %esp
    1e8f:	00 00                	add    %al,(%eax)
    1e91:	00 01                	add    %al,(%ecx)
    1e93:	02 01                	add    (%ecx),%al
    1e95:	72 32                	jb     1ec9 <mbh-0x2fe137>
    1e97:	00 03                	add    %al,(%ebx)
    1e99:	2b 0f                	sub    (%edi),%ecx
    1e9b:	4c                   	dec    %esp
    1e9c:	00 00                	add    %al,(%eax)
    1e9e:	00 01                	add    %al,(%ecx)
    1ea0:	03 01                	add    (%ecx),%eax
    1ea2:	61                   	popa
    1ea3:	66 00 03             	data16 add %al,(%ebx)
    1ea6:	2c 0f                	sub    $0xf,%al
    1ea8:	4c                   	dec    %esp
    1ea9:	00 00                	add    %al,(%eax)
    1eab:	00 01                	add    %al,(%ecx)
    1ead:	04 01                	add    $0x1,%al
    1eaf:	72 33                	jb     1ee4 <mbh-0x2fe11c>
    1eb1:	00 03                	add    %al,(%ebx)
    1eb3:	2d 0f 4c 00 00       	sub    $0x4c0f,%eax
    1eb8:	00 01                	add    %al,(%ecx)
    1eba:	05 01 7a 66 00       	add    $0x667a01,%eax
    1ebf:	03 2e                	add    (%esi),%ebp
    1ec1:	0f 4c 00             	cmovl  (%eax),%eax
    1ec4:	00 00                	add    %al,(%eax)
    1ec6:	01 06                	add    %eax,(%esi)
    1ec8:	01 73 66             	add    %esi,0x66(%ebx)
    1ecb:	00 03                	add    %al,(%ebx)
    1ecd:	2f                   	das
    1ece:	0f 4c 00             	cmovl  (%eax),%eax
    1ed1:	00 00                	add    %al,(%eax)
    1ed3:	01 07                	add    %eax,(%edi)
    1ed5:	01 74 66 00          	add    %esi,0x0(%esi,%eiz,2)
    1ed9:	03 31                	add    (%ecx),%esi
    1edb:	0f 4c 00             	cmovl  (%eax),%eax
    1ede:	00 00                	add    %al,(%eax)
    1ee0:	01 08                	add    %ecx,(%eax)
    1ee2:	01 69 74             	add    %ebp,0x74(%ecx)
    1ee5:	00 03                	add    %al,(%ebx)
    1ee7:	32 0f                	xor    (%edi),%cl
    1ee9:	4c                   	dec    %esp
    1eea:	00 00                	add    %al,(%eax)
    1eec:	00 01                	add    %al,(%ecx)
    1eee:	09 01                	or     %eax,(%ecx)
    1ef0:	64 66 00 03          	data16 add %al,%fs:(%ebx)
    1ef4:	33 0f                	xor    (%edi),%ecx
    1ef6:	4c                   	dec    %esp
    1ef7:	00 00                	add    %al,(%eax)
    1ef9:	00 01                	add    %al,(%ecx)
    1efb:	0a 01                	or     (%ecx),%al
    1efd:	6f                   	outsl  %ds:(%esi),(%dx)
    1efe:	66 00 03             	data16 add %al,(%ebx)
    1f01:	34 0f                	xor    $0xf,%al
    1f03:	4c                   	dec    %esp
    1f04:	00 00                	add    %al,(%eax)
    1f06:	00 01                	add    %al,(%ecx)
    1f08:	0b 0b                	or     (%ebx),%ecx
    1f0a:	0a 0c 00             	or     (%eax,%eax,1),%cl
    1f0d:	00 03                	add    %al,(%ebx)
    1f0f:	35 0f 4c 00 00       	xor    $0x4c0f,%eax
    1f14:	00 02                	add    %al,(%edx)
    1f16:	0c 01                	or     $0x1,%al
    1f18:	6e                   	outsb  %ds:(%esi),(%dx)
    1f19:	74 00                	je     1f1b <mbh-0x2fe0e5>
    1f1b:	03 36                	add    (%esi),%esi
    1f1d:	0f 4c 00             	cmovl  (%eax),%eax
    1f20:	00 00                	add    %al,(%eax)
    1f22:	01 0e                	add    %ecx,(%esi)
    1f24:	01 72 34             	add    %esi,0x34(%edx)
    1f27:	00 03                	add    %al,(%ebx)
    1f29:	37                   	aaa
    1f2a:	0f 4c 00             	cmovl  (%eax),%eax
    1f2d:	00 00                	add    %al,(%eax)
    1f2f:	01 0f                	add    %ecx,(%edi)
    1f31:	01 72 66             	add    %esi,0x66(%edx)
    1f34:	00 03                	add    %al,(%ebx)
    1f36:	39 0f                	cmp    %ecx,(%edi)
    1f38:	4c                   	dec    %esp
    1f39:	00 00                	add    %al,(%eax)
    1f3b:	00 01                	add    %al,(%ecx)
    1f3d:	10 01                	adc    %al,(%ecx)
    1f3f:	76 6d                	jbe    1fae <mbh-0x2fe052>
    1f41:	00 03                	add    %al,(%ebx)
    1f43:	3a 0f                	cmp    (%edi),%cl
    1f45:	4c                   	dec    %esp
    1f46:	00 00                	add    %al,(%eax)
    1f48:	00 01                	add    %al,(%ecx)
    1f4a:	11 01                	adc    %eax,(%ecx)
    1f4c:	61                   	popa
    1f4d:	63 00                	arpl   %eax,(%eax)
    1f4f:	03 3b                	add    (%ebx),%edi
    1f51:	0f 4c 00             	cmovl  (%eax),%eax
    1f54:	00 00                	add    %al,(%eax)
    1f56:	01 12                	add    %edx,(%edx)
    1f58:	01 76 69             	add    %esi,0x69(%esi)
    1f5b:	74 00                	je     1f5d <mbh-0x2fe0a3>
    1f5d:	03 3c 0f             	add    (%edi,%ecx,1),%edi
    1f60:	4c                   	dec    %esp
    1f61:	00 00                	add    %al,(%eax)
    1f63:	00 01                	add    %al,(%ecx)
    1f65:	13 01                	adc    (%ecx),%eax
    1f67:	76 69                	jbe    1fd2 <mbh-0x2fe02e>
    1f69:	70 00                	jo     1f6b <mbh-0x2fe095>
    1f6b:	03 3e                	add    (%esi),%edi
    1f6d:	0f 4c 00             	cmovl  (%eax),%eax
    1f70:	00 00                	add    %al,(%eax)
    1f72:	01 14 01             	add    %edx,(%ecx,%eax,1)
    1f75:	69 64 00 03 3f 0f 4c 	imul   $0x4c0f3f,0x3(%eax,%eax,1),%esp
    1f7c:	00 
    1f7d:	00 00                	add    %al,(%eax)
    1f7f:	01 15 01 72 35 00    	add    %edx,0x357201
    1f85:	03 40 0f             	add    0xf(%eax),%eax
    1f88:	4c                   	dec    %esp
    1f89:	00 00                	add    %al,(%eax)
    1f8b:	00 0a                	add    %cl,(%edx)
    1f8d:	16                   	push   %ss
    1f8e:	00 02                	add    %al,(%edx)
    1f90:	79 0b                	jns    1f9d <mbh-0x2fe063>
    1f92:	00 00                	add    %al,(%eax)
    1f94:	03 42 1b             	add    0x1b(%edx),%eax
    1f97:	39 03                	cmp    %eax,(%ebx)
    1f99:	00 00                	add    %al,(%eax)
    1f9b:	09 c5                	or     %eax,%ebp
    1f9d:	0b 00                	or     (%eax),%eax
    1f9f:	00 04 03             	add    %al,(%ebx,%eax,1)
    1fa2:	44                   	inc    %esp
    1fa3:	8a 04 00             	mov    (%eax,%eax,1),%al
    1fa6:	00 03                	add    %al,(%ebx)
    1fa8:	67 04 00             	addr16 add $0x0,%al
    1fab:	00 03                	add    %al,(%ebx)
    1fad:	1e                   	push   %ds
    1fae:	02 00                	add    (%eax),%al
    1fb0:	00 00                	add    %al,(%eax)
    1fb2:	02 89 0a 00 00 03    	add    0x300000a(%ecx),%cl
    1fb8:	49                   	dec    %ecx
    1fb9:	1b 73 04             	sbb    0x4(%ebx),%esi
    1fbc:	00 00                	add    %al,(%eax)
    1fbe:	0c 1e                	or     $0x1e,%al
    1fc0:	02 00                	add    (%eax),%al
    1fc2:	00 a6 04 00 00 0d    	add    %ah,0xd000004(%esi)
    1fc8:	58                   	pop    %eax
    1fc9:	00 00                	add    %al,(%eax)
    1fcb:	00 07                	add    %al,(%edi)
    1fcd:	00 06                	add    %al,(%esi)
    1fcf:	20 03                	and    %al,(%ebx)
    1fd1:	70 04                	jo     1fd7 <mbh-0x2fe029>
    1fd3:	18 05 00 00 05 65    	sbb    %al,0x65050000
    1fd9:	64 69 00 03 72 11 1e 	imul   $0x1e117203,%fs:(%eax),%eax
    1fe0:	02 00                	add    (%eax),%al
    1fe2:	00 00                	add    %al,(%eax)
    1fe4:	05 65 73 69 00       	add    $0x697365,%eax
    1fe9:	03 73 11             	add    0x11(%ebx),%esi
    1fec:	1e                   	push   %ds
    1fed:	02 00                	add    (%eax),%al
    1fef:	00 04 05 65 62 70 00 	add    %al,0x706265(,%eax,1)
    1ff6:	03 74 11 1e          	add    0x1e(%ecx,%edx,1),%esi
    1ffa:	02 00                	add    (%eax),%al
    1ffc:	00 08                	add    %cl,(%eax)
    1ffe:	05 65 73 70 00       	add    $0x707365,%eax
    2003:	03 75 11             	add    0x11(%ebp),%esi
    2006:	1e                   	push   %ds
    2007:	02 00                	add    (%eax),%al
    2009:	00 0c 05 65 62 78 00 	add    %cl,0x786265(,%eax,1)
    2010:	03 76 11             	add    0x11(%esi),%esi
    2013:	1e                   	push   %ds
    2014:	02 00                	add    (%eax),%al
    2016:	00 10                	add    %dl,(%eax)
    2018:	05 65 64 78 00       	add    $0x786465,%eax
    201d:	03 77 11             	add    0x11(%edi),%esi
    2020:	1e                   	push   %ds
    2021:	02 00                	add    (%eax),%al
    2023:	00 14 05 65 63 78 00 	add    %dl,0x786365(,%eax,1)
    202a:	03 78 11             	add    0x11(%eax),%edi
    202d:	1e                   	push   %ds
    202e:	02 00                	add    (%eax),%al
    2030:	00 18                	add    %bl,(%eax)
    2032:	05 65 61 78 00       	add    $0x786165,%eax
    2037:	03 79 11             	add    0x11(%ecx),%edi
    203a:	1e                   	push   %ds
    203b:	02 00                	add    (%eax),%al
    203d:	00 1c 00             	add    %bl,(%eax,%eax,1)
    2040:	09 af 0a 00 00 20    	or     %ebp,0x2000000a(%edi)
    2046:	03 6e 36             	add    0x36(%esi),%ebp
    2049:	05 00 00 03 a6       	add    $0xa6030000,%eax
    204e:	04 00                	add    $0x0,%al
    2050:	00 0a                	add    %cl,(%edx)
    2052:	72 61                	jb     20b5 <mbh-0x2fdf4b>
    2054:	77 00                	ja     2056 <mbh-0x2fdfaa>
    2056:	03 7d 11             	add    0x11(%ebp),%edi
    2059:	96                   	xchg   %eax,%esi
    205a:	04 00                	add    $0x0,%al
    205c:	00 00                	add    %al,(%eax)
    205e:	02 5b 0b             	add    0xb(%ebx),%bl
    2061:	00 00                	add    %al,(%eax)
    2063:	03 7f 1b             	add    0x1b(%edi),%edi
    2066:	18 05 00 00 06 04    	sbb    %al,0x4060000
    206c:	04 44                	add    $0x44,%al
    206e:	04 8f                	add    $0x8f,%al
    2070:	05 00 00 01 65       	add    $0x65010000,%eax
    2075:	78 74                	js     20eb <mbh-0x2fdf15>
    2077:	00 04 46             	add    %al,(%esi,%eax,2)
    207a:	12 4c 00 00          	adc    0x0(%eax,%eax,1),%cl
    207e:	00 01                	add    %al,(%ecx)
    2080:	00 01                	add    %al,(%ecx)
    2082:	69 64 74 00 04 47 12 	imul   $0x4c124704,0x0(%esp,%esi,2),%esp
    2089:	4c 
    208a:	00 00                	add    %al,(%eax)
    208c:	00 01                	add    %al,(%ecx)
    208e:	01 01                	add    %eax,(%ecx)
    2090:	74 69                	je     20fb <mbh-0x2fdf05>
    2092:	00 04 48             	add    %al,(%eax,%ecx,2)
    2095:	12 4c 00 00          	adc    0x0(%eax,%eax,1),%cl
    2099:	00 01                	add    %al,(%ecx)
    209b:	02 01                	add    (%ecx),%al
    209d:	69 64 78 00 04 49 12 	imul   $0x4c124904,0x0(%eax,%edi,2),%esp
    20a4:	4c 
    20a5:	00 00                	add    %al,(%eax)
    20a7:	00 0d 03 01 72 00    	add    %cl,0x720103
    20ad:	04 4a                	add    $0x4a,%al
    20af:	12 4c 00 00          	adc    0x0(%eax,%eax,1),%cl
    20b3:	00 10                	add    %dl,(%eax)
    20b5:	10 00                	adc    %al,(%eax)
    20b7:	09 65 0b             	or     %esp,0xb(%ebp)
    20ba:	00 00                	add    %al,(%eax)
    20bc:	04 04                	add    $0x4,%al
    20be:	42                   	inc    %edx
    20bf:	a6                   	cmpsb  %es:(%edi),%ds:(%esi)
    20c0:	05 00 00 03 42       	add    $0x42030000,%eax
    20c5:	05 00 00 03 1e       	add    $0x1e030000,%eax
    20ca:	02 00                	add    (%eax),%al
    20cc:	00 00                	add    %al,(%eax)
    20ce:	02 8d 0b 00 00 04    	add    0x400000b(%ebp),%cl
    20d4:	50                   	push   %eax
    20d5:	1b 8f 05 00 00 06    	sbb    0x6000005(%edi),%ecx
    20db:	04 04                	add    $0x4,%al
    20dd:	57                   	push   %edi
    20de:	04 09                	add    $0x9,%al
    20e0:	06                   	push   %es
    20e1:	00 00                	add    %al,(%eax)
    20e3:	01 70 00             	add    %esi,0x0(%eax)
    20e6:	04 59                	add    $0x59,%al
    20e8:	15 4c 00 00 00       	adc    $0x4c,%eax
    20ed:	01 00                	add    %eax,(%eax)
    20ef:	01 77 72             	add    %esi,0x72(%edi)
    20f2:	00 04 5a             	add    %al,(%edx,%ebx,2)
    20f5:	15 4c 00 00 00       	adc    $0x4c,%eax
    20fa:	01 01                	add    %eax,(%ecx)
    20fc:	01 75 73             	add    %esi,0x73(%ebp)
    20ff:	00 04 5b             	add    %al,(%ebx,%ebx,2)
    2102:	15 4c 00 00 00       	adc    $0x4c,%eax
    2107:	01 02                	add    %eax,(%edx)
    2109:	01 72 73             	add    %esi,0x73(%edx)
    210c:	76 00                	jbe    210e <mbh-0x2fdef2>
    210e:	04 5c                	add    $0x5c,%al
    2110:	15 4c 00 00 00       	adc    $0x4c,%eax
    2115:	01 03                	add    %eax,(%ebx)
    2117:	01 69 64             	add    %ebp,0x64(%ecx)
    211a:	00 04 5d 15 4c 00 00 	add    %al,0x4c15(,%ebx,2)
    2121:	00 01                	add    %al,(%ecx)
    2123:	04 01                	add    $0x1,%al
    2125:	72 00                	jb     2127 <mbh-0x2fded9>
    2127:	04 5e                	add    $0x5e,%al
    2129:	15 4c 00 00 00       	adc    $0x4c,%eax
    212e:	1b 05 00 09 73 0a    	sbb    0xa730900,%eax
    2134:	00 00                	add    %al,(%eax)
    2136:	04 04                	add    $0x4,%al
    2138:	55                   	push   %ebp
    2139:	20 06                	and    %al,(%esi)
    213b:	00 00                	add    %al,(%eax)
    213d:	03 b2 05 00 00 03    	add    0x3000005(%edx),%esi
    2143:	1e                   	push   %ds
    2144:	02 00                	add    (%eax),%al
    2146:	00 00                	add    %al,(%eax)
    2148:	02 96 0a 00 00 04    	add    0x400000a(%esi),%dl
    214e:	64 1b 09             	sbb    %fs:(%ecx),%ecx
    2151:	06                   	push   %es
    2152:	00 00                	add    %al,(%eax)
    2154:	09 e6                	or     %esp,%esi
    2156:	0a 00                	or     (%eax),%al
    2158:	00 04 04             	add    %al,(%esp,%eax,1)
    215b:	69 54 06 00 00 03 1e 	imul   $0x21e0300,0x0(%esi,%eax,1),%edx
    2162:	02 
    2163:	00 00                	add    %al,(%eax)
    2165:	0a 73 6c             	or     0x6c(%ebx),%dh
    2168:	00 04 6d 0d a6 05 00 	add    %al,0x5a60d(,%ebp,2)
    216f:	00 0a                	add    %cl,(%edx)
    2171:	70 66                	jo     21d9 <mbh-0x2fde27>
    2173:	00 04 6e             	add    %al,(%esi,%ebp,2)
    2176:	0d 20 06 00 00       	or     $0x620,%eax
    217b:	00 02                	add    %al,(%edx)
    217d:	9f                   	lahf
    217e:	0a 00                	or     (%eax),%al
    2180:	00 04 70             	add    %al,(%eax,%esi,2)
    2183:	1b 2c 06             	sbb    (%esi,%eax,1),%ebp
    2186:	00 00                	add    %al,(%eax)
    2188:	10 fe                	adc    %bh,%dh
    218a:	0b 00                	or     (%eax),%eax
    218c:	00 1c 05 29 c5 06 00 	add    %bl,0x6c529(,%eax,1)
    2193:	00 05 6e 72 00 05    	add    %al,0x500726e
    2199:	2b 14 1e             	sub    (%esi,%ebx,1),%edx
    219c:	02 00                	add    (%eax),%al
    219e:	00 00                	add    %al,(%eax)
    21a0:	05 65 72 72 00       	add    $0x727265,%eax
    21a5:	05 2c 14 54 06       	add    $0x654142c,%eax
    21aa:	00 00                	add    %al,(%eax)
    21ac:	04 05                	add    $0x5,%al
    21ae:	65 69 70 00 05 2d 14 	imul   $0x1e142d05,%gs:0x0(%eax),%esi
    21b5:	1e 
    21b6:	02 00                	add    (%eax),%al
    21b8:	00 08                	add    %cl,(%eax)
    21ba:	05 63 73 00 05       	add    $0x5007363,%eax
    21bf:	2e 14 1e             	cs adc $0x1e,%al
    21c2:	02 00                	add    (%eax),%al
    21c4:	00 0c 04             	add    %cl,(%esp,%eax,1)
    21c7:	45                   	inc    %ebp
    21c8:	0b 00                	or     (%eax),%eax
    21ca:	00 05 2f 14 8a 04    	add    %al,0x48a142f
    21d0:	00 00                	add    %al,(%eax)
    21d2:	10 05 65 73 70 00    	adc    %al,0x707365
    21d8:	05 32 14 1e 02       	add    $0x21e1432,%eax
    21dd:	00 00                	add    %al,(%eax)
    21df:	14 05                	adc    $0x5,%al
    21e1:	73 73                	jae    2256 <mbh-0x2fddaa>
    21e3:	00 05 33 14 1e 02    	add    %al,0x21e1433
    21e9:	00 00                	add    %al,(%eax)
    21eb:	18 00                	sbb    %al,(%eax)
    21ed:	02 36                	add    (%esi),%dh
    21ef:	0b 00                	or     (%eax),%eax
    21f1:	00 05 35 1b 60 06    	add    %al,0x6601b35
    21f7:	00 00                	add    %al,(%eax)
    21f9:	10 b3 0b 00 00 3c    	adc    %dh,0x3c00000b(%ebx)
    21ff:	05 38 f1 06 00       	add    $0x6f138,%eax
    2204:	00 05 67 70 72 00    	add    %al,0x727067
    220a:	05 3a 0e 36 05       	add    $0x5360e3a,%eax
    220f:	00 00                	add    %al,(%eax)
    2211:	00 0e                	add    %cl,(%esi)
    2213:	c5 06                	lds    (%esi),%eax
    2215:	00 00                	add    %al,(%eax)
    2217:	20 00                	and    %al,(%eax)
    2219:	02 2c 0b             	add    (%ebx,%ecx,1),%ch
    221c:	00 00                	add    %al,(%eax)
    221e:	05 3d 1b d1 06       	add    $0x6d11b3d,%eax
    2223:	00 00                	add    %al,(%eax)
    2225:	11 f1                	adc    %esi,%ecx
    2227:	06                   	push   %es
    2228:	00 00                	add    %al,(%eax)
    222a:	06                   	push   %es
    222b:	08 05 46 04 88 07    	or     %al,0x7880446
    2231:	00 00                	add    %al,(%eax)
    2233:	0b 96 0b 00 00 05    	or     0x500000b(%esi),%edx
    2239:	48                   	dec    %eax
    223a:	11 5f 00             	adc    %ebx,0x0(%edi)
    223d:	00 00                	add    %al,(%eax)
    223f:	10 00                	adc    %al,(%eax)
    2241:	0b 19                	or     (%ecx),%ebx
    2243:	0c 00                	or     $0x0,%al
    2245:	00 05 49 11 5f 00    	add    %al,0x5f1149
    224b:	00 00                	add    %al,(%eax)
    224d:	10 10                	adc    %dl,(%eax)
    224f:	01 69 73             	add    %ebp,0x73(%ecx)
    2252:	74 00                	je     2254 <mbh-0x2fddac>
    2254:	05 4a 11 5f 00       	add    $0x5f114a,%eax
    2259:	00 00                	add    %al,(%eax)
    225b:	03 20                	add    (%eax),%esp
    225d:	0b 22                	or     (%edx),%esp
    225f:	0c 00                	or     $0x0,%al
    2261:	00 05 4b 11 5f 00    	add    %al,0x5f114b
    2267:	00 00                	add    %al,(%eax)
    2269:	05 23 0b 09 03       	add    $0x3090b23,%eax
    226e:	00 00                	add    %al,(%eax)
    2270:	05 4c 11 5f 00       	add    $0x5f114c,%eax
    2275:	00 00                	add    %al,(%eax)
    2277:	04 28                	add    $0x28,%al
    2279:	0b 29                	or     (%ecx),%ebp
    227b:	0c 00                	or     $0x0,%al
    227d:	00 05 4d 11 5f 00    	add    %al,0x5f114d
    2283:	00 00                	add    %al,(%eax)
    2285:	01 2c 01             	add    %ebp,(%ecx,%eax,1)
    2288:	64 70 6c             	fs jo  22f7 <mbh-0x2fdd09>
    228b:	00 05 4e 11 5f 00    	add    %al,0x5f114e
    2291:	00 00                	add    %al,(%eax)
    2293:	02 2d 01 70 00 05    	add    0x5007001,%ch
    2299:	4f                   	dec    %edi
    229a:	11 5f 00             	adc    %ebx,0x0(%edi)
    229d:	00 00                	add    %al,(%eax)
    229f:	01 2f                	add    %ebp,(%edi)
    22a1:	0b 9f 0b 00 00 05    	or     0x500000b(%edi),%ebx
    22a7:	50                   	push   %eax
    22a8:	11 5f 00             	adc    %ebx,0x0(%edi)
    22ab:	00 00                	add    %al,(%eax)
    22ad:	10 30                	adc    %dh,(%eax)
    22af:	00 09                	add    %cl,(%ecx)
    22b1:	d1 0a                	rorl   $1,(%edx)
    22b3:	00 00                	add    %al,(%eax)
    22b5:	08 05 44 9f 07 00    	or     %al,0x79f44
    22bb:	00 03                	add    %al,(%ebx)
    22bd:	02 07                	add    (%edi),%al
    22bf:	00 00                	add    %al,(%eax)
    22c1:	03 2d 03 00 00 00    	add    0x3,%ebp
    22c7:	02 a8 0b 00 00 05    	add    0x500000b(%eax),%ch
    22cd:	56                   	push   %esi
    22ce:	1b 88 07 00 00 0f    	sbb    0xf000007(%eax),%ecx
    22d4:	04 05                	add    $0x5,%al
    22d6:	5e                   	pop    %esi
    22d7:	04 cd                	add    $0xcd,%al
    22d9:	07                   	pop    %es
    22da:	00 00                	add    %al,(%eax)
    22dc:	07                   	pop    %es
    22dd:	f8                   	clc
    22de:	05 00 00 05 60       	add    $0x60050000,%eax
    22e3:	14 d1                	adc    $0xd1,%al
    22e5:	00 00                	add    %al,(%eax)
    22e7:	00 07                	add    %al,(%edi)
    22e9:	40                   	inc    %eax
    22ea:	0b 00                	or     (%eax),%eax
    22ec:	00 05 61 15 cd 07    	add    %al,0x7cd1561
    22f2:	00 00                	add    %al,(%eax)
    22f4:	00 11                	add    %dl,(%ecx)
    22f6:	9f                   	lahf
    22f7:	07                   	pop    %es
    22f8:	00 00                	add    %al,(%eax)
    22fa:	10 08                	adc    %cl,(%eax)
    22fc:	0b 00                	or     (%eax),%eax
    22fe:	00 06                	add    %al,(%esi)
    2300:	05 5b f2 07 00       	add    $0x7f25b,%eax
    2305:	00 04 02             	add    %al,(%edx,%eax,1)
    2308:	0b 00                	or     (%eax),%eax
    230a:	00 05 5d 14 39 00    	add    %al,0x39145d
    2310:	00 00                	add    %al,(%eax)
    2312:	00 0e                	add    %cl,(%esi)
    2314:	ab                   	stos   %eax,%es:(%edi)
    2315:	07                   	pop    %es
    2316:	00 00                	add    %al,(%eax)
    2318:	02 00                	add    (%eax),%al
    231a:	02 62 0a             	add    0xa(%edx),%ah
    231d:	00 00                	add    %al,(%eax)
    231f:	05 64 1b d2 07       	add    $0x7d21b64,%eax
    2324:	00 00                	add    %al,(%eax)
    2326:	0c 9f                	or     $0x9f,%al
    2328:	07                   	pop    %es
    2329:	00 00                	add    %al,(%eax)
    232b:	0e                   	push   %cs
    232c:	08 00                	or     %al,(%eax)
    232e:	00 0d 58 00 00 00    	add    %cl,0x58
    2334:	ff 00                	incl   (%eax)
    2336:	12 49 44             	adc    0x44(%ecx),%cl
    2339:	54                   	push   %esp
    233a:	00 08                	add    %cl,(%eax)
    233c:	13 fe                	adc    %esi,%edi
    233e:	07                   	pop    %es
    233f:	00 00                	add    %al,(%eax)
    2341:	05 03 a0 5b 30       	add    $0x305ba003,%eax
    2346:	00 19                	add    %bl,(%ecx)
    2348:	0f 0c                	(bad)
    234a:	00 00                	add    %al,(%eax)
    234c:	04 77                	add    $0x77,%al
    234e:	06                   	push   %es
    234f:	31 08                	xor    %ecx,(%eax)
    2351:	00 00                	add    %al,(%eax)
    2353:	14 31                	adc    $0x31,%al
    2355:	08 00                	or     %al,(%eax)
    2357:	00 00                	add    %al,(%eax)
    2359:	11 d1                	adc    %edx,%ecx
    235b:	06                   	push   %es
    235c:	00 00                	add    %al,(%eax)
    235e:	1a b4 06 00 00 06 0d 	sbb    0xd060000(%esi,%eax,1),%dh
    2365:	0a be 00 00 00 4d    	or     0x4d000000(%esi),%bh
    236b:	08 00                	or     %al,(%eax)
    236d:	00 14 4d 08 00 00 15 	add    %dl,0x15000008(,%ecx,2)
    2374:	00 11                	add    %dl,(%ecx)
    2376:	b9 00 00 00 1b       	mov    $0x1b000000,%ecx
    237b:	4c                   	dec    %esp
    237c:	0b 00                	or     (%eax),%eax
    237e:	00 01                	add    %al,(%ecx)
    2380:	07                   	pop    %es
    2381:	0d 60 08 00 00       	or     $0x860,%eax
    2386:	15 00 1c f4 0b       	adc    $0xbf41c00,%eax
    238b:	00 00                	add    %al,(%eax)
    238d:	01 1b                	add    %ebx,(%ebx)
    238f:	15 93 3c 30 00       	adc    $0x303c93,%eax
    2394:	e6 00                	out    %al,$0x0
    2396:	00 00                	add    %al,(%eax)
    2398:	01 9c 94 08 00 00 1d 	add    %ebx,0x1d000008(%esp,%edx,4)
    239f:	63 74 78 00          	arpl   %esi,0x0(%eax,%edi,2)
    23a3:	01 1b                	add    %ebx,(%ebx)
    23a5:	2a fd                	sub    %ch,%bh
    23a7:	06                   	push   %es
    23a8:	00 00                	add    %al,(%eax)
    23aa:	02 91 4c 13 6c 0a    	add    0xa6c134c(%ecx),%dl
    23b0:	00 00                	add    %al,(%eax)
    23b2:	39 0c 26             	cmp    %ecx,(%esi,%eiz,1)
    23b5:	00 00                	add    %al,(%eax)
    23b7:	00 02                	add    %al,(%edx)
    23b9:	91                   	xchg   %eax,%ecx
    23ba:	5f                   	pop    %edi
    23bb:	00 1e                	add    %bl,(%esi)
    23bd:	a3 02 00 00 01       	mov    %eax,0x1000002
    23c2:	0a 06                	or     (%esi),%al
    23c4:	cc                   	int3
    23c5:	3b 30                	cmp    (%eax),%esi
    23c7:	00 c7                	add    %al,%bh
    23c9:	00 00                	add    %al,(%eax)
    23cb:	00 01                	add    %al,(%ecx)
    23cd:	9c                   	pushf
    23ce:	13 fd                	adc    %ebp,%edi
    23d0:	0a 00                	or     (%eax),%al
    23d2:	00 0c 0e             	add    %cl,(%esi,%ecx,1)
    23d5:	f2 07                	repnz pop %es
    23d7:	00 00                	add    %al,(%eax)
    23d9:	02 91 6a 12 69 73    	add    0x7369126a(%ecx),%dl
    23df:	72 00                	jb     23e1 <mbh-0x2fdc1f>
    23e1:	0d 0e d1 00 00       	or     $0xd10e,%eax
    23e6:	00 02                	add    %al,(%edx)
    23e8:	91                   	xchg   %eax,%ecx
    23e9:	74 12                	je     23fd <mbh-0x2fdc03>
    23eb:	69 00 0e 0e be 00    	imul   $0xbe0e0e,(%eax),%eax
    23f1:	00 00                	add    %al,(%eax)
    23f3:	02 91 70 1f e5 3b    	add    0x3be51f70(%ecx),%dl
    23f9:	30 00                	xor    %al,(%eax)
    23fb:	85 00                	test   %eax,(%eax)
    23fd:	00 00                	add    %al,(%eax)
    23ff:	13 f8                	adc    %eax,%edi
    2401:	05 00 00 14 07       	add    $0x7140000,%eax
    2406:	1e                   	push   %ds
    2407:	02 00                	add    (%eax),%al
    2409:	00 02                	add    %al,(%edx)
    240b:	91                   	xchg   %eax,%ecx
    240c:	66 00 00             	data16 add %al,(%eax)
    240f:	00 1f                	add    %bl,(%edi)
    2411:	00 00                	add    %al,(%eax)
    2413:	00 05 00 01 04 a0    	add    %al,0xa0040100
    2419:	08 00                	or     %al,(%eax)
    241b:	00 01                	add    %al,(%ecx)
    241d:	d3 06                	roll   %cl,(%esi)
    241f:	00 00                	add    %al,(%eax)
    2421:	23 00                	and    (%eax),%eax
    2423:	00 00                	add    %al,(%eax)
    2425:	30 0c 00             	xor    %cl,(%eax,%eax,1)
    2428:	00 17                	add    %dl,(%edi)
    242a:	00 00                	add    %al,(%eax)
    242c:	00 3c 00             	add    %bh,(%eax,%eax,1)
    242f:	00 00                	add    %al,(%eax)
    2431:	01 80 c1 06 00 00    	add    %eax,0x6c1(%eax)
    2437:	05 00 01 04 b2       	add    $0xb2040100,%eax
    243c:	08 00                	or     %al,(%eax)
    243e:	00 15 21 04 00 00    	add    %dl,0x421
    2444:	1d 17 01 00 00       	sbb    $0x117,%eax
    2449:	00 00                	add    %al,(%eax)
    244b:	00 00                	add    %al,(%eax)
    244d:	93                   	xchg   %eax,%ebx
    244e:	3d 30 00 96 01       	cmp    $0x1960030,%eax
    2453:	00 00                	add    %al,(%eax)
    2455:	12 0a                	adc    (%edx),%cl
    2457:	00 00                	add    %al,(%eax)
    2459:	02 f6                	add    %dh,%dh
    245b:	03 00                	add    (%eax),%eax
    245d:	00 02                	add    %al,(%edx)
    245f:	1a 20                	sbb    (%eax),%ah
    2461:	32 00                	xor    (%eax),%al
    2463:	00 00                	add    %al,(%eax)
    2465:	05 01 08 db 01       	add    $0x1db0801,%eax
    246a:	00 00                	add    %al,(%eax)
    246c:	02 1b                	add    (%ebx),%bl
    246e:	01 00                	add    %eax,(%eax)
    2470:	00 02                	add    %al,(%edx)
    2472:	1b 20                	sbb    (%eax),%esp
    2474:	45                   	inc    %ebp
    2475:	00 00                	add    %al,(%eax)
    2477:	00 05 02 07 7d 02    	add    %al,0x27d0702
    247d:	00 00                	add    %al,(%eax)
    247f:	02 a4 00 00 00 02 1c 	add    0x1c020000(%eax,%eax,1),%ah
    2486:	20 58 00             	and    %bl,0x0(%eax)
    2489:	00 00                	add    %al,(%eax)
    248b:	05 04 07 1f 02       	add    $0x21f0704,%eax
    2490:	00 00                	add    %al,(%eax)
    2492:	05 08 07 15 02       	add    $0x2150708,%eax
    2497:	00 00                	add    %al,(%eax)
    2499:	05 01 06 dd 01       	add    $0x1dd0601,%eax
    249e:	00 00                	add    %al,(%eax)
    24a0:	02 50 07             	add    0x7(%eax),%dl
    24a3:	00 00                	add    %al,(%eax)
    24a5:	02 20                	add    (%eax),%ah
    24a7:	20 79 00             	and    %bh,0x0(%ecx)
    24aa:	00 00                	add    %al,(%eax)
    24ac:	05 02 05 ad 00       	add    $0xad0502,%eax
    24b1:	00 00                	add    %al,(%eax)
    24b3:	02 0d 06 00 00 02    	add    0x2000006,%cl
    24b9:	21 20                	and    %esp,(%eax)
    24bb:	8c 00                	mov    %es,(%eax)
    24bd:	00 00                	add    %al,(%eax)
    24bf:	16                   	push   %ss
    24c0:	04 05                	add    $0x5,%al
    24c2:	69 6e 74 00 05 08 05 	imul   $0x5080500,0x74(%esi),%ebp
    24c9:	6a 01                	push   $0x1
    24cb:	00 00                	add    %al,(%eax)
    24cd:	0e                   	push   %cs
    24ce:	9f                   	lahf
    24cf:	00 00                	add    %al,(%eax)
    24d1:	00 05 01 06 e4 01    	add    %al,0x1e40601
    24d7:	00 00                	add    %al,(%eax)
    24d9:	17                   	pop    %ss
    24da:	9f                   	lahf
    24db:	00 00                	add    %al,(%eax)
    24dd:	00 02                	add    %al,(%edx)
    24df:	b7 00                	mov    $0x0,%bh
    24e1:	00 00                	add    %al,(%eax)
    24e3:	02 25 20 b7 00 00    	add    0xb720,%ah
    24e9:	00 05 04 07 1a 02    	add    %al,0x21a0704
    24ef:	00 00                	add    %al,(%eax)
    24f1:	02 b0 07 00 00 02    	add    0x2000007(%eax),%dh
    24f7:	26 20 b7 00 00 00 07 	and    %dh,%es:0x7000000(%edi)
    24fe:	02 02                	add    (%edx),%al
    2500:	4c                   	dec    %esp
    2501:	04 ee                	add    $0xee,%al
    2503:	00 00                	add    %al,(%eax)
    2505:	00 06                	add    %al,(%esi)
    2507:	fd                   	std
    2508:	05 00 00 02 4e       	add    $0x4e020000,%eax
    250d:	0f 26 00             	mov    %eax,%tr0
    2510:	00 00                	add    %al,(%eax)
    2512:	00 06                	add    %al,(%esi)
    2514:	f9                   	stc
    2515:	06                   	push   %es
    2516:	00 00                	add    %al,(%eax)
    2518:	02 4f 0f             	add    0xf(%edi),%cl
    251b:	26 00 00             	add    %al,%es:(%eax)
    251e:	00 01                	add    %al,(%ecx)
    2520:	00 08                	add    %cl,(%eax)
    2522:	35 06 00 00 02       	xor    $0x2000006,%eax
    2527:	02 45 22             	add    0x22(%ebp),%al
    252a:	01 00                	add    %eax,(%eax)
    252c:	00 09                	add    %cl,(%ecx)
    252e:	72 61                	jb     2591 <mbh-0x2fda6f>
    2530:	77 00                	ja     2532 <mbh-0x2fdace>
    2532:	02 47 0d             	add    0xd(%edi),%al
    2535:	39 00                	cmp    %eax,(%eax)
    2537:	00 00                	add    %al,(%eax)
    2539:	0a 3a                	or     (%edx),%bh
    253b:	07                   	pop    %es
    253c:	00 00                	add    %al,(%eax)
    253e:	48                   	dec    %eax
    253f:	0d 6d 00 00 00       	or     $0x6d,%eax
    2544:	0a bb 06 00 00 49    	or     0x49000006(%ebx),%bh
    254a:	0d 22 01 00 00       	or     $0x122,%eax
    254f:	04 ca                	add    $0xca,%al
    2551:	00 00                	add    %al,(%eax)
    2553:	00 00                	add    %al,(%eax)
    2555:	0b 26                	or     (%esi),%esp
    2557:	00 00                	add    %al,(%eax)
    2559:	00 32                	add    %dh,(%edx)
    255b:	01 00                	add    %eax,(%eax)
    255d:	00 0c 58             	add    %cl,(%eax,%ebx,2)
    2560:	00 00                	add    %al,(%eax)
    2562:	00 01                	add    %al,(%ecx)
    2564:	00 02                	add    %al,(%edx)
    2566:	63 06                	arpl   %eax,(%esi)
    2568:	00 00                	add    %al,(%eax)
    256a:	02 53 1b             	add    0x1b(%ebx),%dl
    256d:	ee                   	out    %al,(%dx)
    256e:	00 00                	add    %al,(%eax)
    2570:	00 07                	add    %al,(%edi)
    2572:	04 02                	add    $0x2,%al
    2574:	5f                   	pop    %edi
    2575:	04 62                	add    $0x62,%al
    2577:	01 00                	add    %eax,(%eax)
    2579:	00 06                	add    %al,(%esi)
    257b:	ff 06                	incl   (%esi)
    257d:	00 00                	add    %al,(%eax)
    257f:	02 61 0f             	add    0xf(%ecx),%ah
    2582:	32 01                	xor    (%ecx),%al
    2584:	00 00                	add    %al,(%eax)
    2586:	00 06                	add    %al,(%esi)
    2588:	fc                   	cld
    2589:	07                   	pop    %es
    258a:	00 00                	add    %al,(%eax)
    258c:	02 62 0f             	add    0xf(%edx),%ah
    258f:	32 01                	xor    (%ecx),%al
    2591:	00 00                	add    %al,(%eax)
    2593:	02 00                	add    (%eax),%al
    2595:	07                   	pop    %es
    2596:	02 02                	add    (%edx),%al
    2598:	6b 0a 86             	imul   $0xffffff86,(%edx),%ecx
    259b:	01 00                	add    %eax,(%eax)
    259d:	00 06                	add    %al,(%esi)
    259f:	fd                   	std
    25a0:	05 00 00 02 6d       	add    $0x6d020000,%eax
    25a5:	15 26 00 00 00       	adc    $0x26,%eax
    25aa:	00 06                	add    %al,(%esi)
    25ac:	f9                   	stc
    25ad:	06                   	push   %es
    25ae:	00 00                	add    %al,(%eax)
    25b0:	02 6e 15             	add    0x15(%esi),%ch
    25b3:	26 00 00             	add    %al,%es:(%eax)
    25b6:	00 01                	add    %al,(%ecx)
    25b8:	00 18                	add    %bl,(%eax)
    25ba:	02 02                	add    (%edx),%al
    25bc:	69 07 a0 01 00 00    	imul   $0x1a0,(%edi),%eax
    25c2:	04 62                	add    $0x62,%al
    25c4:	01 00                	add    %eax,(%eax)
    25c6:	00 0a                	add    %cl,(%edx)
    25c8:	00 07                	add    %al,(%edi)
    25ca:	00 00                	add    %al,(%eax)
    25cc:	72 13                	jb     25e1 <mbh-0x2fda1f>
    25ce:	39 00                	cmp    %eax,(%eax)
    25d0:	00 00                	add    %al,(%eax)
    25d2:	00 07                	add    %al,(%edi)
    25d4:	04 02                	add    $0x2,%al
    25d6:	67 04 bd             	addr16 add $0xbd,%al
    25d9:	01 00                	add    %eax,(%eax)
    25db:	00 12                	add    %dl,(%edx)
    25dd:	86 01                	xchg   %al,(%ecx)
    25df:	00 00                	add    %al,(%eax)
    25e1:	00 06                	add    %al,(%esi)
    25e3:	fd                   	std
    25e4:	07                   	pop    %es
    25e5:	00 00                	add    %al,(%eax)
    25e7:	02 76 10             	add    0x10(%esi),%dh
    25ea:	39 00                	cmp    %eax,(%eax)
    25ec:	00 00                	add    %al,(%eax)
    25ee:	02 00                	add    (%eax),%al
    25f0:	08 14 07             	or     %dl,(%edi,%eax,1)
    25f3:	00 00                	add    %al,(%eax)
    25f5:	04 02                	add    $0x2,%al
    25f7:	58                   	pop    %eax
    25f8:	f6 01 00             	testb  $0x0,(%ecx)
    25fb:	00 09                	add    %cl,(%ecx)
    25fd:	72 61                	jb     2660 <mbh-0x2fd9a0>
    25ff:	77 00                	ja     2601 <mbh-0x2fd9ff>
    2601:	02 5a 0d             	add    0xd(%edx),%bl
    2604:	4c                   	dec    %esp
    2605:	00 00                	add    %al,(%eax)
    2607:	00 0a                	add    %cl,(%edx)
    2609:	3a 07                	cmp    (%edi),%al
    260b:	00 00                	add    %al,(%eax)
    260d:	5b                   	pop    %ebx
    260e:	0d 80 00 00 00       	or     $0x80,%eax
    2613:	0a bb 06 00 00 5c    	or     0x5c000006(%ebx),%bh
    2619:	0d f6 01 00 00       	or     $0x1f6,%eax
    261e:	04 3e                	add    $0x3e,%al
    2620:	01 00                	add    %eax,(%eax)
    2622:	00 04 a0             	add    %al,(%eax,%eiz,4)
    2625:	01 00                	add    %eax,(%eax)
    2627:	00 00                	add    %al,(%eax)
    2629:	0b 26                	or     (%esi),%esp
    262b:	00 00                	add    %al,(%eax)
    262d:	00 06                	add    %al,(%esi)
    262f:	02 00                	add    (%eax),%al
    2631:	00 0c 58             	add    %cl,(%eax,%ebx,2)
    2634:	00 00                	add    %al,(%eax)
    2636:	00 03                	add    %al,(%ebx)
    2638:	00 02                	add    %al,(%edx)
    263a:	7e 07                	jle    2643 <mbh-0x2fd9bd>
    263c:	00 00                	add    %al,(%eax)
    263e:	02 7a 1b             	add    0x1b(%edx),%bh
    2641:	bd 01 00 00 0f       	mov    $0xf000001,%ebp
    2646:	d9 0b                	(bad)  (%ebx)
    2648:	00 00                	add    %al,(%eax)
    264a:	04 03                	add    $0x3,%al
    264c:	26 40                	es inc %eax
    264e:	03 00                	add    (%eax),%eax
    2650:	00 01                	add    %al,(%ecx)
    2652:	63 66 00             	arpl   %esp,0x0(%esi)
    2655:	03 28                	add    (%eax),%ebp
    2657:	0f 4c 00             	cmovl  (%eax),%eax
    265a:	00 00                	add    %al,(%eax)
    265c:	01 00                	add    %eax,(%eax)
    265e:	01 72 31             	add    %esi,0x31(%edx)
    2661:	00 03                	add    %al,(%ebx)
    2663:	29 0f                	sub    %ecx,(%edi)
    2665:	4c                   	dec    %esp
    2666:	00 00                	add    %al,(%eax)
    2668:	00 01                	add    %al,(%ecx)
    266a:	01 01                	add    %eax,(%ecx)
    266c:	70 66                	jo     26d4 <mbh-0x2fd92c>
    266e:	00 03                	add    %al,(%ebx)
    2670:	2a 0f                	sub    (%edi),%cl
    2672:	4c                   	dec    %esp
    2673:	00 00                	add    %al,(%eax)
    2675:	00 01                	add    %al,(%ecx)
    2677:	02 01                	add    (%ecx),%al
    2679:	72 32                	jb     26ad <mbh-0x2fd953>
    267b:	00 03                	add    %al,(%ebx)
    267d:	2b 0f                	sub    (%edi),%ecx
    267f:	4c                   	dec    %esp
    2680:	00 00                	add    %al,(%eax)
    2682:	00 01                	add    %al,(%ecx)
    2684:	03 01                	add    (%ecx),%eax
    2686:	61                   	popa
    2687:	66 00 03             	data16 add %al,(%ebx)
    268a:	2c 0f                	sub    $0xf,%al
    268c:	4c                   	dec    %esp
    268d:	00 00                	add    %al,(%eax)
    268f:	00 01                	add    %al,(%ecx)
    2691:	04 01                	add    $0x1,%al
    2693:	72 33                	jb     26c8 <mbh-0x2fd938>
    2695:	00 03                	add    %al,(%ebx)
    2697:	2d 0f 4c 00 00       	sub    $0x4c0f,%eax
    269c:	00 01                	add    %al,(%ecx)
    269e:	05 01 7a 66 00       	add    $0x667a01,%eax
    26a3:	03 2e                	add    (%esi),%ebp
    26a5:	0f 4c 00             	cmovl  (%eax),%eax
    26a8:	00 00                	add    %al,(%eax)
    26aa:	01 06                	add    %eax,(%esi)
    26ac:	01 73 66             	add    %esi,0x66(%ebx)
    26af:	00 03                	add    %al,(%ebx)
    26b1:	2f                   	das
    26b2:	0f 4c 00             	cmovl  (%eax),%eax
    26b5:	00 00                	add    %al,(%eax)
    26b7:	01 07                	add    %eax,(%edi)
    26b9:	01 74 66 00          	add    %esi,0x0(%esi,%eiz,2)
    26bd:	03 31                	add    (%ecx),%esi
    26bf:	0f 4c 00             	cmovl  (%eax),%eax
    26c2:	00 00                	add    %al,(%eax)
    26c4:	01 08                	add    %ecx,(%eax)
    26c6:	01 69 74             	add    %ebp,0x74(%ecx)
    26c9:	00 03                	add    %al,(%ebx)
    26cb:	32 0f                	xor    (%edi),%cl
    26cd:	4c                   	dec    %esp
    26ce:	00 00                	add    %al,(%eax)
    26d0:	00 01                	add    %al,(%ecx)
    26d2:	09 01                	or     %eax,(%ecx)
    26d4:	64 66 00 03          	data16 add %al,%fs:(%ebx)
    26d8:	33 0f                	xor    (%edi),%ecx
    26da:	4c                   	dec    %esp
    26db:	00 00                	add    %al,(%eax)
    26dd:	00 01                	add    %al,(%ecx)
    26df:	0a 01                	or     (%ecx),%al
    26e1:	6f                   	outsl  %ds:(%esi),(%dx)
    26e2:	66 00 03             	data16 add %al,(%ebx)
    26e5:	34 0f                	xor    $0xf,%al
    26e7:	4c                   	dec    %esp
    26e8:	00 00                	add    %al,(%eax)
    26ea:	00 01                	add    %al,(%ecx)
    26ec:	0b 19                	or     (%ecx),%ebx
    26ee:	0a 0c 00             	or     (%eax,%eax,1),%cl
    26f1:	00 03                	add    %al,(%ebx)
    26f3:	35 0f 4c 00 00       	xor    $0x4c0f,%eax
    26f8:	00 02                	add    %al,(%edx)
    26fa:	0c 01                	or     $0x1,%al
    26fc:	6e                   	outsb  %ds:(%esi),(%dx)
    26fd:	74 00                	je     26ff <mbh-0x2fd901>
    26ff:	03 36                	add    (%esi),%esi
    2701:	0f 4c 00             	cmovl  (%eax),%eax
    2704:	00 00                	add    %al,(%eax)
    2706:	01 0e                	add    %ecx,(%esi)
    2708:	01 72 34             	add    %esi,0x34(%edx)
    270b:	00 03                	add    %al,(%ebx)
    270d:	37                   	aaa
    270e:	0f 4c 00             	cmovl  (%eax),%eax
    2711:	00 00                	add    %al,(%eax)
    2713:	01 0f                	add    %ecx,(%edi)
    2715:	01 72 66             	add    %esi,0x66(%edx)
    2718:	00 03                	add    %al,(%ebx)
    271a:	39 0f                	cmp    %ecx,(%edi)
    271c:	4c                   	dec    %esp
    271d:	00 00                	add    %al,(%eax)
    271f:	00 01                	add    %al,(%ecx)
    2721:	10 01                	adc    %al,(%ecx)
    2723:	76 6d                	jbe    2792 <mbh-0x2fd86e>
    2725:	00 03                	add    %al,(%ebx)
    2727:	3a 0f                	cmp    (%edi),%cl
    2729:	4c                   	dec    %esp
    272a:	00 00                	add    %al,(%eax)
    272c:	00 01                	add    %al,(%ecx)
    272e:	11 01                	adc    %eax,(%ecx)
    2730:	61                   	popa
    2731:	63 00                	arpl   %eax,(%eax)
    2733:	03 3b                	add    (%ebx),%edi
    2735:	0f 4c 00             	cmovl  (%eax),%eax
    2738:	00 00                	add    %al,(%eax)
    273a:	01 12                	add    %edx,(%edx)
    273c:	01 76 69             	add    %esi,0x69(%esi)
    273f:	74 00                	je     2741 <mbh-0x2fd8bf>
    2741:	03 3c 0f             	add    (%edi,%ecx,1),%edi
    2744:	4c                   	dec    %esp
    2745:	00 00                	add    %al,(%eax)
    2747:	00 01                	add    %al,(%ecx)
    2749:	13 01                	adc    (%ecx),%eax
    274b:	76 69                	jbe    27b6 <mbh-0x2fd84a>
    274d:	70 00                	jo     274f <mbh-0x2fd8b1>
    274f:	03 3e                	add    (%esi),%edi
    2751:	0f 4c 00             	cmovl  (%eax),%eax
    2754:	00 00                	add    %al,(%eax)
    2756:	01 14 01             	add    %edx,(%ecx,%eax,1)
    2759:	69 64 00 03 3f 0f 4c 	imul   $0x4c0f3f,0x3(%eax,%eax,1),%esp
    2760:	00 
    2761:	00 00                	add    %al,(%eax)
    2763:	01 15 01 72 35 00    	add    %edx,0x357201
    2769:	03 40 0f             	add    0xf(%eax),%eax
    276c:	4c                   	dec    %esp
    276d:	00 00                	add    %al,(%eax)
    276f:	00 0a                	add    %cl,(%edx)
    2771:	16                   	push   %ss
    2772:	00 02                	add    %al,(%edx)
    2774:	79 0b                	jns    2781 <mbh-0x2fd87f>
    2776:	00 00                	add    %al,(%eax)
    2778:	03 42 1b             	add    0x1b(%edx),%eax
    277b:	12 02                	adc    (%edx),%al
    277d:	00 00                	add    %al,(%eax)
    277f:	08 c5                	or     %al,%ch
    2781:	0b 00                	or     (%eax),%eax
    2783:	00 04 03             	add    %al,(%ebx,%eax,1)
    2786:	44                   	inc    %esp
    2787:	63 03                	arpl   %eax,(%ebx)
    2789:	00 00                	add    %al,(%eax)
    278b:	04 40                	add    $0x40,%al
    278d:	03 00                	add    (%eax),%eax
    278f:	00 04 06             	add    %al,(%esi,%eax,1)
    2792:	02 00                	add    (%eax),%al
    2794:	00 00                	add    %al,(%eax)
    2796:	02 89 0a 00 00 03    	add    0x300000a(%ecx),%cl
    279c:	49                   	dec    %ecx
    279d:	1b 4c 03 00          	sbb    0x0(%ebx,%eax,1),%ecx
    27a1:	00 0b                	add    %cl,(%ebx)
    27a3:	06                   	push   %es
    27a4:	02 00                	add    (%eax),%al
    27a6:	00 7f 03             	add    %bh,0x3(%edi)
    27a9:	00 00                	add    %al,(%eax)
    27ab:	0c 58                	or     $0x58,%al
    27ad:	00 00                	add    %al,(%eax)
    27af:	00 07                	add    %al,(%edi)
    27b1:	00 07                	add    %al,(%edi)
    27b3:	20 03                	and    %al,(%ebx)
    27b5:	70 04                	jo     27bb <mbh-0x2fd845>
    27b7:	f1                   	int1
    27b8:	03 00                	add    (%eax),%eax
    27ba:	00 03                	add    %al,(%ebx)
    27bc:	65 64 69 00 03 72 11 	gs imul $0x6117203,%fs:(%eax),%eax
    27c3:	06 
    27c4:	02 00                	add    (%eax),%al
    27c6:	00 00                	add    %al,(%eax)
    27c8:	03 65 73             	add    0x73(%ebp),%esp
    27cb:	69 00 03 73 11 06    	imul   $0x6117303,(%eax),%eax
    27d1:	02 00                	add    (%eax),%al
    27d3:	00 04 03             	add    %al,(%ebx,%eax,1)
    27d6:	65 62 70 00          	bound  %esi,%gs:0x0(%eax)
    27da:	03 74 11 06          	add    0x6(%ecx,%edx,1),%esi
    27de:	02 00                	add    (%eax),%al
    27e0:	00 08                	add    %cl,(%eax)
    27e2:	03 65 73             	add    0x73(%ebp),%esp
    27e5:	70 00                	jo     27e7 <mbh-0x2fd819>
    27e7:	03 75 11             	add    0x11(%ebp),%esi
    27ea:	06                   	push   %es
    27eb:	02 00                	add    (%eax),%al
    27ed:	00 0c 03             	add    %cl,(%ebx,%eax,1)
    27f0:	65 62 78 00          	bound  %edi,%gs:0x0(%eax)
    27f4:	03 76 11             	add    0x11(%esi),%esi
    27f7:	06                   	push   %es
    27f8:	02 00                	add    (%eax),%al
    27fa:	00 10                	add    %dl,(%eax)
    27fc:	03 65 64             	add    0x64(%ebp),%esp
    27ff:	78 00                	js     2801 <mbh-0x2fd7ff>
    2801:	03 77 11             	add    0x11(%edi),%esi
    2804:	06                   	push   %es
    2805:	02 00                	add    (%eax),%al
    2807:	00 14 03             	add    %dl,(%ebx,%eax,1)
    280a:	65 63 78 00          	arpl   %edi,%gs:0x0(%eax)
    280e:	03 78 11             	add    0x11(%eax),%edi
    2811:	06                   	push   %es
    2812:	02 00                	add    (%eax),%al
    2814:	00 18                	add    %bl,(%eax)
    2816:	03 65 61             	add    0x61(%ebp),%esp
    2819:	78 00                	js     281b <mbh-0x2fd7e5>
    281b:	03 79 11             	add    0x11(%ecx),%edi
    281e:	06                   	push   %es
    281f:	02 00                	add    (%eax),%al
    2821:	00 1c 00             	add    %bl,(%eax,%eax,1)
    2824:	08 af 0a 00 00 20    	or     %ch,0x2000000a(%edi)
    282a:	03 6e 0f             	add    0xf(%esi),%ebp
    282d:	04 00                	add    $0x0,%al
    282f:	00 04 7f             	add    %al,(%edi,%edi,2)
    2832:	03 00                	add    (%eax),%eax
    2834:	00 09                	add    %cl,(%ecx)
    2836:	72 61                	jb     2899 <mbh-0x2fd767>
    2838:	77 00                	ja     283a <mbh-0x2fd7c6>
    283a:	03 7d 11             	add    0x11(%ebp),%edi
    283d:	6f                   	outsl  %ds:(%esi),(%dx)
    283e:	03 00                	add    (%eax),%eax
    2840:	00 00                	add    %al,(%eax)
    2842:	02 5b 0b             	add    0xb(%ebx),%bl
    2845:	00 00                	add    %al,(%eax)
    2847:	03 7f 1b             	add    0x1b(%edi),%edi
    284a:	f1                   	int1
    284b:	03 00                	add    (%eax),%eax
    284d:	00 07                	add    %al,(%edi)
    284f:	04 04                	add    $0x4,%al
    2851:	44                   	inc    %esp
    2852:	04 68                	add    $0x68,%al
    2854:	04 00                	add    $0x0,%al
    2856:	00 01                	add    %al,(%ecx)
    2858:	65 78 74             	gs js  28cf <mbh-0x2fd731>
    285b:	00 04 46             	add    %al,(%esi,%eax,2)
    285e:	12 4c 00 00          	adc    0x0(%eax,%eax,1),%cl
    2862:	00 01                	add    %al,(%ecx)
    2864:	00 01                	add    %al,(%ecx)
    2866:	69 64 74 00 04 47 12 	imul   $0x4c124704,0x0(%esp,%esi,2),%esp
    286d:	4c 
    286e:	00 00                	add    %al,(%eax)
    2870:	00 01                	add    %al,(%ecx)
    2872:	01 01                	add    %eax,(%ecx)
    2874:	74 69                	je     28df <mbh-0x2fd721>
    2876:	00 04 48             	add    %al,(%eax,%ecx,2)
    2879:	12 4c 00 00          	adc    0x0(%eax,%eax,1),%cl
    287d:	00 01                	add    %al,(%ecx)
    287f:	02 01                	add    (%ecx),%al
    2881:	69 64 78 00 04 49 12 	imul   $0x4c124904,0x0(%eax,%edi,2),%esp
    2888:	4c 
    2889:	00 00                	add    %al,(%eax)
    288b:	00 0d 03 01 72 00    	add    %cl,0x720103
    2891:	04 4a                	add    $0x4a,%al
    2893:	12 4c 00 00          	adc    0x0(%eax,%eax,1),%cl
    2897:	00 10                	add    %dl,(%eax)
    2899:	10 00                	adc    %al,(%eax)
    289b:	08 65 0b             	or     %ah,0xb(%ebp)
    289e:	00 00                	add    %al,(%eax)
    28a0:	04 04                	add    $0x4,%al
    28a2:	42                   	inc    %edx
    28a3:	7f 04                	jg     28a9 <mbh-0x2fd757>
    28a5:	00 00                	add    %al,(%eax)
    28a7:	04 1b                	add    $0x1b,%al
    28a9:	04 00                	add    $0x0,%al
    28ab:	00 04 06             	add    %al,(%esi,%eax,1)
    28ae:	02 00                	add    (%eax),%al
    28b0:	00 00                	add    %al,(%eax)
    28b2:	02 8d 0b 00 00 04    	add    0x400000b(%ebp),%cl
    28b8:	50                   	push   %eax
    28b9:	1b 68 04             	sbb    0x4(%eax),%ebp
    28bc:	00 00                	add    %al,(%eax)
    28be:	07                   	pop    %es
    28bf:	04 04                	add    $0x4,%al
    28c1:	57                   	push   %edi
    28c2:	04 e2                	add    $0xe2,%al
    28c4:	04 00                	add    $0x0,%al
    28c6:	00 01                	add    %al,(%ecx)
    28c8:	70 00                	jo     28ca <mbh-0x2fd736>
    28ca:	04 59                	add    $0x59,%al
    28cc:	15 4c 00 00 00       	adc    $0x4c,%eax
    28d1:	01 00                	add    %eax,(%eax)
    28d3:	01 77 72             	add    %esi,0x72(%edi)
    28d6:	00 04 5a             	add    %al,(%edx,%ebx,2)
    28d9:	15 4c 00 00 00       	adc    $0x4c,%eax
    28de:	01 01                	add    %eax,(%ecx)
    28e0:	01 75 73             	add    %esi,0x73(%ebp)
    28e3:	00 04 5b             	add    %al,(%ebx,%ebx,2)
    28e6:	15 4c 00 00 00       	adc    $0x4c,%eax
    28eb:	01 02                	add    %eax,(%edx)
    28ed:	01 72 73             	add    %esi,0x73(%edx)
    28f0:	76 00                	jbe    28f2 <mbh-0x2fd70e>
    28f2:	04 5c                	add    $0x5c,%al
    28f4:	15 4c 00 00 00       	adc    $0x4c,%eax
    28f9:	01 03                	add    %eax,(%ebx)
    28fb:	01 69 64             	add    %ebp,0x64(%ecx)
    28fe:	00 04 5d 15 4c 00 00 	add    %al,0x4c15(,%ebx,2)
    2905:	00 01                	add    %al,(%ecx)
    2907:	04 01                	add    $0x1,%al
    2909:	72 00                	jb     290b <mbh-0x2fd6f5>
    290b:	04 5e                	add    $0x5e,%al
    290d:	15 4c 00 00 00       	adc    $0x4c,%eax
    2912:	1b 05 00 08 73 0a    	sbb    0xa730800,%eax
    2918:	00 00                	add    %al,(%eax)
    291a:	04 04                	add    $0x4,%al
    291c:	55                   	push   %ebp
    291d:	f9                   	stc
    291e:	04 00                	add    $0x0,%al
    2920:	00 04 8b             	add    %al,(%ebx,%ecx,4)
    2923:	04 00                	add    $0x0,%al
    2925:	00 04 06             	add    %al,(%esi,%eax,1)
    2928:	02 00                	add    (%eax),%al
    292a:	00 00                	add    %al,(%eax)
    292c:	02 96 0a 00 00 04    	add    0x400000a(%esi),%dl
    2932:	64 1b e2             	fs sbb %edx,%esp
    2935:	04 00                	add    $0x0,%al
    2937:	00 08                	add    %cl,(%eax)
    2939:	e6 0a                	out    %al,$0xa
    293b:	00 00                	add    %al,(%eax)
    293d:	04 04                	add    $0x4,%al
    293f:	69 2d 05 00 00 04 06 	imul   $0x206,0x4000005,%ebp
    2946:	02 00 00 
    2949:	09 73 6c             	or     %esi,0x6c(%ebx)
    294c:	00 04 6d 0d 7f 04 00 	add    %al,0x47f0d(,%ebp,2)
    2953:	00 09                	add    %cl,(%ecx)
    2955:	70 66                	jo     29bd <mbh-0x2fd643>
    2957:	00 04 6e             	add    %al,(%esi,%ebp,2)
    295a:	0d f9 04 00 00       	or     $0x4f9,%eax
    295f:	00 02                	add    %al,(%edx)
    2961:	9f                   	lahf
    2962:	0a 00                	or     (%eax),%al
    2964:	00 04 70             	add    %al,(%eax,%esi,2)
    2967:	1b 05 05 00 00 0f    	sbb    0xf000005,%eax
    296d:	fe 0b                	decb   (%ebx)
    296f:	00 00                	add    %al,(%eax)
    2971:	1c 05                	sbb    $0x5,%al
    2973:	29 9e 05 00 00 03    	sub    %ebx,0x3000005(%esi)
    2979:	6e                   	outsb  %ds:(%esi),(%dx)
    297a:	72 00                	jb     297c <mbh-0x2fd684>
    297c:	05 2b 14 06 02       	add    $0x206142b,%eax
    2981:	00 00                	add    %al,(%eax)
    2983:	00 03                	add    %al,(%ebx)
    2985:	65 72 72             	gs jb  29fa <mbh-0x2fd606>
    2988:	00 05 2c 14 2d 05    	add    %al,0x52d142c
    298e:	00 00                	add    %al,(%eax)
    2990:	04 03                	add    $0x3,%al
    2992:	65 69 70 00 05 2d 14 	imul   $0x6142d05,%gs:0x0(%eax),%esi
    2999:	06 
    299a:	02 00                	add    (%eax),%al
    299c:	00 08                	add    %cl,(%eax)
    299e:	03 63 73             	add    0x73(%ebx),%esp
    29a1:	00 05 2e 14 06 02    	add    %al,0x206142e
    29a7:	00 00                	add    %al,(%eax)
    29a9:	0c 06                	or     $0x6,%al
    29ab:	45                   	inc    %ebp
    29ac:	0b 00                	or     (%eax),%eax
    29ae:	00 05 2f 14 63 03    	add    %al,0x363142f
    29b4:	00 00                	add    %al,(%eax)
    29b6:	10 03                	adc    %al,(%ebx)
    29b8:	65 73 70             	gs jae 2a2b <mbh-0x2fd5d5>
    29bb:	00 05 32 14 06 02    	add    %al,0x2061432
    29c1:	00 00                	add    %al,(%eax)
    29c3:	14 03                	adc    $0x3,%al
    29c5:	73 73                	jae    2a3a <mbh-0x2fd5c6>
    29c7:	00 05 33 14 06 02    	add    %al,0x2061433
    29cd:	00 00                	add    %al,(%eax)
    29cf:	18 00                	sbb    %al,(%eax)
    29d1:	02 36                	add    (%esi),%dh
    29d3:	0b 00                	or     (%eax),%eax
    29d5:	00 05 35 1b 39 05    	add    %al,0x5391b35
    29db:	00 00                	add    %al,(%eax)
    29dd:	0f b3 0b             	btr    %ecx,(%ebx)
    29e0:	00 00                	add    %al,(%eax)
    29e2:	3c 05                	cmp    $0x5,%al
    29e4:	38 ca                	cmp    %cl,%dl
    29e6:	05 00 00 03 67       	add    $0x67030000,%eax
    29eb:	70 72                	jo     2a5f <mbh-0x2fd5a1>
    29ed:	00 05 3a 0e 0f 04    	add    %al,0x40f0e3a
    29f3:	00 00                	add    %al,(%eax)
    29f5:	00 12                	add    %dl,(%edx)
    29f7:	9e                   	sahf
    29f8:	05 00 00 20 00       	add    $0x200000,%eax
    29fd:	02 2c 0b             	add    (%ebx,%ecx,1),%ch
    2a00:	00 00                	add    %al,(%eax)
    2a02:	05 3d 1b aa 05       	add    $0x5aa1b3d,%eax
    2a07:	00 00                	add    %al,(%eax)
    2a09:	0e                   	push   %cs
    2a0a:	ca 05 00             	lret   $0x5
    2a0d:	00 0b                	add    %cl,(%ebx)
    2a0f:	9a 00 00 00 eb 05 00 	lcall  $0x5,$0xeb000000
    2a16:	00 0c 58             	add    %cl,(%eax,%ebx,2)
    2a19:	00 00                	add    %al,(%eax)
    2a1b:	00 13                	add    %dl,(%ebx)
    2a1d:	00 1a                	add    %bl,(%edx)
    2a1f:	45                   	inc    %ebp
    2a20:	0c 00                	or     $0x0,%al
    2a22:	00 01                	add    %al,(%ecx)
    2a24:	09 0e                	or     %ecx,(%esi)
    2a26:	db 05 00 00 05 03    	fildl  0x3050000
    2a2c:	00 57 30             	add    %dl,0x30(%edi)
    2a2f:	00 13                	add    %dl,(%ebx)
    2a31:	f8                   	clc
    2a32:	00 00                	add    %al,(%eax)
    2a34:	00 06                	add    %al,(%esi)
    2a36:	0c 0a                	or     $0xa,%al
    2a38:	10 06                	adc    %al,(%esi)
    2a3a:	00 00                	add    %al,(%eax)
    2a3c:	10 10                	adc    %dl,(%eax)
    2a3e:	06                   	push   %es
    2a3f:	00 00                	add    %al,(%eax)
    2a41:	14 00                	adc    $0x0,%al
    2a43:	0e                   	push   %cs
    2a44:	a6                   	cmpsb  %es:(%edi),%ds:(%esi)
    2a45:	00 00                	add    %al,(%eax)
    2a47:	00 13                	add    %dl,(%ebx)
    2a49:	55                   	push   %ebp
    2a4a:	0c 00                	or     $0x0,%al
    2a4c:	00 07                	add    %al,(%edi)
    2a4e:	09 06                	or     %eax,(%esi)
    2a50:	27                   	daa
    2a51:	06                   	push   %es
    2a52:	00 00                	add    %al,(%eax)
    2a54:	10 be 00 00 00 00    	adc    %bh,0x0(%esi)
    2a5a:	1b b4 06 00 00 06 0d 	sbb    0xd060000(%esi,%eax,1),%esi
    2a61:	0a ab 00 00 00 3e    	or     0x3e000000(%ebx),%ch
    2a67:	06                   	push   %es
    2a68:	00 00                	add    %al,(%eax)
    2a6a:	10 10                	adc    %dl,(%eax)
    2a6c:	06                   	push   %es
    2a6d:	00 00                	add    %al,(%eax)
    2a6f:	14 00                	adc    $0x0,%al
    2a71:	1c 0f                	sbb    $0xf,%al
    2a73:	0c 00                	or     $0x0,%al
    2a75:	00 01                	add    %al,(%ecx)
    2a77:	20 15 93 3d 30 00    	and    %dl,0x303d93
    2a7d:	96                   	xchg   %eax,%esi
    2a7e:	01 00                	add    %eax,(%eax)
    2a80:	00 01                	add    %al,(%ecx)
    2a82:	9c                   	pushf
    2a83:	1d 63 74 78 00       	sbb    $0x787463,%eax
    2a88:	01 20                	add    %esp,(%eax)
    2a8a:	2a d6                	sub    %dh,%dl
    2a8c:	05 00 00 02 91       	add    $0x91020000,%eax
    2a91:	5c                   	pop    %esp
    2a92:	11 fc                	adc    %edi,%esp
    2a94:	3d 30 00 09 00       	cmp    $0x90030,%eax
    2a99:	00 00                	add    %al,(%eax)
    2a9b:	79 06                	jns    2aa3 <mbh-0x2fd55d>
    2a9d:	00 00                	add    %al,(%eax)
    2a9f:	0d 78 00 2c 07       	or     $0x72c0078,%eax
    2aa4:	4c                   	dec    %esp
    2aa5:	00 00                	add    %al,(%eax)
    2aa7:	00 02                	add    %al,(%edx)
    2aa9:	91                   	xchg   %eax,%ecx
    2aaa:	6c                   	insb   (%dx),%es:(%edi)
    2aab:	00 11                	add    %dl,(%ecx)
    2aad:	b2 3e                	mov    $0x3e,%dl
    2aaf:	30 00                	xor    %al,(%eax)
    2ab1:	09 00                	or     %eax,(%eax)
    2ab3:	00 00                	add    %al,(%eax)
    2ab5:	93                   	xchg   %eax,%ebx
    2ab6:	06                   	push   %es
    2ab7:	00 00                	add    %al,(%eax)
    2ab9:	0d 78 00 3d 04       	or     $0x43d0078,%eax
    2abe:	4c                   	dec    %esp
    2abf:	00 00                	add    %al,(%eax)
    2ac1:	00 02                	add    %al,(%edx)
    2ac3:	91                   	xchg   %eax,%ecx
    2ac4:	68 00 11 cc 3e       	push   $0x3ecc1100
    2ac9:	30 00                	xor    %al,(%eax)
    2acb:	09 00                	or     %eax,(%eax)
    2acd:	00 00                	add    %al,(%eax)
    2acf:	ad                   	lods   %ds:(%esi),%eax
    2ad0:	06                   	push   %es
    2ad1:	00 00                	add    %al,(%eax)
    2ad3:	0d 78 00 3e 04       	or     $0x43e0078,%eax
    2ad8:	4c                   	dec    %esp
    2ad9:	00 00                	add    %al,(%eax)
    2adb:	00 02                	add    %al,(%edx)
    2add:	91                   	xchg   %eax,%ecx
    2ade:	64 00 1e             	add    %bl,%fs:(%esi)
    2ae1:	e6 3e                	out    %al,$0x3e
    2ae3:	30 00                	xor    %al,(%eax)
    2ae5:	09 00                	or     %eax,(%eax)
    2ae7:	00 00                	add    %al,(%eax)
    2ae9:	0d 78 00 3f 04       	or     $0x43f0078,%eax
    2aee:	4c                   	dec    %esp
    2aef:	00 00                	add    %al,(%eax)
    2af1:	00 02                	add    %al,(%edx)
    2af3:	91                   	xchg   %eax,%ecx
    2af4:	60                   	pusha
    2af5:	00 00                	add    %al,(%eax)
    2af7:	00 ef                	add    %ch,%bh
    2af9:	00 00                	add    %al,(%eax)
    2afb:	00 05 00 01 04 60    	add    %al,0x60040100
    2b01:	0a 00                	or     (%eax),%al
    2b03:	00 05 21 04 00 00    	add    %al,0x421
    2b09:	1d 35 01 00 00       	sbb    $0x135,%eax
    2b0e:	00 00                	add    %al,(%eax)
    2b10:	00 00                	add    %al,(%eax)
    2b12:	29 3f                	sub    %edi,(%edi)
    2b14:	30 00                	xor    %al,(%eax)
    2b16:	56                   	push   %esi
    2b17:	00 00                	add    %al,(%eax)
    2b19:	00 a9 0a 00 00 01    	add    %ch,0x100000a(%ecx)
    2b1f:	01 08                	add    %ecx,(%eax)
    2b21:	db 01                	fildl  (%ecx)
    2b23:	00 00                	add    %al,(%eax)
    2b25:	01 02                	add    %eax,(%edx)
    2b27:	07                   	pop    %es
    2b28:	7d 02                	jge    2b2c <mbh-0x2fd4d4>
    2b2a:	00 00                	add    %al,(%eax)
    2b2c:	01 04 07             	add    %eax,(%edi,%eax,1)
    2b2f:	1f                   	pop    %ds
    2b30:	02 00                	add    (%eax),%al
    2b32:	00 01                	add    %al,(%ecx)
    2b34:	08 07                	or     %al,(%edi)
    2b36:	15 02 00 00 01       	adc    $0x1000002,%eax
    2b3b:	01 06                	add    %eax,(%esi)
    2b3d:	dd 01                	fldl   (%ecx)
    2b3f:	00 00                	add    %al,(%eax)
    2b41:	01 02                	add    %eax,(%edx)
    2b43:	05 ad 00 00 00       	add    $0xad,%eax
    2b48:	06                   	push   %es
    2b49:	04 05                	add    $0x5,%al
    2b4b:	69 6e 74 00 01 08 05 	imul   $0x5080100,0x74(%esi),%ebp
    2b52:	6a 01                	push   $0x1
    2b54:	00 00                	add    %al,(%eax)
    2b56:	01 01                	add    %eax,(%ecx)
    2b58:	06                   	push   %es
    2b59:	e4 01                	in     $0x1,%al
    2b5b:	00 00                	add    %al,(%eax)
    2b5d:	07                   	pop    %es
    2b5e:	5e                   	pop    %esi
    2b5f:	00 00                	add    %al,(%eax)
    2b61:	00 02                	add    %al,(%edx)
    2b63:	b7 00                	mov    $0x0,%bh
    2b65:	00 00                	add    %al,(%eax)
    2b67:	25 74 00 00 00       	and    $0x74,%eax
    2b6c:	01 04 07             	add    %eax,(%edi,%eax,1)
    2b6f:	1a 02                	sbb    (%edx),%al
    2b71:	00 00                	add    %al,(%eax)
    2b73:	02 b0 07 00 00 26    	add    0x26000007(%eax),%dh
    2b79:	74 00                	je     2b7b <mbh-0x2fd485>
    2b7b:	00 00                	add    %al,(%eax)
    2b7d:	08 61 0c             	or     %ah,0xc(%ecx)
    2b80:	00 00                	add    %al,(%eax)
    2b82:	01 06                	add    %eax,(%esi)
    2b84:	11 7b 00             	adc    %edi,0x0(%ebx)
    2b87:	00 00                	add    %al,(%eax)
    2b89:	09 b4 06 00 00 03 0d 	or     %esi,0xd030000(%esi,%eax,1)
    2b90:	0a 6a 00             	or     0x0(%edx),%ch
    2b93:	00 00                	add    %al,(%eax)
    2b95:	a8 00                	test   $0x0,%al
    2b97:	00 00                	add    %al,(%eax)
    2b99:	0a a8 00 00 00 0b    	or     0xb000000(%eax),%ch
    2b9f:	00 03                	add    %al,(%ebx)
    2ba1:	65 00 00             	add    %al,%gs:(%eax)
    2ba4:	00 0c 55 0c 00 00 01 	add    %cl,0x100000c(,%edx,2)
    2bab:	08 06                	or     %al,(%esi)
    2bad:	29 3f                	sub    %edi,(%edi)
    2baf:	30 00                	xor    %al,(%eax)
    2bb1:	56                   	push   %esi
    2bb2:	00 00                	add    %al,(%eax)
    2bb4:	00 01                	add    %al,(%ecx)
    2bb6:	9c                   	pushf
    2bb7:	ed                   	in     (%dx),%eax
    2bb8:	00 00                	add    %al,(%eax)
    2bba:	00 0d 72 0c 00 00    	add    %cl,0xc72
    2bc0:	01 08                	add    %ecx,(%eax)
    2bc2:	1b 7b 00             	sbb    0x0(%ebx),%edi
    2bc5:	00 00                	add    %al,(%eax)
    2bc7:	02 91 00 04 65 62    	add    0x62650400(%ecx),%dl
    2bcd:	70 00                	jo     2bcf <mbh-0x2fd431>
    2bcf:	0e                   	push   %cs
    2bd0:	ed                   	in     (%dx),%eax
    2bd1:	00 00                	add    %al,(%eax)
    2bd3:	00 02                	add    %al,(%edx)
    2bd5:	91                   	xchg   %eax,%ecx
    2bd6:	6c                   	insb   (%dx),%es:(%edi)
    2bd7:	04 65                	add    $0x65,%al
    2bd9:	69 70 00 14 ed 00 00 	imul   $0xed14,0x0(%eax),%esi
    2be0:	00 02                	add    %al,(%edx)
    2be2:	91                   	xchg   %eax,%ecx
    2be3:	68 00 03 7b 00       	push   $0x7b0300
    2be8:	00 00                	add    %al,(%eax)
    2bea:	00 9d 14 00 00 05    	add    %bl,0x5000014(%ebp)
    2bf0:	00 01                	add    %al,(%ecx)
    2bf2:	04 21                	add    $0x21,%al
    2bf4:	0b 00                	or     (%eax),%eax
    2bf6:	00 23                	add    %ah,(%ebx)
    2bf8:	21 04 00             	and    %eax,(%eax,%eax,1)
    2bfb:	00 1d 4c 01 00 00    	add    %bl,0x14c
    2c01:	00 00                	add    %al,(%eax)
    2c03:	00 00                	add    %al,(%eax)
    2c05:	3d 00 00 00 00       	cmp    $0x0,%eax
    2c0a:	00 00                	add    %al,(%eax)
    2c0c:	00 29                	add    %ch,(%ecx)
    2c0e:	0b 00                	or     (%eax),%eax
    2c10:	00 03                	add    %al,(%ebx)
    2c12:	f6 03 00             	testb  $0x0,(%ebx)
    2c15:	00 03                	add    %al,(%ebx)
    2c17:	1a 20                	sbb    (%eax),%ah
    2c19:	32 00                	xor    (%eax),%al
    2c1b:	00 00                	add    %al,(%eax)
    2c1d:	0e                   	push   %cs
    2c1e:	01 08                	add    %ecx,(%eax)
    2c20:	db 01                	fildl  (%ecx)
    2c22:	00 00                	add    %al,(%eax)
    2c24:	03 1b                	add    (%ebx),%ebx
    2c26:	01 00                	add    %eax,(%eax)
    2c28:	00 03                	add    %al,(%ebx)
    2c2a:	1b 20                	sbb    (%eax),%esp
    2c2c:	45                   	inc    %ebp
    2c2d:	00 00                	add    %al,(%eax)
    2c2f:	00 0e                	add    %cl,(%esi)
    2c31:	02 07                	add    (%edi),%al
    2c33:	7d 02                	jge    2c37 <mbh-0x2fd3c9>
    2c35:	00 00                	add    %al,(%eax)
    2c37:	03 a4 00 00 00 03 1c 	add    0x1c030000(%eax,%eax,1),%esp
    2c3e:	20 58 00             	and    %bl,0x0(%eax)
    2c41:	00 00                	add    %al,(%eax)
    2c43:	0e                   	push   %cs
    2c44:	04 07                	add    $0x7,%al
    2c46:	1f                   	pop    %ds
    2c47:	02 00                	add    (%eax),%al
    2c49:	00 03                	add    %al,(%ebx)
    2c4b:	9a 02 00 00 03 1d 20 	lcall  $0x201d,$0x3000002
    2c52:	6b 00 00             	imul   $0x0,(%eax),%eax
    2c55:	00 0e                	add    %cl,(%esi)
    2c57:	08 07                	or     %al,(%edi)
    2c59:	15 02 00 00 0e       	adc    $0xe000002,%eax
    2c5e:	01 06                	add    %eax,(%esi)
    2c60:	dd 01                	fldl   (%ecx)
    2c62:	00 00                	add    %al,(%eax)
    2c64:	03 50 07             	add    0x7(%eax),%edx
    2c67:	00 00                	add    %al,(%eax)
    2c69:	03 20                	add    (%eax),%esp
    2c6b:	20 85 00 00 00 0e    	and    %al,0xe000000(%ebp)
    2c71:	02 05 ad 00 00 00    	add    0xad,%al
    2c77:	03 0d 06 00 00 03    	add    0x3000006,%ecx
    2c7d:	21 20                	and    %esp,(%eax)
    2c7f:	98                   	cwtl
    2c80:	00 00                	add    %al,(%eax)
    2c82:	00 24 04             	add    %ah,(%esp,%eax,1)
    2c85:	05 69 6e 74 00       	add    $0x746e69,%eax
    2c8a:	03 f0                	add    %eax,%esi
    2c8c:	06                   	push   %es
    2c8d:	00 00                	add    %al,(%eax)
    2c8f:	03 22                	add    (%edx),%esp
    2c91:	20 ab 00 00 00 0e    	and    %ch,0xe000000(%ebx)
    2c97:	08 05 6a 01 00 00    	or     %al,0x16a
    2c9d:	03 16                	add    (%esi),%edx
    2c9f:	06                   	push   %es
    2ca0:	00 00                	add    %al,(%eax)
    2ca2:	03 24 20             	add    (%eax,%eiz,1),%esp
    2ca5:	be 00 00 00 09       	mov    $0x9000000,%esi
    2caa:	c3                   	ret
    2cab:	00 00                	add    %al,(%eax)
    2cad:	00 0e                	add    %cl,(%esi)
    2caf:	01 06                	add    %eax,(%esi)
    2cb1:	e4 01                	in     $0x1,%al
    2cb3:	00 00                	add    %al,(%eax)
    2cb5:	25 c3 00 00 00       	and    $0xc3,%eax
    2cba:	03 b7 00 00 00 03    	add    0x3000000(%edi),%esi
    2cc0:	25 20 db 00 00       	and    $0xdb20,%eax
    2cc5:	00 0e                	add    %cl,(%esi)
    2cc7:	04 07                	add    $0x7,%al
    2cc9:	1a 02                	sbb    (%edx),%al
    2ccb:	00 00                	add    %al,(%eax)
    2ccd:	03 b0 07 00 00 03    	add    0x3000007(%eax),%esi
    2cd3:	26 20 db             	es and %bl,%bl
    2cd6:	00 00                	add    %al,(%eax)
    2cd8:	00 03                	add    %al,(%ebx)
    2cda:	99                   	cltd
    2cdb:	0c 00                	or     $0x0,%al
    2cdd:	00 03                	add    %al,(%ebx)
    2cdf:	27                   	daa
    2ce0:	20 db                	and    %bl,%bl
    2ce2:	00 00                	add    %al,(%eax)
    2ce4:	00 26                	add    %ah,(%esi)
    2ce6:	07                   	pop    %es
    2ce7:	04 58                	add    $0x58,%al
    2ce9:	00 00                	add    %al,(%eax)
    2ceb:	00 03                	add    %al,(%ebx)
    2ced:	29 0e                	sub    %ecx,(%esi)
    2cef:	15 01 00 00 1c       	adc    $0x1c000001,%eax
    2cf4:	90                   	nop
    2cf5:	07                   	pop    %es
    2cf6:	00 00                	add    %al,(%eax)
    2cf8:	00 1c 19             	add    %bl,(%ecx,%ebx,1)
    2cfb:	08 00                	or     %al,(%eax)
    2cfd:	00 01                	add    %al,(%ecx)
    2cff:	00 06                	add    %al,(%esi)
    2d01:	02 03                	add    (%ebx),%al
    2d03:	4c                   	dec    %esp
    2d04:	04 39                	add    $0x39,%al
    2d06:	01 00                	add    %eax,(%eax)
    2d08:	00 04 fd 05 00 00 03 	add    %al,0x3000005(,%edi,8)
    2d0f:	4e                   	dec    %esi
    2d10:	0f 26 00             	mov    %eax,%tr0
    2d13:	00 00                	add    %al,(%eax)
    2d15:	00 04 f9             	add    %al,(%ecx,%edi,8)
    2d18:	06                   	push   %es
    2d19:	00 00                	add    %al,(%eax)
    2d1b:	03 4f 0f             	add    0xf(%edi),%ecx
    2d1e:	26 00 00             	add    %al,%es:(%eax)
    2d21:	00 01                	add    %al,(%ecx)
    2d23:	00 0a                	add    %cl,(%edx)
    2d25:	35 06 00 00 02       	xor    $0x2000006,%eax
    2d2a:	03 45 6f             	add    0x6f(%ebp),%eax
    2d2d:	01 00                	add    %eax,(%eax)
    2d2f:	00 07                	add    %al,(%edi)
    2d31:	72 61                	jb     2d94 <mbh-0x2fd26c>
    2d33:	77 00                	ja     2d35 <mbh-0x2fd2cb>
    2d35:	03 47 0d             	add    0xd(%edi),%eax
    2d38:	39 00                	cmp    %eax,(%eax)
    2d3a:	00 00                	add    %al,(%eax)
    2d3c:	0b 3a                	or     (%edx),%edi
    2d3e:	07                   	pop    %es
    2d3f:	00 00                	add    %al,(%eax)
    2d41:	03 48 0d             	add    0xd(%eax),%ecx
    2d44:	79 00                	jns    2d46 <mbh-0x2fd2ba>
    2d46:	00 00                	add    %al,(%eax)
    2d48:	0b bb 06 00 00 03    	or     0x3000006(%ebx),%edi
    2d4e:	49                   	dec    %ecx
    2d4f:	0d 6f 01 00 00       	or     $0x16f,%eax
    2d54:	05 15 01 00 00       	add    $0x115,%eax
    2d59:	00 0f                	add    %cl,(%edi)
    2d5b:	26 00 00             	add    %al,%es:(%eax)
    2d5e:	00 7f 01             	add    %bh,0x1(%edi)
    2d61:	00 00                	add    %al,(%eax)
    2d63:	10 58 00             	adc    %bl,0x0(%eax)
    2d66:	00 00                	add    %al,(%eax)
    2d68:	01 00                	add    %eax,(%eax)
    2d6a:	03 63 06             	add    0x6(%ebx),%esp
    2d6d:	00 00                	add    %al,(%eax)
    2d6f:	03 53 1b             	add    0x1b(%ebx),%edx
    2d72:	39 01                	cmp    %eax,(%ecx)
    2d74:	00 00                	add    %al,(%eax)
    2d76:	06                   	push   %es
    2d77:	04 03                	add    $0x3,%al
    2d79:	5f                   	pop    %edi
    2d7a:	04 af                	add    $0xaf,%al
    2d7c:	01 00                	add    %eax,(%eax)
    2d7e:	00 04 ff             	add    %al,(%edi,%edi,8)
    2d81:	06                   	push   %es
    2d82:	00 00                	add    %al,(%eax)
    2d84:	03 61 0f             	add    0xf(%ecx),%esp
    2d87:	7f 01                	jg     2d8a <mbh-0x2fd276>
    2d89:	00 00                	add    %al,(%eax)
    2d8b:	00 04 fc             	add    %al,(%esp,%edi,8)
    2d8e:	07                   	pop    %es
    2d8f:	00 00                	add    %al,(%eax)
    2d91:	03 62 0f             	add    0xf(%edx),%esp
    2d94:	7f 01                	jg     2d97 <mbh-0x2fd269>
    2d96:	00 00                	add    %al,(%eax)
    2d98:	02 00                	add    (%eax),%al
    2d9a:	06                   	push   %es
    2d9b:	02 03                	add    (%ebx),%al
    2d9d:	6b 0a d3             	imul   $0xffffffd3,(%edx),%ecx
    2da0:	01 00                	add    %eax,(%eax)
    2da2:	00 04 fd 05 00 00 03 	add    %al,0x3000005(,%edi,8)
    2da9:	6d                   	insl   (%dx),%es:(%edi)
    2daa:	15 26 00 00 00       	adc    $0x26,%eax
    2daf:	00 04 f9             	add    %al,(%ecx,%edi,8)
    2db2:	06                   	push   %es
    2db3:	00 00                	add    %al,(%eax)
    2db5:	03 6e 15             	add    0x15(%esi),%ebp
    2db8:	26 00 00             	add    %al,%es:(%eax)
    2dbb:	00 01                	add    %al,(%ecx)
    2dbd:	00 14 02             	add    %dl,(%edx,%eax,1)
    2dc0:	03 69 07             	add    0x7(%ecx),%ebp
    2dc3:	ee                   	out    %al,(%dx)
    2dc4:	01 00                	add    %eax,(%eax)
    2dc6:	00 05 af 01 00 00    	add    %al,0x1af
    2dcc:	0b 00                	or     (%eax),%eax
    2dce:	07                   	pop    %es
    2dcf:	00 00                	add    %al,(%eax)
    2dd1:	03 72 13             	add    0x13(%edx),%esi
    2dd4:	39 00                	cmp    %eax,(%eax)
    2dd6:	00 00                	add    %al,(%eax)
    2dd8:	00 06                	add    %al,(%esi)
    2dda:	04 03                	add    $0x3,%al
    2ddc:	67 04 0b             	addr16 add $0xb,%al
    2ddf:	02 00                	add    (%eax),%al
    2de1:	00 12                	add    %dl,(%edx)
    2de3:	d3 01                	roll   %cl,(%ecx)
    2de5:	00 00                	add    %al,(%eax)
    2de7:	00 04 fd 07 00 00 03 	add    %al,0x3000007(,%edi,8)
    2dee:	76 10                	jbe    2e00 <mbh-0x2fd200>
    2df0:	39 00                	cmp    %eax,(%eax)
    2df2:	00 00                	add    %al,(%eax)
    2df4:	02 00                	add    (%eax),%al
    2df6:	0a 14 07             	or     (%edi,%eax,1),%dl
    2df9:	00 00                	add    %al,(%eax)
    2dfb:	04 03                	add    $0x3,%al
    2dfd:	58                   	pop    %eax
    2dfe:	46                   	inc    %esi
    2dff:	02 00                	add    (%eax),%al
    2e01:	00 07                	add    %al,(%edi)
    2e03:	72 61                	jb     2e66 <mbh-0x2fd19a>
    2e05:	77 00                	ja     2e07 <mbh-0x2fd1f9>
    2e07:	03 5a 0d             	add    0xd(%edx),%ebx
    2e0a:	4c                   	dec    %esp
    2e0b:	00 00                	add    %al,(%eax)
    2e0d:	00 0b                	add    %cl,(%ebx)
    2e0f:	3a 07                	cmp    (%edi),%al
    2e11:	00 00                	add    %al,(%eax)
    2e13:	03 5b 0d             	add    0xd(%ebx),%ebx
    2e16:	8c 00                	mov    %es,(%eax)
    2e18:	00 00                	add    %al,(%eax)
    2e1a:	0b bb 06 00 00 03    	or     0x3000006(%ebx),%edi
    2e20:	5c                   	pop    %esp
    2e21:	0d 46 02 00 00       	or     $0x246,%eax
    2e26:	05 8b 01 00 00       	add    $0x18b,%eax
    2e2b:	05 ee 01 00 00       	add    $0x1ee,%eax
    2e30:	00 0f                	add    %cl,(%edi)
    2e32:	26 00 00             	add    %al,%es:(%eax)
    2e35:	00 56 02             	add    %dl,0x2(%esi)
    2e38:	00 00                	add    %al,(%eax)
    2e3a:	10 58 00             	adc    %bl,0x0(%eax)
    2e3d:	00 00                	add    %al,(%eax)
    2e3f:	03 00                	add    (%eax),%eax
    2e41:	03 7e 07             	add    0x7(%esi),%edi
    2e44:	00 00                	add    %al,(%eax)
    2e46:	03 7a 1b             	add    0x1b(%edx),%edi
    2e49:	0b 02                	or     (%edx),%eax
    2e4b:	00 00                	add    %al,(%eax)
    2e4d:	06                   	push   %es
    2e4e:	08 03                	or     %al,(%ebx)
    2e50:	86 04 86             	xchg   %al,(%esi,%eax,4)
    2e53:	02 00                	add    (%eax),%al
    2e55:	00 04 e1             	add    %al,(%ecx,%eiz,8)
    2e58:	06                   	push   %es
    2e59:	00 00                	add    %al,(%eax)
    2e5b:	03 88 0f 56 02 00    	add    0x2560f(%eax),%ecx
    2e61:	00 00                	add    %al,(%eax)
    2e63:	04 34                	add    $0x34,%al
    2e65:	07                   	pop    %es
    2e66:	00 00                	add    %al,(%eax)
    2e68:	03 89 0f 56 02 00    	add    0x2560f(%ecx),%ecx
    2e6e:	00 04 00             	add    %al,(%eax,%eax,1)
    2e71:	06                   	push   %es
    2e72:	02 03                	add    (%ebx),%al
    2e74:	96                   	xchg   %eax,%esi
    2e75:	10 aa 02 00 00 04    	adc    %ch,0x4000002(%edx)
    2e7b:	fd                   	std
    2e7c:	05 00 00 03 98       	add    $0x98030000,%eax
    2e81:	1b 26                	sbb    (%esi),%esp
    2e83:	00 00                	add    %al,(%eax)
    2e85:	00 00                	add    %al,(%eax)
    2e87:	04 f9                	add    $0xf9,%al
    2e89:	06                   	push   %es
    2e8a:	00 00                	add    %al,(%eax)
    2e8c:	03 99 1b 26 00 00    	add    0x261b(%ecx),%ebx
    2e92:	00 01                	add    %al,(%ecx)
    2e94:	00 14 02             	add    %dl,(%edx,%eax,1)
    2e97:	03 94 0d c5 02 00 00 	add    0x2c5(%ebp,%ecx,1),%edx
    2e9e:	05 86 02 00 00       	add    $0x286,%eax
    2ea3:	0b 00                	or     (%eax),%eax
    2ea5:	07                   	pop    %es
    2ea6:	00 00                	add    %al,(%eax)
    2ea8:	03 9d 19 39 00 00    	add    0x3919(%ebp),%ebx
    2eae:	00 00                	add    %al,(%eax)
    2eb0:	06                   	push   %es
    2eb1:	04 03                	add    $0x3,%al
    2eb3:	92                   	xchg   %eax,%edx
    2eb4:	0a e2                	or     %dl,%ah
    2eb6:	02 00                	add    (%eax),%al
    2eb8:	00 12                	add    %dl,(%edx)
    2eba:	aa                   	stos   %al,%es:(%edi)
    2ebb:	02 00                	add    (%eax),%al
    2ebd:	00 00                	add    %al,(%eax)
    2ebf:	04 fd                	add    $0xfd,%al
    2ec1:	07                   	pop    %es
    2ec2:	00 00                	add    %al,(%eax)
    2ec4:	03 a1 16 39 00 00    	add    0x3916(%ecx),%esp
    2eca:	00 02                	add    %al,(%edx)
    2ecc:	00 14 04             	add    %dl,(%esp,%eax,1)
    2ecf:	03 90 07 fd 02 00    	add    0x2fd07(%eax),%edx
    2ed5:	00 05 c5 02 00 00    	add    %al,0x2c5
    2edb:	07                   	pop    %es
    2edc:	6c                   	insb   (%dx),%es:(%edi)
    2edd:	6f                   	outsl  %ds:(%esi),(%dx)
    2ede:	77 00                	ja     2ee0 <mbh-0x2fd120>
    2ee0:	03 a5 14 4c 00 00    	add    0x4c14(%ebp),%esp
    2ee6:	00 00                	add    %al,(%eax)
    2ee8:	06                   	push   %es
    2ee9:	08 03                	or     %al,(%ebx)
    2eeb:	8e 04 1a             	mov    (%edx,%ebx,1),%es
    2eee:	03 00                	add    (%eax),%eax
    2ef0:	00 12                	add    %dl,(%edx)
    2ef2:	e2 02                	loop   2ef6 <mbh-0x2fd10a>
    2ef4:	00 00                	add    %al,(%eax)
    2ef6:	00 04 35 07 00 00 03 	add    %al,0x3000007(,%esi,1)
    2efd:	a9 11 4c 00 00       	test   $0x4c11,%eax
    2f02:	00 04 00             	add    %al,(%eax,%eax,1)
    2f05:	0a 84 06 00 00 08 03 	or     0x3080000(%esi,%eax,1),%al
    2f0c:	7f 55                	jg     2f63 <mbh-0x2fd09d>
    2f0e:	03 00                	add    (%eax),%eax
    2f10:	00 07                	add    %al,(%edi)
    2f12:	72 61                	jb     2f75 <mbh-0x2fd08b>
    2f14:	77 00                	ja     2f16 <mbh-0x2fd0ea>
    2f16:	03 81 0d 5f 00 00    	add    0x5f0d(%ecx),%eax
    2f1c:	00 0b                	add    %cl,(%ebx)
    2f1e:	3a 07                	cmp    (%edi),%al
    2f20:	00 00                	add    %al,(%eax)
    2f22:	03 82 0d 9f 00 00    	add    0x9f0d(%edx),%eax
    2f28:	00 0b                	add    %cl,(%ebx)
    2f2a:	bb 06 00 00 03       	mov    $0x3000006,%ebx
    2f2f:	83 0d 55 03 00 00 05 	orl    $0x5,0x355
    2f36:	62 02                	bound  %eax,(%edx)
    2f38:	00 00                	add    %al,(%eax)
    2f3a:	05 fd 02 00 00       	add    $0x2fd,%eax
    2f3f:	00 0f                	add    %cl,(%edi)
    2f41:	26 00 00             	add    %al,%es:(%eax)
    2f44:	00 65 03             	add    %ah,0x3(%ebp)
    2f47:	00 00                	add    %al,(%eax)
    2f49:	10 58 00             	adc    %bl,0x0(%eax)
    2f4c:	00 00                	add    %al,(%eax)
    2f4e:	07                   	pop    %es
    2f4f:	00 03                	add    %al,(%ebx)
    2f51:	11 08                	adc    %ecx,(%eax)
    2f53:	00 00                	add    %al,(%eax)
    2f55:	03 ad 1b 1a 03 00    	add    0x31a1b(%ebp),%ebp
    2f5b:	00 0d 0a 07 00 00    	add    %cl,0x70a
    2f61:	04 03                	add    $0x3,%al
    2f63:	b9 10 99 03 00       	mov    $0x39910,%ecx
    2f68:	00 04 ca             	add    %al,(%edx,%ecx,8)
    2f6b:	07                   	pop    %es
    2f6c:	00 00                	add    %al,(%eax)
    2f6e:	03 bb 0d 39 00 00    	add    0x390d(%ebx),%edi
    2f74:	00 00                	add    %al,(%eax)
    2f76:	04 1f                	add    $0x1f,%al
    2f78:	0d 00 00 03 bc       	or     $0xbc030000,%eax
    2f7d:	0d 39 00 00 00       	or     $0x39,%eax
    2f82:	02 00                	add    (%eax),%al
    2f84:	03 f3                	add    %ebx,%esi
    2f86:	07                   	pop    %es
    2f87:	00 00                	add    %al,(%eax)
    2f89:	03 be 1b 71 03 00    	add    0x3711b(%esi),%edi
    2f8f:	00 0d 86 07 00 00    	add    %cl,0x786
    2f95:	06                   	push   %es
    2f96:	03 c0                	add    %eax,%eax
    2f98:	10 cd                	adc    %cl,%ch
    2f9a:	03 00                	add    (%eax),%eax
    2f9c:	00 04 ca             	add    %al,(%edx,%ecx,8)
    2f9f:	07                   	pop    %es
    2fa0:	00 00                	add    %al,(%eax)
    2fa2:	03 c2                	add    %edx,%eax
    2fa4:	0d 4c 00 00 00       	or     $0x4c,%eax
    2fa9:	00 04 1f             	add    %al,(%edi,%ebx,1)
    2fac:	0d 00 00 03 c3       	or     $0xc3030000,%eax
    2fb1:	0d 39 00 00 00       	or     $0x39,%eax
    2fb6:	04 00                	add    $0x0,%al
    2fb8:	03 47 06             	add    0x6(%edi),%eax
    2fbb:	00 00                	add    %al,(%eax)
    2fbd:	03 c5                	add    %ebp,%eax
    2fbf:	1b a5 03 00 00 0d    	sbb    0xd000003(%ebp),%esp
    2fc5:	2b 06                	sub    (%esi),%eax
    2fc7:	00 00                	add    %al,(%eax)
    2fc9:	0a 03                	or     (%ebx),%al
    2fcb:	c7                   	(bad)
    2fcc:	10 01                	adc    %al,(%ecx)
    2fce:	04 00                	add    $0x0,%al
    2fd0:	00 04 ca             	add    %al,(%edx,%ecx,8)
    2fd3:	07                   	pop    %es
    2fd4:	00 00                	add    %al,(%eax)
    2fd6:	03 c9                	add    %ecx,%ecx
    2fd8:	0d 5f 00 00 00       	or     $0x5f,%eax
    2fdd:	00 04 1f             	add    %al,(%edi,%ebx,1)
    2fe0:	0d 00 00 03 ca       	or     $0xca030000,%eax
    2fe5:	0d 39 00 00 00       	or     $0x39,%eax
    2fea:	08 00                	or     %al,(%eax)
    2fec:	03 75 07             	add    0x7(%ebp),%esi
    2fef:	00 00                	add    %al,(%eax)
    2ff1:	03 cc                	add    %esp,%ecx
    2ff3:	1b d9                	sbb    %ecx,%ebx
    2ff5:	03 00                	add    (%eax),%eax
    2ff7:	00 0a                	add    %cl,(%edx)
    2ff9:	a7                   	cmpsl  %es:(%edi),%ds:(%esi)
    2ffa:	07                   	pop    %es
    2ffb:	00 00                	add    %al,(%eax)
    2ffd:	08 03                	or     %al,(%ebx)
    2fff:	d1 96 04 00 00 0b    	rcll   $1,0xb000004(%esi)
    3005:	50                   	push   %eax
    3006:	06                   	push   %es
    3007:	00 00                	add    %al,(%eax)
    3009:	03 d3                	add    %ebx,%edx
    300b:	0e                   	push   %cs
    300c:	e2 00                	loop   300e <mbh-0x2fcff2>
    300e:	00 00                	add    %al,(%eax)
    3010:	0b f8                	or     %eax,%edi
    3012:	05 00 00 03 d5       	add    $0xd5030000,%eax
    3017:	0f 96 04 00          	setbe  (%eax,%eax,1)
    301b:	00 07                	add    %al,(%edi)
    301d:	75 38                	jne    3057 <mbh-0x2fcfa9>
    301f:	00 03                	add    %al,(%ebx)
    3021:	d6                   	(bad)
    3022:	0f 98 04 00          	sets   (%eax,%eax,1)
    3026:	00 07                	add    %al,(%edi)
    3028:	75 31                	jne    305b <mbh-0x2fcfa5>
    302a:	36 00 03             	add    %al,%ss:(%ebx)
    302d:	d7                   	xlat   %ds:(%ebx)
    302e:	0f 9d 04 00          	setge  (%eax,%eax,1)
    3032:	00 07                	add    %al,(%edi)
    3034:	75 33                	jne    3069 <mbh-0x2fcf97>
    3036:	32 00                	xor    (%eax),%al
    3038:	03 d8                	add    %eax,%ebx
    303a:	0f a2                	cpuid
    303c:	04 00                	add    $0x0,%al
    303e:	00 07                	add    %al,(%edi)
    3040:	75 36                	jne    3078 <mbh-0x2fcf88>
    3042:	34 00                	xor    $0x0,%al
    3044:	03 d9                	add    %ecx,%ebx
    3046:	0f                   	xstore-rng (bad)
    3047:	a7                   	cmpsl  %es:(%edi),%ds:(%esi)
    3048:	04 00                	add    $0x0,%al
    304a:	00 07                	add    %al,(%edi)
    304c:	73 74                	jae    30c2 <mbh-0x2fcf3e>
    304e:	72 00                	jb     3050 <mbh-0x2fcfb0>
    3050:	03 db                	add    %ebx,%ebx
    3052:	0e                   	push   %cs
    3053:	b2 00                	mov    $0x0,%dl
    3055:	00 00                	add    %al,(%eax)
    3057:	07                   	pop    %es
    3058:	66 31 36             	xor    %si,(%esi)
    305b:	00 03                	add    %al,(%ebx)
    305d:	dd 0f                	fisttpll (%edi)
    305f:	ac                   	lods   %ds:(%esi),%al
    3060:	04 00                	add    $0x0,%al
    3062:	00 07                	add    %al,(%edi)
    3064:	66 33 32             	xor    (%edx),%si
    3067:	00 03                	add    %al,(%ebx)
    3069:	de 0f                	fimuls (%edi)
    306b:	b1 04                	mov    $0x4,%cl
    306d:	00 00                	add    %al,(%eax)
    306f:	07                   	pop    %es
    3070:	66 36 34 00          	data16 ss xor $0x0,%al
    3074:	03 df                	add    %edi,%ebx
    3076:	0f b6 04 00          	movzbl (%eax,%eax,1),%eax
    307a:	00 05 65 03 00 00    	add    %al,0x365
    3080:	00 27                	add    %ah,(%edi)
    3082:	04 09                	add    $0x9,%al
    3084:	26 00 00             	add    %al,%es:(%eax)
    3087:	00 09                	add    %cl,(%ecx)
    3089:	39 00                	cmp    %eax,(%eax)
    308b:	00 00                	add    %al,(%eax)
    308d:	09 4c 00 00          	or     %ecx,0x0(%eax,%eax,1)
    3091:	00 09                	add    %cl,(%ecx)
    3093:	5f                   	pop    %edi
    3094:	00 00                	add    %al,(%eax)
    3096:	00 09                	add    %cl,(%ecx)
    3098:	99                   	cltd
    3099:	03 00                	add    (%eax),%eax
    309b:	00 09                	add    %cl,(%ecx)
    309d:	cd 03                	int    $0x3
    309f:	00 00                	add    %al,(%eax)
    30a1:	09 01                	or     %eax,(%ecx)
    30a3:	04 00                	add    $0x0,%al
    30a5:	00 03                	add    %al,(%ebx)
    30a7:	0b 08                	or     (%eax),%ecx
    30a9:	00 00                	add    %al,(%eax)
    30ab:	03 e3                	add    %ebx,%esp
    30ad:	1b 0d 04 00 00 0d    	sbb    0xd000004,%ecx
    30b3:	d9 0b                	(bad)  (%ebx)
    30b5:	00 00                	add    %al,(%eax)
    30b7:	04 04                	add    $0x4,%al
    30b9:	26 10 f6             	es adc %dh,%dh
    30bc:	05 00 00 01 63       	add    $0x63010000,%eax
    30c1:	66 00 04 28          	data16 add %al,(%eax,%ebp,1)
    30c5:	0f 4c 00             	cmovl  (%eax),%eax
    30c8:	00 00                	add    %al,(%eax)
    30ca:	01 00                	add    %eax,(%eax)
    30cc:	01 72 31             	add    %esi,0x31(%edx)
    30cf:	00 04 29             	add    %al,(%ecx,%ebp,1)
    30d2:	0f 4c 00             	cmovl  (%eax),%eax
    30d5:	00 00                	add    %al,(%eax)
    30d7:	01 01                	add    %eax,(%ecx)
    30d9:	01 70 66             	add    %esi,0x66(%eax)
    30dc:	00 04 2a             	add    %al,(%edx,%ebp,1)
    30df:	0f 4c 00             	cmovl  (%eax),%eax
    30e2:	00 00                	add    %al,(%eax)
    30e4:	01 02                	add    %eax,(%edx)
    30e6:	01 72 32             	add    %esi,0x32(%edx)
    30e9:	00 04 2b             	add    %al,(%ebx,%ebp,1)
    30ec:	0f 4c 00             	cmovl  (%eax),%eax
    30ef:	00 00                	add    %al,(%eax)
    30f1:	01 03                	add    %eax,(%ebx)
    30f3:	01 61 66             	add    %esp,0x66(%ecx)
    30f6:	00 04 2c             	add    %al,(%esp,%ebp,1)
    30f9:	0f 4c 00             	cmovl  (%eax),%eax
    30fc:	00 00                	add    %al,(%eax)
    30fe:	01 04 01             	add    %eax,(%ecx,%eax,1)
    3101:	72 33                	jb     3136 <mbh-0x2fceca>
    3103:	00 04 2d 0f 4c 00 00 	add    %al,0x4c0f(,%ebp,1)
    310a:	00 01                	add    %al,(%ecx)
    310c:	05 01 7a 66 00       	add    $0x667a01,%eax
    3111:	04 2e                	add    $0x2e,%al
    3113:	0f 4c 00             	cmovl  (%eax),%eax
    3116:	00 00                	add    %al,(%eax)
    3118:	01 06                	add    %eax,(%esi)
    311a:	01 73 66             	add    %esi,0x66(%ebx)
    311d:	00 04 2f             	add    %al,(%edi,%ebp,1)
    3120:	0f 4c 00             	cmovl  (%eax),%eax
    3123:	00 00                	add    %al,(%eax)
    3125:	01 07                	add    %eax,(%edi)
    3127:	01 74 66 00          	add    %esi,0x0(%esi,%eiz,2)
    312b:	04 31                	add    $0x31,%al
    312d:	0f 4c 00             	cmovl  (%eax),%eax
    3130:	00 00                	add    %al,(%eax)
    3132:	01 08                	add    %ecx,(%eax)
    3134:	01 69 74             	add    %ebp,0x74(%ecx)
    3137:	00 04 32             	add    %al,(%edx,%esi,1)
    313a:	0f 4c 00             	cmovl  (%eax),%eax
    313d:	00 00                	add    %al,(%eax)
    313f:	01 09                	add    %ecx,(%ecx)
    3141:	01 64 66 00          	add    %esp,0x0(%esi,%eiz,2)
    3145:	04 33                	add    $0x33,%al
    3147:	0f 4c 00             	cmovl  (%eax),%eax
    314a:	00 00                	add    %al,(%eax)
    314c:	01 0a                	add    %ecx,(%edx)
    314e:	01 6f 66             	add    %ebp,0x66(%edi)
    3151:	00 04 34             	add    %al,(%esp,%esi,1)
    3154:	0f 4c 00             	cmovl  (%eax),%eax
    3157:	00 00                	add    %al,(%eax)
    3159:	01 0b                	add    %ecx,(%ebx)
    315b:	08 0a                	or     %cl,(%edx)
    315d:	0c 00                	or     $0x0,%al
    315f:	00 04 35 0f 4c 00 00 	add    %al,0x4c0f(,%esi,1)
    3166:	00 02                	add    %al,(%edx)
    3168:	0c 01                	or     $0x1,%al
    316a:	6e                   	outsb  %ds:(%esi),(%dx)
    316b:	74 00                	je     316d <mbh-0x2fce93>
    316d:	04 36                	add    $0x36,%al
    316f:	0f 4c 00             	cmovl  (%eax),%eax
    3172:	00 00                	add    %al,(%eax)
    3174:	01 0e                	add    %ecx,(%esi)
    3176:	01 72 34             	add    %esi,0x34(%edx)
    3179:	00 04 37             	add    %al,(%edi,%esi,1)
    317c:	0f 4c 00             	cmovl  (%eax),%eax
    317f:	00 00                	add    %al,(%eax)
    3181:	01 0f                	add    %ecx,(%edi)
    3183:	01 72 66             	add    %esi,0x66(%edx)
    3186:	00 04 39             	add    %al,(%ecx,%edi,1)
    3189:	0f 4c 00             	cmovl  (%eax),%eax
    318c:	00 00                	add    %al,(%eax)
    318e:	01 10                	add    %edx,(%eax)
    3190:	01 76 6d             	add    %esi,0x6d(%esi)
    3193:	00 04 3a             	add    %al,(%edx,%edi,1)
    3196:	0f 4c 00             	cmovl  (%eax),%eax
    3199:	00 00                	add    %al,(%eax)
    319b:	01 11                	add    %edx,(%ecx)
    319d:	01 61 63             	add    %esp,0x63(%ecx)
    31a0:	00 04 3b             	add    %al,(%ebx,%edi,1)
    31a3:	0f 4c 00             	cmovl  (%eax),%eax
    31a6:	00 00                	add    %al,(%eax)
    31a8:	01 12                	add    %edx,(%edx)
    31aa:	01 76 69             	add    %esi,0x69(%esi)
    31ad:	74 00                	je     31af <mbh-0x2fce51>
    31af:	04 3c                	add    $0x3c,%al
    31b1:	0f 4c 00             	cmovl  (%eax),%eax
    31b4:	00 00                	add    %al,(%eax)
    31b6:	01 13                	add    %edx,(%ebx)
    31b8:	01 76 69             	add    %esi,0x69(%esi)
    31bb:	70 00                	jo     31bd <mbh-0x2fce43>
    31bd:	04 3e                	add    $0x3e,%al
    31bf:	0f 4c 00             	cmovl  (%eax),%eax
    31c2:	00 00                	add    %al,(%eax)
    31c4:	01 14 01             	add    %edx,(%ecx,%eax,1)
    31c7:	69 64 00 04 3f 0f 4c 	imul   $0x4c0f3f,0x4(%eax,%eax,1),%esp
    31ce:	00 
    31cf:	00 00                	add    %al,(%eax)
    31d1:	01 15 01 72 35 00    	add    %edx,0x357201
    31d7:	04 40                	add    $0x40,%al
    31d9:	0f 4c 00             	cmovl  (%eax),%eax
    31dc:	00 00                	add    %al,(%eax)
    31de:	0a 16                	or     (%esi),%dl
    31e0:	00 03                	add    %al,(%ebx)
    31e2:	79 0b                	jns    31ef <mbh-0x2fce11>
    31e4:	00 00                	add    %al,(%eax)
    31e6:	04 42                	add    $0x42,%al
    31e8:	1b c7                	sbb    %edi,%eax
    31ea:	04 00                	add    $0x0,%al
    31ec:	00 0a                	add    %cl,(%edx)
    31ee:	c5 0b                	lds    (%ebx),%ecx
    31f0:	00 00                	add    %al,(%eax)
    31f2:	04 04                	add    $0x4,%al
    31f4:	44                   	inc    %esp
    31f5:	19 06                	sbb    %eax,(%esi)
    31f7:	00 00                	add    %al,(%eax)
    31f9:	05 f6 05 00 00       	add    $0x5f6,%eax
    31fe:	05 56 02 00 00       	add    $0x256,%eax
    3203:	00 03                	add    %al,(%ebx)
    3205:	89 0a                	mov    %ecx,(%edx)
    3207:	00 00                	add    %al,(%eax)
    3209:	04 49                	add    $0x49,%al
    320b:	1b 02                	sbb    (%edx),%eax
    320d:	06                   	push   %es
    320e:	00 00                	add    %al,(%eax)
    3210:	06                   	push   %es
    3211:	20 04 5a             	and    %al,(%edx,%ebx,2)
    3214:	04 97                	add    $0x97,%al
    3216:	06                   	push   %es
    3217:	00 00                	add    %al,(%eax)
    3219:	02 65 61             	add    0x61(%ebp),%ah
    321c:	78 00                	js     321e <mbh-0x2fcde2>
    321e:	04 5c                	add    $0x5c,%al
    3220:	11 56 02             	adc    %edx,0x2(%esi)
    3223:	00 00                	add    %al,(%eax)
    3225:	00 02                	add    %al,(%edx)
    3227:	65 63 78 00          	arpl   %edi,%gs:0x0(%eax)
    322b:	04 5d                	add    $0x5d,%al
    322d:	11 56 02             	adc    %edx,0x2(%esi)
    3230:	00 00                	add    %al,(%eax)
    3232:	04 02                	add    $0x2,%al
    3234:	65 64 78 00          	gs fs js 3238 <mbh-0x2fcdc8>
    3238:	04 5e                	add    $0x5e,%al
    323a:	11 56 02             	adc    %edx,0x2(%esi)
    323d:	00 00                	add    %al,(%eax)
    323f:	08 02                	or     %al,(%edx)
    3241:	65 62 78 00          	bound  %edi,%gs:0x0(%eax)
    3245:	04 5f                	add    $0x5f,%al
    3247:	11 56 02             	adc    %edx,0x2(%esi)
    324a:	00 00                	add    %al,(%eax)
    324c:	0c 02                	or     $0x2,%al
    324e:	65 73 70             	gs jae 32c1 <mbh-0x2fcd3f>
    3251:	00 04 60             	add    %al,(%eax,%eiz,2)
    3254:	11 56 02             	adc    %edx,0x2(%esi)
    3257:	00 00                	add    %al,(%eax)
    3259:	10 02                	adc    %al,(%edx)
    325b:	65 62 70 00          	bound  %esi,%gs:0x0(%eax)
    325f:	04 61                	add    $0x61,%al
    3261:	11 56 02             	adc    %edx,0x2(%esi)
    3264:	00 00                	add    %al,(%eax)
    3266:	14 02                	adc    $0x2,%al
    3268:	65 73 69             	gs jae 32d4 <mbh-0x2fcd2c>
    326b:	00 04 62             	add    %al,(%edx,%eiz,2)
    326e:	11 56 02             	adc    %edx,0x2(%esi)
    3271:	00 00                	add    %al,(%eax)
    3273:	18 02                	sbb    %al,(%edx)
    3275:	65 64 69 00 04 63 11 	gs imul $0x56116304,%fs:(%eax),%eax
    327c:	56 
    327d:	02 00                	add    (%eax),%al
    327f:	00 1c 00             	add    %bl,(%eax,%eax,1)
    3282:	0a 5c 0f 00          	or     0x0(%edi,%ecx,1),%bl
    3286:	00 20                	add    %ah,(%eax)
    3288:	04 58                	add    $0x58,%al
    328a:	b5 06                	mov    $0x6,%ch
    328c:	00 00                	add    %al,(%eax)
    328e:	05 25 06 00 00       	add    $0x625,%eax
    3293:	07                   	pop    %es
    3294:	72 61                	jb     32f7 <mbh-0x2fcd09>
    3296:	77 00                	ja     3298 <mbh-0x2fcd68>
    3298:	04 67                	add    $0x67,%al
    329a:	11 b5 06 00 00 00    	adc    %esi,0x6(%ebp)
    32a0:	0f 56 02             	orps   (%edx),%xmm0
    32a3:	00 00                	add    %al,(%eax)
    32a5:	c5 06                	lds    (%esi),%eax
    32a7:	00 00                	add    %al,(%eax)
    32a9:	10 58 00             	adc    %bl,0x0(%eax)
    32ac:	00 00                	add    %al,(%eax)
    32ae:	07                   	pop    %es
    32af:	00 03                	add    %al,(%ebx)
    32b1:	38 0d 00 00 04 69    	cmp    %cl,0x69040000
    32b7:	1b 97 06 00 00 06    	sbb    0x6000006(%edi),%edx
    32bd:	20 04 70             	and    %al,(%eax,%esi,2)
    32c0:	04 43                	add    $0x43,%al
    32c2:	07                   	pop    %es
    32c3:	00 00                	add    %al,(%eax)
    32c5:	02 65 64             	add    0x64(%ebp),%ah
    32c8:	69 00 04 72 11 56    	imul   $0x56117204,(%eax),%eax
    32ce:	02 00                	add    (%eax),%al
    32d0:	00 00                	add    %al,(%eax)
    32d2:	02 65 73             	add    0x73(%ebp),%ah
    32d5:	69 00 04 73 11 56    	imul   $0x56117304,(%eax),%eax
    32db:	02 00                	add    (%eax),%al
    32dd:	00 04 02             	add    %al,(%edx,%eax,1)
    32e0:	65 62 70 00          	bound  %esi,%gs:0x0(%eax)
    32e4:	04 74                	add    $0x74,%al
    32e6:	11 56 02             	adc    %edx,0x2(%esi)
    32e9:	00 00                	add    %al,(%eax)
    32eb:	08 02                	or     %al,(%edx)
    32ed:	65 73 70             	gs jae 3360 <mbh-0x2fcca0>
    32f0:	00 04 75 11 56 02 00 	add    %al,0x25611(,%esi,2)
    32f7:	00 0c 02             	add    %cl,(%edx,%eax,1)
    32fa:	65 62 78 00          	bound  %edi,%gs:0x0(%eax)
    32fe:	04 76                	add    $0x76,%al
    3300:	11 56 02             	adc    %edx,0x2(%esi)
    3303:	00 00                	add    %al,(%eax)
    3305:	10 02                	adc    %al,(%edx)
    3307:	65 64 78 00          	gs fs js 330b <mbh-0x2fccf5>
    330b:	04 77                	add    $0x77,%al
    330d:	11 56 02             	adc    %edx,0x2(%esi)
    3310:	00 00                	add    %al,(%eax)
    3312:	14 02                	adc    $0x2,%al
    3314:	65 63 78 00          	arpl   %edi,%gs:0x0(%eax)
    3318:	04 78                	add    $0x78,%al
    331a:	11 56 02             	adc    %edx,0x2(%esi)
    331d:	00 00                	add    %al,(%eax)
    331f:	18 02                	sbb    %al,(%edx)
    3321:	65 61                	gs popa
    3323:	78 00                	js     3325 <mbh-0x2fccdb>
    3325:	04 79                	add    $0x79,%al
    3327:	11 56 02             	adc    %edx,0x2(%esi)
    332a:	00 00                	add    %al,(%eax)
    332c:	1c 00                	sbb    $0x0,%al
    332e:	0a af 0a 00 00 20    	or     0x2000000a(%edi),%ch
    3334:	04 6e                	add    $0x6e,%al
    3336:	61                   	popa
    3337:	07                   	pop    %es
    3338:	00 00                	add    %al,(%eax)
    333a:	05 d1 06 00 00       	add    $0x6d1,%eax
    333f:	07                   	pop    %es
    3340:	72 61                	jb     33a3 <mbh-0x2fcc5d>
    3342:	77 00                	ja     3344 <mbh-0x2fccbc>
    3344:	04 7d                	add    $0x7d,%al
    3346:	11 b5 06 00 00 00    	adc    %esi,0x6(%ebp)
    334c:	03 5b 0b             	add    0xb(%ebx),%ebx
    334f:	00 00                	add    %al,(%eax)
    3351:	04 7f                	add    $0x7f,%al
    3353:	1b 43 07             	sbb    0x7(%ebx),%eax
    3356:	00 00                	add    %al,(%eax)
    3358:	06                   	push   %es
    3359:	08 05 58 04 23 08    	or     %al,0x8230458
    335f:	00 00                	add    %al,(%eax)
    3361:	08 c8                	or     %cl,%al
    3363:	0d 00 00 05 5a       	or     $0x5a050000,%eax
    3368:	13 5f 00             	adc    0x0(%edi),%ebx
    336b:	00 00                	add    %al,(%eax)
    336d:	10 00                	adc    %al,(%eax)
    336f:	08 95 0e 00 00 05    	or     %dl,0x500000e(%ebp)
    3375:	5b                   	pop    %ebx
    3376:	13 5f 00             	adc    0x0(%edi),%ebx
    3379:	00 00                	add    %al,(%eax)
    337b:	10 10                	adc    %dl,(%eax)
    337d:	08 9c 0e 00 00 05 5c 	or     %bl,0x5c050000(%esi,%ecx,1)
    3384:	13 5f 00             	adc    0x0(%edi),%ebx
    3387:	00 00                	add    %al,(%eax)
    3389:	08 20                	or     %ah,(%eax)
    338b:	08 09                	or     %cl,(%ecx)
    338d:	03 00                	add    (%eax),%eax
    338f:	00 05 5d 13 5f 00    	add    %al,0x5f135d
    3395:	00 00                	add    %al,(%eax)
    3397:	04 28                	add    $0x28,%al
    3399:	01 73 00             	add    %esi,0x0(%ebx)
    339c:	05 5e 13 5f 00       	add    $0x5f135e,%eax
    33a1:	00 00                	add    %al,(%eax)
    33a3:	01 2c 01             	add    %ebp,(%ecx,%eax,1)
    33a6:	64 70 6c             	fs jo  3415 <mbh-0x2fcbeb>
    33a9:	00 05 5f 13 5f 00    	add    %al,0x5f135f
    33af:	00 00                	add    %al,(%eax)
    33b1:	02 2d 01 70 00 05    	add    0x5007001,%ch
    33b7:	60                   	pusha
    33b8:	13 5f 00             	adc    0x0(%edi),%ebx
    33bb:	00 00                	add    %al,(%eax)
    33bd:	01 2f                	add    %ebp,(%edi)
    33bf:	08 b7 0c 00 00 05    	or     %dh,0x500000c(%edi)
    33c5:	61                   	popa
    33c6:	13 5f 00             	adc    0x0(%edi),%ebx
    33c9:	00 00                	add    %al,(%eax)
    33cb:	04 30                	add    $0x30,%al
    33cd:	01 61 76             	add    %esp,0x76(%ecx)
    33d0:	6c                   	insb   (%dx),%es:(%edi)
    33d1:	00 05 62 13 5f 00    	add    %al,0x5f1362
    33d7:	00 00                	add    %al,(%eax)
    33d9:	01 34 01             	add    %esi,(%ecx,%eax,1)
    33dc:	6c                   	insb   (%dx),%es:(%edi)
    33dd:	00 05 63 13 5f 00    	add    %al,0x5f1363
    33e3:	00 00                	add    %al,(%eax)
    33e5:	01 35 01 64 00 05    	add    %esi,0x5006401
    33eb:	64 13 5f 00          	adc    %fs:0x0(%edi),%ebx
    33ef:	00 00                	add    %al,(%eax)
    33f1:	01 36                	add    %esi,(%esi)
    33f3:	01 67 00             	add    %esp,0x0(%edi)
    33f6:	05 65 13 5f 00       	add    $0x5f1365,%eax
    33fb:	00 00                	add    %al,(%eax)
    33fd:	01 37                	add    %esi,(%edi)
    33ff:	08 a3 0e 00 00 05    	or     %ah,0x500000e(%ebx)
    3405:	66 13 5f 00          	adc    0x0(%edi),%bx
    3409:	00 00                	add    %al,(%eax)
    340b:	08 38                	or     %bh,(%eax)
    340d:	00 0a                	add    %cl,(%edx)
    340f:	52                   	push   %edx
    3410:	0e                   	push   %cs
    3411:	00 00                	add    %al,(%eax)
    3413:	08 05 56 3a 08 00    	or     %al,0x83a56
    3419:	00 05 6d 07 00 00    	add    %al,0x76d
    341f:	05 65 03 00 00       	add    $0x365,%eax
    3424:	00 03                	add    %al,(%ebx)
    3426:	d3 0c 00             	rorl   %cl,(%eax,%eax,1)
    3429:	00 05 6c 1b 23 08    	add    %al,0x8231b6c
    342f:	00 00                	add    %al,(%eax)
    3431:	14 04                	adc    $0x4,%al
    3433:	05 74 04 68 08       	add    $0x8680474,%eax
    3438:	00 00                	add    %al,(%eax)
    343a:	0b f8                	or     %eax,%edi
    343c:	05 00 00 05 76       	add    $0x76050000,%eax
    3441:	18 e2                	sbb    %ah,%dl
    3443:	00 00                	add    %al,(%eax)
    3445:	00 0b                	add    %cl,(%ebx)
    3447:	40                   	inc    %eax
    3448:	0b 00                	or     (%eax),%eax
    344a:	00 05 77 19 68 08    	add    %al,0x8681977
    3450:	00 00                	add    %al,(%eax)
    3452:	00 09                	add    %cl,(%ecx)
    3454:	3a 08                	cmp    (%eax),%cl
    3456:	00 00                	add    %al,(%eax)
    3458:	0d f3 0c 00 00       	or     $0xcf3,%eax
    345d:	06                   	push   %es
    345e:	05 71 10 8e 08       	add    $0x88e1071,%eax
    3463:	00 00                	add    %al,(%eax)
    3465:	04 02                	add    $0x2,%al
    3467:	0b 00                	or     (%eax),%eax
    3469:	00 05 73 18 39 00    	add    %al,0x391873
    346f:	00 00                	add    %al,(%eax)
    3471:	00 12                	add    %dl,(%edx)
    3473:	46                   	inc    %esi
    3474:	08 00                	or     %al,(%eax)
    3476:	00 02                	add    %al,(%edx)
    3478:	00 03                	add    %al,(%ebx)
    347a:	08 0f                	or     %cl,(%edi)
    347c:	00 00                	add    %al,(%eax)
    347e:	05 7a 1b 6d 08       	add    $0x86d1b7a,%eax
    3483:	00 00                	add    %al,(%eax)
    3485:	0d 65 0e 00 00       	or     $0xe65,%eax
    348a:	08 05 90 10 ce 08    	or     %al,0x8ce1090
    3490:	00 00                	add    %al,(%eax)
    3492:	02 65 73             	add    0x73(%ebp),%ah
    3495:	70 00                	jo     3497 <mbh-0x2fcb69>
    3497:	05 92 0d 4c 00       	add    $0x4c0d92,%eax
    349c:	00 00                	add    %al,(%eax)
    349e:	00 02                	add    %al,(%edx)
    34a0:	73 73                	jae    3515 <mbh-0x2fcaeb>
    34a2:	00 05 93 0d 39 00    	add    %al,0x390d93
    34a8:	00 00                	add    %al,(%eax)
    34aa:	04 02                	add    $0x2,%al
    34ac:	70 61                	jo     350f <mbh-0x2fcaf1>
    34ae:	64 00 05 94 0d 39 00 	add    %al,%fs:0x390d94
    34b5:	00 00                	add    %al,(%eax)
    34b7:	06                   	push   %es
    34b8:	00 03                	add    %al,(%ebx)
    34ba:	23 0f                	and    (%edi),%ecx
    34bc:	00 00                	add    %al,(%eax)
    34be:	05 96 1b 9a 08       	add    $0x89a1b96,%eax
    34c3:	00 00                	add    %al,(%eax)
    34c5:	1d 2f 0f 00 00       	sbb    $0xf2f,%eax
    34ca:	23 20                	and    (%eax),%esp
    34cc:	98                   	cwtl
    34cd:	1b 09                	sbb    (%ecx),%ecx
    34cf:	00 00                	add    %al,(%eax)
    34d1:	04 f8                	add    $0xf8,%al
    34d3:	05 00 00 05 9a       	add    $0x9a050000,%eax
    34d8:	0d 39 00 00 00       	or     $0x39,%eax
    34dd:	00 04 d0             	add    %al,(%eax,%edx,8)
    34e0:	0d 00 00 05 9b       	or     $0x9b050000,%eax
    34e5:	0d 1b 09 00 00       	or     $0x91b,%eax
    34ea:	02 02                	add    (%edx),%al
    34ec:	69 6f 00 05 9c 0d 2b 	imul   $0x2b0d9c05,0x0(%edi),%ebp
    34f3:	09 00                	or     %eax,(%eax)
    34f5:	00 22                	add    %ah,(%edx)
    34f7:	28 ea                	sub    %ch,%dl
    34f9:	0c 00                	or     $0x0,%al
    34fb:	00 05 9d 0d 26 00    	add    %al,0x260d9d
    3501:	00 00                	add    %al,(%eax)
    3503:	22 20                	and    (%eax),%ah
    3505:	00 0f                	add    %cl,(%edi)
    3507:	26 00 00             	add    %al,%es:(%eax)
    350a:	00 2b                	add    %ch,(%ebx)
    350c:	09 00                	or     %eax,(%eax)
    350e:	00 10                	add    %dl,(%eax)
    3510:	58                   	pop    %eax
    3511:	00 00                	add    %al,(%eax)
    3513:	00 1f                	add    %bl,(%edi)
    3515:	00 0f                	add    %cl,(%edi)
    3517:	26 00 00             	add    %al,%es:(%eax)
    351a:	00 3c 09             	add    %bh,(%ecx,%ecx,1)
    351d:	00 00                	add    %al,(%eax)
    351f:	1e                   	push   %ds
    3520:	58                   	pop    %eax
    3521:	00 00                	add    %al,(%eax)
    3523:	00 ff                	add    %bh,%bh
    3525:	1f                   	pop    %ds
    3526:	00 03                	add    %al,(%ebx)
    3528:	2d 0d 00 00 05       	sub    $0x500000d,%eax
    352d:	9f                   	lahf
    352e:	1b da                	sbb    %edx,%ebx
    3530:	08 00                	or     %al,(%eax)
    3532:	00 06                	add    %al,(%esi)
    3534:	02 05 a3 04 6d 09    	add    0x96d04a3,%al
    353a:	00 00                	add    %al,(%eax)
    353c:	01 6f 6e             	add    %ebp,0x6e(%edi)
    353f:	00 05 a5 10 39 00    	add    %al,0x3910a5
    3545:	00 00                	add    %al,(%eax)
    3547:	01 00                	add    %eax,(%eax)
    3549:	01 70 61             	add    %esi,0x61(%eax)
    354c:	64 00 05 a6 10 39 00 	add    %al,%fs:0x3910a6
    3553:	00 00                	add    %al,(%eax)
    3555:	0f 01 00             	sgdtl  (%eax)
    3558:	0a ce                	or     %dh,%cl
    355a:	0e                   	push   %cs
    355b:	00 00                	add    %al,(%eax)
    355d:	02 05 a1 8b 09 00    	add    0x98ba1,%al
    3563:	00 05 48 09 00 00    	add    %al,0x948
    3569:	07                   	pop    %es
    356a:	72 61                	jb     35cd <mbh-0x2fca33>
    356c:	77 00                	ja     356e <mbh-0x2fca92>
    356e:	05 aa 10 39 00       	add    $0x3910aa,%eax
    3573:	00 00                	add    %al,(%eax)
    3575:	00 03                	add    %al,(%ebx)
    3577:	b2 0e                	mov    $0xe,%dl
    3579:	00 00                	add    %al,(%eax)
    357b:	05 ac 1b 6d 09       	add    $0x96d1bac,%eax
    3580:	00 00                	add    %al,(%eax)
    3582:	1d 14 0d 00 00       	sbb    $0xd14,%eax
    3587:	89 20                	mov    %esp,(%eax)
    3589:	b1 da                	mov    $0xda,%cl
    358b:	0a 00                	or     (%eax),%al
    358d:	00 04 d5 0d 00 00 05 	add    %al,0x500000d(,%edx,8)
    3594:	b3 11                	mov    $0x11,%bl
    3596:	39 00                	cmp    %eax,(%eax)
    3598:	00 00                	add    %al,(%eax)
    359a:	00 02                	add    %al,(%edx)
    359c:	72 31                	jb     35cf <mbh-0x2fca31>
    359e:	00 05 b3 1c 39 00    	add    %al,0x391cb3
    35a4:	00 00                	add    %al,(%eax)
    35a6:	02 02                	add    (%edx),%al
    35a8:	73 30                	jae    35da <mbh-0x2fca26>
    35aa:	00 05 b5 11 ce 08    	add    %al,0x8ce11b5
    35b0:	00 00                	add    %al,(%eax)
    35b2:	04 02                	add    $0x2,%al
    35b4:	73 31                	jae    35e7 <mbh-0x2fca19>
    35b6:	00 05 b6 11 ce 08    	add    %al,0x8ce11b6
    35bc:	00 00                	add    %al,(%eax)
    35be:	0c 02                	or     $0x2,%al
    35c0:	73 32                	jae    35f4 <mbh-0x2fca0c>
    35c2:	00 05 b7 11 ce 08    	add    %al,0x8ce11b7
    35c8:	00 00                	add    %al,(%eax)
    35ca:	14 02                	adc    $0x2,%al
    35cc:	63 72 33             	arpl   %esi,0x33(%edx)
    35cf:	00 05 b9 11 4c 00    	add    %al,0x4c11b9
    35d5:	00 00                	add    %al,(%eax)
    35d7:	1c 02                	sbb    $0x2,%al
    35d9:	65 69 70 00 05 ba 11 	imul   $0x4c11ba05,%gs:0x0(%eax),%esi
    35e0:	4c 
    35e1:	00 00                	add    %al,(%eax)
    35e3:	00 20                	add    %ah,(%eax)
    35e5:	04 45                	add    $0x45,%al
    35e7:	0b 00                	or     (%eax),%eax
    35e9:	00 05 bb 11 19 06    	add    %al,0x61911bb
    35ef:	00 00                	add    %al,(%eax)
    35f1:	24 02                	and    $0x2,%al
    35f3:	67 70 72             	addr16 jo 3668 <mbh-0x2fc998>
    35f6:	00 05 bc 11 c5 06    	add    %al,0x6c511bc
    35fc:	00 00                	add    %al,(%eax)
    35fe:	28 02                	sub    %al,(%edx)
    3600:	65 73 00             	gs jae 3603 <mbh-0x2fc9fd>
    3603:	05 bd 11 39 00       	add    $0x3911bd,%eax
    3608:	00 00                	add    %al,(%eax)
    360a:	48                   	dec    %eax
    360b:	02 72 35             	add    0x35(%edx),%dh
    360e:	00 05 bd 15 39 00    	add    %al,0x3915bd
    3614:	00 00                	add    %al,(%eax)
    3616:	4a                   	dec    %edx
    3617:	02 63 73             	add    0x73(%ebx),%ah
    361a:	00 05 be 11 39 00    	add    %al,0x3911be
    3620:	00 00                	add    %al,(%eax)
    3622:	4c                   	dec    %esp
    3623:	02 72 36             	add    0x36(%edx),%dh
    3626:	00 05 be 15 39 00    	add    %al,0x3915be
    362c:	00 00                	add    %al,(%eax)
    362e:	4e                   	dec    %esi
    362f:	02 73 73             	add    0x73(%ebx),%dh
    3632:	00 05 bf 11 39 00    	add    %al,0x3911bf
    3638:	00 00                	add    %al,(%eax)
    363a:	50                   	push   %eax
    363b:	02 72 37             	add    0x37(%edx),%dh
    363e:	00 05 bf 15 39 00    	add    %al,0x3915bf
    3644:	00 00                	add    %al,(%eax)
    3646:	52                   	push   %edx
    3647:	02 64 73 00          	add    0x0(%ebx,%esi,2),%ah
    364b:	05 c0 11 39 00       	add    $0x3911c0,%eax
    3650:	00 00                	add    %al,(%eax)
    3652:	54                   	push   %esp
    3653:	02 72 38             	add    0x38(%edx),%dh
    3656:	00 05 c0 15 39 00    	add    %al,0x3915c0
    365c:	00 00                	add    %al,(%eax)
    365e:	56                   	push   %esi
    365f:	02 66 73             	add    0x73(%esi),%ah
    3662:	00 05 c1 11 39 00    	add    %al,0x3911c1
    3668:	00 00                	add    %al,(%eax)
    366a:	58                   	pop    %eax
    366b:	02 72 39             	add    0x39(%edx),%dh
    366e:	00 05 c1 15 39 00    	add    %al,0x3915c1
    3674:	00 00                	add    %al,(%eax)
    3676:	5a                   	pop    %edx
    3677:	02 67 73             	add    0x73(%edi),%ah
    367a:	00 05 c2 11 39 00    	add    %al,0x3911c2
    3680:	00 00                	add    %al,(%eax)
    3682:	5c                   	pop    %esp
    3683:	02 72 31             	add    0x31(%edx),%dh
    3686:	30 00                	xor    %al,(%eax)
    3688:	05 c2 15 39 00       	add    $0x3915c2,%eax
    368d:	00 00                	add    %al,(%eax)
    368f:	5e                   	pop    %esi
    3690:	02 6c 64 74          	add    0x74(%esp,%eiz,2),%ch
    3694:	00 05 c3 11 39 00    	add    %al,0x3911c3
    369a:	00 00                	add    %al,(%eax)
    369c:	60                   	pusha
    369d:	02 72 31             	add    0x31(%edx),%dh
    36a0:	31 00                	xor    %eax,(%eax)
    36a2:	05 c3 16 39 00       	add    $0x3916c3,%eax
    36a7:	00 00                	add    %al,(%eax)
    36a9:	62 04 e1             	bound  %eax,(%ecx,%eiz,8)
    36ac:	0e                   	push   %cs
    36ad:	00 00                	add    %al,(%eax)
    36af:	05 c5 11 8b 09       	add    $0x98b11c5,%eax
    36b4:	00 00                	add    %al,(%eax)
    36b6:	64 04 42             	fs add $0x42,%al
    36b9:	0f 00 00             	sldt   (%eax)
    36bc:	05 c6 11 3c 09       	add    $0x93c11c6,%eax
    36c1:	00 00                	add    %al,(%eax)
    36c3:	66 00 03             	data16 add %al,(%ebx)
    36c6:	c8 0e 00 00          	enter  $0xe,$0x0
    36ca:	05 c8 1b 97 09       	add    $0x9971bc8,%eax
    36cf:	00 00                	add    %al,(%eax)
    36d1:	06                   	push   %es
    36d2:	04 06                	add    $0x6,%al
    36d4:	2b 04 6b             	sub    (%ebx,%ebp,2),%eax
    36d7:	0b 00                	or     (%eax),%eax
    36d9:	00 01                	add    %al,(%ecx)
    36db:	70 00                	jo     36dd <mbh-0x2fc923>
    36dd:	06                   	push   %es
    36de:	2d 11 4c 00 00       	sub    $0x4c11,%eax
    36e3:	00 01                	add    %al,(%ecx)
    36e5:	00 01                	add    %al,(%ecx)
    36e7:	72 77                	jb     3760 <mbh-0x2fc8a0>
    36e9:	00 06                	add    %al,(%esi)
    36eb:	2e 11 4c 00 00       	adc    %ecx,%cs:0x0(%eax,%eax,1)
    36f0:	00 01                	add    %al,(%ecx)
    36f2:	01 01                	add    %eax,(%ecx)
    36f4:	6c                   	insb   (%dx),%es:(%edi)
    36f5:	76 6c                	jbe    3763 <mbh-0x2fc89d>
    36f7:	00 06                	add    %al,(%esi)
    36f9:	2f                   	das
    36fa:	11 4c 00 00          	adc    %ecx,0x0(%eax,%eax,1)
    36fe:	00 01                	add    %al,(%ecx)
    3700:	02 01                	add    (%ecx),%al
    3702:	70 77                	jo     377b <mbh-0x2fc885>
    3704:	74 00                	je     3706 <mbh-0x2fc8fa>
    3706:	06                   	push   %es
    3707:	30 11                	xor    %dl,(%ecx)
    3709:	4c                   	dec    %esp
    370a:	00 00                	add    %al,(%eax)
    370c:	00 01                	add    %al,(%ecx)
    370e:	03 01                	add    (%ecx),%eax
    3710:	70 63                	jo     3775 <mbh-0x2fc88b>
    3712:	64 00 06             	add    %al,%fs:(%esi)
    3715:	31 11                	xor    %edx,(%ecx)
    3717:	4c                   	dec    %esp
    3718:	00 00                	add    %al,(%eax)
    371a:	00 01                	add    %al,(%ecx)
    371c:	04 01                	add    $0x1,%al
    371e:	61                   	popa
    371f:	63 63 00             	arpl   %esp,0x0(%ebx)
    3722:	06                   	push   %es
    3723:	32 11                	xor    (%ecx),%dl
    3725:	4c                   	dec    %esp
    3726:	00 00                	add    %al,(%eax)
    3728:	00 01                	add    %al,(%ecx)
    372a:	05 01 6d 62 7a       	add    $0x7a626d01,%eax
    372f:	00 06                	add    %al,(%esi)
    3731:	33 11                	xor    (%ecx),%edx
    3733:	4c                   	dec    %esp
    3734:	00 00                	add    %al,(%eax)
    3736:	00 03                	add    %al,(%ebx)
    3738:	06                   	push   %es
    3739:	01 61 76             	add    %esp,0x76(%ecx)
    373c:	6c                   	insb   (%dx),%es:(%edi)
    373d:	00 06                	add    %al,(%esi)
    373f:	34 11                	xor    $0x11,%al
    3741:	4c                   	dec    %esp
    3742:	00 00                	add    %al,(%eax)
    3744:	00 03                	add    %al,(%ebx)
    3746:	09 08                	or     %ecx,(%eax)
    3748:	f8                   	clc
    3749:	05 00 00 06 35       	add    $0x35060000,%eax
    374e:	11 4c 00 00          	adc    %ecx,0x0(%eax,%eax,1)
    3752:	00 14 0c             	add    %dl,(%esp,%ecx,1)
    3755:	00 06                	add    %al,(%esi)
    3757:	04 06                	add    $0x6,%al
    3759:	39 04 23             	cmp    %eax,(%ebx,%eiz,1)
    375c:	0c 00                	or     $0x0,%al
    375e:	00 01                	add    %al,(%ecx)
    3760:	70 00                	jo     3762 <mbh-0x2fc89e>
    3762:	06                   	push   %es
    3763:	3b 11                	cmp    (%ecx),%edx
    3765:	4c                   	dec    %esp
    3766:	00 00                	add    %al,(%eax)
    3768:	00 01                	add    %al,(%ecx)
    376a:	00 01                	add    %al,(%ecx)
    376c:	72 77                	jb     37e5 <mbh-0x2fc81b>
    376e:	00 06                	add    %al,(%esi)
    3770:	3c 11                	cmp    $0x11,%al
    3772:	4c                   	dec    %esp
    3773:	00 00                	add    %al,(%eax)
    3775:	00 01                	add    %al,(%ecx)
    3777:	01 01                	add    %eax,(%ecx)
    3779:	6c                   	insb   (%dx),%es:(%edi)
    377a:	76 6c                	jbe    37e8 <mbh-0x2fc818>
    377c:	00 06                	add    %al,(%esi)
    377e:	3d 11 4c 00 00       	cmp    $0x4c11,%eax
    3783:	00 01                	add    %al,(%ecx)
    3785:	02 01                	add    (%ecx),%al
    3787:	70 77                	jo     3800 <mbh-0x2fc800>
    3789:	74 00                	je     378b <mbh-0x2fc875>
    378b:	06                   	push   %es
    378c:	3e 11 4c 00 00       	adc    %ecx,%ds:0x0(%eax,%eax,1)
    3791:	00 01                	add    %al,(%ecx)
    3793:	03 01                	add    (%ecx),%eax
    3795:	70 63                	jo     37fa <mbh-0x2fc806>
    3797:	64 00 06             	add    %al,%fs:(%esi)
    379a:	3f                   	aas
    379b:	11 4c 00 00          	adc    %ecx,0x0(%eax,%eax,1)
    379f:	00 01                	add    %al,(%ecx)
    37a1:	04 01                	add    $0x1,%al
    37a3:	61                   	popa
    37a4:	63 63 00             	arpl   %esp,0x0(%ebx)
    37a7:	06                   	push   %es
    37a8:	40                   	inc    %eax
    37a9:	11 4c 00 00          	adc    %ecx,0x0(%eax,%eax,1)
    37ad:	00 01                	add    %al,(%ecx)
    37af:	05 01 64 00 06       	add    $0x6006401,%eax
    37b4:	41                   	inc    %ecx
    37b5:	11 4c 00 00          	adc    %ecx,0x0(%eax,%eax,1)
    37b9:	00 01                	add    %al,(%ecx)
    37bb:	06                   	push   %es
    37bc:	01 70 73             	add    %esi,0x73(%eax)
    37bf:	00 06                	add    %al,(%esi)
    37c1:	42                   	inc    %edx
    37c2:	11 4c 00 00          	adc    %ecx,0x0(%eax,%eax,1)
    37c6:	00 01                	add    %al,(%ecx)
    37c8:	07                   	pop    %es
    37c9:	01 67 00             	add    %esp,0x0(%edi)
    37cc:	06                   	push   %es
    37cd:	43                   	inc    %ebx
    37ce:	11 4c 00 00          	adc    %ecx,0x0(%eax,%eax,1)
    37d2:	00 01                	add    %al,(%ecx)
    37d4:	08 01                	or     %al,(%ecx)
    37d6:	61                   	popa
    37d7:	76 6c                	jbe    3845 <mbh-0x2fc7bb>
    37d9:	00 06                	add    %al,(%esi)
    37db:	44                   	inc    %esp
    37dc:	11 4c 00 00          	adc    %ecx,0x0(%eax,%eax,1)
    37e0:	00 03                	add    %al,(%ebx)
    37e2:	09 01                	or     %eax,(%ecx)
    37e4:	70 61                	jo     3847 <mbh-0x2fc7b9>
    37e6:	74 00                	je     37e8 <mbh-0x2fc818>
    37e8:	06                   	push   %es
    37e9:	45                   	inc    %ebp
    37ea:	11 4c 00 00          	adc    %ecx,0x0(%eax,%eax,1)
    37ee:	00 01                	add    %al,(%ecx)
    37f0:	0c 01                	or     $0x1,%al
    37f2:	72 73                	jb     3867 <mbh-0x2fc799>
    37f4:	76 00                	jbe    37f6 <mbh-0x2fc80a>
    37f6:	06                   	push   %es
    37f7:	46                   	inc    %esi
    37f8:	11 4c 00 00          	adc    %ecx,0x0(%eax,%eax,1)
    37fc:	00 09                	add    %cl,(%ecx)
    37fe:	0d 08 f8 05 00       	or     $0x5f808,%eax
    3803:	00 06                	add    %al,(%esi)
    3805:	47                   	inc    %edi
    3806:	11 4c 00 00          	adc    %ecx,0x0(%eax,%eax,1)
    380a:	00 0a                	add    %cl,(%edx)
    380c:	16                   	push   %ss
    380d:	00 0a                	add    %cl,(%edx)
    380f:	47                   	inc    %edi
    3810:	0f 00 00             	sldt   (%eax)
    3813:	04 06                	add    $0x6,%al
    3815:	29 46 0c             	sub    %eax,0xc(%esi)
    3818:	00 00                	add    %al,(%eax)
    381a:	05 e6 0a 00 00       	add    $0xae6,%eax
    381f:	0b df                	or     %edi,%ebx
    3821:	0d 00 00 06 49       	or     $0x49060000,%eax
    3826:	1e                   	push   %ds
    3827:	6b 0b 00             	imul   $0x0,(%ebx),%ecx
    382a:	00 05 56 02 00 00    	add    %al,0x256
    3830:	00 03                	add    %al,(%ebx)
    3832:	aa                   	stos   %al,%es:(%edi)
    3833:	0e                   	push   %cs
    3834:	00 00                	add    %al,(%eax)
    3836:	06                   	push   %es
    3837:	4d                   	dec    %ebp
    3838:	1b 23                	sbb    (%ebx),%esp
    383a:	0c 00                	or     $0x0,%al
    383c:	00 06                	add    %al,(%esi)
    383e:	04 06                	add    $0x6,%al
    3840:	51                   	push   %ecx
    3841:	04 ef                	add    $0xef,%al
    3843:	0c 00                	or     $0x0,%al
    3845:	00 01                	add    %al,(%ecx)
    3847:	70 00                	jo     3849 <mbh-0x2fc7b7>
    3849:	06                   	push   %es
    384a:	53                   	push   %ebx
    384b:	11 4c 00 00          	adc    %ecx,0x0(%eax,%eax,1)
    384f:	00 01                	add    %al,(%ecx)
    3851:	00 01                	add    %al,(%ecx)
    3853:	72 77                	jb     38cc <mbh-0x2fc734>
    3855:	00 06                	add    %al,(%esi)
    3857:	54                   	push   %esp
    3858:	11 4c 00 00          	adc    %ecx,0x0(%eax,%eax,1)
    385c:	00 01                	add    %al,(%ecx)
    385e:	01 01                	add    %eax,(%ecx)
    3860:	6c                   	insb   (%dx),%es:(%edi)
    3861:	76 6c                	jbe    38cf <mbh-0x2fc731>
    3863:	00 06                	add    %al,(%esi)
    3865:	55                   	push   %ebp
    3866:	11 4c 00 00          	adc    %ecx,0x0(%eax,%eax,1)
    386a:	00 01                	add    %al,(%ecx)
    386c:	02 01                	add    (%ecx),%al
    386e:	70 77                	jo     38e7 <mbh-0x2fc719>
    3870:	74 00                	je     3872 <mbh-0x2fc78e>
    3872:	06                   	push   %es
    3873:	56                   	push   %esi
    3874:	11 4c 00 00          	adc    %ecx,0x0(%eax,%eax,1)
    3878:	00 01                	add    %al,(%ecx)
    387a:	03 01                	add    (%ecx),%eax
    387c:	70 63                	jo     38e1 <mbh-0x2fc71f>
    387e:	64 00 06             	add    %al,%fs:(%esi)
    3881:	57                   	push   %edi
    3882:	11 4c 00 00          	adc    %ecx,0x0(%eax,%eax,1)
    3886:	00 01                	add    %al,(%ecx)
    3888:	04 01                	add    $0x1,%al
    388a:	61                   	popa
    388b:	63 63 00             	arpl   %esp,0x0(%ebx)
    388e:	06                   	push   %es
    388f:	58                   	pop    %eax
    3890:	11 4c 00 00          	adc    %ecx,0x0(%eax,%eax,1)
    3894:	00 01                	add    %al,(%ecx)
    3896:	05 01 64 00 06       	add    $0x6006401,%eax
    389b:	59                   	pop    %ecx
    389c:	11 4c 00 00          	adc    %ecx,0x0(%eax,%eax,1)
    38a0:	00 01                	add    %al,(%ecx)
    38a2:	06                   	push   %es
    38a3:	01 70 61             	add    %esi,0x61(%eax)
    38a6:	74 00                	je     38a8 <mbh-0x2fc758>
    38a8:	06                   	push   %es
    38a9:	5a                   	pop    %edx
    38aa:	11 4c 00 00          	adc    %ecx,0x0(%eax,%eax,1)
    38ae:	00 01                	add    %al,(%ecx)
    38b0:	07                   	pop    %es
    38b1:	01 67 00             	add    %esp,0x0(%edi)
    38b4:	06                   	push   %es
    38b5:	5b                   	pop    %ebx
    38b6:	11 4c 00 00          	adc    %ecx,0x0(%eax,%eax,1)
    38ba:	00 01                	add    %al,(%ecx)
    38bc:	08 01                	or     %al,(%ecx)
    38be:	61                   	popa
    38bf:	76 6c                	jbe    392d <mbh-0x2fc6d3>
    38c1:	00 06                	add    %al,(%esi)
    38c3:	5c                   	pop    %esp
    38c4:	11 4c 00 00          	adc    %ecx,0x0(%eax,%eax,1)
    38c8:	00 03                	add    %al,(%ebx)
    38ca:	09 08                	or     %ecx,(%eax)
    38cc:	f8                   	clc
    38cd:	05 00 00 06 5d       	add    $0x5d060000,%eax
    38d2:	11 4c 00 00          	adc    %ecx,0x0(%eax,%eax,1)
    38d6:	00 14 0c             	add    %dl,(%esp,%ecx,1)
    38d9:	00 0a                	add    %cl,(%edx)
    38db:	94                   	xchg   %eax,%esp
    38dc:	0d 00 00 04 06       	or     $0x6040000,%eax
    38e1:	4f                   	dec    %edi
    38e2:	06                   	push   %es
    38e3:	0d 00 00 05 52       	or     $0x52050000,%eax
    38e8:	0c 00                	or     $0x0,%al
    38ea:	00 05 56 02 00 00    	add    %al,0x256
    38f0:	00 03                	add    %al,(%ebx)
    38f2:	17                   	pop    %ss
    38f3:	0e                   	push   %cs
    38f4:	00 00                	add    %al,(%eax)
    38f6:	06                   	push   %es
    38f7:	63 1b                	arpl   %ebx,(%ebx)
    38f9:	ef                   	out    %eax,(%dx)
    38fa:	0c 00                	or     $0x0,%al
    38fc:	00 06                	add    %al,(%esi)
    38fe:	04 07                	add    $0x7,%al
    3900:	44                   	inc    %esp
    3901:	04 5f                	add    $0x5f,%al
    3903:	0d 00 00 01 65       	or     $0x65010000,%eax
    3908:	78 74                	js     397e <mbh-0x2fc682>
    390a:	00 07                	add    %al,(%edi)
    390c:	46                   	inc    %esi
    390d:	12 4c 00 00          	adc    0x0(%eax,%eax,1),%cl
    3911:	00 01                	add    %al,(%ecx)
    3913:	00 01                	add    %al,(%ecx)
    3915:	69 64 74 00 07 47 12 	imul   $0x4c124707,0x0(%esp,%esi,2),%esp
    391c:	4c 
    391d:	00 00                	add    %al,(%eax)
    391f:	00 01                	add    %al,(%ecx)
    3921:	01 01                	add    %eax,(%ecx)
    3923:	74 69                	je     398e <mbh-0x2fc672>
    3925:	00 07                	add    %al,(%edi)
    3927:	48                   	dec    %eax
    3928:	12 4c 00 00          	adc    0x0(%eax,%eax,1),%cl
    392c:	00 01                	add    %al,(%ecx)
    392e:	02 01                	add    (%ecx),%al
    3930:	69 64 78 00 07 49 12 	imul   $0x4c124907,0x0(%eax,%edi,2),%esp
    3937:	4c 
    3938:	00 00                	add    %al,(%eax)
    393a:	00 0d 03 01 72 00    	add    %cl,0x720103
    3940:	07                   	pop    %es
    3941:	4a                   	dec    %edx
    3942:	12 4c 00 00          	adc    0x0(%eax,%eax,1),%cl
    3946:	00 10                	add    %dl,(%eax)
    3948:	10 00                	adc    %al,(%eax)
    394a:	0a 65 0b             	or     0xb(%ebp),%ah
    394d:	00 00                	add    %al,(%eax)
    394f:	04 07                	add    $0x7,%al
    3951:	42                   	inc    %edx
    3952:	76 0d                	jbe    3961 <mbh-0x2fc69f>
    3954:	00 00                	add    %al,(%eax)
    3956:	05 12 0d 00 00       	add    $0xd12,%eax
    395b:	05 56 02 00 00       	add    $0x256,%eax
    3960:	00 03                	add    %al,(%ebx)
    3962:	8d 0b                	lea    (%ebx),%ecx
    3964:	00 00                	add    %al,(%eax)
    3966:	07                   	pop    %es
    3967:	50                   	push   %eax
    3968:	1b 5f 0d             	sbb    0xd(%edi),%ebx
    396b:	00 00                	add    %al,(%eax)
    396d:	06                   	push   %es
    396e:	04 07                	add    $0x7,%al
    3970:	57                   	push   %edi
    3971:	04 d9                	add    $0xd9,%al
    3973:	0d 00 00 01 70       	or     $0x70010000,%eax
    3978:	00 07                	add    %al,(%edi)
    397a:	59                   	pop    %ecx
    397b:	15 4c 00 00 00       	adc    $0x4c,%eax
    3980:	01 00                	add    %eax,(%eax)
    3982:	01 77 72             	add    %esi,0x72(%edi)
    3985:	00 07                	add    %al,(%edi)
    3987:	5a                   	pop    %edx
    3988:	15 4c 00 00 00       	adc    $0x4c,%eax
    398d:	01 01                	add    %eax,(%ecx)
    398f:	01 75 73             	add    %esi,0x73(%ebp)
    3992:	00 07                	add    %al,(%edi)
    3994:	5b                   	pop    %ebx
    3995:	15 4c 00 00 00       	adc    $0x4c,%eax
    399a:	01 02                	add    %eax,(%edx)
    399c:	01 72 73             	add    %esi,0x73(%edx)
    399f:	76 00                	jbe    39a1 <mbh-0x2fc65f>
    39a1:	07                   	pop    %es
    39a2:	5c                   	pop    %esp
    39a3:	15 4c 00 00 00       	adc    $0x4c,%eax
    39a8:	01 03                	add    %eax,(%ebx)
    39aa:	01 69 64             	add    %ebp,0x64(%ecx)
    39ad:	00 07                	add    %al,(%edi)
    39af:	5d                   	pop    %ebp
    39b0:	15 4c 00 00 00       	adc    $0x4c,%eax
    39b5:	01 04 01             	add    %eax,(%ecx,%eax,1)
    39b8:	72 00                	jb     39ba <mbh-0x2fc646>
    39ba:	07                   	pop    %es
    39bb:	5e                   	pop    %esi
    39bc:	15 4c 00 00 00       	adc    $0x4c,%eax
    39c1:	1b 05 00 0a 73 0a    	sbb    0xa730a00,%eax
    39c7:	00 00                	add    %al,(%eax)
    39c9:	04 07                	add    $0x7,%al
    39cb:	55                   	push   %ebp
    39cc:	f0 0d 00 00 05 82    	lock or $0x82050000,%eax
    39d2:	0d 00 00 05 56       	or     $0x56050000,%eax
    39d7:	02 00                	add    (%eax),%al
    39d9:	00 00                	add    %al,(%eax)
    39db:	03 96 0a 00 00 07    	add    0x700000a(%esi),%edx
    39e1:	64 1b d9             	fs sbb %ecx,%ebx
    39e4:	0d 00 00 0a e6       	or     $0xe60a0000,%eax
    39e9:	0a 00                	or     (%eax),%al
    39eb:	00 04 07             	add    %al,(%edi,%eax,1)
    39ee:	69 24 0e 00 00 05 56 	imul   $0x56050000,(%esi,%ecx,1),%esp
    39f5:	02 00                	add    (%eax),%al
    39f7:	00 07                	add    %al,(%edi)
    39f9:	73 6c                	jae    3a67 <mbh-0x2fc599>
    39fb:	00 07                	add    %al,(%edi)
    39fd:	6d                   	insl   (%dx),%es:(%edi)
    39fe:	0d 76 0d 00 00       	or     $0xd76,%eax
    3a03:	07                   	pop    %es
    3a04:	70 66                	jo     3a6c <mbh-0x2fc594>
    3a06:	00 07                	add    %al,(%edi)
    3a08:	6e                   	outsb  %ds:(%esi),(%dx)
    3a09:	0d f0 0d 00 00       	or     $0xdf0,%eax
    3a0e:	00 03                	add    %al,(%ebx)
    3a10:	9f                   	lahf
    3a11:	0a 00                	or     (%eax),%al
    3a13:	00 07                	add    %al,(%edi)
    3a15:	70 1b                	jo     3a32 <mbh-0x2fc5ce>
    3a17:	fc                   	cld
    3a18:	0d 00 00 0d fe       	or     $0xfe0d0000,%eax
    3a1d:	0b 00                	or     (%eax),%eax
    3a1f:	00 1c 08             	add    %bl,(%eax,%ecx,1)
    3a22:	29 10                	sub    %edx,(%eax)
    3a24:	96                   	xchg   %eax,%esi
    3a25:	0e                   	push   %cs
    3a26:	00 00                	add    %al,(%eax)
    3a28:	02 6e 72             	add    0x72(%esi),%ch
    3a2b:	00 08                	add    %cl,(%eax)
    3a2d:	2b 14 56             	sub    (%esi,%edx,2),%edx
    3a30:	02 00                	add    (%eax),%al
    3a32:	00 00                	add    %al,(%eax)
    3a34:	02 65 72             	add    0x72(%ebp),%ah
    3a37:	72 00                	jb     3a39 <mbh-0x2fc5c7>
    3a39:	08 2c 14             	or     %ch,(%esp,%edx,1)
    3a3c:	24 0e                	and    $0xe,%al
    3a3e:	00 00                	add    %al,(%eax)
    3a40:	04 02                	add    $0x2,%al
    3a42:	65 69 70 00 08 2d 14 	imul   $0x56142d08,%gs:0x0(%eax),%esi
    3a49:	56 
    3a4a:	02 00                	add    (%eax),%al
    3a4c:	00 08                	add    %cl,(%eax)
    3a4e:	02 63 73             	add    0x73(%ebx),%ah
    3a51:	00 08                	add    %cl,(%eax)
    3a53:	2e 14 56             	cs adc $0x56,%al
    3a56:	02 00                	add    (%eax),%al
    3a58:	00 0c 04             	add    %cl,(%esp,%eax,1)
    3a5b:	45                   	inc    %ebp
    3a5c:	0b 00                	or     (%eax),%eax
    3a5e:	00 08                	add    %cl,(%eax)
    3a60:	2f                   	das
    3a61:	14 19                	adc    $0x19,%al
    3a63:	06                   	push   %es
    3a64:	00 00                	add    %al,(%eax)
    3a66:	10 02                	adc    %al,(%edx)
    3a68:	65 73 70             	gs jae 3adb <mbh-0x2fc525>
    3a6b:	00 08                	add    %cl,(%eax)
    3a6d:	32 14 56             	xor    (%esi,%edx,2),%dl
    3a70:	02 00                	add    (%eax),%al
    3a72:	00 14 02             	add    %dl,(%edx,%eax,1)
    3a75:	73 73                	jae    3aea <mbh-0x2fc516>
    3a77:	00 08                	add    %cl,(%eax)
    3a79:	33 14 56             	xor    (%esi,%edx,2),%edx
    3a7c:	02 00                	add    (%eax),%al
    3a7e:	00 18                	add    %bl,(%eax)
    3a80:	00 03                	add    %al,(%ebx)
    3a82:	36 0b 00             	or     %ss:(%eax),%eax
    3a85:	00 08                	add    %cl,(%eax)
    3a87:	35 1b 30 0e 00       	xor    $0xe301b,%eax
    3a8c:	00 0d b3 0b 00 00    	add    %cl,0xbb3
    3a92:	3c 08                	cmp    $0x8,%al
    3a94:	38 10                	cmp    %dl,(%eax)
    3a96:	c3                   	ret
    3a97:	0e                   	push   %cs
    3a98:	00 00                	add    %al,(%eax)
    3a9a:	02 67 70             	add    0x70(%edi),%ah
    3a9d:	72 00                	jb     3a9f <mbh-0x2fc561>
    3a9f:	08 3a                	or     %bh,(%edx)
    3aa1:	0e                   	push   %cs
    3aa2:	61                   	popa
    3aa3:	07                   	pop    %es
    3aa4:	00 00                	add    %al,(%eax)
    3aa6:	00 12                	add    %dl,(%edx)
    3aa8:	96                   	xchg   %eax,%esi
    3aa9:	0e                   	push   %cs
    3aaa:	00 00                	add    %al,(%eax)
    3aac:	20 00                	and    %al,(%eax)
    3aae:	03 2c 0b             	add    (%ebx,%ecx,1),%ebp
    3ab1:	00 00                	add    %al,(%eax)
    3ab3:	08 3d 1b a2 0e 00    	or     %bh,0xea21b
    3ab9:	00 09                	add    %cl,(%ecx)
    3abb:	c3                   	ret
    3abc:	0e                   	push   %cs
    3abd:	00 00                	add    %al,(%eax)
    3abf:	06                   	push   %es
    3ac0:	08 08                	or     %cl,(%eax)
    3ac2:	46                   	inc    %esi
    3ac3:	04 5a                	add    $0x5a,%al
    3ac5:	0f 00 00             	sldt   (%eax)
    3ac8:	08 96 0b 00 00 08    	or     %dl,0x800000b(%esi)
    3ace:	48                   	dec    %eax
    3acf:	11 5f 00             	adc    %ebx,0x0(%edi)
    3ad2:	00 00                	add    %al,(%eax)
    3ad4:	10 00                	adc    %al,(%eax)
    3ad6:	08 19                	or     %bl,(%ecx)
    3ad8:	0c 00                	or     $0x0,%al
    3ada:	00 08                	add    %cl,(%eax)
    3adc:	49                   	dec    %ecx
    3add:	11 5f 00             	adc    %ebx,0x0(%edi)
    3ae0:	00 00                	add    %al,(%eax)
    3ae2:	10 10                	adc    %dl,(%eax)
    3ae4:	01 69 73             	add    %ebp,0x73(%ecx)
    3ae7:	74 00                	je     3ae9 <mbh-0x2fc517>
    3ae9:	08 4a 11             	or     %cl,0x11(%edx)
    3aec:	5f                   	pop    %edi
    3aed:	00 00                	add    %al,(%eax)
    3aef:	00 03                	add    %al,(%ebx)
    3af1:	20 08                	and    %cl,(%eax)
    3af3:	22 0c 00             	and    (%eax,%eax,1),%cl
    3af6:	00 08                	add    %cl,(%eax)
    3af8:	4b                   	dec    %ebx
    3af9:	11 5f 00             	adc    %ebx,0x0(%edi)
    3afc:	00 00                	add    %al,(%eax)
    3afe:	05 23 08 09 03       	add    $0x3090823,%eax
    3b03:	00 00                	add    %al,(%eax)
    3b05:	08 4c 11 5f          	or     %cl,0x5f(%ecx,%edx,1)
    3b09:	00 00                	add    %al,(%eax)
    3b0b:	00 04 28             	add    %al,(%eax,%ebp,1)
    3b0e:	08 29                	or     %ch,(%ecx)
    3b10:	0c 00                	or     $0x0,%al
    3b12:	00 08                	add    %cl,(%eax)
    3b14:	4d                   	dec    %ebp
    3b15:	11 5f 00             	adc    %ebx,0x0(%edi)
    3b18:	00 00                	add    %al,(%eax)
    3b1a:	01 2c 01             	add    %ebp,(%ecx,%eax,1)
    3b1d:	64 70 6c             	fs jo  3b8c <mbh-0x2fc474>
    3b20:	00 08                	add    %cl,(%eax)
    3b22:	4e                   	dec    %esi
    3b23:	11 5f 00             	adc    %ebx,0x0(%edi)
    3b26:	00 00                	add    %al,(%eax)
    3b28:	02 2d 01 70 00 08    	add    0x8007001,%ch
    3b2e:	4f                   	dec    %edi
    3b2f:	11 5f 00             	adc    %ebx,0x0(%edi)
    3b32:	00 00                	add    %al,(%eax)
    3b34:	01 2f                	add    %ebp,(%edi)
    3b36:	08 9f 0b 00 00 08    	or     %bl,0x800000b(%edi)
    3b3c:	50                   	push   %eax
    3b3d:	11 5f 00             	adc    %ebx,0x0(%edi)
    3b40:	00 00                	add    %al,(%eax)
    3b42:	10 30                	adc    %dh,(%eax)
    3b44:	00 0a                	add    %cl,(%edx)
    3b46:	d1 0a                	rorl   $1,(%edx)
    3b48:	00 00                	add    %al,(%eax)
    3b4a:	08 08                	or     %cl,(%eax)
    3b4c:	44                   	inc    %esp
    3b4d:	71 0f                	jno    3b5e <mbh-0x2fc4a2>
    3b4f:	00 00                	add    %al,(%eax)
    3b51:	05 d4 0e 00 00       	add    $0xed4,%eax
    3b56:	05 65 03 00 00       	add    $0x365,%eax
    3b5b:	00 03                	add    %al,(%ebx)
    3b5d:	a8 0b                	test   $0xb,%al
    3b5f:	00 00                	add    %al,(%eax)
    3b61:	08 56 1b             	or     %dl,0x1b(%esi)
    3b64:	5a                   	pop    %edx
    3b65:	0f 00 00             	sldt   (%eax)
    3b68:	14 04                	adc    $0x4,%al
    3b6a:	08 5e 04             	or     %bl,0x4(%esi)
    3b6d:	9f                   	lahf
    3b6e:	0f 00 00             	sldt   (%eax)
    3b71:	0b f8                	or     %eax,%edi
    3b73:	05 00 00 08 60       	add    $0x60080000,%eax
    3b78:	14 e2                	adc    $0xe2,%al
    3b7a:	00 00                	add    %al,(%eax)
    3b7c:	00 0b                	add    %cl,(%ebx)
    3b7e:	40                   	inc    %eax
    3b7f:	0b 00                	or     (%eax),%eax
    3b81:	00 08                	add    %cl,(%eax)
    3b83:	61                   	popa
    3b84:	15 9f 0f 00 00       	adc    $0xf9f,%eax
    3b89:	00 09                	add    %cl,(%ecx)
    3b8b:	71 0f                	jno    3b9c <mbh-0x2fc464>
    3b8d:	00 00                	add    %al,(%eax)
    3b8f:	0d 08 0b 00 00       	or     $0xb08,%eax
    3b94:	06                   	push   %es
    3b95:	08 5b 10             	or     %bl,0x10(%ebx)
    3b98:	c5 0f                	lds    (%edi),%ecx
    3b9a:	00 00                	add    %al,(%eax)
    3b9c:	04 02                	add    $0x2,%al
    3b9e:	0b 00                	or     (%eax),%eax
    3ba0:	00 08                	add    %cl,(%eax)
    3ba2:	5d                   	pop    %ebp
    3ba3:	14 39                	adc    $0x39,%al
    3ba5:	00 00                	add    %al,(%eax)
    3ba7:	00 00                	add    %al,(%eax)
    3ba9:	12 7d 0f             	adc    0xf(%ebp),%bh
    3bac:	00 00                	add    %al,(%eax)
    3bae:	02 00                	add    (%eax),%al
    3bb0:	03 62 0a             	add    0xa(%edx),%esp
    3bb3:	00 00                	add    %al,(%eax)
    3bb5:	08 64 1b a4          	or     %ah,-0x5c(%ebx,%ebx,1)
    3bb9:	0f 00 00             	sldt   (%eax)
    3bbc:	0f 3a 08             	(bad)
    3bbf:	00 00                	add    %al,(%eax)
    3bc1:	e1 0f                	loope  3bd2 <mbh-0x2fc42e>
    3bc3:	00 00                	add    %al,(%eax)
    3bc5:	10 58 00             	adc    %bl,0x0(%eax)
    3bc8:	00 00                	add    %al,(%eax)
    3bca:	05 00 18 47 44       	add    $0x44471800,%eax
    3bcf:	54                   	push   %esp
    3bd0:	00 19                	add    %bl,(%ecx)
    3bd2:	0c d1                	or     $0xd1,%al
    3bd4:	0f 00 00             	sldt   (%eax)
    3bd7:	05 03 a0 63 30       	add    $0x3063a003,%eax
    3bdc:	00 18                	add    %bl,(%eax)
    3bde:	54                   	push   %esp
    3bdf:	53                   	push   %ebx
    3be0:	53                   	push   %ebx
    3be1:	00 1a                	add    %bl,(%edx)
    3be3:	0c da                	or     $0xda,%al
    3be5:	0a 00                	or     (%eax),%al
    3be7:	00 05 03 e0 63 30    	add    %al,0x3063e003
    3bed:	00 18                	add    %bl,(%eax)
    3bef:	70 67                	jo     3c58 <mbh-0x2fc3a8>
    3bf1:	64 00 25 0a 14 10 00 	add    %ah,%fs:0x10140a
    3bf8:	00 05 03 50 57 30    	add    %al,0x30575003
    3bfe:	00 09                	add    %cl,(%ecx)
    3c00:	46                   	inc    %esi
    3c01:	0c 00                	or     $0x0,%al
    3c03:	00 0c af             	add    %cl,(%edi,%ebp,4)
    3c06:	0d 00 00 26 0a       	or     $0xa260000,%eax
    3c0b:	2a 10                	sub    (%eax),%dl
    3c0d:	00 00                	add    %al,(%eax)
    3c0f:	05 03 54 57 30       	add    $0x30575403,%eax
    3c14:	00 09                	add    %cl,(%ecx)
    3c16:	06                   	push   %es
    3c17:	0d 00 00 0c a1       	or     $0xa10c0000,%eax
    3c1c:	0c 00                	or     $0x0,%al
    3c1e:	00 28                	add    %ch,(%eax)
    3c20:	0a 14 10             	or     (%eax,%edx,1),%dl
    3c23:	00 00                	add    %al,(%eax)
    3c25:	05 03 58 57 30       	add    $0x30575803,%eax
    3c2a:	00 0c 77             	add    %cl,(%edi,%esi,2)
    3c2d:	0c 00                	or     $0x0,%al
    3c2f:	00 29                	add    %ch,(%ecx)
    3c31:	0a 2a                	or     (%edx),%ch
    3c33:	10 00                	adc    %al,(%eax)
    3c35:	00 05 03 5c 57 30    	add    %al,0x30575c03
    3c3b:	00 0c 68             	add    %cl,(%eax,%ebp,2)
    3c3e:	0d 00 00 2a 0a       	or     $0xa2a0000,%eax
    3c43:	2a 10                	sub    (%eax),%dl
    3c45:	00 00                	add    %al,(%eax)
    3c47:	05 03 60 57 30       	add    $0x30576003,%eax
    3c4c:	00 0c 88             	add    %cl,(%eax,%ecx,4)
    3c4f:	0c 00                	or     $0x0,%al
    3c51:	00 2b                	add    %ch,(%ebx)
    3c53:	0a 2a                	or     (%edx),%ch
    3c55:	10 00                	adc    %al,(%eax)
    3c57:	00 05 03 64 57 30    	add    %al,0x30576403
    3c5d:	00 0c ac             	add    %cl,(%esp,%ebp,4)
    3c60:	0c 00                	or     $0x0,%al
    3c62:	00 2d 0a 14 10 00    	add    %ch,0x10140a
    3c68:	00 05 03 68 57 30    	add    %al,0x30576803
    3c6e:	00 0c 1f             	add    %cl,(%edi,%ebx,1)
    3c71:	0e                   	push   %cs
    3c72:	00 00                	add    %al,(%eax)
    3c74:	2e 0a 2a             	or     %cs:(%edx),%ch
    3c77:	10 00                	adc    %al,(%eax)
    3c79:	00 05 03 6c 57 30    	add    %al,0x30576c03
    3c7f:	00 0c 30             	add    %cl,(%eax,%esi,1)
    3c82:	0e                   	push   %cs
    3c83:	00 00                	add    %al,(%eax)
    3c85:	2f                   	das
    3c86:	0a 2a                	or     (%edx),%ch
    3c88:	10 00                	adc    %al,(%eax)
    3c8a:	00 05 03 70 57 30    	add    %al,0x30577003
    3c90:	00 0c 41             	add    %cl,(%ecx,%eax,2)
    3c93:	0e                   	push   %cs
    3c94:	00 00                	add    %al,(%eax)
    3c96:	30 0a                	xor    %cl,(%edx)
    3c98:	2a 10                	sub    (%eax),%dl
    3c9a:	00 00                	add    %al,(%eax)
    3c9c:	05 03 74 57 30       	add    $0x30577403,%eax
    3ca1:	00 0c e4             	add    %cl,(%esp,%eiz,8)
    3ca4:	0d 00 00 34 05       	or     $0x5340000,%eax
    3ca9:	98                   	cwtl
    3caa:	00 00                	add    %al,(%eax)
    3cac:	00 05 03 6c 84 30    	add    %al,0x30846c03
    3cb2:	00 0d 8f 0d 00 00    	add    %cl,0xd8f
    3cb8:	4c                   	dec    %esp
    3cb9:	02 36                	add    (%esi),%dh
    3cbb:	08 17                	or     %dl,(%edi)
    3cbd:	11 00                	adc    %eax,(%eax)
    3cbf:	00 04 ca             	add    %al,(%edx,%ecx,8)
    3cc2:	0c 00                	or     $0x0,%al
    3cc4:	00 02                	add    %al,(%edx)
    3cc6:	37                   	aaa
    3cc7:	0b 96 04 00 00 00    	or     0x4(%esi),%edx
    3ccd:	04 94                	add    $0x94,%al
    3ccf:	0f 00 00             	sldt   (%eax)
    3cd2:	02 38                	add    (%eax),%bh
    3cd4:	0e                   	push   %cs
    3cd5:	4c                   	dec    %esp
    3cd6:	00 00                	add    %al,(%eax)
    3cd8:	00 04 02             	add    %al,(%edx,%eax,1)
    3cdb:	70 67                	jo     3d44 <mbh-0x2fc2bc>
    3cdd:	64 00 02             	add    %al,%fs:(%edx)
    3ce0:	39 0e                	cmp    %ecx,(%esi)
    3ce2:	14 10                	adc    $0x10,%al
    3ce4:	00 00                	add    %al,(%eax)
    3ce6:	08 04 c9             	or     %al,(%ecx,%ecx,8)
    3ce9:	0a 00                	or     (%eax),%al
    3ceb:	00 02                	add    %al,(%edx)
    3ced:	3a 0f                	cmp    (%edi),%cl
    3cef:	c3                   	ret
    3cf0:	0e                   	push   %cs
    3cf1:	00 00                	add    %al,(%eax)
    3cf3:	0c 04                	or     $0x4,%al
    3cf5:	e6 0e                	out    %al,$0xe
    3cf7:	00 00                	add    %al,(%eax)
    3cf9:	02 3b                	add    (%ebx),%bh
    3cfb:	07                   	pop    %es
    3cfc:	c3                   	ret
    3cfd:	00 00                	add    %al,(%eax)
    3cff:	00 48 00             	add    %cl,0x0(%eax)
    3d02:	0f 4c 00             	cmovl  (%eax),%eax
    3d05:	00 00                	add    %al,(%eax)
    3d07:	28 11                	sub    %dl,(%ecx)
    3d09:	00 00                	add    %al,(%eax)
    3d0b:	1e                   	push   %ds
    3d0c:	58                   	pop    %eax
    3d0d:	00 00                	add    %al,(%eax)
    3d0f:	00 ff                	add    %bh,%bh
    3d11:	0f 00 1f             	ltr    (%edi)
    3d14:	8e 0f                	mov    (%edi),%cs
    3d16:	00 00                	add    %al,(%eax)
    3d18:	3f                   	aas
    3d19:	17                   	pop    %ss
    3d1a:	11 00                	adc    %eax,(%eax)
    3d1c:	00 05 03 00 00 40    	add    %al,0x40000003
    3d22:	00 1f                	add    %bl,(%edi)
    3d24:	de 0c 00             	fimuls (%eax,%eax,1)
    3d27:	00 40 17             	add    %al,0x17(%eax)
    3d2a:	11 00                	adc    %eax,(%eax)
    3d2c:	00 05 03 00 00 80    	add    %al,0x80000003
    3d32:	00 0c 12             	add    %cl,(%edx,%edx,1)
    3d35:	0f 00 00             	sldt   (%eax)
    3d38:	42                   	inc    %edx
    3d39:	0b 4c 00 00          	or     0x0(%eax,%eax,1),%ecx
    3d3d:	00 05 03 78 57 30    	add    %al,0x30577803
    3d43:	00 0c 3e             	add    %cl,(%esi,%edi,1)
    3d46:	0d 00 00 43 0b       	or     $0xb430000,%eax
    3d4b:	4c                   	dec    %esp
    3d4c:	00 00                	add    %al,(%eax)
    3d4e:	00 05 03 7c 57 30    	add    %al,0x30577c03
    3d54:	00 0f                	add    %cl,(%edi)
    3d56:	c8 10 00 00          	enter  $0x10,$0x0
    3d5a:	7a 11                	jp     3d6d <mbh-0x2fc293>
    3d5c:	00 00                	add    %al,(%eax)
    3d5e:	10 58 00             	adc    %bl,0x0(%eax)
    3d61:	00 00                	add    %al,(%eax)
    3d63:	01 00                	add    %eax,(%eax)
    3d65:	0c 27                	or     $0x27,%al
    3d67:	0d 00 00 45 0d       	or     $0xd450000,%eax
    3d6c:	6a 11                	push   $0x11
    3d6e:	00 00                	add    %al,(%eax)
    3d70:	05 03 80 84 30       	add    $0x30848003,%eax
    3d75:	00 29                	add    %ch,(%ecx)
    3d77:	f8                   	clc
    3d78:	00 00                	add    %al,(%eax)
    3d7a:	00 09                	add    %cl,(%ecx)
    3d7c:	0c 0a                	or     $0xa,%al
    3d7e:	9e                   	sahf
    3d7f:	11 00                	adc    %eax,(%eax)
    3d81:	00 20                	add    %ah,(%eax)
    3d83:	9e                   	sahf
    3d84:	11 00                	adc    %eax,(%eax)
    3d86:	00 21                	add    %ah,(%ecx)
    3d88:	00 09                	add    %cl,(%ecx)
    3d8a:	ca 00 00             	lret   $0x0
    3d8d:	00 2a                	add    %ch,(%edx)
    3d8f:	b4 06                	mov    $0x6,%ah
    3d91:	00 00                	add    %al,(%eax)
    3d93:	09 0d 0a cf 00 00    	or     %ecx,0xcf0a
    3d99:	00 ba 11 00 00 20    	add    %bh,0x20000011(%edx)
    3d9f:	9e                   	sahf
    3da0:	11 00                	adc    %eax,(%eax)
    3da2:	00 21                	add    %ah,(%ecx)
    3da4:	00 2b                	add    %ch,(%ebx)
    3da6:	74 70                	je     3e18 <mbh-0x2fc1e8>
    3da8:	00 02                	add    %al,(%edx)
    3daa:	35 01 06 76 4c       	xor    $0x4c760601,%eax
    3daf:	30 00                	xor    %al,(%eax)
    3db1:	77 00                	ja     3db3 <mbh-0x2fc24d>
    3db3:	00 00                	add    %al,(%eax)
    3db5:	01 9c 2c b7 0d 00 00 	add    %ebx,0xdb7(%esp,%ebp,1)
    3dbc:	02 2b                	add    (%ebx),%ch
    3dbe:	01 06                	add    %eax,(%esi)
    3dc0:	3c 4c                	cmp    $0x4c,%al
    3dc2:	30 00                	xor    %al,(%eax)
    3dc4:	3a 00                	cmp    (%eax),%al
    3dc6:	00 00                	add    %al,(%eax)
    3dc8:	01 9c 1b 12 00 00 19 	add    %ebx,0x19000012(%ebx,%ebx,1)
    3dcf:	8f                   	(bad)
    3dd0:	0d 00 00 1f 1b       	or     $0x1b1f0000,%eax
    3dd5:	12 00                	adc    (%eax),%al
    3dd7:	00 02                	add    %al,(%edx)
    3dd9:	91                   	xchg   %eax,%ecx
    3dda:	00 19                	add    %bl,(%ecx)
    3ddc:	79 0d                	jns    3deb <mbh-0x2fc215>
    3dde:	00 00                	add    %al,(%eax)
    3de0:	2b 96 04 00 00 02    	sub    0x2000004(%esi),%edx
    3de6:	91                   	xchg   %eax,%ecx
    3de7:	04 19                	add    $0x19,%al
    3de9:	94                   	xchg   %eax,%esp
    3dea:	0f 00 00             	sldt   (%eax)
    3ded:	3a 4c 00 00          	cmp    0x0(%eax,%eax,1),%cl
    3df1:	00 02                	add    %al,(%edx)
    3df3:	91                   	xchg   %eax,%ecx
    3df4:	08 2d 70 67 64 00    	or     %ch,0x646770
    3dfa:	02 2b                	add    (%ebx),%ch
    3dfc:	01 4a 14             	add    %ecx,0x14(%edx)
    3dff:	10 00                	adc    %al,(%eax)
    3e01:	00 02                	add    %al,(%edx)
    3e03:	91                   	xchg   %eax,%ecx
    3e04:	0c 00                	or     $0x0,%al
    3e06:	09 c8                	or     %ecx,%eax
    3e08:	10 00                	adc    %al,(%eax)
    3e0a:	00 2e                	add    %ch,(%esi)
    3e0c:	7e 0e                	jle    3e1c <mbh-0x2fc1e4>
    3e0e:	00 00                	add    %al,(%eax)
    3e10:	02 20                	add    (%eax),%ah
    3e12:	01 06                	add    %eax,(%esi)
    3e14:	b4 4b                	mov    $0x4b,%ah
    3e16:	30 00                	xor    %al,(%eax)
    3e18:	88 00                	mov    %al,(%eax)
    3e1a:	00 00                	add    %al,(%eax)
    3e1c:	01 9c 57 12 00 00 1a 	add    %ebx,0x1a000012(%edi,%edx,2)
    3e23:	64 73 63             	fs jae 3e89 <mbh-0x2fc177>
    3e26:	00 22                	add    %ah,(%edx)
    3e28:	01 10                	add    %edx,(%eax)
    3e2a:	9f                   	lahf
    3e2b:	0f 00 00             	sldt   (%eax)
    3e2e:	02 91 70 2f fd 0a    	add    0xafd2f70(%ecx),%dl
    3e34:	00 00                	add    %al,(%eax)
    3e36:	02 23                	add    (%ebx),%ah
    3e38:	01 0d c5 0f 00 00    	add    %ecx,0xfc5
    3e3e:	02 91 6a 00 30 fc    	add    -0x3cfff96(%ecx),%dl
    3e44:	0d 00 00 02 e4       	or     $0xe4020000,%eax
    3e49:	06                   	push   %es
    3e4a:	37                   	aaa
    3e4b:	45                   	inc    %ebp
    3e4c:	30 00                	xor    %al,(%eax)
    3e4e:	7d 06                	jge    3e56 <mbh-0x2fc1aa>
    3e50:	00 00                	add    %al,(%eax)
    3e52:	01 9c af 12 00 00 1a 	add    %ebx,0x1a000012(%edi,%ebp,4)
    3e59:	63 72 30             	arpl   %esi,0x30(%edx)
    3e5c:	00 1a                	add    %bl,(%edx)
    3e5e:	01 0b                	add    %ecx,(%ebx)
    3e60:	4c                   	dec    %esp
    3e61:	00 00                	add    %al,(%eax)
    3e63:	00 02                	add    %al,(%edx)
    3e65:	91                   	xchg   %eax,%ecx
    3e66:	64 17                	fs pop %ss
    3e68:	10 46 30             	adc    %al,0x30(%esi)
    3e6b:	00 26                	add    %ah,(%esi)
    3e6d:	02 00                	add    (%eax),%al
    3e6f:	00 97 12 00 00 11    	add    %dl,0x11000012(%edi)
    3e75:	69 00 02 f3 0a 98    	imul   $0x980af302,(%eax),%eax
    3e7b:	00 00                	add    %al,(%eax)
    3e7d:	00 02                	add    %al,(%edx)
    3e7f:	91                   	xchg   %eax,%ecx
    3e80:	6c                   	insb   (%dx),%es:(%edi)
    3e81:	00 15 87 4b 30 00    	add    %dl,0x304b87
    3e87:	09 00                	or     %eax,(%eax)
    3e89:	00 00                	add    %al,(%eax)
    3e8b:	1a 78 00             	sbb    0x0(%eax),%bh
    3e8e:	1a 01                	sbb    (%ecx),%al
    3e90:	11 4c 00 00          	adc    %ecx,0x0(%eax,%eax,1)
    3e94:	00 02                	add    %al,(%edx)
    3e96:	91                   	xchg   %eax,%ecx
    3e97:	68 00 00 31 f4       	push   $0xf4310000
    3e9c:	0e                   	push   %cs
    3e9d:	00 00                	add    %al,(%eax)
    3e9f:	02 c4                	add    %ah,%al
    3ea1:	06                   	push   %es
    3ea2:	1e                   	push   %ds
    3ea3:	42                   	inc    %edx
    3ea4:	30 00                	xor    %al,(%eax)
    3ea6:	19 03                	sbb    %eax,(%ebx)
    3ea8:	00 00                	add    %al,(%eax)
    3eaa:	01 9c 09 13 00 00 13 	add    %ebx,0x13000013(%ecx,%ecx,1)
    3eb1:	4f                   	dec    %edi
    3eb2:	0d 00 00 02 c6       	or     $0xc6020000,%eax
    3eb7:	0c 8e                	or     $0x8e,%al
    3eb9:	08 00                	or     %al,(%eax)
    3ebb:	00 02                	add    %al,(%edx)
    3ebd:	91                   	xchg   %eax,%ecx
    3ebe:	72 17                	jb     3ed7 <mbh-0x2fc129>
    3ec0:	b3 44                	mov    $0x44,%bl
    3ec2:	30 00                	xor    %al,(%eax)
    3ec4:	06                   	push   %es
    3ec5:	00 00                	add    %al,(%eax)
    3ec7:	00 ef                	add    %ch,%bh
    3ec9:	12 00                	adc    (%eax),%al
    3ecb:	00 11                	add    %dl,(%ecx)
    3ecd:	76 00                	jbe    3ecf <mbh-0x2fc131>
    3ecf:	02 dc                	add    %ah,%bl
    3ed1:	0f 4c 00             	cmovl  (%eax),%eax
    3ed4:	00 00                	add    %al,(%eax)
    3ed6:	02 91 6c 00 15 c7    	add    -0x38eaff94(%ecx),%dl
    3edc:	44                   	inc    %esp
    3edd:	30 00                	xor    %al,(%eax)
    3edf:	65 00 00             	add    %al,%gs:(%eax)
    3ee2:	00 13                	add    %dl,(%ebx)
    3ee4:	f8                   	clc
    3ee5:	05 00 00 02 de       	add    $0xde020000,%eax
    3eea:	05 56 02 00 00       	add    $0x256,%eax
    3eef:	02 91 68 00 00 32    	add    0x32000068(%ecx),%dl
    3ef5:	76 0f                	jbe    3f06 <mbh-0x2fc0fa>
    3ef7:	00 00                	add    %al,(%eax)
    3ef9:	02 7b 15             	add    0x15(%ebx),%bh
    3efc:	6f                   	outsl  %ds:(%esi),(%dx)
    3efd:	40                   	inc    %eax
    3efe:	30 00                	xor    %al,(%eax)
    3f00:	af                   	scas   %es:(%edi),%eax
    3f01:	01 00                	add    %eax,(%eax)
    3f03:	00 01                	add    %al,(%ecx)
    3f05:	9c                   	pushf
    3f06:	70 13                	jo     3f1b <mbh-0x2fc0e5>
    3f08:	00 00                	add    %al,(%eax)
    3f0a:	16                   	push   %ss
    3f0b:	63 74 78 00          	arpl   %esi,0x0(%eax,%edi,2)
    3f0f:	02 7b 38             	add    0x38(%ebx),%bh
    3f12:	cf                   	iret
    3f13:	0e                   	push   %cs
    3f14:	00 00                	add    %al,(%eax)
    3f16:	02 91 4c 13 a5 0d    	add    0xda5134c(%ecx),%dl
    3f1c:	00 00                	add    %al,(%eax)
    3f1e:	02 98 06 98 00 00    	add    0x9806(%eax),%bl
    3f24:	00 02                	add    %al,(%edx)
    3f26:	91                   	xchg   %eax,%ecx
    3f27:	5c                   	pop    %esp
    3f28:	17                   	pop    %ss
    3f29:	28 41 30             	sub    %al,0x30(%ecx)
    3f2c:	00 06                	add    %al,(%esi)
    3f2e:	00 00                	add    %al,(%eax)
    3f30:	00 58 13             	add    %bl,0x13(%eax)
    3f33:	00 00                	add    %al,(%eax)
    3f35:	11 76 00             	adc    %esi,0x0(%esi)
    3f38:	02 99 02 4c 00 00    	add    0x4c02(%ecx),%bl
    3f3e:	00 02                	add    %al,(%edx)
    3f40:	91                   	xchg   %eax,%ecx
    3f41:	58                   	pop    %eax
    3f42:	00 15 3f 41 30 00    	add    %dl,0x30413f
    3f48:	06                   	push   %es
    3f49:	00 00                	add    %al,(%eax)
    3f4b:	00 11                	add    %dl,(%ecx)
    3f4d:	76 00                	jbe    3f4f <mbh-0x2fc0b1>
    3f4f:	02 9a 20 4c 00 00    	add    0x4c20(%edx),%bl
    3f55:	00 02                	add    %al,(%edx)
    3f57:	91                   	xchg   %eax,%ecx
    3f58:	54                   	push   %esp
    3f59:	00 00                	add    %al,(%eax)
    3f5b:	1b 54 0d 00          	sbb    0x0(%ebp,%ecx,1),%edx
    3f5f:	00 72 5e             	add    %dh,0x5e(%edx)
    3f62:	40                   	inc    %eax
    3f63:	30 00                	xor    %al,(%eax)
    3f65:	11 00                	adc    %eax,(%eax)
    3f67:	00 00                	add    %al,(%eax)
    3f69:	01 9c 1b 08 0e 00 00 	add    %ebx,0xe08(%ebx,%ebx,1)
    3f70:	69 00 40 80 00 06    	imul   $0x6008040,(%eax),%eax
    3f76:	00 00                	add    %al,(%eax)
    3f78:	00 01                	add    %al,(%ecx)
    3f7a:	9c                   	pushf
    3f7b:	1b c4                	sbb    %esp,%eax
    3f7d:	0c 00                	or     $0x0,%al
    3f7f:	00 60 00             	add    %ah,0x0(%eax)
    3f82:	40                   	inc    %eax
    3f83:	40                   	inc    %eax
    3f84:	00 06                	add    %al,(%esi)
    3f86:	00 00                	add    %al,(%eax)
    3f88:	00 01                	add    %al,(%ecx)
    3f8a:	9c                   	pushf
    3f8b:	33 7e 0d             	xor    0xd(%esi),%edi
    3f8e:	00 00                	add    %al,(%eax)
    3f90:	02 47 06             	add    0x6(%edi),%al
    3f93:	21 40 30             	and    %eax,0x30(%eax)
    3f96:	00 3d 00 00 00 01    	add    %bh,0x1000000
    3f9c:	9c                   	pushf
    3f9d:	e4 13                	in     $0x13,%al
    3f9f:	00 00                	add    %al,(%eax)
    3fa1:	16                   	push   %ss
    3fa2:	65 73 70             	gs jae 4015 <mbh-0x2fbfeb>
    3fa5:	00 02                	add    %al,(%edx)
    3fa7:	47                   	inc    %edi
    3fa8:	25 4c 00 00 00       	and    $0x4c,%eax
    3fad:	02 91 00 16 70 67    	add    0x67701600(%ecx),%dl
    3fb3:	64 00 02             	add    %al,%fs:(%edx)
    3fb6:	47                   	inc    %edi
    3fb7:	33 14 10             	xor    (%eax,%edx,1),%edx
    3fba:	00 00                	add    %al,(%eax)
    3fbc:	02 91 04 22 bd 0e    	add    0xebd2204(%ecx),%dl
    3fc2:	00 00                	add    %al,(%eax)
    3fc4:	02 47 3f             	add    0x3f(%edi),%al
    3fc7:	96                   	xchg   %eax,%esi
    3fc8:	04 00                	add    $0x0,%al
    3fca:	00 02                	add    %al,(%edx)
    3fcc:	91                   	xchg   %eax,%ecx
    3fcd:	08 00                	or     %al,(%eax)
    3fcf:	34 f5                	xor    $0xf5,%al
    3fd1:	0d 00 00 01 32       	or     $0x32010000,%eax
    3fd6:	15 96 04 00 00       	adc    $0x496,%eax
    3fdb:	7f 3f                	jg     401c <mbh-0x2fbfe4>
    3fdd:	30 00                	xor    %al,(%eax)
    3fdf:	a2 00 00 00 01       	mov    %al,0x1000000
    3fe4:	9c                   	pushf
    3fe5:	16                   	push   %ss
    3fe6:	64 73 74             	fs jae 405d <mbh-0x2fbfa3>
    3fe9:	00 01                	add    %al,(%ecx)
    3feb:	32 22                	xor    (%edx),%ah
    3fed:	96                   	xchg   %eax,%esi
    3fee:	04 00                	add    $0x0,%al
    3ff0:	00 02                	add    %al,(%edx)
    3ff2:	91                   	xchg   %eax,%ecx
    3ff3:	00 16                	add    %dl,(%esi)
    3ff5:	63 00                	arpl   %eax,(%eax)
    3ff7:	01 32                	add    %esi,(%edx)
    3ff9:	2f                   	das
    3ffa:	26 00 00             	add    %al,%es:(%eax)
    3ffd:	00 02                	add    %al,(%edx)
    3fff:	91                   	xchg   %eax,%ecx
    4000:	50                   	push   %eax
    4001:	22 5b 03             	and    0x3(%ebx),%bl
    4004:	00 00                	add    %al,(%eax)
    4006:	01 32                	add    %esi,(%edx)
    4008:	39 cf                	cmp    %ecx,%edi
    400a:	00 00                	add    %al,(%eax)
    400c:	00 02                	add    %al,(%edx)
    400e:	91                   	xchg   %eax,%ecx
    400f:	08 11                	or     %dl,(%ecx)
    4011:	63 6e 74             	arpl   %ebp,0x74(%esi)
    4014:	00 01                	add    %al,(%ecx)
    4016:	34 0b                	xor    $0xb,%al
    4018:	cf                   	iret
    4019:	00 00                	add    %al,(%eax)
    401b:	00 02                	add    %al,(%edx)
    401d:	91                   	xchg   %eax,%ecx
    401e:	70 11                	jo     4031 <mbh-0x2fbfcf>
    4020:	72 6d                	jb     408f <mbh-0x2fbf71>
    4022:	00 01                	add    %al,(%ecx)
    4024:	34 10                	xor    $0x10,%al
    4026:	cf                   	iret
    4027:	00 00                	add    %al,(%eax)
    4029:	00 02                	add    %al,(%edx)
    402b:	91                   	xchg   %eax,%ecx
    402c:	6c                   	insb   (%dx),%es:(%edi)
    402d:	13 c3                	adc    %ebx,%eax
    402f:	0d 00 00 01 35       	or     $0x35010000,%eax
    4034:	0b bb 04 00 00 02    	or     0x2000004(%ebx),%edi
    403a:	91                   	xchg   %eax,%ecx
    403b:	60                   	pusha
    403c:	17                   	pop    %ss
    403d:	b8 3f 30 00 44       	mov    $0x4400303f,%eax
    4042:	00 00                	add    %al,(%eax)
    4044:	00 86 14 00 00 11    	add    %al,0x11000014(%esi)
    404a:	6c                   	insb   (%dx),%es:(%edi)
    404b:	63 00                	arpl   %eax,(%eax)
    404d:	01 40 0f             	add    %eax,0xf(%eax)
    4050:	ee                   	out    %al,(%dx)
    4051:	00 00                	add    %al,(%eax)
    4053:	00 02                	add    %al,(%edx)
    4055:	91                   	xchg   %eax,%ecx
    4056:	68 15 d8 3f 30       	push   $0x303fd815
    405b:	00 16                	add    %dl,(%esi)
    405d:	00 00                	add    %al,(%eax)
    405f:	00 13                	add    %dl,(%ebx)
    4061:	bf 0c 00 00 01       	mov    $0x100000c,%edi
    4066:	41                   	inc    %ecx
    4067:	07                   	pop    %es
    4068:	19 06                	sbb    %eax,(%esi)
    406a:	00 00                	add    %al,(%eax)
    406c:	02 91 5c 00 00 15    	add    0x1500005c(%ecx),%dl
    4072:	02 40 30             	add    0x30(%eax),%al
    4075:	00 17                	add    %dl,(%edi)
    4077:	00 00                	add    %al,(%eax)
    4079:	00 13                	add    %dl,(%ebx)
    407b:	bf 0c 00 00 01       	mov    $0x100000c,%edi
    4080:	46                   	inc    %esi
    4081:	07                   	pop    %es
    4082:	19 06                	sbb    %eax,(%esi)
    4084:	00 00                	add    %al,(%eax)
    4086:	02 91 58 00 00 00    	add    0x58(%ecx),%dl

Déassemblage de la section .debug_abbrev :

00000000 <.debug_abbrev>:
   0:	01 11                	add    %edx,(%ecx)
   2:	00 10                	add    %dl,(%eax)
   4:	17                   	pop    %ss
   5:	11 01                	adc    %eax,(%ecx)
   7:	12 0f                	adc    (%edi),%cl
   9:	03 0e                	add    (%esi),%ecx
   b:	1b 0e                	sbb    (%esi),%ecx
   d:	25 0e 13 05 00       	and    $0x5130e,%eax
  12:	00 00                	add    %al,(%eax)
  14:	01 0d 00 03 0e 3a    	add    %ecx,0x3a0e0300
  1a:	21 03                	and    %eax,(%ebx)
  1c:	3b 0b                	cmp    (%ebx),%ecx
  1e:	39 0b                	cmp    %ecx,(%ebx)
  20:	49                   	dec    %ecx
  21:	13 38                	adc    (%eax),%edi
  23:	0b 00                	or     (%eax),%eax
  25:	00 02                	add    %al,(%edx)
  27:	16                   	push   %ss
  28:	00 03                	add    %al,(%ebx)
  2a:	0e                   	push   %cs
  2b:	3a 0b                	cmp    (%ebx),%cl
  2d:	3b 0b                	cmp    (%ebx),%ecx
  2f:	39 0b                	cmp    %ecx,(%ebx)
  31:	49                   	dec    %ecx
  32:	13 00                	adc    (%eax),%eax
  34:	00 03                	add    %al,(%ebx)
  36:	24 00                	and    $0x0,%al
  38:	0b 0b                	or     (%ebx),%ecx
  3a:	3e 0b 03             	or     %ds:(%ebx),%eax
  3d:	0e                   	push   %cs
  3e:	00 00                	add    %al,(%eax)
  40:	04 18                	add    $0x18,%al
  42:	00 00                	add    %al,(%eax)
  44:	00 05 13 01 03 0e    	add    %al,0xe030113
  4a:	0b 0b                	or     (%ebx),%ecx
  4c:	3a 0b                	cmp    (%ebx),%cl
  4e:	3b 0b                	cmp    (%ebx),%ecx
  50:	39 0b                	cmp    %ecx,(%ebx)
  52:	01 13                	add    %edx,(%ebx)
  54:	00 00                	add    %al,(%eax)
  56:	06                   	push   %es
  57:	26 00 49 13          	add    %cl,%es:0x13(%ecx)
  5b:	00 00                	add    %al,(%eax)
  5d:	07                   	pop    %es
  5e:	0d 00 03 08 3a       	or     $0x3a080300,%eax
  63:	0b 3b                	or     (%ebx),%edi
  65:	0b 39                	or     (%ecx),%edi
  67:	0b 49 13             	or     0x13(%ecx),%ecx
  6a:	38 0b                	cmp    %cl,(%ebx)
  6c:	00 00                	add    %al,(%eax)
  6e:	08 0f                	or     %cl,(%edi)
  70:	00 0b                	add    %cl,(%ebx)
  72:	21 04 49             	and    %eax,(%ecx,%ecx,2)
  75:	13 00                	adc    (%eax),%eax
  77:	00 09                	add    %cl,(%ecx)
  79:	35 00 49 13 00       	xor    $0x134900,%eax
  7e:	00 0a                	add    %cl,(%edx)
  80:	17                   	pop    %ss
  81:	01 0b                	add    %ecx,(%ebx)
  83:	0b 3a                	or     (%edx),%edi
  85:	21 03                	and    %eax,(%ebx)
  87:	3b 0b                	cmp    (%ebx),%ecx
  89:	39 21                	cmp    %esp,(%ecx)
  8b:	03 01                	add    (%ecx),%eax
  8d:	13 00                	adc    (%eax),%eax
  8f:	00 0b                	add    %cl,(%ebx)
  91:	0d 00 03 0e 3a       	or     $0x3a0e0300,%eax
  96:	21 03                	and    %eax,(%ebx)
  98:	3b 0b                	cmp    (%ebx),%ecx
  9a:	39 0b                	cmp    %ecx,(%ebx)
  9c:	49                   	dec    %ecx
  9d:	13 00                	adc    (%eax),%eax
  9f:	00 0c 13             	add    %cl,(%ebx,%edx,1)
  a2:	01 0b                	add    %ecx,(%ebx)
  a4:	0b 3a                	or     (%edx),%edi
  a6:	21 03                	and    %eax,(%ebx)
  a8:	3b 0b                	cmp    (%ebx),%ecx
  aa:	39 21                	cmp    %esp,(%ecx)
  ac:	05 01 13 00 00       	add    $0x1301,%eax
  b1:	0d 0d 00 49 13       	or     $0x1349000d,%eax
  b6:	00 00                	add    %al,(%eax)
  b8:	0e                   	push   %cs
  b9:	05 00 49 13 00       	add    $0x134900,%eax
  be:	00 0f                	add    %cl,(%edi)
  c0:	2e 01 3f             	add    %edi,%cs:(%edi)
  c3:	19 03                	sbb    %eax,(%ebx)
  c5:	0e                   	push   %cs
  c6:	3a 0b                	cmp    (%ebx),%cl
  c8:	3b 05 39 0b 3c 19    	cmp    0x193c0b39,%eax
  ce:	01 13                	add    %edx,(%ebx)
  d0:	00 00                	add    %al,(%eax)
  d2:	10 11                	adc    %dl,(%ecx)
  d4:	01 25 0e 13 0b 03    	add    %esp,0x30b130e
  da:	1f                   	pop    %ds
  db:	1b 1f                	sbb    (%edi),%ebx
  dd:	11 01                	adc    %eax,(%ecx)
  df:	12 06                	adc    (%esi),%al
  e1:	10 17                	adc    %dl,(%edi)
  e3:	00 00                	add    %al,(%eax)
  e5:	11 24 00             	adc    %esp,(%eax,%eax,1)
  e8:	0b 0b                	or     (%ebx),%ecx
  ea:	3e 0b 03             	or     %ds:(%ebx),%eax
  ed:	08 00                	or     %al,(%eax)
  ef:	00 12                	add    %dl,(%edx)
  f1:	0d 00 49 13 38       	or     $0x38134900,%eax
  f6:	0b 00                	or     (%eax),%eax
  f8:	00 13                	add    %dl,(%ebx)
  fa:	01 01                	add    %eax,(%ecx)
  fc:	49                   	dec    %ecx
  fd:	13 01                	adc    (%ecx),%eax
  ff:	13 00                	adc    (%eax),%eax
 101:	00 14 21             	add    %dl,(%ecx,%eiz,1)
 104:	00 49 13             	add    %cl,0x13(%ecx)
 107:	2f                   	das
 108:	0b 00                	or     (%eax),%eax
 10a:	00 15 34 00 03 08    	add    %dl,0x8030034
 110:	3a 0b                	cmp    (%ebx),%cl
 112:	3b 0b                	cmp    (%ebx),%ecx
 114:	39 0b                	cmp    %ecx,(%ebx)
 116:	49                   	dec    %ecx
 117:	13 3f                	adc    (%edi),%edi
 119:	19 88 01 0b 02 18    	sbb    %ecx,0x18020b01(%eax)
 11f:	00 00                	add    %al,(%eax)
 121:	16                   	push   %ss
 122:	34 00                	xor    $0x0,%al
 124:	03 0e                	add    (%esi),%ecx
 126:	3a 0b                	cmp    (%ebx),%cl
 128:	3b 0b                	cmp    (%ebx),%ecx
 12a:	39 0b                	cmp    %ecx,(%ebx)
 12c:	49                   	dec    %ecx
 12d:	13 88 01 0b 02 18    	adc    0x18020b01(%eax),%ecx
 133:	00 00                	add    %al,(%eax)
 135:	17                   	pop    %ss
 136:	34 00                	xor    $0x0,%al
 138:	03 0e                	add    (%esi),%ecx
 13a:	3a 0b                	cmp    (%ebx),%cl
 13c:	3b 0b                	cmp    (%ebx),%ecx
 13e:	39 0b                	cmp    %ecx,(%ebx)
 140:	49                   	dec    %ecx
 141:	13 3f                	adc    (%edi),%edi
 143:	19 02                	sbb    %eax,(%edx)
 145:	18 00                	sbb    %al,(%eax)
 147:	00 18                	add    %bl,(%eax)
 149:	2e 01 3f             	add    %edi,%cs:(%edi)
 14c:	19 03                	sbb    %eax,(%ebx)
 14e:	0e                   	push   %cs
 14f:	3a 0b                	cmp    (%ebx),%cl
 151:	3b 0b                	cmp    (%ebx),%ecx
 153:	39 0b                	cmp    %ecx,(%ebx)
 155:	27                   	daa
 156:	19 3c 19             	sbb    %edi,(%ecx,%ebx,1)
 159:	01 13                	add    %edx,(%ebx)
 15b:	00 00                	add    %al,(%eax)
 15d:	19 2e                	sbb    %ebp,(%esi)
 15f:	01 3f                	add    %edi,(%edi)
 161:	19 03                	sbb    %eax,(%ebx)
 163:	08 3a                	or     %bh,(%edx)
 165:	0b 3b                	or     (%ebx),%edi
 167:	0b 39                	or     (%ecx),%edi
 169:	0b 3c 19             	or     (%ecx,%ebx,1),%edi
 16c:	01 13                	add    %edx,(%ebx)
 16e:	00 00                	add    %al,(%eax)
 170:	1a 2e                	sbb    (%esi),%ch
 172:	01 3f                	add    %edi,(%edi)
 174:	19 03                	sbb    %eax,(%ebx)
 176:	0e                   	push   %cs
 177:	3a 0b                	cmp    (%ebx),%cl
 179:	3b 0b                	cmp    (%ebx),%ecx
 17b:	39 0b                	cmp    %ecx,(%ebx)
 17d:	27                   	daa
 17e:	19 49 13             	sbb    %ecx,0x13(%ecx)
 181:	3c 19                	cmp    $0x19,%al
 183:	01 13                	add    %edx,(%ebx)
 185:	00 00                	add    %al,(%eax)
 187:	1b 2e                	sbb    (%esi),%ebp
 189:	01 3f                	add    %edi,(%edi)
 18b:	19 03                	sbb    %eax,(%ebx)
 18d:	0e                   	push   %cs
 18e:	3a 0b                	cmp    (%ebx),%cl
 190:	3b 0b                	cmp    (%ebx),%ecx
 192:	39 0b                	cmp    %ecx,(%ebx)
 194:	3c 19                	cmp    $0x19,%al
 196:	01 13                	add    %edx,(%ebx)
 198:	00 00                	add    %al,(%eax)
 19a:	1c 2e                	sbb    $0x2e,%al
 19c:	01 3f                	add    %edi,(%edi)
 19e:	19 03                	sbb    %eax,(%ebx)
 1a0:	0e                   	push   %cs
 1a1:	3a 0b                	cmp    (%ebx),%cl
 1a3:	3b 0b                	cmp    (%ebx),%ecx
 1a5:	39 0b                	cmp    %ecx,(%ebx)
 1a7:	27                   	daa
 1a8:	19 11                	sbb    %edx,(%ecx)
 1aa:	01 12                	add    %edx,(%edx)
 1ac:	06                   	push   %es
 1ad:	40                   	inc    %eax
 1ae:	18 7c 19 00          	sbb    %bh,0x0(%ecx,%ebx,1)
 1b2:	00 1d 05 00 03 08    	add    %bl,0x8030005
 1b8:	3a 0b                	cmp    (%ebx),%cl
 1ba:	3b 0b                	cmp    (%ebx),%ecx
 1bc:	39 0b                	cmp    %ecx,(%ebx)
 1be:	49                   	dec    %ecx
 1bf:	13 02                	adc    (%edx),%eax
 1c1:	18 00                	sbb    %al,(%eax)
 1c3:	00 00                	add    %al,(%eax)
 1c5:	01 05 00 03 08 3a    	add    %eax,0x3a080300
 1cb:	0b 3b                	or     (%ebx),%edi
 1cd:	0b 39                	or     (%ecx),%edi
 1cf:	0b 49 13             	or     0x13(%ecx),%ecx
 1d2:	02 18                	add    (%eax),%bl
 1d4:	00 00                	add    %al,(%eax)
 1d6:	02 16                	add    (%esi),%dl
 1d8:	00 03                	add    %al,(%ebx)
 1da:	0e                   	push   %cs
 1db:	3a 0b                	cmp    (%ebx),%cl
 1dd:	3b 0b                	cmp    (%ebx),%ecx
 1df:	39 0b                	cmp    %ecx,(%ebx)
 1e1:	49                   	dec    %ecx
 1e2:	13 00                	adc    (%eax),%eax
 1e4:	00 03                	add    %al,(%ebx)
 1e6:	0d 00 03 0e 3a       	or     $0x3a0e0300,%eax
 1eb:	21 03                	and    %eax,(%ebx)
 1ed:	3b 0b                	cmp    (%ebx),%ecx
 1ef:	39 0b                	cmp    %ecx,(%ebx)
 1f1:	49                   	dec    %ecx
 1f2:	13 38                	adc    (%eax),%edi
 1f4:	0b 00                	or     (%eax),%eax
 1f6:	00 04 34             	add    %al,(%esp,%esi,1)
 1f9:	00 03                	add    %al,(%ebx)
 1fb:	0e                   	push   %cs
 1fc:	3a 21                	cmp    (%ecx),%ah
 1fe:	02 3b                	add    (%ebx),%bh
 200:	0b 39                	or     (%ecx),%edi
 202:	0b 49 13             	or     0x13(%ecx),%ecx
 205:	02 18                	add    (%eax),%bl
 207:	00 00                	add    %al,(%eax)
 209:	05 05 00 03 0e       	add    $0xe030005,%eax
 20e:	3a 21                	cmp    (%ecx),%ah
 210:	02 3b                	add    (%ebx),%bh
 212:	0b 39                	or     (%ecx),%edi
 214:	0b 49 13             	or     0x13(%ecx),%ecx
 217:	02 18                	add    (%eax),%bl
 219:	00 00                	add    %al,(%eax)
 21b:	06                   	push   %es
 21c:	0d 00 03 08 3a       	or     $0x3a080300,%eax
 221:	21 03                	and    %eax,(%ebx)
 223:	3b 0b                	cmp    (%ebx),%ecx
 225:	39 0b                	cmp    %ecx,(%ebx)
 227:	49                   	dec    %ecx
 228:	13 00                	adc    (%eax),%eax
 22a:	00 07                	add    %al,(%edi)
 22c:	34 00                	xor    $0x0,%al
 22e:	03 08                	add    (%eax),%ecx
 230:	3a 21                	cmp    (%ecx),%ah
 232:	02 3b                	add    (%ebx),%bh
 234:	0b 39                	or     (%ecx),%edi
 236:	0b 49 13             	or     0x13(%ecx),%ecx
 239:	02 18                	add    (%eax),%bl
 23b:	00 00                	add    %al,(%eax)
 23d:	08 0f                	or     %cl,(%edi)
 23f:	00 0b                	add    %cl,(%ebx)
 241:	21 04 49             	and    %eax,(%ecx,%ecx,2)
 244:	13 00                	adc    (%eax),%eax
 246:	00 09                	add    %cl,(%ecx)
 248:	0d 00 03 0e 3a       	or     $0x3a0e0300,%eax
 24d:	21 03                	and    %eax,(%ebx)
 24f:	3b 0b                	cmp    (%ebx),%ecx
 251:	39 0b                	cmp    %ecx,(%ebx)
 253:	49                   	dec    %ecx
 254:	13 00                	adc    (%eax),%eax
 256:	00 0a                	add    %cl,(%edx)
 258:	24 00                	and    $0x0,%al
 25a:	0b 0b                	or     (%ebx),%ecx
 25c:	3e 0b 03             	or     %ds:(%ebx),%eax
 25f:	0e                   	push   %cs
 260:	00 00                	add    %al,(%eax)
 262:	0b 0d 00 49 13 00    	or     0x134900,%ecx
 268:	00 0c 13             	add    %cl,(%ebx,%edx,1)
 26b:	01 0b                	add    %ecx,(%ebx)
 26d:	0b 3a                	or     (%edx),%edi
 26f:	21 03                	and    %eax,(%ebx)
 271:	3b 0b                	cmp    (%ebx),%ecx
 273:	39 0b                	cmp    %ecx,(%ebx)
 275:	01 13                	add    %edx,(%ebx)
 277:	00 00                	add    %al,(%eax)
 279:	0d 0b 01 11 01       	or     $0x111010b,%eax
 27e:	12 06                	adc    (%esi),%al
 280:	01 13                	add    %edx,(%ebx)
 282:	00 00                	add    %al,(%eax)
 284:	0e                   	push   %cs
 285:	01 01                	add    %eax,(%ecx)
 287:	49                   	dec    %ecx
 288:	13 01                	adc    (%ecx),%eax
 28a:	13 00                	adc    (%eax),%eax
 28c:	00 0f                	add    %cl,(%edi)
 28e:	2e 01 03             	add    %eax,%cs:(%ebx)
 291:	0e                   	push   %cs
 292:	3a 21                	cmp    (%ecx),%ah
 294:	02 3b                	add    (%ebx),%bh
 296:	0b 39                	or     (%ecx),%edi
 298:	21 14 27             	and    %edx,(%edi,%eiz,1)
 29b:	19 11                	sbb    %edx,(%ecx)
 29d:	01 12                	add    %edx,(%edx)
 29f:	06                   	push   %es
 2a0:	40                   	inc    %eax
 2a1:	18 7c 19 01          	sbb    %bh,0x1(%ecx,%ebx,1)
 2a5:	13 00                	adc    (%eax),%eax
 2a7:	00 10                	add    %dl,(%eax)
 2a9:	21 00                	and    %eax,(%eax)
 2ab:	49                   	dec    %ecx
 2ac:	13 2f                	adc    (%edi),%ebp
 2ae:	0b 00                	or     (%eax),%eax
 2b0:	00 11                	add    %dl,(%ecx)
 2b2:	2e 01 3f             	add    %edi,%cs:(%edi)
 2b5:	19 03                	sbb    %eax,(%ebx)
 2b7:	0e                   	push   %cs
 2b8:	3a 21                	cmp    (%ecx),%ah
 2ba:	02 3b                	add    (%ebx),%bh
 2bc:	0b 39                	or     (%ecx),%edi
 2be:	21 08                	and    %ecx,(%eax)
 2c0:	27                   	daa
 2c1:	19 49 13             	sbb    %ecx,0x13(%ecx)
 2c4:	11 01                	adc    %eax,(%ecx)
 2c6:	12 06                	adc    (%esi),%al
 2c8:	40                   	inc    %eax
 2c9:	18 7c 19 01          	sbb    %bh,0x1(%ecx,%ebx,1)
 2cd:	13 00                	adc    (%eax),%eax
 2cf:	00 12                	add    %dl,(%edx)
 2d1:	17                   	pop    %ss
 2d2:	01 03                	add    %eax,(%ebx)
 2d4:	0e                   	push   %cs
 2d5:	0b 0b                	or     (%ebx),%ecx
 2d7:	3a 21                	cmp    (%ecx),%ah
 2d9:	03 3b                	add    (%ebx),%edi
 2db:	0b 39                	or     (%ecx),%edi
 2dd:	21 0f                	and    %ecx,(%edi)
 2df:	01 13                	add    %edx,(%ebx)
 2e1:	00 00                	add    %al,(%eax)
 2e3:	13 13                	adc    (%ebx),%edx
 2e5:	01 03                	add    %eax,(%ebx)
 2e7:	0e                   	push   %cs
 2e8:	0b 0b                	or     (%ebx),%ecx
 2ea:	3a 21                	cmp    (%ecx),%ah
 2ec:	03 3b                	add    (%ebx),%edi
 2ee:	0b 39                	or     (%ecx),%edi
 2f0:	21 10                	and    %edx,(%eax)
 2f2:	01 13                	add    %edx,(%ebx)
 2f4:	00 00                	add    %al,(%eax)
 2f6:	14 18                	adc    $0x18,%al
 2f8:	00 00                	add    %al,(%eax)
 2fa:	00 15 17 01 0b 0b    	add    %dl,0xb0b0117
 300:	3a 21                	cmp    (%ecx),%ah
 302:	03 3b                	add    (%ebx),%edi
 304:	0b 39                	or     (%ecx),%edi
 306:	0b 01                	or     (%ecx),%eax
 308:	13 00                	adc    (%eax),%eax
 30a:	00 16                	add    %dl,(%esi)
 30c:	0d 00 49 13 38       	or     $0x38134900,%eax
 311:	21 00                	and    %eax,(%eax)
 313:	00 00                	add    %al,(%eax)
 315:	17                   	pop    %ss
 316:	28 00                	sub    %al,(%eax)
 318:	03 0e                	add    (%esi),%ecx
 31a:	1c 0b                	sbb    $0xb,%al
 31c:	00 00                	add    %al,(%eax)
 31e:	18 05 00 49 13 00    	sbb    %al,0x134900
 324:	00 19                	add    %bl,(%ecx)
 326:	11 01                	adc    %eax,(%ecx)
 328:	25 0e 13 0b 03       	and    $0x30b130e,%eax
 32d:	1f                   	pop    %ds
 32e:	1b 1f                	sbb    (%edi),%ebx
 330:	11 01                	adc    %eax,(%ecx)
 332:	12 06                	adc    (%esi),%al
 334:	10 17                	adc    %dl,(%edi)
 336:	00 00                	add    %al,(%eax)
 338:	1a 24 00             	sbb    (%eax,%eax,1),%ah
 33b:	0b 0b                	or     (%ebx),%ecx
 33d:	3e 0b 03             	or     %ds:(%ebx),%eax
 340:	08 00                	or     %al,(%eax)
 342:	00 1b                	add    %bl,(%ebx)
 344:	26 00 49 13          	add    %cl,%es:0x13(%ecx)
 348:	00 00                	add    %al,(%eax)
 34a:	1c 04                	sbb    $0x4,%al
 34c:	01 3e                	add    %edi,(%esi)
 34e:	0b 0b                	or     (%ebx),%ecx
 350:	0b 49 13             	or     0x13(%ecx),%ecx
 353:	3a 0b                	cmp    (%ebx),%cl
 355:	3b 0b                	cmp    (%ebx),%ecx
 357:	39 0b                	cmp    %ecx,(%ebx)
 359:	01 13                	add    %edx,(%ebx)
 35b:	00 00                	add    %al,(%eax)
 35d:	1d 0f 00 0b 0b       	sbb    $0xb0b000f,%eax
 362:	00 00                	add    %al,(%eax)
 364:	1e                   	push   %ds
 365:	0d 00 03 08 3a       	or     $0x3a080300,%eax
 36a:	0b 3b                	or     (%ebx),%edi
 36c:	0b 39                	or     (%ecx),%edi
 36e:	0b 49 13             	or     0x13(%ecx),%ecx
 371:	38 0b                	cmp    %cl,(%ebx)
 373:	00 00                	add    %al,(%eax)
 375:	1f                   	pop    %ds
 376:	0f 00 0b             	str    (%ebx)
 379:	0b 03                	or     (%ebx),%eax
 37b:	0e                   	push   %cs
 37c:	49                   	dec    %ecx
 37d:	13 00                	adc    (%eax),%eax
 37f:	00 20                	add    %ah,(%eax)
 381:	21 00                	and    %eax,(%eax)
 383:	49                   	dec    %ecx
 384:	13 2f                	adc    (%edi),%ebp
 386:	05 00 00 21 2e       	add    $0x2e210000,%eax
 38b:	01 3f                	add    %edi,(%edi)
 38d:	19 03                	sbb    %eax,(%ebx)
 38f:	0e                   	push   %cs
 390:	3a 0b                	cmp    (%ebx),%cl
 392:	3b 05 39 0b 27 19    	cmp    0x19270b39,%eax
 398:	49                   	dec    %ecx
 399:	13 3c 19             	adc    (%ecx,%ebx,1),%edi
 39c:	01 13                	add    %edx,(%ebx)
 39e:	00 00                	add    %al,(%eax)
 3a0:	22 2e                	and    (%esi),%ch
 3a2:	01 3f                	add    %edi,(%edi)
 3a4:	19 03                	sbb    %eax,(%ebx)
 3a6:	0e                   	push   %cs
 3a7:	3a 0b                	cmp    (%ebx),%cl
 3a9:	3b 05 39 0b 3c 19    	cmp    0x193c0b39,%eax
 3af:	01 13                	add    %edx,(%ebx)
 3b1:	00 00                	add    %al,(%eax)
 3b3:	23 0b                	and    (%ebx),%ecx
 3b5:	01 55 17             	add    %edx,0x17(%ebp)
 3b8:	01 13                	add    %edx,(%ebx)
 3ba:	00 00                	add    %al,(%eax)
 3bc:	24 0b                	and    $0xb,%al
 3be:	01 11                	add    %edx,(%ecx)
 3c0:	01 12                	add    %edx,(%edx)
 3c2:	06                   	push   %es
 3c3:	00 00                	add    %al,(%eax)
 3c5:	25 2e 01 3f 19       	and    $0x193f012e,%eax
 3ca:	03 0e                	add    (%esi),%ecx
 3cc:	3a 0b                	cmp    (%ebx),%cl
 3ce:	3b 0b                	cmp    (%ebx),%ecx
 3d0:	39 0b                	cmp    %ecx,(%ebx)
 3d2:	27                   	daa
 3d3:	19 11                	sbb    %edx,(%ecx)
 3d5:	01 12                	add    %edx,(%edx)
 3d7:	06                   	push   %es
 3d8:	40                   	inc    %eax
 3d9:	18 7c 19 01          	sbb    %bh,0x1(%ecx,%ebx,1)
 3dd:	13 00                	adc    (%eax),%eax
 3df:	00 26                	add    %ah,(%esi)
 3e1:	2e 01 03             	add    %eax,%cs:(%ebx)
 3e4:	0e                   	push   %cs
 3e5:	3a 0b                	cmp    (%ebx),%cl
 3e7:	3b 0b                	cmp    (%ebx),%ecx
 3e9:	39 0b                	cmp    %ecx,(%ebx)
 3eb:	27                   	daa
 3ec:	19 11                	sbb    %edx,(%ecx)
 3ee:	01 12                	add    %edx,(%edx)
 3f0:	06                   	push   %es
 3f1:	40                   	inc    %eax
 3f2:	18 7a 19             	sbb    %bh,0x19(%edx)
 3f5:	00 00                	add    %al,(%eax)
 3f7:	00 01                	add    %al,(%ecx)
 3f9:	16                   	push   %ss
 3fa:	00 03                	add    %al,(%ebx)
 3fc:	0e                   	push   %cs
 3fd:	3a 0b                	cmp    (%ebx),%cl
 3ff:	3b 0b                	cmp    (%ebx),%ecx
 401:	39 0b                	cmp    %ecx,(%ebx)
 403:	49                   	dec    %ecx
 404:	13 00                	adc    (%eax),%eax
 406:	00 02                	add    %al,(%edx)
 408:	0d 00 03 0e 3a       	or     $0x3a0e0300,%eax
 40d:	21 02                	and    %eax,(%edx)
 40f:	3b 0b                	cmp    (%ebx),%ecx
 411:	39 0b                	cmp    %ecx,(%ebx)
 413:	49                   	dec    %ecx
 414:	13 38                	adc    (%eax),%edi
 416:	0b 00                	or     (%eax),%eax
 418:	00 03                	add    %al,(%ebx)
 41a:	0d 00 03 08 3a       	or     $0x3a080300,%eax
 41f:	0b 3b                	or     (%ebx),%edi
 421:	0b 39                	or     (%ecx),%edi
 423:	0b 49 13             	or     0x13(%ecx),%ecx
 426:	00 00                	add    %al,(%eax)
 428:	04 0d                	add    $0xd,%al
 42a:	00 49 13             	add    %cl,0x13(%ecx)
 42d:	00 00                	add    %al,(%eax)
 42f:	05 0d 00 03 0e       	add    $0xe03000d,%eax
 434:	3a 21                	cmp    (%ecx),%ah
 436:	03 3b                	add    (%ebx),%edi
 438:	0b 39                	or     (%ecx),%edi
 43a:	0b 49 13             	or     0x13(%ecx),%ecx
 43d:	0d 0b 6b 0b 00       	or     $0xb6b0b,%eax
 442:	00 06                	add    %al,(%esi)
 444:	34 00                	xor    $0x0,%al
 446:	03 08                	add    (%eax),%ecx
 448:	3a 21                	cmp    (%ecx),%ah
 44a:	01 3b                	add    %edi,(%ebx)
 44c:	0b 39                	or     (%ecx),%edi
 44e:	0b 49 13             	or     0x13(%ecx),%ecx
 451:	02 18                	add    (%eax),%bl
 453:	00 00                	add    %al,(%eax)
 455:	07                   	pop    %es
 456:	13 01                	adc    (%ecx),%eax
 458:	0b 0b                	or     (%ebx),%ecx
 45a:	3a 0b                	cmp    (%ebx),%cl
 45c:	3b 0b                	cmp    (%ebx),%ecx
 45e:	39 0b                	cmp    %ecx,(%ebx)
 460:	01 13                	add    %edx,(%ebx)
 462:	00 00                	add    %al,(%eax)
 464:	08 0d 00 03 08 3a    	or     %cl,0x3a080300
 46a:	21 03                	and    %eax,(%ebx)
 46c:	3b 0b                	cmp    (%ebx),%ecx
 46e:	39 0b                	cmp    %ecx,(%ebx)
 470:	49                   	dec    %ecx
 471:	13 0d 21 01 6b 0b    	adc    0xb6b0121,%ecx
 477:	00 00                	add    %al,(%eax)
 479:	09 0d 00 03 0e 3a    	or     %ecx,0x3a0e0300
 47f:	21 02                	and    %eax,(%edx)
 481:	3b 0b                	cmp    (%ebx),%ecx
 483:	39 0b                	cmp    %ecx,(%ebx)
 485:	49                   	dec    %ecx
 486:	13 00                	adc    (%eax),%eax
 488:	00 0a                	add    %cl,(%edx)
 48a:	24 00                	and    $0x0,%al
 48c:	0b 0b                	or     (%ebx),%ecx
 48e:	3e 0b 03             	or     %ds:(%ebx),%eax
 491:	0e                   	push   %cs
 492:	00 00                	add    %al,(%eax)
 494:	0b 0f                	or     (%edi),%ecx
 496:	00 0b                	add    %cl,(%ebx)
 498:	21 04 49             	and    %eax,(%ecx,%ecx,2)
 49b:	13 00                	adc    (%eax),%eax
 49d:	00 0c 17             	add    %cl,(%edi,%edx,1)
 4a0:	01 03                	add    %eax,(%ebx)
 4a2:	0e                   	push   %cs
 4a3:	0b 0b                	or     (%ebx),%ecx
 4a5:	3a 0b                	cmp    (%ebx),%cl
 4a7:	3b 0b                	cmp    (%ebx),%ecx
 4a9:	39 21                	cmp    %esp,(%ecx)
 4ab:	0f 01 13             	lgdtl  (%ebx)
 4ae:	00 00                	add    %al,(%eax)
 4b0:	0d 05 00 03 0e       	or     $0xe030005,%eax
 4b5:	3a 21                	cmp    (%ecx),%ah
 4b7:	01 3b                	add    %edi,(%ebx)
 4b9:	0b 39                	or     (%ecx),%edi
 4bb:	0b 49 13             	or     0x13(%ecx),%ecx
 4be:	02 18                	add    (%eax),%bl
 4c0:	00 00                	add    %al,(%eax)
 4c2:	0e                   	push   %cs
 4c3:	05 00 03 08 3a       	add    $0x3a080300,%eax
 4c8:	21 01                	and    %eax,(%ecx)
 4ca:	3b 0b                	cmp    (%ebx),%ecx
 4cc:	39 0b                	cmp    %ecx,(%ebx)
 4ce:	49                   	dec    %ecx
 4cf:	13 02                	adc    (%edx),%eax
 4d1:	18 00                	sbb    %al,(%eax)
 4d3:	00 0f                	add    %cl,(%edi)
 4d5:	13 01                	adc    (%ecx),%eax
 4d7:	03 0e                	add    (%esi),%ecx
 4d9:	0b 0b                	or     (%ebx),%ecx
 4db:	3a 21                	cmp    (%ecx),%ah
 4dd:	02 3b                	add    (%ebx),%bh
 4df:	0b 39                	or     (%ecx),%edi
 4e1:	21 10                	and    %edx,(%eax)
 4e3:	01 13                	add    %edx,(%ebx)
 4e5:	00 00                	add    %al,(%eax)
 4e7:	10 0b                	adc    %cl,(%ebx)
 4e9:	01 11                	add    %edx,(%ecx)
 4eb:	01 12                	add    %edx,(%edx)
 4ed:	06                   	push   %es
 4ee:	00 00                	add    %al,(%eax)
 4f0:	11 01                	adc    %eax,(%ecx)
 4f2:	01 49 13             	add    %ecx,0x13(%ecx)
 4f5:	01 13                	add    %edx,(%ebx)
 4f7:	00 00                	add    %al,(%eax)
 4f9:	12 21                	adc    (%ecx),%ah
 4fb:	00 49 13             	add    %cl,0x13(%ecx)
 4fe:	2f                   	das
 4ff:	0b 00                	or     (%eax),%eax
 501:	00 13                	add    %dl,(%ebx)
 503:	17                   	pop    %ss
 504:	01 0b                	add    %ecx,(%ebx)
 506:	0b 3a                	or     (%edx),%edi
 508:	21 02                	and    %eax,(%edx)
 50a:	3b 0b                	cmp    (%ebx),%ecx
 50c:	39 0b                	cmp    %ecx,(%ebx)
 50e:	01 13                	add    %edx,(%ebx)
 510:	00 00                	add    %al,(%eax)
 512:	14 0d                	adc    $0xd,%al
 514:	00 49 13             	add    %cl,0x13(%ecx)
 517:	38 21                	cmp    %ah,(%ecx)
 519:	00 00                	add    %al,(%eax)
 51b:	00 15 2e 01 03 0e    	add    %dl,0xe03012e
 521:	3a 21                	cmp    (%ecx),%ah
 523:	01 3b                	add    %edi,(%ebx)
 525:	0b 39                	or     (%ecx),%edi
 527:	0b 27                	or     (%edi),%esp
 529:	19 11                	sbb    %edx,(%ecx)
 52b:	01 12                	add    %edx,(%edx)
 52d:	06                   	push   %es
 52e:	40                   	inc    %eax
 52f:	18 7a 19             	sbb    %bh,0x19(%edx)
 532:	01 13                	add    %edx,(%ebx)
 534:	00 00                	add    %al,(%eax)
 536:	16                   	push   %ss
 537:	2e 01 3f             	add    %edi,%cs:(%edi)
 53a:	19 03                	sbb    %eax,(%ebx)
 53c:	0e                   	push   %cs
 53d:	3a 21                	cmp    (%ecx),%ah
 53f:	01 3b                	add    %edi,(%ebx)
 541:	0b 39                	or     (%ecx),%edi
 543:	21 08                	and    %ecx,(%eax)
 545:	27                   	daa
 546:	19 49 13             	sbb    %ecx,0x13(%ecx)
 549:	11 01                	adc    %eax,(%ecx)
 54b:	12 06                	adc    (%esi),%al
 54d:	40                   	inc    %eax
 54e:	18 7c 19 01          	sbb    %bh,0x1(%ecx,%ebx,1)
 552:	13 00                	adc    (%eax),%eax
 554:	00 17                	add    %dl,(%edi)
 556:	0b 01                	or     (%ecx),%eax
 558:	11 01                	adc    %eax,(%ecx)
 55a:	12 06                	adc    (%esi),%al
 55c:	01 13                	add    %edx,(%ebx)
 55e:	00 00                	add    %al,(%eax)
 560:	18 11                	sbb    %dl,(%ecx)
 562:	01 25 0e 13 0b 03    	add    %esp,0x30b130e
 568:	1f                   	pop    %ds
 569:	1b 1f                	sbb    (%edi),%ebx
 56b:	11 01                	adc    %eax,(%ecx)
 56d:	12 06                	adc    (%esi),%al
 56f:	10 17                	adc    %dl,(%edi)
 571:	00 00                	add    %al,(%eax)
 573:	19 24 00             	sbb    %esp,(%eax,%eax,1)
 576:	0b 0b                	or     (%ebx),%ecx
 578:	3e 0b 03             	or     %ds:(%ebx),%eax
 57b:	08 00                	or     %al,(%eax)
 57d:	00 1a                	add    %bl,(%edx)
 57f:	0f 00 0b             	str    (%ebx)
 582:	0b 00                	or     (%eax),%eax
 584:	00 1b                	add    %bl,(%ebx)
 586:	0d 00 03 08 3a       	or     $0x3a080300,%eax
 58b:	0b 3b                	or     (%ebx),%edi
 58d:	0b 39                	or     (%ecx),%edi
 58f:	0b 49 13             	or     0x13(%ecx),%ecx
 592:	38 0b                	cmp    %cl,(%ebx)
 594:	00 00                	add    %al,(%eax)
 596:	1c 2e                	sbb    $0x2e,%al
 598:	01 3f                	add    %edi,(%edi)
 59a:	19 03                	sbb    %eax,(%ebx)
 59c:	0e                   	push   %cs
 59d:	3a 0b                	cmp    (%ebx),%cl
 59f:	3b 0b                	cmp    (%ebx),%ecx
 5a1:	39 0b                	cmp    %ecx,(%ebx)
 5a3:	11 01                	adc    %eax,(%ecx)
 5a5:	12 06                	adc    (%esi),%al
 5a7:	40                   	inc    %eax
 5a8:	18 7a 19             	sbb    %bh,0x19(%edx)
 5ab:	01 13                	add    %edx,(%ebx)
 5ad:	00 00                	add    %al,(%eax)
 5af:	1d 2e 00 3f 19       	sbb    $0x193f002e,%eax
 5b4:	03 0e                	add    (%esi),%ecx
 5b6:	3a 0b                	cmp    (%ebx),%cl
 5b8:	3b 0b                	cmp    (%ebx),%ecx
 5ba:	39 0b                	cmp    %ecx,(%ebx)
 5bc:	11 01                	adc    %eax,(%ecx)
 5be:	12 06                	adc    (%esi),%al
 5c0:	40                   	inc    %eax
 5c1:	18 7c 19 00          	sbb    %bh,0x0(%ecx,%ebx,1)
 5c5:	00 1e                	add    %bl,(%esi)
 5c7:	2e 01 03             	add    %eax,%cs:(%ebx)
 5ca:	0e                   	push   %cs
 5cb:	3a 0b                	cmp    (%ebx),%cl
 5cd:	3b 0b                	cmp    (%ebx),%ecx
 5cf:	39 0b                	cmp    %ecx,(%ebx)
 5d1:	27                   	daa
 5d2:	19 11                	sbb    %edx,(%ecx)
 5d4:	01 12                	add    %edx,(%edx)
 5d6:	06                   	push   %es
 5d7:	40                   	inc    %eax
 5d8:	18 7c 19 01          	sbb    %bh,0x1(%ecx,%ebx,1)
 5dc:	13 00                	adc    (%eax),%eax
 5de:	00 1f                	add    %bl,(%edi)
 5e0:	2e 01 03             	add    %eax,%cs:(%ebx)
 5e3:	0e                   	push   %cs
 5e4:	3a 0b                	cmp    (%ebx),%cl
 5e6:	3b 0b                	cmp    (%ebx),%ecx
 5e8:	39 0b                	cmp    %ecx,(%ebx)
 5ea:	27                   	daa
 5eb:	19 11                	sbb    %edx,(%ecx)
 5ed:	01 12                	add    %edx,(%edx)
 5ef:	06                   	push   %es
 5f0:	40                   	inc    %eax
 5f1:	18 7a 19             	sbb    %bh,0x19(%edx)
 5f4:	00 00                	add    %al,(%eax)
 5f6:	00 01                	add    %al,(%ecx)
 5f8:	0d 00 03 0e 3a       	or     $0x3a0e0300,%eax
 5fd:	21 02                	and    %eax,(%edx)
 5ff:	3b 0b                	cmp    (%ebx),%ecx
 601:	39 0b                	cmp    %ecx,(%ebx)
 603:	49                   	dec    %ecx
 604:	13 0d 0b 6b 0b 00    	adc    0xb6b0b,%ecx
 60a:	00 02                	add    %al,(%edx)
 60c:	24 00                	and    $0x0,%al
 60e:	0b 0b                	or     (%ebx),%ecx
 610:	3e 0b 03             	or     %ds:(%ebx),%eax
 613:	0e                   	push   %cs
 614:	00 00                	add    %al,(%eax)
 616:	03 16                	add    (%esi),%edx
 618:	00 03                	add    %al,(%ebx)
 61a:	0e                   	push   %cs
 61b:	3a 0b                	cmp    (%ebx),%cl
 61d:	3b 0b                	cmp    (%ebx),%ecx
 61f:	39 0b                	cmp    %ecx,(%ebx)
 621:	49                   	dec    %ecx
 622:	13 00                	adc    (%eax),%eax
 624:	00 04 13             	add    %al,(%ebx,%edx,1)
 627:	01 0b                	add    %ecx,(%ebx)
 629:	21 01                	and    %eax,(%ecx)
 62b:	3a 21                	cmp    (%ecx),%ah
 62d:	02 3b                	add    (%ebx),%bh
 62f:	0b 39                	or     (%ecx),%edi
 631:	21 04 01             	and    %eax,(%ecx,%eax,1)
 634:	13 00                	adc    (%eax),%eax
 636:	00 05 0d 00 03 08    	add    %al,0x803000d
 63c:	3a 21                	cmp    (%ecx),%ah
 63e:	02 3b                	add    (%ebx),%bh
 640:	0b 39                	or     (%ecx),%edi
 642:	21 11                	and    %edx,(%ecx)
 644:	49                   	dec    %ecx
 645:	13 0d 0b 6b 0b 00    	adc    0xb6b0b,%ecx
 64b:	00 06                	add    %al,(%esi)
 64d:	17                   	pop    %ss
 64e:	01 03                	add    %eax,(%ebx)
 650:	0e                   	push   %cs
 651:	0b 21                	or     (%ecx),%esp
 653:	01 3a                	add    %edi,(%edx)
 655:	21 02                	and    %eax,(%edx)
 657:	3b 0b                	cmp    (%ebx),%ecx
 659:	39 21                	cmp    %esp,(%ecx)
 65b:	0f 01 13             	lgdtl  (%ebx)
 65e:	00 00                	add    %al,(%eax)
 660:	07                   	pop    %es
 661:	0d 00 03 08 3a       	or     $0x3a080300,%eax
 666:	21 02                	and    %eax,(%edx)
 668:	3b 0b                	cmp    (%ebx),%ecx
 66a:	39 0b                	cmp    %ecx,(%ebx)
 66c:	49                   	dec    %ecx
 66d:	13 00                	adc    (%eax),%eax
 66f:	00 08                	add    %cl,(%eax)
 671:	34 00                	xor    $0x0,%al
 673:	03 0e                	add    (%esi),%ecx
 675:	3a 21                	cmp    (%ecx),%ah
 677:	01 3b                	add    %edi,(%ebx)
 679:	0b 39                	or     (%ecx),%edi
 67b:	21 11                	and    %edx,(%ecx)
 67d:	49                   	dec    %ecx
 67e:	13 02                	adc    (%edx),%eax
 680:	18 00                	sbb    %al,(%eax)
 682:	00 09                	add    %cl,(%ecx)
 684:	0d 00 49 13 00       	or     $0x134900,%eax
 689:	00 0a                	add    %cl,(%edx)
 68b:	0d 00 03 0e 3a       	or     $0x3a0e0300,%eax
 690:	21 02                	and    %eax,(%edx)
 692:	3b 0b                	cmp    (%ebx),%ecx
 694:	39 21                	cmp    %esp,(%ecx)
 696:	06                   	push   %es
 697:	49                   	dec    %ecx
 698:	13 00                	adc    (%eax),%eax
 69a:	00 0b                	add    %cl,(%ebx)
 69c:	11 01                	adc    %eax,(%ecx)
 69e:	25 0e 13 0b 03       	and    $0x30b130e,%eax
 6a3:	1f                   	pop    %ds
 6a4:	1b 1f                	sbb    (%edi),%ebx
 6a6:	11 01                	adc    %eax,(%ecx)
 6a8:	12 06                	adc    (%esi),%al
 6aa:	10 17                	adc    %dl,(%edi)
 6ac:	00 00                	add    %al,(%eax)
 6ae:	0c 24                	or     $0x24,%al
 6b0:	00 0b                	add    %cl,(%ebx)
 6b2:	0b 3e                	or     (%esi),%edi
 6b4:	0b 03                	or     (%ebx),%eax
 6b6:	08 00                	or     %al,(%eax)
 6b8:	00 0d 2e 01 3f 19    	add    %cl,0x193f012e
 6be:	03 0e                	add    (%esi),%ecx
 6c0:	3a 0b                	cmp    (%ebx),%cl
 6c2:	3b 0b                	cmp    (%ebx),%ecx
 6c4:	39 0b                	cmp    %ecx,(%ebx)
 6c6:	11 01                	adc    %eax,(%ecx)
 6c8:	12 06                	adc    (%esi),%al
 6ca:	40                   	inc    %eax
 6cb:	18 7a 19             	sbb    %bh,0x19(%edx)
 6ce:	00 00                	add    %al,(%eax)
 6d0:	00 01                	add    %al,(%ecx)
 6d2:	0d 00 03 08 3a       	or     $0x3a080300,%eax
 6d7:	0b 3b                	or     (%ebx),%edi
 6d9:	0b 39                	or     (%ecx),%edi
 6db:	0b 49 13             	or     0x13(%ecx),%ecx
 6de:	0d 0b 6b 0b 00       	or     $0xb6b0b,%eax
 6e3:	00 02                	add    %al,(%edx)
 6e5:	16                   	push   %ss
 6e6:	00 03                	add    %al,(%ebx)
 6e8:	0e                   	push   %cs
 6e9:	3a 0b                	cmp    (%ebx),%cl
 6eb:	3b 0b                	cmp    (%ebx),%ecx
 6ed:	39 0b                	cmp    %ecx,(%ebx)
 6ef:	49                   	dec    %ecx
 6f0:	13 00                	adc    (%eax),%eax
 6f2:	00 03                	add    %al,(%ebx)
 6f4:	0d 00 49 13 00       	or     $0x134900,%eax
 6f9:	00 04 0d 00 03 0e 3a 	add    %al,0x3a0e0300(,%ecx,1)
 700:	0b 3b                	or     (%ebx),%edi
 702:	0b 39                	or     (%ecx),%edi
 704:	0b 49 13             	or     0x13(%ecx),%ecx
 707:	38 0b                	cmp    %cl,(%ebx)
 709:	00 00                	add    %al,(%eax)
 70b:	05 0d 00 03 08       	add    $0x803000d,%eax
 710:	3a 0b                	cmp    (%ebx),%cl
 712:	3b 0b                	cmp    (%ebx),%ecx
 714:	39 0b                	cmp    %ecx,(%ebx)
 716:	49                   	dec    %ecx
 717:	13 38                	adc    (%eax),%edi
 719:	0b 00                	or     (%eax),%eax
 71b:	00 06                	add    %al,(%esi)
 71d:	13 01                	adc    (%ecx),%eax
 71f:	0b 0b                	or     (%ebx),%ecx
 721:	3a 0b                	cmp    (%ebx),%cl
 723:	3b 0b                	cmp    (%ebx),%ecx
 725:	39 0b                	cmp    %ecx,(%ebx)
 727:	01 13                	add    %edx,(%ebx)
 729:	00 00                	add    %al,(%eax)
 72b:	07                   	pop    %es
 72c:	0d 00 03 0e 3a       	or     $0x3a0e0300,%eax
 731:	0b 3b                	or     (%ebx),%edi
 733:	0b 39                	or     (%ecx),%edi
 735:	0b 49 13             	or     0x13(%ecx),%ecx
 738:	00 00                	add    %al,(%eax)
 73a:	08 24 00             	or     %ah,(%eax,%eax,1)
 73d:	0b 0b                	or     (%ebx),%ecx
 73f:	3e 0b 03             	or     %ds:(%ebx),%eax
 742:	0e                   	push   %cs
 743:	00 00                	add    %al,(%eax)
 745:	09 17                	or     %edx,(%edi)
 747:	01 03                	add    %eax,(%ebx)
 749:	0e                   	push   %cs
 74a:	0b 0b                	or     (%ebx),%ecx
 74c:	3a 0b                	cmp    (%ebx),%cl
 74e:	3b 0b                	cmp    (%ebx),%ecx
 750:	39 21                	cmp    %esp,(%ecx)
 752:	0f 01 13             	lgdtl  (%ebx)
 755:	00 00                	add    %al,(%eax)
 757:	0a 0d 00 03 08 3a    	or     0x3a080300,%cl
 75d:	0b 3b                	or     (%ebx),%edi
 75f:	0b 39                	or     (%ecx),%edi
 761:	0b 49 13             	or     0x13(%ecx),%ecx
 764:	00 00                	add    %al,(%eax)
 766:	0b 0d 00 03 0e 3a    	or     0x3a0e0300,%ecx
 76c:	0b 3b                	or     (%ebx),%edi
 76e:	0b 39                	or     (%ecx),%edi
 770:	0b 49 13             	or     0x13(%ecx),%ecx
 773:	0d 0b 6b 0b 00       	or     $0xb6b0b,%eax
 778:	00 0c 01             	add    %cl,(%ecx,%eax,1)
 77b:	01 49 13             	add    %ecx,0x13(%ecx)
 77e:	01 13                	add    %edx,(%ebx)
 780:	00 00                	add    %al,(%eax)
 782:	0d 21 00 49 13       	or     $0x13490021,%eax
 787:	2f                   	das
 788:	0b 00                	or     (%eax),%eax
 78a:	00 0e                	add    %cl,(%esi)
 78c:	0d 00 49 13 38       	or     $0x38134900,%eax
 791:	0b 00                	or     (%eax),%eax
 793:	00 0f                	add    %cl,(%edi)
 795:	17                   	pop    %ss
 796:	01 0b                	add    %ecx,(%ebx)
 798:	0b 3a                	or     (%edx),%edi
 79a:	0b 3b                	or     (%ebx),%edi
 79c:	0b 39                	or     (%ecx),%edi
 79e:	0b 01                	or     (%ecx),%eax
 7a0:	13 00                	adc    (%eax),%eax
 7a2:	00 10                	add    %dl,(%eax)
 7a4:	13 01                	adc    (%ecx),%eax
 7a6:	03 0e                	add    (%esi),%ecx
 7a8:	0b 0b                	or     (%ebx),%ecx
 7aa:	3a 0b                	cmp    (%ebx),%cl
 7ac:	3b 0b                	cmp    (%ebx),%ecx
 7ae:	39 21                	cmp    %esp,(%ecx)
 7b0:	10 01                	adc    %al,(%ecx)
 7b2:	13 00                	adc    (%eax),%eax
 7b4:	00 11                	add    %dl,(%ecx)
 7b6:	0f 00 0b             	str    (%ebx)
 7b9:	21 04 49             	and    %eax,(%ecx,%ecx,2)
 7bc:	13 00                	adc    (%eax),%eax
 7be:	00 12                	add    %dl,(%edx)
 7c0:	34 00                	xor    $0x0,%al
 7c2:	03 08                	add    (%eax),%ecx
 7c4:	3a 21                	cmp    (%ecx),%ah
 7c6:	01 3b                	add    %edi,(%ebx)
 7c8:	0b 39                	or     (%ecx),%edi
 7ca:	0b 49 13             	or     0x13(%ecx),%ecx
 7cd:	02 18                	add    (%eax),%bl
 7cf:	00 00                	add    %al,(%eax)
 7d1:	13 34 00             	adc    (%eax,%eax,1),%esi
 7d4:	03 0e                	add    (%esi),%ecx
 7d6:	3a 21                	cmp    (%ecx),%ah
 7d8:	01 3b                	add    %edi,(%ebx)
 7da:	0b 39                	or     (%ecx),%edi
 7dc:	0b 49 13             	or     0x13(%ecx),%ecx
 7df:	02 18                	add    (%eax),%bl
 7e1:	00 00                	add    %al,(%eax)
 7e3:	14 05                	adc    $0x5,%al
 7e5:	00 49 13             	add    %cl,0x13(%ecx)
 7e8:	00 00                	add    %al,(%eax)
 7ea:	15 18 00 00 00       	adc    $0x18,%eax
 7ef:	16                   	push   %ss
 7f0:	11 01                	adc    %eax,(%ecx)
 7f2:	25 0e 13 0b 03       	and    $0x30b130e,%eax
 7f7:	1f                   	pop    %ds
 7f8:	1b 1f                	sbb    (%edi),%ebx
 7fa:	11 01                	adc    %eax,(%ecx)
 7fc:	12 06                	adc    (%esi),%al
 7fe:	10 17                	adc    %dl,(%edi)
 800:	00 00                	add    %al,(%eax)
 802:	17                   	pop    %ss
 803:	24 00                	and    $0x0,%al
 805:	0b 0b                	or     (%ebx),%ecx
 807:	3e 0b 03             	or     %ds:(%ebx),%eax
 80a:	08 00                	or     %al,(%eax)
 80c:	00 18                	add    %bl,(%eax)
 80e:	26 00 49 13          	add    %cl,%es:0x13(%ecx)
 812:	00 00                	add    %al,(%eax)
 814:	19 2e                	sbb    %ebp,(%esi)
 816:	01 3f                	add    %edi,(%edi)
 818:	19 03                	sbb    %eax,(%ebx)
 81a:	0e                   	push   %cs
 81b:	3a 0b                	cmp    (%ebx),%cl
 81d:	3b 0b                	cmp    (%ebx),%ecx
 81f:	39 0b                	cmp    %ecx,(%ebx)
 821:	27                   	daa
 822:	19 3c 19             	sbb    %edi,(%ecx,%ebx,1)
 825:	01 13                	add    %edx,(%ebx)
 827:	00 00                	add    %al,(%eax)
 829:	1a 2e                	sbb    (%esi),%ch
 82b:	01 3f                	add    %edi,(%edi)
 82d:	19 03                	sbb    %eax,(%ebx)
 82f:	0e                   	push   %cs
 830:	3a 0b                	cmp    (%ebx),%cl
 832:	3b 0b                	cmp    (%ebx),%ecx
 834:	39 0b                	cmp    %ecx,(%ebx)
 836:	27                   	daa
 837:	19 49 13             	sbb    %ecx,0x13(%ecx)
 83a:	3c 19                	cmp    $0x19,%al
 83c:	01 13                	add    %edx,(%ebx)
 83e:	00 00                	add    %al,(%eax)
 840:	1b 2e                	sbb    (%esi),%ebp
 842:	01 3f                	add    %edi,(%edi)
 844:	19 03                	sbb    %eax,(%ebx)
 846:	0e                   	push   %cs
 847:	3a 0b                	cmp    (%ebx),%cl
 849:	3b 0b                	cmp    (%ebx),%ecx
 84b:	39 0b                	cmp    %ecx,(%ebx)
 84d:	3c 19                	cmp    $0x19,%al
 84f:	01 13                	add    %edx,(%ebx)
 851:	00 00                	add    %al,(%eax)
 853:	1c 2e                	sbb    $0x2e,%al
 855:	01 3f                	add    %edi,(%edi)
 857:	19 03                	sbb    %eax,(%ebx)
 859:	0e                   	push   %cs
 85a:	3a 0b                	cmp    (%ebx),%cl
 85c:	3b 0b                	cmp    (%ebx),%ecx
 85e:	39 0b                	cmp    %ecx,(%ebx)
 860:	27                   	daa
 861:	19 11                	sbb    %edx,(%ecx)
 863:	01 12                	add    %edx,(%edx)
 865:	06                   	push   %es
 866:	40                   	inc    %eax
 867:	18 7c 19 01          	sbb    %bh,0x1(%ecx,%ebx,1)
 86b:	13 00                	adc    (%eax),%eax
 86d:	00 1d 05 00 03 08    	add    %bl,0x8030005
 873:	3a 0b                	cmp    (%ebx),%cl
 875:	3b 0b                	cmp    (%ebx),%ecx
 877:	39 0b                	cmp    %ecx,(%ebx)
 879:	49                   	dec    %ecx
 87a:	13 02                	adc    (%edx),%eax
 87c:	18 00                	sbb    %al,(%eax)
 87e:	00 1e                	add    %bl,(%esi)
 880:	2e 01 3f             	add    %edi,%cs:(%edi)
 883:	19 03                	sbb    %eax,(%ebx)
 885:	0e                   	push   %cs
 886:	3a 0b                	cmp    (%ebx),%cl
 888:	3b 0b                	cmp    (%ebx),%ecx
 88a:	39 0b                	cmp    %ecx,(%ebx)
 88c:	11 01                	adc    %eax,(%ecx)
 88e:	12 06                	adc    (%esi),%al
 890:	40                   	inc    %eax
 891:	18 7a 19             	sbb    %bh,0x19(%edx)
 894:	00 00                	add    %al,(%eax)
 896:	1f                   	pop    %ds
 897:	0b 01                	or     (%ecx),%eax
 899:	11 01                	adc    %eax,(%ecx)
 89b:	12 06                	adc    (%esi),%al
 89d:	00 00                	add    %al,(%eax)
 89f:	00 01                	add    %al,(%ecx)
 8a1:	11 00                	adc    %eax,(%eax)
 8a3:	10 17                	adc    %dl,(%edi)
 8a5:	55                   	push   %ebp
 8a6:	17                   	pop    %ss
 8a7:	03 0e                	add    (%esi),%ecx
 8a9:	1b 0e                	sbb    (%esi),%ecx
 8ab:	25 0e 13 05 00       	and    $0x5130e,%eax
 8b0:	00 00                	add    %al,(%eax)
 8b2:	01 0d 00 03 08 3a    	add    %ecx,0x3a080300
 8b8:	0b 3b                	or     (%ebx),%edi
 8ba:	0b 39                	or     (%ecx),%edi
 8bc:	0b 49 13             	or     0x13(%ecx),%ecx
 8bf:	0d 0b 6b 0b 00       	or     $0xb6b0b,%eax
 8c4:	00 02                	add    %al,(%edx)
 8c6:	16                   	push   %ss
 8c7:	00 03                	add    %al,(%ebx)
 8c9:	0e                   	push   %cs
 8ca:	3a 0b                	cmp    (%ebx),%cl
 8cc:	3b 0b                	cmp    (%ebx),%ecx
 8ce:	39 0b                	cmp    %ecx,(%ebx)
 8d0:	49                   	dec    %ecx
 8d1:	13 00                	adc    (%eax),%eax
 8d3:	00 03                	add    %al,(%ebx)
 8d5:	0d 00 03 08 3a       	or     $0x3a080300,%eax
 8da:	0b 3b                	or     (%ebx),%edi
 8dc:	0b 39                	or     (%ecx),%edi
 8de:	0b 49 13             	or     0x13(%ecx),%ecx
 8e1:	38 0b                	cmp    %cl,(%ebx)
 8e3:	00 00                	add    %al,(%eax)
 8e5:	04 0d                	add    $0xd,%al
 8e7:	00 49 13             	add    %cl,0x13(%ecx)
 8ea:	00 00                	add    %al,(%eax)
 8ec:	05 24 00 0b 0b       	add    $0xb0b0024,%eax
 8f1:	3e 0b 03             	or     %ds:(%ebx),%eax
 8f4:	0e                   	push   %cs
 8f5:	00 00                	add    %al,(%eax)
 8f7:	06                   	push   %es
 8f8:	0d 00 03 0e 3a       	or     $0x3a0e0300,%eax
 8fd:	0b 3b                	or     (%ebx),%edi
 8ff:	0b 39                	or     (%ecx),%edi
 901:	0b 49 13             	or     0x13(%ecx),%ecx
 904:	38 0b                	cmp    %cl,(%ebx)
 906:	00 00                	add    %al,(%eax)
 908:	07                   	pop    %es
 909:	13 01                	adc    (%ecx),%eax
 90b:	0b 0b                	or     (%ebx),%ecx
 90d:	3a 0b                	cmp    (%ebx),%cl
 90f:	3b 0b                	cmp    (%ebx),%ecx
 911:	39 0b                	cmp    %ecx,(%ebx)
 913:	01 13                	add    %edx,(%ebx)
 915:	00 00                	add    %al,(%eax)
 917:	08 17                	or     %dl,(%edi)
 919:	01 03                	add    %eax,(%ebx)
 91b:	0e                   	push   %cs
 91c:	0b 0b                	or     (%ebx),%ecx
 91e:	3a 0b                	cmp    (%ebx),%cl
 920:	3b 0b                	cmp    (%ebx),%ecx
 922:	39 21                	cmp    %esp,(%ecx)
 924:	0f 01 13             	lgdtl  (%ebx)
 927:	00 00                	add    %al,(%eax)
 929:	09 0d 00 03 08 3a    	or     %ecx,0x3a080300
 92f:	0b 3b                	or     (%ebx),%edi
 931:	0b 39                	or     (%ecx),%edi
 933:	0b 49 13             	or     0x13(%ecx),%ecx
 936:	00 00                	add    %al,(%eax)
 938:	0a 0d 00 03 0e 3a    	or     0x3a0e0300,%cl
 93e:	21 02                	and    %eax,(%edx)
 940:	3b 0b                	cmp    (%ebx),%ecx
 942:	39 0b                	cmp    %ecx,(%ebx)
 944:	49                   	dec    %ecx
 945:	13 00                	adc    (%eax),%eax
 947:	00 0b                	add    %cl,(%ebx)
 949:	01 01                	add    %eax,(%ecx)
 94b:	49                   	dec    %ecx
 94c:	13 01                	adc    (%ecx),%eax
 94e:	13 00                	adc    (%eax),%eax
 950:	00 0c 21             	add    %cl,(%ecx,%eiz,1)
 953:	00 49 13             	add    %cl,0x13(%ecx)
 956:	2f                   	das
 957:	0b 00                	or     (%eax),%eax
 959:	00 0d 34 00 03 08    	add    %cl,0x8030034
 95f:	3a 21                	cmp    (%ecx),%ah
 961:	01 3b                	add    %edi,(%ebx)
 963:	0b 39                	or     (%ecx),%edi
 965:	0b 49 13             	or     0x13(%ecx),%ecx
 968:	02 18                	add    (%eax),%bl
 96a:	00 00                	add    %al,(%eax)
 96c:	0e                   	push   %cs
 96d:	0f 00 0b             	str    (%ebx)
 970:	21 04 49             	and    %eax,(%ecx,%ecx,2)
 973:	13 00                	adc    (%eax),%eax
 975:	00 0f                	add    %cl,(%edi)
 977:	13 01                	adc    (%ecx),%eax
 979:	03 0e                	add    (%esi),%ecx
 97b:	0b 0b                	or     (%ebx),%ecx
 97d:	3a 0b                	cmp    (%ebx),%cl
 97f:	3b 0b                	cmp    (%ebx),%ecx
 981:	39 21                	cmp    %esp,(%ecx)
 983:	10 01                	adc    %al,(%ecx)
 985:	13 00                	adc    (%eax),%eax
 987:	00 10                	add    %dl,(%eax)
 989:	05 00 49 13 00       	add    $0x134900,%eax
 98e:	00 11                	add    %dl,(%ecx)
 990:	0b 01                	or     (%ecx),%eax
 992:	11 01                	adc    %eax,(%ecx)
 994:	12 06                	adc    (%esi),%al
 996:	01 13                	add    %edx,(%ebx)
 998:	00 00                	add    %al,(%eax)
 99a:	12 0d 00 49 13 38    	adc    0x38134900,%cl
 9a0:	0b 00                	or     (%eax),%eax
 9a2:	00 13                	add    %dl,(%ebx)
 9a4:	2e 01 3f             	add    %edi,%cs:(%edi)
 9a7:	19 03                	sbb    %eax,(%ebx)
 9a9:	0e                   	push   %cs
 9aa:	3a 0b                	cmp    (%ebx),%cl
 9ac:	3b 0b                	cmp    (%ebx),%ecx
 9ae:	39 0b                	cmp    %ecx,(%ebx)
 9b0:	27                   	daa
 9b1:	19 3c 19             	sbb    %edi,(%ecx,%ebx,1)
 9b4:	01 13                	add    %edx,(%ebx)
 9b6:	00 00                	add    %al,(%eax)
 9b8:	14 18                	adc    $0x18,%al
 9ba:	00 00                	add    %al,(%eax)
 9bc:	00 15 11 01 25 0e    	add    %dl,0xe250111
 9c2:	13 0b                	adc    (%ebx),%ecx
 9c4:	03 1f                	add    (%edi),%ebx
 9c6:	1b 1f                	sbb    (%edi),%ebx
 9c8:	11 01                	adc    %eax,(%ecx)
 9ca:	12 06                	adc    (%esi),%al
 9cc:	10 17                	adc    %dl,(%edi)
 9ce:	00 00                	add    %al,(%eax)
 9d0:	16                   	push   %ss
 9d1:	24 00                	and    $0x0,%al
 9d3:	0b 0b                	or     (%ebx),%ecx
 9d5:	3e 0b 03             	or     %ds:(%ebx),%eax
 9d8:	08 00                	or     %al,(%eax)
 9da:	00 17                	add    %dl,(%edi)
 9dc:	26 00 49 13          	add    %cl,%es:0x13(%ecx)
 9e0:	00 00                	add    %al,(%eax)
 9e2:	18 17                	sbb    %dl,(%edi)
 9e4:	01 0b                	add    %ecx,(%ebx)
 9e6:	0b 3a                	or     (%edx),%edi
 9e8:	0b 3b                	or     (%ebx),%edi
 9ea:	0b 39                	or     (%ecx),%edi
 9ec:	0b 01                	or     (%ecx),%eax
 9ee:	13 00                	adc    (%eax),%eax
 9f0:	00 19                	add    %bl,(%ecx)
 9f2:	0d 00 03 0e 3a       	or     $0x3a0e0300,%eax
 9f7:	0b 3b                	or     (%ebx),%edi
 9f9:	0b 39                	or     (%ecx),%edi
 9fb:	0b 49 13             	or     0x13(%ecx),%ecx
 9fe:	0d 0b 6b 0b 00       	or     $0xb6b0b,%eax
 a03:	00 1a                	add    %bl,(%edx)
 a05:	34 00                	xor    $0x0,%al
 a07:	03 0e                	add    (%esi),%ecx
 a09:	3a 0b                	cmp    (%ebx),%cl
 a0b:	3b 0b                	cmp    (%ebx),%ecx
 a0d:	39 0b                	cmp    %ecx,(%ebx)
 a0f:	49                   	dec    %ecx
 a10:	13 02                	adc    (%edx),%eax
 a12:	18 00                	sbb    %al,(%eax)
 a14:	00 1b                	add    %bl,(%ebx)
 a16:	2e 01 3f             	add    %edi,%cs:(%edi)
 a19:	19 03                	sbb    %eax,(%ebx)
 a1b:	0e                   	push   %cs
 a1c:	3a 0b                	cmp    (%ebx),%cl
 a1e:	3b 0b                	cmp    (%ebx),%ecx
 a20:	39 0b                	cmp    %ecx,(%ebx)
 a22:	27                   	daa
 a23:	19 49 13             	sbb    %ecx,0x13(%ecx)
 a26:	3c 19                	cmp    $0x19,%al
 a28:	01 13                	add    %edx,(%ebx)
 a2a:	00 00                	add    %al,(%eax)
 a2c:	1c 2e                	sbb    $0x2e,%al
 a2e:	01 3f                	add    %edi,(%edi)
 a30:	19 03                	sbb    %eax,(%ebx)
 a32:	0e                   	push   %cs
 a33:	3a 0b                	cmp    (%ebx),%cl
 a35:	3b 0b                	cmp    (%ebx),%ecx
 a37:	39 0b                	cmp    %ecx,(%ebx)
 a39:	27                   	daa
 a3a:	19 11                	sbb    %edx,(%ecx)
 a3c:	01 12                	add    %edx,(%edx)
 a3e:	06                   	push   %es
 a3f:	40                   	inc    %eax
 a40:	18 7c 19 00          	sbb    %bh,0x0(%ecx,%ebx,1)
 a44:	00 1d 05 00 03 08    	add    %bl,0x8030005
 a4a:	3a 0b                	cmp    (%ebx),%cl
 a4c:	3b 0b                	cmp    (%ebx),%ecx
 a4e:	39 0b                	cmp    %ecx,(%ebx)
 a50:	49                   	dec    %ecx
 a51:	13 02                	adc    (%edx),%eax
 a53:	18 00                	sbb    %al,(%eax)
 a55:	00 1e                	add    %bl,(%esi)
 a57:	0b 01                	or     (%ecx),%eax
 a59:	11 01                	adc    %eax,(%ecx)
 a5b:	12 06                	adc    (%esi),%al
 a5d:	00 00                	add    %al,(%eax)
 a5f:	00 01                	add    %al,(%ecx)
 a61:	24 00                	and    $0x0,%al
 a63:	0b 0b                	or     (%ebx),%ecx
 a65:	3e 0b 03             	or     %ds:(%ebx),%eax
 a68:	0e                   	push   %cs
 a69:	00 00                	add    %al,(%eax)
 a6b:	02 16                	add    (%esi),%dl
 a6d:	00 03                	add    %al,(%ebx)
 a6f:	0e                   	push   %cs
 a70:	3a 21                	cmp    (%ecx),%ah
 a72:	02 3b                	add    (%ebx),%bh
 a74:	0b 39                	or     (%ecx),%edi
 a76:	21 20                	and    %esp,(%eax)
 a78:	49                   	dec    %ecx
 a79:	13 00                	adc    (%eax),%eax
 a7b:	00 03                	add    %al,(%ebx)
 a7d:	0f 00 0b             	str    (%ebx)
 a80:	21 04 49             	and    %eax,(%ecx,%ecx,2)
 a83:	13 00                	adc    (%eax),%eax
 a85:	00 04 34             	add    %al,(%esp,%esi,1)
 a88:	00 03                	add    %al,(%ebx)
 a8a:	08 3a                	or     %bh,(%edx)
 a8c:	21 01                	and    %eax,(%ecx)
 a8e:	3b 21                	cmp    (%ecx),%esp
 a90:	0a 39                	or     (%ecx),%bh
 a92:	0b 49 13             	or     0x13(%ecx),%ecx
 a95:	02 18                	add    (%eax),%bl
 a97:	00 00                	add    %al,(%eax)
 a99:	05 11 01 25 0e       	add    $0xe250111,%eax
 a9e:	13 0b                	adc    (%ebx),%ecx
 aa0:	03 1f                	add    (%edi),%ebx
 aa2:	1b 1f                	sbb    (%edi),%ebx
 aa4:	11 01                	adc    %eax,(%ecx)
 aa6:	12 06                	adc    (%esi),%al
 aa8:	10 17                	adc    %dl,(%edi)
 aaa:	00 00                	add    %al,(%eax)
 aac:	06                   	push   %es
 aad:	24 00                	and    $0x0,%al
 aaf:	0b 0b                	or     (%ebx),%ecx
 ab1:	3e 0b 03             	or     %ds:(%ebx),%eax
 ab4:	08 00                	or     %al,(%eax)
 ab6:	00 07                	add    %al,(%edi)
 ab8:	26 00 49 13          	add    %cl,%es:0x13(%ecx)
 abc:	00 00                	add    %al,(%eax)
 abe:	08 34 00             	or     %dh,(%eax,%eax,1)
 ac1:	03 0e                	add    (%esi),%ecx
 ac3:	3a 0b                	cmp    (%ebx),%cl
 ac5:	3b 0b                	cmp    (%ebx),%ecx
 ac7:	39 0b                	cmp    %ecx,(%ebx)
 ac9:	49                   	dec    %ecx
 aca:	13 3f                	adc    (%edi),%edi
 acc:	19 3c 19             	sbb    %edi,(%ecx,%ebx,1)
 acf:	00 00                	add    %al,(%eax)
 ad1:	09 2e                	or     %ebp,(%esi)
 ad3:	01 3f                	add    %edi,(%edi)
 ad5:	19 03                	sbb    %eax,(%ebx)
 ad7:	0e                   	push   %cs
 ad8:	3a 0b                	cmp    (%ebx),%cl
 ada:	3b 0b                	cmp    (%ebx),%ecx
 adc:	39 0b                	cmp    %ecx,(%ebx)
 ade:	27                   	daa
 adf:	19 49 13             	sbb    %ecx,0x13(%ecx)
 ae2:	3c 19                	cmp    $0x19,%al
 ae4:	01 13                	add    %edx,(%ebx)
 ae6:	00 00                	add    %al,(%eax)
 ae8:	0a 05 00 49 13 00    	or     0x134900,%al
 aee:	00 0b                	add    %cl,(%ebx)
 af0:	18 00                	sbb    %al,(%eax)
 af2:	00 00                	add    %al,(%eax)
 af4:	0c 2e                	or     $0x2e,%al
 af6:	01 3f                	add    %edi,(%edi)
 af8:	19 03                	sbb    %eax,(%ebx)
 afa:	0e                   	push   %cs
 afb:	3a 0b                	cmp    (%ebx),%cl
 afd:	3b 0b                	cmp    (%ebx),%ecx
 aff:	39 0b                	cmp    %ecx,(%ebx)
 b01:	27                   	daa
 b02:	19 11                	sbb    %edx,(%ecx)
 b04:	01 12                	add    %edx,(%edx)
 b06:	06                   	push   %es
 b07:	40                   	inc    %eax
 b08:	18 7c 19 01          	sbb    %bh,0x1(%ecx,%ebx,1)
 b0c:	13 00                	adc    (%eax),%eax
 b0e:	00 0d 05 00 03 0e    	add    %cl,0xe030005
 b14:	3a 0b                	cmp    (%ebx),%cl
 b16:	3b 0b                	cmp    (%ebx),%ecx
 b18:	39 0b                	cmp    %ecx,(%ebx)
 b1a:	49                   	dec    %ecx
 b1b:	13 02                	adc    (%edx),%eax
 b1d:	18 00                	sbb    %al,(%eax)
 b1f:	00 00                	add    %al,(%eax)
 b21:	01 0d 00 03 08 3a    	add    %ecx,0x3a080300
 b27:	0b 3b                	or     (%ebx),%edi
 b29:	0b 39                	or     (%ecx),%edi
 b2b:	0b 49 13             	or     0x13(%ecx),%ecx
 b2e:	0d 0b 6b 0b 00       	or     $0xb6b0b,%eax
 b33:	00 02                	add    %al,(%edx)
 b35:	0d 00 03 08 3a       	or     $0x3a080300,%eax
 b3a:	0b 3b                	or     (%ebx),%edi
 b3c:	0b 39                	or     (%ecx),%edi
 b3e:	0b 49 13             	or     0x13(%ecx),%ecx
 b41:	38 0b                	cmp    %cl,(%ebx)
 b43:	00 00                	add    %al,(%eax)
 b45:	03 16                	add    (%esi),%edx
 b47:	00 03                	add    %al,(%ebx)
 b49:	0e                   	push   %cs
 b4a:	3a 0b                	cmp    (%ebx),%cl
 b4c:	3b 0b                	cmp    (%ebx),%ecx
 b4e:	39 0b                	cmp    %ecx,(%ebx)
 b50:	49                   	dec    %ecx
 b51:	13 00                	adc    (%eax),%eax
 b53:	00 04 0d 00 03 0e 3a 	add    %al,0x3a0e0300(,%ecx,1)
 b5a:	0b 3b                	or     (%ebx),%edi
 b5c:	0b 39                	or     (%ecx),%edi
 b5e:	0b 49 13             	or     0x13(%ecx),%ecx
 b61:	38 0b                	cmp    %cl,(%ebx)
 b63:	00 00                	add    %al,(%eax)
 b65:	05 0d 00 49 13       	add    $0x1349000d,%eax
 b6a:	00 00                	add    %al,(%eax)
 b6c:	06                   	push   %es
 b6d:	13 01                	adc    (%ecx),%eax
 b6f:	0b 0b                	or     (%ebx),%ecx
 b71:	3a 0b                	cmp    (%ebx),%cl
 b73:	3b 0b                	cmp    (%ebx),%ecx
 b75:	39 0b                	cmp    %ecx,(%ebx)
 b77:	01 13                	add    %edx,(%ebx)
 b79:	00 00                	add    %al,(%eax)
 b7b:	07                   	pop    %es
 b7c:	0d 00 03 08 3a       	or     $0x3a080300,%eax
 b81:	0b 3b                	or     (%ebx),%edi
 b83:	0b 39                	or     (%ecx),%edi
 b85:	0b 49 13             	or     0x13(%ecx),%ecx
 b88:	00 00                	add    %al,(%eax)
 b8a:	08 0d 00 03 0e 3a    	or     %cl,0x3a0e0300
 b90:	0b 3b                	or     (%ebx),%edi
 b92:	0b 39                	or     (%ecx),%edi
 b94:	0b 49 13             	or     0x13(%ecx),%ecx
 b97:	0d 0b 6b 0b 00       	or     $0xb6b0b,%eax
 b9c:	00 09                	add    %cl,(%ecx)
 b9e:	0f 00 0b             	str    (%ebx)
 ba1:	21 04 49             	and    %eax,(%ecx,%ecx,2)
 ba4:	13 00                	adc    (%eax),%eax
 ba6:	00 0a                	add    %cl,(%edx)
 ba8:	17                   	pop    %ss
 ba9:	01 03                	add    %eax,(%ebx)
 bab:	0e                   	push   %cs
 bac:	0b 0b                	or     (%ebx),%ecx
 bae:	3a 0b                	cmp    (%ebx),%cl
 bb0:	3b 0b                	cmp    (%ebx),%ecx
 bb2:	39 21                	cmp    %esp,(%ecx)
 bb4:	0f 01 13             	lgdtl  (%ebx)
 bb7:	00 00                	add    %al,(%eax)
 bb9:	0b 0d 00 03 0e 3a    	or     0x3a0e0300,%ecx
 bbf:	0b 3b                	or     (%ebx),%edi
 bc1:	0b 39                	or     (%ecx),%edi
 bc3:	0b 49 13             	or     0x13(%ecx),%ecx
 bc6:	00 00                	add    %al,(%eax)
 bc8:	0c 34                	or     $0x34,%al
 bca:	00 03                	add    %al,(%ebx)
 bcc:	0e                   	push   %cs
 bcd:	3a 21                	cmp    (%ecx),%ah
 bcf:	02 3b                	add    (%ebx),%bh
 bd1:	0b 39                	or     (%ecx),%edi
 bd3:	0b 49 13             	or     0x13(%ecx),%ecx
 bd6:	3f                   	aas
 bd7:	19 02                	sbb    %eax,(%edx)
 bd9:	18 00                	sbb    %al,(%eax)
 bdb:	00 0d 13 01 03 0e    	add    %cl,0xe030113
 be1:	0b 0b                	or     (%ebx),%ecx
 be3:	3a 0b                	cmp    (%ebx),%cl
 be5:	3b 0b                	cmp    (%ebx),%ecx
 be7:	39 0b                	cmp    %ecx,(%ebx)
 be9:	01 13                	add    %edx,(%ebx)
 beb:	00 00                	add    %al,(%eax)
 bed:	0e                   	push   %cs
 bee:	24 00                	and    $0x0,%al
 bf0:	0b 0b                	or     (%ebx),%ecx
 bf2:	3e 0b 03             	or     %ds:(%ebx),%eax
 bf5:	0e                   	push   %cs
 bf6:	00 00                	add    %al,(%eax)
 bf8:	0f 01 01             	sgdtl  (%ecx)
 bfb:	49                   	dec    %ecx
 bfc:	13 01                	adc    (%ecx),%eax
 bfe:	13 00                	adc    (%eax),%eax
 c00:	00 10                	add    %dl,(%eax)
 c02:	21 00                	and    %eax,(%eax)
 c04:	49                   	dec    %ecx
 c05:	13 2f                	adc    (%edi),%ebp
 c07:	0b 00                	or     (%eax),%eax
 c09:	00 11                	add    %dl,(%ecx)
 c0b:	34 00                	xor    $0x0,%al
 c0d:	03 08                	add    (%eax),%ecx
 c0f:	3a 0b                	cmp    (%ebx),%cl
 c11:	3b 0b                	cmp    (%ebx),%ecx
 c13:	39 0b                	cmp    %ecx,(%ebx)
 c15:	49                   	dec    %ecx
 c16:	13 02                	adc    (%edx),%eax
 c18:	18 00                	sbb    %al,(%eax)
 c1a:	00 12                	add    %dl,(%edx)
 c1c:	0d 00 49 13 38       	or     $0x38134900,%eax
 c21:	0b 00                	or     (%eax),%eax
 c23:	00 13                	add    %dl,(%ebx)
 c25:	34 00                	xor    $0x0,%al
 c27:	03 0e                	add    (%esi),%ecx
 c29:	3a 0b                	cmp    (%ebx),%cl
 c2b:	3b 0b                	cmp    (%ebx),%ecx
 c2d:	39 0b                	cmp    %ecx,(%ebx)
 c2f:	49                   	dec    %ecx
 c30:	13 02                	adc    (%edx),%eax
 c32:	18 00                	sbb    %al,(%eax)
 c34:	00 14 17             	add    %dl,(%edi,%edx,1)
 c37:	01 0b                	add    %ecx,(%ebx)
 c39:	0b 3a                	or     (%edx),%edi
 c3b:	0b 3b                	or     (%ebx),%edi
 c3d:	0b 39                	or     (%ecx),%edi
 c3f:	0b 01                	or     (%ecx),%eax
 c41:	13 00                	adc    (%eax),%eax
 c43:	00 15 0b 01 11 01    	add    %dl,0x111010b
 c49:	12 06                	adc    (%esi),%al
 c4b:	00 00                	add    %al,(%eax)
 c4d:	16                   	push   %ss
 c4e:	05 00 03 08 3a       	add    $0x3a080300,%eax
 c53:	0b 3b                	or     (%ebx),%edi
 c55:	0b 39                	or     (%ecx),%edi
 c57:	0b 49 13             	or     0x13(%ecx),%ecx
 c5a:	02 18                	add    (%eax),%bl
 c5c:	00 00                	add    %al,(%eax)
 c5e:	17                   	pop    %ss
 c5f:	0b 01                	or     (%ecx),%eax
 c61:	11 01                	adc    %eax,(%ecx)
 c63:	12 06                	adc    (%esi),%al
 c65:	01 13                	add    %edx,(%ebx)
 c67:	00 00                	add    %al,(%eax)
 c69:	18 34 00             	sbb    %dh,(%eax,%eax,1)
 c6c:	03 08                	add    (%eax),%ecx
 c6e:	3a 21                	cmp    (%ecx),%ah
 c70:	02 3b                	add    (%ebx),%bh
 c72:	0b 39                	or     (%ecx),%edi
 c74:	0b 49 13             	or     0x13(%ecx),%ecx
 c77:	3f                   	aas
 c78:	19 02                	sbb    %eax,(%edx)
 c7a:	18 00                	sbb    %al,(%eax)
 c7c:	00 19                	add    %bl,(%ecx)
 c7e:	05 00 03 0e 3a       	add    $0x3a0e0300,%eax
 c83:	21 02                	and    %eax,(%edx)
 c85:	3b 21                	cmp    (%ecx),%esp
 c87:	ab                   	stos   %eax,%es:(%edi)
 c88:	02 39                	add    (%ecx),%bh
 c8a:	0b 49 13             	or     0x13(%ecx),%ecx
 c8d:	02 18                	add    (%eax),%bl
 c8f:	00 00                	add    %al,(%eax)
 c91:	1a 34 00             	sbb    (%eax,%eax,1),%dh
 c94:	03 08                	add    (%eax),%ecx
 c96:	3a 21                	cmp    (%ecx),%ah
 c98:	02 3b                	add    (%ebx),%bh
 c9a:	05 39 0b 49 13       	add    $0x13490b39,%eax
 c9f:	02 18                	add    (%eax),%bl
 ca1:	00 00                	add    %al,(%eax)
 ca3:	1b 2e                	sbb    (%esi),%ebp
 ca5:	00 3f                	add    %bh,(%edi)
 ca7:	19 03                	sbb    %eax,(%ebx)
 ca9:	0e                   	push   %cs
 caa:	3a 21                	cmp    (%ecx),%ah
 cac:	02 3b                	add    (%ebx),%bh
 cae:	0b 39                	or     (%ecx),%edi
 cb0:	21 06                	and    %eax,(%esi)
 cb2:	11 01                	adc    %eax,(%ecx)
 cb4:	12 06                	adc    (%esi),%al
 cb6:	40                   	inc    %eax
 cb7:	18 7a 19             	sbb    %bh,0x19(%edx)
 cba:	00 00                	add    %al,(%eax)
 cbc:	1c 28                	sbb    $0x28,%al
 cbe:	00 03                	add    %al,(%ebx)
 cc0:	0e                   	push   %cs
 cc1:	1c 0b                	sbb    $0xb,%al
 cc3:	00 00                	add    %al,(%eax)
 cc5:	1d 13 01 03 0e       	sbb    $0xe030113,%eax
 cca:	0b 05 3a 21 05 3b    	or     0x3b05213a,%eax
 cd0:	0b 39                	or     (%ecx),%edi
 cd2:	21 10                	and    %edx,(%eax)
 cd4:	01 13                	add    %edx,(%ebx)
 cd6:	00 00                	add    %al,(%eax)
 cd8:	1e                   	push   %ds
 cd9:	21 00                	and    %eax,(%eax)
 cdb:	49                   	dec    %ecx
 cdc:	13 2f                	adc    (%edi),%ebp
 cde:	05 00 00 1f 34       	add    $0x341f0000,%eax
 ce3:	00 03                	add    %al,(%ebx)
 ce5:	0e                   	push   %cs
 ce6:	3a 21                	cmp    (%ecx),%ah
 ce8:	02 3b                	add    (%ebx),%bh
 cea:	0b 39                	or     (%ecx),%edi
 cec:	21 0a                	and    %ecx,(%edx)
 cee:	49                   	dec    %ecx
 cef:	13 3f                	adc    (%edi),%edi
 cf1:	19 88 01 21 04 02    	sbb    %ecx,0x2042101(%eax)
 cf7:	18 00                	sbb    %al,(%eax)
 cf9:	00 20                	add    %ah,(%eax)
 cfb:	05 00 49 13 00       	add    $0x134900,%eax
 d00:	00 21                	add    %ah,(%ecx)
 d02:	18 00                	sbb    %al,(%eax)
 d04:	00 00                	add    %al,(%eax)
 d06:	22 05 00 03 0e 3a    	and    0x3a0e0300,%al
 d0c:	0b 3b                	or     (%ebx),%edi
 d0e:	0b 39                	or     (%ecx),%edi
 d10:	0b 49 13             	or     0x13(%ecx),%ecx
 d13:	02 18                	add    (%eax),%bl
 d15:	00 00                	add    %al,(%eax)
 d17:	23 11                	and    (%ecx),%edx
 d19:	01 25 0e 13 0b 03    	add    %esp,0x30b130e
 d1f:	1f                   	pop    %ds
 d20:	1b 1f                	sbb    (%edi),%ebx
 d22:	55                   	push   %ebp
 d23:	17                   	pop    %ss
 d24:	11 01                	adc    %eax,(%ecx)
 d26:	10 17                	adc    %dl,(%edi)
 d28:	00 00                	add    %al,(%eax)
 d2a:	24 24                	and    $0x24,%al
 d2c:	00 0b                	add    %cl,(%ebx)
 d2e:	0b 3e                	or     (%esi),%edi
 d30:	0b 03                	or     (%ebx),%eax
 d32:	08 00                	or     %al,(%eax)
 d34:	00 25 26 00 49 13    	add    %ah,0x13490026
 d3a:	00 00                	add    %al,(%eax)
 d3c:	26 04 01             	es add $0x1,%al
 d3f:	3e 0b 0b             	or     %ds:(%ebx),%ecx
 d42:	0b 49 13             	or     0x13(%ecx),%ecx
 d45:	3a 0b                	cmp    (%ebx),%cl
 d47:	3b 0b                	cmp    (%ebx),%ecx
 d49:	39 0b                	cmp    %ecx,(%ebx)
 d4b:	01 13                	add    %edx,(%ebx)
 d4d:	00 00                	add    %al,(%eax)
 d4f:	27                   	daa
 d50:	0f 00 0b             	str    (%ebx)
 d53:	0b 00                	or     (%eax),%eax
 d55:	00 28                	add    %ch,(%eax)
 d57:	0d 00 03 0e 3a       	or     $0x3a0e0300,%eax
 d5c:	0b 3b                	or     (%ebx),%edi
 d5e:	0b 39                	or     (%ecx),%edi
 d60:	0b 49 13             	or     0x13(%ecx),%ecx
 d63:	38 05 00 00 29 2e    	cmp    %al,0x2e290000
 d69:	01 3f                	add    %edi,(%edi)
 d6b:	19 03                	sbb    %eax,(%ebx)
 d6d:	0e                   	push   %cs
 d6e:	3a 0b                	cmp    (%ebx),%cl
 d70:	3b 0b                	cmp    (%ebx),%ecx
 d72:	39 0b                	cmp    %ecx,(%ebx)
 d74:	27                   	daa
 d75:	19 3c 19             	sbb    %edi,(%ecx,%ebx,1)
 d78:	01 13                	add    %edx,(%ebx)
 d7a:	00 00                	add    %al,(%eax)
 d7c:	2a 2e                	sub    (%esi),%ch
 d7e:	01 3f                	add    %edi,(%edi)
 d80:	19 03                	sbb    %eax,(%ebx)
 d82:	0e                   	push   %cs
 d83:	3a 0b                	cmp    (%ebx),%cl
 d85:	3b 0b                	cmp    (%ebx),%ecx
 d87:	39 0b                	cmp    %ecx,(%ebx)
 d89:	27                   	daa
 d8a:	19 49 13             	sbb    %ecx,0x13(%ecx)
 d8d:	3c 19                	cmp    $0x19,%al
 d8f:	01 13                	add    %edx,(%ebx)
 d91:	00 00                	add    %al,(%eax)
 d93:	2b 2e                	sub    (%esi),%ebp
 d95:	00 3f                	add    %bh,(%edi)
 d97:	19 03                	sbb    %eax,(%ebx)
 d99:	08 3a                	or     %bh,(%edx)
 d9b:	0b 3b                	or     (%ebx),%edi
 d9d:	05 39 0b 11 01       	add    $0x1110b39,%eax
 da2:	12 06                	adc    (%esi),%al
 da4:	40                   	inc    %eax
 da5:	18 7c 19 00          	sbb    %bh,0x0(%ecx,%ebx,1)
 da9:	00 2c 2e             	add    %ch,(%esi,%ebp,1)
 dac:	01 3f                	add    %edi,(%edi)
 dae:	19 03                	sbb    %eax,(%ebx)
 db0:	0e                   	push   %cs
 db1:	3a 0b                	cmp    (%ebx),%cl
 db3:	3b 05 39 0b 27 19    	cmp    0x19270b39,%eax
 db9:	11 01                	adc    %eax,(%ecx)
 dbb:	12 06                	adc    (%esi),%al
 dbd:	40                   	inc    %eax
 dbe:	18 7c 19 01          	sbb    %bh,0x1(%ecx,%ebx,1)
 dc2:	13 00                	adc    (%eax),%eax
 dc4:	00 2d 05 00 03 08    	add    %ch,0x8030005
 dca:	3a 0b                	cmp    (%ebx),%cl
 dcc:	3b 05 39 0b 49 13    	cmp    0x13490b39,%eax
 dd2:	02 18                	add    (%eax),%bl
 dd4:	00 00                	add    %al,(%eax)
 dd6:	2e 2e 01 3f          	cs add %edi,%cs:(%edi)
 dda:	19 03                	sbb    %eax,(%ebx)
 ddc:	0e                   	push   %cs
 ddd:	3a 0b                	cmp    (%ebx),%cl
 ddf:	3b 05 39 0b 11 01    	cmp    0x1110b39,%eax
 de5:	12 06                	adc    (%esi),%al
 de7:	40                   	inc    %eax
 de8:	18 7a 19             	sbb    %bh,0x19(%edx)
 deb:	01 13                	add    %edx,(%ebx)
 ded:	00 00                	add    %al,(%eax)
 def:	2f                   	das
 df0:	34 00                	xor    $0x0,%al
 df2:	03 0e                	add    (%esi),%ecx
 df4:	3a 0b                	cmp    (%ebx),%cl
 df6:	3b 05 39 0b 49 13    	cmp    0x13490b39,%eax
 dfc:	02 18                	add    (%eax),%bl
 dfe:	00 00                	add    %al,(%eax)
 e00:	30 2e                	xor    %ch,(%esi)
 e02:	01 3f                	add    %edi,(%edi)
 e04:	19 03                	sbb    %eax,(%ebx)
 e06:	0e                   	push   %cs
 e07:	3a 0b                	cmp    (%ebx),%cl
 e09:	3b 0b                	cmp    (%ebx),%ecx
 e0b:	39 0b                	cmp    %ecx,(%ebx)
 e0d:	11 01                	adc    %eax,(%ecx)
 e0f:	12 06                	adc    (%esi),%al
 e11:	40                   	inc    %eax
 e12:	18 7c 19 01          	sbb    %bh,0x1(%ecx,%ebx,1)
 e16:	13 00                	adc    (%eax),%eax
 e18:	00 31                	add    %dh,(%ecx)
 e1a:	2e 01 3f             	add    %edi,%cs:(%edi)
 e1d:	19 03                	sbb    %eax,(%ebx)
 e1f:	0e                   	push   %cs
 e20:	3a 0b                	cmp    (%ebx),%cl
 e22:	3b 0b                	cmp    (%ebx),%ecx
 e24:	39 0b                	cmp    %ecx,(%ebx)
 e26:	11 01                	adc    %eax,(%ecx)
 e28:	12 06                	adc    (%esi),%al
 e2a:	40                   	inc    %eax
 e2b:	18 7a 19             	sbb    %bh,0x19(%edx)
 e2e:	01 13                	add    %edx,(%ebx)
 e30:	00 00                	add    %al,(%eax)
 e32:	32 2e                	xor    (%esi),%ch
 e34:	01 3f                	add    %edi,(%edi)
 e36:	19 03                	sbb    %eax,(%ebx)
 e38:	0e                   	push   %cs
 e39:	3a 0b                	cmp    (%ebx),%cl
 e3b:	3b 0b                	cmp    (%ebx),%ecx
 e3d:	39 0b                	cmp    %ecx,(%ebx)
 e3f:	27                   	daa
 e40:	19 11                	sbb    %edx,(%ecx)
 e42:	01 12                	add    %edx,(%edx)
 e44:	06                   	push   %es
 e45:	40                   	inc    %eax
 e46:	18 7c 19 01          	sbb    %bh,0x1(%ecx,%ebx,1)
 e4a:	13 00                	adc    (%eax),%eax
 e4c:	00 33                	add    %dh,(%ebx)
 e4e:	2e 01 3f             	add    %edi,%cs:(%edi)
 e51:	19 03                	sbb    %eax,(%ebx)
 e53:	0e                   	push   %cs
 e54:	3a 0b                	cmp    (%ebx),%cl
 e56:	3b 0b                	cmp    (%ebx),%ecx
 e58:	39 0b                	cmp    %ecx,(%ebx)
 e5a:	27                   	daa
 e5b:	19 11                	sbb    %edx,(%ecx)
 e5d:	01 12                	add    %edx,(%edx)
 e5f:	06                   	push   %es
 e60:	40                   	inc    %eax
 e61:	18 7a 19             	sbb    %bh,0x19(%edx)
 e64:	01 13                	add    %edx,(%ebx)
 e66:	00 00                	add    %al,(%eax)
 e68:	34 2e                	xor    $0x2e,%al
 e6a:	01 03                	add    %eax,(%ebx)
 e6c:	0e                   	push   %cs
 e6d:	3a 0b                	cmp    (%ebx),%cl
 e6f:	3b 0b                	cmp    (%ebx),%ecx
 e71:	39 0b                	cmp    %ecx,(%ebx)
 e73:	27                   	daa
 e74:	19 49 13             	sbb    %ecx,0x13(%ecx)
 e77:	11 01                	adc    %eax,(%ecx)
 e79:	12 06                	adc    (%esi),%al
 e7b:	40                   	inc    %eax
 e7c:	18 7a 19             	sbb    %bh,0x19(%edx)
 e7f:	00 00                	add    %al,(%eax)
	...

Déassemblage de la section .debug_aranges :

00000000 <.debug_aranges>:
   0:	1c 00                	sbb    $0x0,%al
   2:	00 00                	add    %al,(%eax)
   4:	02 00                	add    (%eax),%al
   6:	00 00                	add    %al,(%eax)
   8:	00 00                	add    %al,(%eax)
   a:	04 00                	add    $0x0,%al
   c:	00 00                	add    %al,(%eax)
   e:	00 00                	add    %al,(%eax)
  10:	10 30                	adc    %dh,(%eax)
  12:	30 00                	xor    %al,(%eax)
  14:	13 00                	adc    (%eax),%eax
	...
  1e:	00 00                	add    %al,(%eax)
  20:	1c 00                	sbb    $0x0,%al
  22:	00 00                	add    %al,(%eax)
  24:	02 00                	add    (%eax),%al
  26:	24 00                	and    $0x0,%al
  28:	00 00                	add    %al,(%eax)
  2a:	04 00                	add    $0x0,%al
  2c:	00 00                	add    %al,(%eax)
  2e:	00 00                	add    %al,(%eax)
  30:	23 30                	and    (%eax),%esi
  32:	30 00                	xor    %al,(%eax)
  34:	4a                   	dec    %edx
	...
  3d:	00 00                	add    %al,(%eax)
  3f:	00 1c 00             	add    %bl,(%eax,%eax,1)
  42:	00 00                	add    %al,(%eax)
  44:	02 00                	add    (%eax),%al
  46:	99                   	cltd
  47:	04 00                	add    $0x0,%al
  49:	00 04 00             	add    %al,(%eax,%eax,1)
  4c:	00 00                	add    %al,(%eax)
  4e:	00 00                	add    %al,(%eax)
  50:	6d                   	insl   (%dx),%es:(%edi)
  51:	30 30                	xor    %dh,(%eax)
  53:	00 32                	add    %dh,(%edx)
  55:	08 00                	or     %al,(%eax)
	...
  5f:	00 1c 00             	add    %bl,(%eax,%eax,1)
  62:	00 00                	add    %al,(%eax)
  64:	02 00                	add    (%eax),%al
  66:	54                   	push   %esp
  67:	0f 00 00             	sldt   (%eax)
  6a:	04 00                	add    $0x0,%al
  6c:	00 00                	add    %al,(%eax)
  6e:	00 00                	add    %al,(%eax)
  70:	9f                   	lahf
  71:	38 30                	cmp    %dh,(%eax)
  73:	00 a5 02 00 00 00    	add    %ah,0x2(%ebp)
  79:	00 00                	add    %al,(%eax)
  7b:	00 00                	add    %al,(%eax)
  7d:	00 00                	add    %al,(%eax)
  7f:	00 1c 00             	add    %bl,(%eax,%eax,1)
  82:	00 00                	add    %al,(%eax)
  84:	02 00                	add    (%eax),%al
  86:	68 18 00 00 04       	push   $0x4000018
  8b:	00 00                	add    %al,(%eax)
  8d:	00 00                	add    %al,(%eax)
  8f:	00 44 3b 30          	add    %al,0x30(%ebx,%edi,1)
  93:	00 88 00 00 00 00    	add    %cl,0x0(%eax)
  99:	00 00                	add    %al,(%eax)
  9b:	00 00                	add    %al,(%eax)
  9d:	00 00                	add    %al,(%eax)
  9f:	00 1c 00             	add    %bl,(%eax,%eax,1)
  a2:	00 00                	add    %al,(%eax)
  a4:	02 00                	add    (%eax),%al
  a6:	28 1b                	sub    %bl,(%ebx)
  a8:	00 00                	add    %al,(%eax)
  aa:	04 00                	add    $0x0,%al
  ac:	00 00                	add    %al,(%eax)
  ae:	00 00                	add    %al,(%eax)
  b0:	cc                   	int3
  b1:	3b 30                	cmp    (%eax),%esi
  b3:	00 ad 01 00 00 00    	add    %ch,0x1(%ebp)
  b9:	00 00                	add    %al,(%eax)
  bb:	00 00                	add    %al,(%eax)
  bd:	00 00                	add    %al,(%eax)
  bf:	00 24 00             	add    %ah,(%eax,%eax,1)
  c2:	00 00                	add    %al,(%eax)
  c4:	02 00                	add    (%eax),%al
  c6:	10 24 00             	adc    %ah,(%eax,%eax,1)
  c9:	00 04 00             	add    %al,(%eax,%eax,1)
  cc:	00 00                	add    %al,(%eax)
  ce:	00 00                	add    %al,(%eax)
  d0:	79 3d                	jns    10f <mbh-0x2ffef1>
  d2:	30 00                	xor    %al,(%eax)
  d4:	1a 00                	sbb    (%eax),%al
  d6:	00 00                	add    %al,(%eax)
  d8:	10 20                	adc    %ah,(%eax)
  da:	30 00                	xor    %al,(%eax)
  dc:	fc                   	cld
  dd:	0f 00 00             	sldt   (%eax)
	...
  e8:	1c 00                	sbb    $0x0,%al
  ea:	00 00                	add    %al,(%eax)
  ec:	02 00                	add    (%eax),%al
  ee:	33 24 00             	xor    (%eax,%eax,1),%esp
  f1:	00 04 00             	add    %al,(%eax,%eax,1)
  f4:	00 00                	add    %al,(%eax)
  f6:	00 00                	add    %al,(%eax)
  f8:	93                   	xchg   %eax,%ebx
  f9:	3d 30 00 96 01       	cmp    $0x1960030,%eax
	...
 106:	00 00                	add    %al,(%eax)
 108:	1c 00                	sbb    $0x0,%al
 10a:	00 00                	add    %al,(%eax)
 10c:	02 00                	add    (%eax),%al
 10e:	f8                   	clc
 10f:	2a 00                	sub    (%eax),%al
 111:	00 04 00             	add    %al,(%eax,%eax,1)
 114:	00 00                	add    %al,(%eax)
 116:	00 00                	add    %al,(%eax)
 118:	29 3f                	sub    %edi,(%edi)
 11a:	30 00                	xor    %al,(%eax)
 11c:	56                   	push   %esi
	...
 125:	00 00                	add    %al,(%eax)
 127:	00 2c 00             	add    %ch,(%eax,%eax,1)
 12a:	00 00                	add    %al,(%eax)
 12c:	02 00                	add    (%eax),%al
 12e:	eb 2b                	jmp    15b <mbh-0x2ffea5>
 130:	00 00                	add    %al,(%eax)
 132:	04 00                	add    $0x0,%al
 134:	00 00                	add    %al,(%eax)
 136:	00 00                	add    %al,(%eax)
 138:	7f 3f                	jg     179 <mbh-0x2ffe87>
 13a:	30 00                	xor    %al,(%eax)
 13c:	6e                   	outsb  %ds:(%esi),(%dx)
 13d:	0d 00 00 00 40       	or     $0x40000000,%eax
 142:	40                   	inc    %eax
 143:	00 06                	add    %al,(%esi)
 145:	00 00                	add    %al,(%eax)
 147:	00 00                	add    %al,(%eax)
 149:	40                   	inc    %eax
 14a:	80 00 06             	addb   $0x6,(%eax)
	...

Déassemblage de la section .debug_str :

00000000 <.debug_str>:
   0:	2e 2e 2f             	cs cs das
   3:	6b 65 72 6e          	imul   $0x6e,0x72(%ebp),%esp
   7:	65 6c                	gs insb (%dx),%es:(%edi)
   9:	2f                   	das
   a:	63 6f 72             	arpl   %ebp,0x72(%edi)
   d:	65 2f                	gs das
   f:	65 6e                	outsb  %gs:(%esi),(%dx)
  11:	74 72                	je     85 <mbh-0x2fff7b>
  13:	79 2e                	jns    43 <mbh-0x2fffbd>
  15:	73 00                	jae    17 <mbh-0x2fffe9>
  17:	2f                   	das
  18:	68 6f 6d 65 2f       	push   $0x2f656d6f
  1d:	73 61                	jae    80 <mbh-0x2fff80>
  1f:	6e                   	outsb  %ds:(%esi),(%dx)
  20:	69 6d 2f 74 6c 73 2d 	imul   $0x2d736c74,0x2f(%ebp),%ebp
  27:	73 65                	jae    8e <mbh-0x2fff72>
  29:	63 2f                	arpl   %ebp,(%edi)
  2b:	73 65                	jae    92 <mbh-0x2fff6e>
  2d:	63 6f 73             	arpl   %ebp,0x73(%edi)
  30:	2d 6e 67 2f 74       	sub    $0x742f676e,%eax
  35:	70 5f                	jo     96 <mbh-0x2fff6a>
  37:	65 78 61             	gs js  9b <mbh-0x2fff65>
  3a:	6d                   	insl   (%dx),%es:(%edi)
  3b:	00 47 4e             	add    %al,0x4e(%edi)
  3e:	55                   	push   %ebp
  3f:	20 41 53             	and    %al,0x53(%ecx)
  42:	20 32                	and    %dh,(%edx)
  44:	2e 34 32             	cs xor $0x32,%al
  47:	00 75 61             	add    %dh,0x61(%ebp)
  4a:	72 74                	jb     c0 <mbh-0x2fff40>
  4c:	5f                   	pop    %edi
  4d:	69 6e 69 74 00 66 72 	imul   $0x72660074,0x69(%esi),%ebp
  54:	61                   	popa
  55:	6d                   	insl   (%dx),%es:(%edi)
  56:	65 62 75 66          	bound  %esi,%gs:0x66(%ebp)
  5a:	66 65 72 5f          	data16 gs jb bd <mbh-0x2fff43>
  5e:	62 6c 75 65          	bound  %ebp,0x65(%ebp,%esi,2)
  62:	5f                   	pop    %edi
  63:	6d                   	insl   (%dx),%es:(%edi)
  64:	61                   	popa
  65:	73 6b                	jae    d2 <mbh-0x2fff2e>
  67:	5f                   	pop    %edi
  68:	73 69                	jae    d3 <mbh-0x2fff2d>
  6a:	7a 65                	jp     d1 <mbh-0x2fff2f>
  6c:	00 6d 6d             	add    %ch,0x6d(%ebp)
  6f:	61                   	popa
  70:	70 5f                	jo     d1 <mbh-0x2fff2f>
  72:	61                   	popa
  73:	64 64 72 00          	fs fs jb 77 <mbh-0x2fff89>
  77:	66 72 61             	data16 jb db <mbh-0x2fff25>
  7a:	6d                   	insl   (%dx),%es:(%edi)
  7b:	65 62 75 66          	bound  %esi,%gs:0x66(%ebp)
  7f:	66 65 72 5f          	data16 gs jb e2 <mbh-0x2fff1e>
  83:	61                   	popa
  84:	64 64 72 00          	fs fs jb 88 <mbh-0x2fff78>
  88:	76 62                	jbe    ec <mbh-0x2fff14>
  8a:	65 5f                	gs pop %edi
  8c:	69 6e 74 65 72 66 61 	imul   $0x61667265,0x74(%esi),%ebp
  93:	63 65 5f             	arpl   %esp,0x5f(%ebp)
  96:	6f                   	outsl  %ds:(%esi),(%dx)
  97:	66 66 00 6d 75       	data16 data16 add %ch,0x75(%ebp)
  9c:	6c                   	insb   (%dx),%es:(%edi)
  9d:	74 69                	je     108 <mbh-0x2ffef8>
  9f:	62 6f 6f             	bound  %ebp,0x6f(%edi)
  a2:	74 5f                	je     103 <mbh-0x2ffefd>
  a4:	75 69                	jne    10f <mbh-0x2ffef1>
  a6:	6e                   	outsb  %ds:(%esi),(%dx)
  a7:	74 33                	je     dc <mbh-0x2fff24>
  a9:	32 5f 74             	xor    0x74(%edi),%bl
  ac:	00 73 68             	add    %dh,0x68(%ebx)
  af:	6f                   	outsl  %ds:(%esi),(%dx)
  b0:	72 74                	jb     126 <mbh-0x2ffeda>
  b2:	20 69 6e             	and    %ch,0x6e(%ecx)
  b5:	74 00                	je     b7 <mbh-0x2fff49>
  b7:	73 69                	jae    122 <mbh-0x2ffede>
  b9:	7a 65                	jp     120 <mbh-0x2ffee0>
  bb:	5f                   	pop    %edi
  bc:	74 00                	je     be <mbh-0x2fff42>
  be:	66 72 61             	data16 jb 122 <mbh-0x2ffede>
  c1:	6d                   	insl   (%dx),%es:(%edi)
  c2:	65 62 75 66          	bound  %esi,%gs:0x66(%ebp)
  c6:	66 65 72 5f          	data16 gs jb 129 <mbh-0x2ffed7>
  ca:	72 65                	jb     131 <mbh-0x2ffecf>
  cc:	64 5f                	fs pop %edi
  ce:	66 69 65 6c 64 5f    	imul   $0x5f64,0x6c(%ebp),%sp
  d4:	70 6f                	jo     145 <mbh-0x2ffebb>
  d6:	73 69                	jae    141 <mbh-0x2ffebf>
  d8:	74 69                	je     143 <mbh-0x2ffebd>
  da:	6f                   	outsl  %ds:(%esi),(%dx)
  db:	6e                   	outsb  %ds:(%esi),(%dx)
  dc:	00 5f 5f             	add    %bl,0x5f(%edi)
  df:	69 6e 66 6f 00 64 72 	imul   $0x7264006f,0x66(%esi),%ebp
  e6:	69 76 65 73 5f 61 64 	imul   $0x64615f73,0x65(%esi),%esi
  ed:	64 72 00             	fs jb  f0 <mbh-0x2fff10>
  f0:	63 6d 64             	arpl   %ebp,0x64(%ebp)
  f3:	6c                   	insb   (%dx),%es:(%edi)
  f4:	69 6e 65 00 70 61 6e 	imul   $0x6e617000,0x65(%esi),%ebp
  fb:	69 63 00 61 6f 75 74 	imul   $0x74756f61,0x0(%ebx),%esp
 102:	5f                   	pop    %edi
 103:	73 79                	jae    17e <mbh-0x2ffe82>
 105:	6d                   	insl   (%dx),%es:(%edi)
 106:	00 6d 6f             	add    %ch,0x6f(%ebp)
 109:	64 73 5f             	fs jae 16b <mbh-0x2ffe95>
 10c:	61                   	popa
 10d:	64 64 72 00          	fs fs jb 111 <mbh-0x2ffeef>
 111:	6d                   	insl   (%dx),%es:(%edi)
 112:	75 6c                	jne    180 <mbh-0x2ffe80>
 114:	74 69                	je     17f <mbh-0x2ffe81>
 116:	62 6f 6f             	bound  %ebp,0x6f(%edi)
 119:	74 5f                	je     17a <mbh-0x2ffe86>
 11b:	75 69                	jne    186 <mbh-0x2ffe7a>
 11d:	6e                   	outsb  %ds:(%esi),(%dx)
 11e:	74 31                	je     151 <mbh-0x2ffeaf>
 120:	36 5f                	ss pop %edi
 122:	74 00                	je     124 <mbh-0x2ffedc>
 124:	73 74                	jae    19a <mbh-0x2ffe66>
 126:	72 73                	jb     19b <mbh-0x2ffe65>
 128:	69 7a 65 00 70 69 63 	imul   $0x63697000,0x65(%edx),%edi
 12f:	5f                   	pop    %edi
 130:	69 6e 69 74 00 6d 75 	imul   $0x756d0074,0x69(%esi),%ebp
 137:	6c                   	insb   (%dx),%es:(%edi)
 138:	74 69                	je     1a3 <mbh-0x2ffe5d>
 13a:	62 6f 6f             	bound  %ebp,0x6f(%edi)
 13d:	74 5f                	je     19e <mbh-0x2ffe62>
 13f:	65 6c                	gs insb (%dx),%es:(%edi)
 141:	66 5f                	pop    %di
 143:	73 65                	jae    1aa <mbh-0x2ffe56>
 145:	63 74 69 6f          	arpl   %esi,0x6f(%ecx,%ebp,2)
 149:	6e                   	outsb  %ds:(%esi),(%dx)
 14a:	5f                   	pop    %edi
 14b:	68 65 61 64 65       	push   $0x65646165
 150:	72 5f                	jb     1b1 <mbh-0x2ffe4f>
 152:	74 61                	je     1b5 <mbh-0x2ffe4b>
 154:	62 6c 65 5f          	bound  %ebp,0x5f(%ebp,%eiz,2)
 158:	74 00                	je     15a <mbh-0x2ffea6>
 15a:	73 68                	jae    1c4 <mbh-0x2ffe3c>
 15c:	6e                   	outsb  %ds:(%esi),(%dx)
 15d:	64 78 00             	fs js  160 <mbh-0x2ffea0>
 160:	61                   	popa
 161:	70 6d                	jo     1d0 <mbh-0x2ffe30>
 163:	5f                   	pop    %edi
 164:	74 61                	je     1c7 <mbh-0x2ffe39>
 166:	62 6c 65 00          	bound  %ebp,0x0(%ebp,%eiz,2)
 16a:	6c                   	insb   (%dx),%es:(%edi)
 16b:	6f                   	outsl  %ds:(%esi),(%dx)
 16c:	6e                   	outsb  %ds:(%esi),(%dx)
 16d:	67 20 6c 6f          	and    %ch,0x6f(%si)
 171:	6e                   	outsb  %ds:(%esi),(%dx)
 172:	67 20 69 6e          	and    %ch,0x6e(%bx,%di)
 176:	74 00                	je     178 <mbh-0x2ffe88>
 178:	6d                   	insl   (%dx),%es:(%edi)
 179:	62 69 5f             	bound  %ebp,0x5f(%ecx)
 17c:	74 00                	je     17e <mbh-0x2ffe82>
 17e:	66 72 61             	data16 jb 1e2 <mbh-0x2ffe1e>
 181:	6d                   	insl   (%dx),%es:(%edi)
 182:	65 62 75 66          	bound  %esi,%gs:0x66(%ebp)
 186:	66 65 72 5f          	data16 gs jb 1e9 <mbh-0x2ffe17>
 18a:	70 61                	jo     1ed <mbh-0x2ffe13>
 18c:	6c                   	insb   (%dx),%es:(%edi)
 18d:	65 74 74             	gs je  204 <mbh-0x2ffdfc>
 190:	65 5f                	gs pop %edi
 192:	6e                   	outsb  %ds:(%esi),(%dx)
 193:	75 6d                	jne    202 <mbh-0x2ffdfe>
 195:	5f                   	pop    %edi
 196:	63 6f 6c             	arpl   %ebp,0x6c(%edi)
 199:	6f                   	outsl  %ds:(%esi),(%dx)
 19a:	72 73                	jb     20f <mbh-0x2ffdf1>
 19c:	00 66 72             	add    %ah,0x72(%esi)
 19f:	61                   	popa
 1a0:	6d                   	insl   (%dx),%es:(%edi)
 1a1:	65 62 75 66          	bound  %esi,%gs:0x66(%ebp)
 1a5:	66 65 72 5f          	data16 gs jb 208 <mbh-0x2ffdf8>
 1a9:	62 6c 75 65          	bound  %ebp,0x65(%ebp,%esi,2)
 1ad:	5f                   	pop    %edi
 1ae:	66 69 65 6c 64 5f    	imul   $0x5f64,0x6c(%ebp),%sp
 1b4:	70 6f                	jo     225 <mbh-0x2ffddb>
 1b6:	73 69                	jae    221 <mbh-0x2ffddf>
 1b8:	74 69                	je     223 <mbh-0x2ffddd>
 1ba:	6f                   	outsl  %ds:(%esi),(%dx)
 1bb:	6e                   	outsb  %ds:(%esi),(%dx)
 1bc:	00 66 72             	add    %ah,0x72(%esi)
 1bf:	61                   	popa
 1c0:	6d                   	insl   (%dx),%es:(%edi)
 1c1:	65 62 75 66          	bound  %esi,%gs:0x66(%ebp)
 1c5:	66 65 72 5f          	data16 gs jb 228 <mbh-0x2ffdd8>
 1c9:	62 70 70             	bound  %esi,0x70(%eax)
 1cc:	00 76 62             	add    %dh,0x62(%esi)
 1cf:	65 5f                	gs pop %edi
 1d1:	6d                   	insl   (%dx),%es:(%edi)
 1d2:	6f                   	outsl  %ds:(%esi),(%dx)
 1d3:	64 65 5f             	fs gs pop %edi
 1d6:	69 6e 66 6f 00 75 6e 	imul   $0x6e75006f,0x66(%esi),%ebp
 1dd:	73 69                	jae    248 <mbh-0x2ffdb8>
 1df:	67 6e                	outsb  %ds:(%si),(%dx)
 1e1:	65 64 20 63 68       	gs and %ah,%fs:0x68(%ebx)
 1e6:	61                   	popa
 1e7:	72 00                	jb     1e9 <mbh-0x2ffe17>
 1e9:	76 62                	jbe    24d <mbh-0x2ffdb3>
 1eb:	65 5f                	gs pop %edi
 1ed:	63 6f 6e             	arpl   %ebp,0x6e(%edi)
 1f0:	74 72                	je     264 <mbh-0x2ffd9c>
 1f2:	6f                   	outsl  %ds:(%esi),(%dx)
 1f3:	6c                   	insb   (%dx),%es:(%edi)
 1f4:	5f                   	pop    %edi
 1f5:	69 6e 66 6f 00 65 6c 	imul   $0x6c65006f,0x66(%esi),%ebp
 1fc:	66 5f                	pop    %di
 1fe:	73 65                	jae    265 <mbh-0x2ffd9b>
 200:	63 00                	arpl   %eax,(%eax)
 202:	6d                   	insl   (%dx),%es:(%edi)
 203:	65 6d                	gs insl (%dx),%es:(%edi)
 205:	5f                   	pop    %edi
 206:	6c                   	insb   (%dx),%es:(%edi)
 207:	6f                   	outsl  %ds:(%esi),(%dx)
 208:	77 65                	ja     26f <mbh-0x2ffd91>
 20a:	72 00                	jb     20c <mbh-0x2ffdf4>
 20c:	76 62                	jbe    270 <mbh-0x2ffd90>
 20e:	65 5f                	gs pop %edi
 210:	6d                   	insl   (%dx),%es:(%edi)
 211:	6f                   	outsl  %ds:(%esi),(%dx)
 212:	64 65 00 6c 6f 6e    	fs add %ch,%gs:0x6e(%edi,%ebp,2)
 218:	67 20 6c 6f          	and    %ch,0x6f(%si)
 21c:	6e                   	outsb  %ds:(%esi),(%dx)
 21d:	67 20 75 6e          	and    %dh,0x6e(%di)
 221:	73 69                	jae    28c <mbh-0x2ffd74>
 223:	67 6e                	outsb  %ds:(%si),(%dx)
 225:	65 64 20 69 6e       	gs and %ch,%fs:0x6e(%ecx)
 22a:	74 00                	je     22c <mbh-0x2ffdd4>
 22c:	66 72 61             	data16 jb 290 <mbh-0x2ffd70>
 22f:	6d                   	insl   (%dx),%es:(%edi)
 230:	65 62 75 66          	bound  %esi,%gs:0x66(%ebp)
 234:	66 65 72 5f          	data16 gs jb 297 <mbh-0x2ffd69>
 238:	77 69                	ja     2a3 <mbh-0x2ffd5d>
 23a:	64 74 68             	fs je  2a5 <mbh-0x2ffd5b>
 23d:	00 6d 6d             	add    %ch,0x6d(%ebp)
 240:	61                   	popa
 241:	70 5f                	jo     2a2 <mbh-0x2ffd5e>
 243:	6c                   	insb   (%dx),%es:(%edi)
 244:	65 6e                	outsb  %gs:(%esi),(%dx)
 246:	67 74 68             	addr16 je 2b1 <mbh-0x2ffd4f>
 249:	00 66 72             	add    %ah,0x72(%esi)
 24c:	61                   	popa
 24d:	6d                   	insl   (%dx),%es:(%edi)
 24e:	65 62 75 66          	bound  %esi,%gs:0x66(%ebp)
 252:	66 65 72 5f          	data16 gs jb 2b5 <mbh-0x2ffd4b>
 256:	67 72 65             	addr16 jb 2be <mbh-0x2ffd42>
 259:	65 6e                	outsb  %gs:(%esi),(%dx)
 25b:	5f                   	pop    %edi
 25c:	66 69 65 6c 64 5f    	imul   $0x5f64,0x6c(%ebp),%sp
 262:	70 6f                	jo     2d3 <mbh-0x2ffd2d>
 264:	73 69                	jae    2cf <mbh-0x2ffd31>
 266:	74 69                	je     2d1 <mbh-0x2ffd2f>
 268:	6f                   	outsl  %ds:(%esi),(%dx)
 269:	6e                   	outsb  %ds:(%esi),(%dx)
 26a:	00 69 6e             	add    %ch,0x6e(%ecx)
 26d:	66 6f                	outsw  %ds:(%esi),(%dx)
 26f:	72 6d                	jb     2de <mbh-0x2ffd22>
 271:	61                   	popa
 272:	74 69                	je     2dd <mbh-0x2ffd23>
 274:	6f                   	outsl  %ds:(%esi),(%dx)
 275:	6e                   	outsb  %ds:(%esi),(%dx)
 276:	00 73 74             	add    %dh,0x74(%ebx)
 279:	61                   	popa
 27a:	72 74                	jb     2f0 <mbh-0x2ffd10>
 27c:	00 73 68             	add    %dh,0x68(%ebx)
 27f:	6f                   	outsl  %ds:(%esi),(%dx)
 280:	72 74                	jb     2f6 <mbh-0x2ffd0a>
 282:	20 75 6e             	and    %dh,0x6e(%ebp)
 285:	73 69                	jae    2f0 <mbh-0x2ffd10>
 287:	67 6e                	outsb  %ds:(%si),(%dx)
 289:	65 64 20 69 6e       	gs and %ch,%fs:0x6e(%ecx)
 28e:	74 00                	je     290 <mbh-0x2ffd70>
 290:	6d                   	insl   (%dx),%es:(%edi)
 291:	75 6c                	jne    2ff <mbh-0x2ffd01>
 293:	74 69                	je     2fe <mbh-0x2ffd02>
 295:	62 6f 6f             	bound  %ebp,0x6f(%edi)
 298:	74 5f                	je     2f9 <mbh-0x2ffd07>
 29a:	75 69                	jne    305 <mbh-0x2ffcfb>
 29c:	6e                   	outsb  %ds:(%esi),(%dx)
 29d:	74 36                	je     2d5 <mbh-0x2ffd2b>
 29f:	34 5f                	xor    $0x5f,%al
 2a1:	74 00                	je     2a3 <mbh-0x2ffd5d>
 2a3:	69 6e 74 72 5f 69 6e 	imul   $0x6e695f72,0x74(%esi),%ebp
 2aa:	69 74 00 62 6f 6f 74 	imul   $0x5f746f6f,0x62(%eax,%eax,1),%esi
 2b1:	5f 
 2b2:	64 65 76 69          	fs gs jbe 31f <mbh-0x2ffce1>
 2b6:	63 65 00             	arpl   %esp,0x0(%ebp)
 2b9:	6d                   	insl   (%dx),%es:(%edi)
 2ba:	75 6c                	jne    328 <mbh-0x2ffcd8>
 2bc:	74 69                	je     327 <mbh-0x2ffcd9>
 2be:	62 6f 6f             	bound  %ebp,0x6f(%edi)
 2c1:	74 5f                	je     322 <mbh-0x2ffcde>
 2c3:	69 6e 66 6f 00 6d 75 	imul   $0x756d006f,0x66(%esi),%ebp
 2ca:	6c                   	insb   (%dx),%es:(%edi)
 2cb:	74 69                	je     336 <mbh-0x2ffcca>
 2cd:	62 6f 6f             	bound  %ebp,0x6f(%edi)
 2d0:	74 5f                	je     331 <mbh-0x2ffccf>
 2d2:	65 6c                	gs insb (%dx),%es:(%edi)
 2d4:	66 5f                	pop    %di
 2d6:	73 65                	jae    33d <mbh-0x2ffcc3>
 2d8:	63 74 69 6f          	arpl   %esi,0x6f(%ecx,%ebp,2)
 2dc:	6e                   	outsb  %ds:(%esi),(%dx)
 2dd:	5f                   	pop    %edi
 2de:	68 65 61 64 65       	push   $0x65646165
 2e3:	72 5f                	jb     344 <mbh-0x2ffcbc>
 2e5:	74 61                	je     348 <mbh-0x2ffcb8>
 2e7:	62 6c 65 00          	bound  %ebp,0x0(%ebp,%eiz,2)
 2eb:	66 72 61             	data16 jb 34f <mbh-0x2ffcb1>
 2ee:	6d                   	insl   (%dx),%es:(%edi)
 2ef:	65 62 75 66          	bound  %esi,%gs:0x66(%ebp)
 2f3:	66 65 72 5f          	data16 gs jb 356 <mbh-0x2ffcaa>
 2f7:	70 69                	jo     362 <mbh-0x2ffc9e>
 2f9:	74 63                	je     35e <mbh-0x2ffca2>
 2fb:	68 00 66 72 61       	push   $0x61726600
 300:	6d                   	insl   (%dx),%es:(%edi)
 301:	65 62 75 66          	bound  %esi,%gs:0x66(%ebp)
 305:	66 65 72 5f          	data16 gs jb 368 <mbh-0x2ffc98>
 309:	74 79                	je     384 <mbh-0x2ffc7c>
 30b:	70 65                	jo     372 <mbh-0x2ffc8e>
 30d:	00 6d 75             	add    %ch,0x75(%ebp)
 310:	6c                   	insb   (%dx),%es:(%edi)
 311:	74 69                	je     37c <mbh-0x2ffc84>
 313:	62 6f 6f             	bound  %ebp,0x6f(%edi)
 316:	74 5f                	je     377 <mbh-0x2ffc89>
 318:	61                   	popa
 319:	6f                   	outsl  %ds:(%esi),(%dx)
 31a:	75 74                	jne    390 <mbh-0x2ffc70>
 31c:	5f                   	pop    %edi
 31d:	73 79                	jae    398 <mbh-0x2ffc68>
 31f:	6d                   	insl   (%dx),%es:(%edi)
 320:	62 6f 6c             	bound  %ebp,0x6c(%edi)
 323:	5f                   	pop    %edi
 324:	74 61                	je     387 <mbh-0x2ffc79>
 326:	62 6c 65 5f          	bound  %ebp,0x5f(%ebp,%eiz,2)
 32a:	74 00                	je     32c <mbh-0x2ffcd4>
 32c:	76 62                	jbe    390 <mbh-0x2ffc70>
 32e:	65 5f                	gs pop %edi
 330:	69 6e 74 65 72 66 61 	imul   $0x61667265,0x74(%esi),%ebp
 337:	63 65 5f             	arpl   %esp,0x5f(%ebp)
 33a:	6c                   	insb   (%dx),%es:(%edi)
 33b:	65 6e                	outsb  %gs:(%esi),(%dx)
 33d:	00 74 61 62          	add    %dh,0x62(%ecx,%eiz,2)
 341:	73 69                	jae    3ac <mbh-0x2ffc54>
 343:	7a 65                	jp     3aa <mbh-0x2ffc56>
 345:	00 66 72             	add    %ah,0x72(%esi)
 348:	61                   	popa
 349:	6d                   	insl   (%dx),%es:(%edi)
 34a:	65 62 75 66          	bound  %esi,%gs:0x66(%ebp)
 34e:	66 65 72 5f          	data16 gs jb 3b1 <mbh-0x2ffc4f>
 352:	72 65                	jb     3b9 <mbh-0x2ffc47>
 354:	64 5f                	fs pop %edi
 356:	6d                   	insl   (%dx),%es:(%edi)
 357:	61                   	popa
 358:	73 6b                	jae    3c5 <mbh-0x2ffc3b>
 35a:	5f                   	pop    %edi
 35b:	73 69                	jae    3c6 <mbh-0x2ffc3a>
 35d:	7a 65                	jp     3c4 <mbh-0x2ffc3c>
 35f:	00 64 72 69          	add    %ah,0x69(%edx,%esi,2)
 363:	76 65                	jbe    3ca <mbh-0x2ffc36>
 365:	73 5f                	jae    3c6 <mbh-0x2ffc3a>
 367:	6c                   	insb   (%dx),%es:(%edi)
 368:	65 6e                	outsb  %gs:(%esi),(%dx)
 36a:	67 74 68             	addr16 je 3d5 <mbh-0x2ffc2b>
 36d:	00 6d 65             	add    %ch,0x65(%ebp)
 370:	6d                   	insl   (%dx),%es:(%edi)
 371:	5f                   	pop    %edi
 372:	75 70                	jne    3e4 <mbh-0x2ffc1c>
 374:	70 65                	jo     3db <mbh-0x2ffc25>
 376:	72 00                	jb     378 <mbh-0x2ffc88>
 378:	63 6f 6e             	arpl   %ebp,0x6e(%edi)
 37b:	66 69 67 5f 74 61    	imul   $0x6174,0x5f(%edi),%sp
 381:	62 6c 65 00          	bound  %ebp,0x0(%ebp,%eiz,2)
 385:	66 72 61             	data16 jb 3e9 <mbh-0x2ffc17>
 388:	6d                   	insl   (%dx),%es:(%edi)
 389:	65 62 75 66          	bound  %esi,%gs:0x66(%ebp)
 38d:	66 65 72 5f          	data16 gs jb 3f0 <mbh-0x2ffc10>
 391:	67 72 65             	addr16 jb 3f9 <mbh-0x2ffc07>
 394:	65 6e                	outsb  %gs:(%esi),(%dx)
 396:	5f                   	pop    %edi
 397:	6d                   	insl   (%dx),%es:(%edi)
 398:	61                   	popa
 399:	73 6b                	jae    406 <mbh-0x2ffbfa>
 39b:	5f                   	pop    %edi
 39c:	73 69                	jae    407 <mbh-0x2ffbf9>
 39e:	7a 65                	jp     405 <mbh-0x2ffbfb>
 3a0:	00 6d 75             	add    %ch,0x75(%ebp)
 3a3:	6c                   	insb   (%dx),%es:(%edi)
 3a4:	74 69                	je     40f <mbh-0x2ffbf1>
 3a6:	62 6f 6f             	bound  %ebp,0x6f(%edi)
 3a9:	74 5f                	je     40a <mbh-0x2ffbf6>
 3ab:	69 6e 66 6f 5f 74 00 	imul   $0x745f6f,0x66(%esi),%ebp
 3b2:	66 72 61             	data16 jb 416 <mbh-0x2ffbea>
 3b5:	6d                   	insl   (%dx),%es:(%edi)
 3b6:	65 62 75 66          	bound  %esi,%gs:0x66(%ebp)
 3ba:	66 65 72 5f          	data16 gs jb 41d <mbh-0x2ffbe3>
 3be:	68 65 69 67 68       	push   $0x68676965
 3c3:	74 00                	je     3c5 <mbh-0x2ffc3b>
 3c5:	6d                   	insl   (%dx),%es:(%edi)
 3c6:	75 6c                	jne    434 <mbh-0x2ffbcc>
 3c8:	74 69                	je     433 <mbh-0x2ffbcd>
 3ca:	62 6f 6f             	bound  %ebp,0x6f(%edi)
 3cd:	74 5f                	je     42e <mbh-0x2ffbd2>
 3cf:	61                   	popa
 3d0:	6f                   	outsl  %ds:(%esi),(%dx)
 3d1:	75 74                	jne    447 <mbh-0x2ffbb9>
 3d3:	5f                   	pop    %edi
 3d4:	73 79                	jae    44f <mbh-0x2ffbb1>
 3d6:	6d                   	insl   (%dx),%es:(%edi)
 3d7:	62 6f 6c             	bound  %ebp,0x6c(%edi)
 3da:	5f                   	pop    %edi
 3db:	74 61                	je     43e <mbh-0x2ffbc2>
 3dd:	62 6c 65 00          	bound  %ebp,0x0(%ebp,%eiz,2)
 3e1:	6d                   	insl   (%dx),%es:(%edi)
 3e2:	6f                   	outsl  %ds:(%esi),(%dx)
 3e3:	64 73 5f             	fs jae 445 <mbh-0x2ffbbb>
 3e6:	63 6f 75             	arpl   %ebp,0x75(%edi)
 3e9:	6e                   	outsb  %ds:(%esi),(%dx)
 3ea:	74 00                	je     3ec <mbh-0x2ffc14>
 3ec:	6d                   	insl   (%dx),%es:(%edi)
 3ed:	75 6c                	jne    45b <mbh-0x2ffba5>
 3ef:	74 69                	je     45a <mbh-0x2ffba6>
 3f1:	62 6f 6f             	bound  %ebp,0x6f(%edi)
 3f4:	74 5f                	je     455 <mbh-0x2ffbab>
 3f6:	75 69                	jne    461 <mbh-0x2ffb9f>
 3f8:	6e                   	outsb  %ds:(%esi),(%dx)
 3f9:	74 38                	je     433 <mbh-0x2ffbcd>
 3fb:	5f                   	pop    %edi
 3fc:	74 00                	je     3fe <mbh-0x2ffc02>
 3fe:	62 6f 6f             	bound  %ebp,0x6f(%edi)
 401:	74 5f                	je     462 <mbh-0x2ffb9e>
 403:	6c                   	insb   (%dx),%es:(%edi)
 404:	6f                   	outsl  %ds:(%esi),(%dx)
 405:	61                   	popa
 406:	64 65 72 5f          	fs gs jb 469 <mbh-0x2ffb97>
 40a:	6e                   	outsb  %ds:(%esi),(%dx)
 40b:	61                   	popa
 40c:	6d                   	insl   (%dx),%es:(%edi)
 40d:	65 00 76 62          	add    %dh,%gs:0x62(%esi)
 411:	65 5f                	gs pop %edi
 413:	69 6e 74 65 72 66 61 	imul   $0x61667265,0x74(%esi),%ebp
 41a:	63 65 5f             	arpl   %esp,0x5f(%ebp)
 41d:	73 65                	jae    484 <mbh-0x2ffb7c>
 41f:	67 00 47 4e          	add    %al,0x4e(%bx)
 423:	55                   	push   %ebp
 424:	20 43 31             	and    %al,0x31(%ebx)
 427:	37                   	aaa
 428:	20 31                	and    %dh,(%ecx)
 42a:	33 2e                	xor    (%esi),%ebp
 42c:	32 2e                	xor    (%esi),%ch
 42e:	30 20                	xor    %ah,(%eax)
 430:	2d 6d 6e 6f 2d       	sub    $0x2d6f6e6d,%eax
 435:	6d                   	insl   (%dx),%es:(%edi)
 436:	6d                   	insl   (%dx),%es:(%edi)
 437:	78 20                	js     459 <mbh-0x2ffba7>
 439:	2d 6d 6e 6f 2d       	sub    $0x2d6f6e6d,%eax
 43e:	73 73                	jae    4b3 <mbh-0x2ffb4d>
 440:	65 20 2d 6d 6e 6f 2d 	and    %ch,%gs:0x2d6f6e6d
 447:	73 73                	jae    4bc <mbh-0x2ffb44>
 449:	65 32 20             	xor    %gs:(%eax),%ah
 44c:	2d 6d 6e 6f 2d       	sub    $0x2d6f6e6d,%eax
 451:	73 73                	jae    4c6 <mbh-0x2ffb3a>
 453:	65 33 20             	xor    %gs:(%eax),%esp
 456:	2d 6d 6e 6f 2d       	sub    $0x2d6f6e6d,%eax
 45b:	73 73                	jae    4d0 <mbh-0x2ffb30>
 45d:	73 65                	jae    4c4 <mbh-0x2ffb3c>
 45f:	33 20                	xor    (%eax),%esp
 461:	2d 6d 6e 6f 2d       	sub    $0x2d6f6e6d,%eax
 466:	73 73                	jae    4db <mbh-0x2ffb25>
 468:	65 34 2e             	gs xor $0x2e,%al
 46b:	31 20                	xor    %esp,(%eax)
 46d:	2d 6d 6e 6f 2d       	sub    $0x2d6f6e6d,%eax
 472:	73 73                	jae    4e7 <mbh-0x2ffb19>
 474:	65 34 2e             	gs xor $0x2e,%al
 477:	32 20                	xor    (%eax),%ah
 479:	2d 6d 6e 6f 2d       	sub    $0x2d6f6e6d,%eax
 47e:	73 73                	jae    4f3 <mbh-0x2ffb0d>
 480:	65 34 20             	gs xor $0x20,%al
 483:	2d 6d 6e 6f 2d       	sub    $0x2d6f6e6d,%eax
 488:	61                   	popa
 489:	76 78                	jbe    503 <mbh-0x2ffafd>
 48b:	20 2d 6d 6e 6f 2d    	and    %ch,0x2d6f6e6d
 491:	61                   	popa
 492:	76 78                	jbe    50c <mbh-0x2ffaf4>
 494:	32 20                	xor    (%eax),%ah
 496:	2d 6d 6e 6f 2d       	sub    $0x2d6f6e6d,%eax
 49b:	61                   	popa
 49c:	65 73 20             	gs jae 4bf <mbh-0x2ffb41>
 49f:	2d 6d 6e 6f 2d       	sub    $0x2d6f6e6d,%eax
 4a4:	70 63                	jo     509 <mbh-0x2ffaf7>
 4a6:	6c                   	insb   (%dx),%es:(%edi)
 4a7:	6d                   	insl   (%dx),%es:(%edi)
 4a8:	75 6c                	jne    516 <mbh-0x2ffaea>
 4aa:	20 2d 6d 6e 6f 2d    	and    %ch,0x2d6f6e6d
 4b0:	66 73 67             	data16 jae 51a <mbh-0x2ffae6>
 4b3:	73 62                	jae    517 <mbh-0x2ffae9>
 4b5:	61                   	popa
 4b6:	73 65                	jae    51d <mbh-0x2ffae3>
 4b8:	20 2d 6d 6e 6f 2d    	and    %ch,0x2d6f6e6d
 4be:	72 64                	jb     524 <mbh-0x2ffadc>
 4c0:	72 6e                	jb     530 <mbh-0x2ffad0>
 4c2:	64 20 2d 6d 6e 6f 2d 	and    %ch,%fs:0x2d6f6e6d
 4c9:	66 31 36             	xor    %si,(%esi)
 4cc:	63 20                	arpl   %esp,(%eax)
 4ce:	2d 6d 6e 6f 2d       	sub    $0x2d6f6e6d,%eax
 4d3:	66 6d                	insw   (%dx),%es:(%edi)
 4d5:	61                   	popa
 4d6:	20 2d 6d 6e 6f 2d    	and    %ch,0x2d6f6e6d
 4dc:	73 73                	jae    551 <mbh-0x2ffaaf>
 4de:	65 34 61             	gs xor $0x61,%al
 4e1:	20 2d 6d 6e 6f 2d    	and    %ch,0x2d6f6e6d
 4e7:	66 6d                	insw   (%dx),%es:(%edi)
 4e9:	61                   	popa
 4ea:	34 20                	xor    $0x20,%al
 4ec:	2d 6d 6e 6f 2d       	sub    $0x2d6f6e6d,%eax
 4f1:	78 6f                	js     562 <mbh-0x2ffa9e>
 4f3:	70 20                	jo     515 <mbh-0x2ffaeb>
 4f5:	2d 6d 6e 6f 2d       	sub    $0x2d6f6e6d,%eax
 4fa:	6c                   	insb   (%dx),%es:(%edi)
 4fb:	77 70                	ja     56d <mbh-0x2ffa93>
 4fd:	20 2d 6d 6e 6f 2d    	and    %ch,0x2d6f6e6d
 503:	33 64 6e 6f          	xor    0x6f(%esi,%ebp,2),%esp
 507:	77 20                	ja     529 <mbh-0x2ffad7>
 509:	2d 6d 6e 6f 2d       	sub    $0x2d6f6e6d,%eax
 50e:	70 6f                	jo     57f <mbh-0x2ffa81>
 510:	70 63                	jo     575 <mbh-0x2ffa8b>
 512:	6e                   	outsb  %ds:(%esi),(%dx)
 513:	74 20                	je     535 <mbh-0x2ffacb>
 515:	2d 6d 6e 6f 2d       	sub    $0x2d6f6e6d,%eax
 51a:	61                   	popa
 51b:	62 6d 20             	bound  %ebp,0x20(%ebp)
 51e:	2d 6d 6e 6f 2d       	sub    $0x2d6f6e6d,%eax
 523:	62 6d 69             	bound  %ebp,0x69(%ebp)
 526:	20 2d 6d 6e 6f 2d    	and    %ch,0x2d6f6e6d
 52c:	62 6d 69             	bound  %ebp,0x69(%ebp)
 52f:	32 20                	xor    (%eax),%ah
 531:	2d 6d 6e 6f 2d       	sub    $0x2d6f6e6d,%eax
 536:	6c                   	insb   (%dx),%es:(%edi)
 537:	7a 63                	jp     59c <mbh-0x2ffa64>
 539:	6e                   	outsb  %ds:(%esi),(%dx)
 53a:	74 20                	je     55c <mbh-0x2ffaa4>
 53c:	2d 6d 6e 6f 2d       	sub    $0x2d6f6e6d,%eax
 541:	74 62                	je     5a5 <mbh-0x2ffa5b>
 543:	6d                   	insl   (%dx),%es:(%edi)
 544:	20 2d 6d 33 32 20    	and    %ch,0x2032336d
 54a:	2d 6d 74 75 6e       	sub    $0x6e75746d,%eax
 54f:	65 3d 67 65 6e 65    	gs cmp $0x656e6567,%eax
 555:	72 69                	jb     5c0 <mbh-0x2ffa40>
 557:	63 20                	arpl   %esp,(%eax)
 559:	2d 6d 61 72 63       	sub    $0x6372616d,%eax
 55e:	68 3d 69 36 38       	push   $0x3836693d
 563:	36 20 2d 67 20 2d 66 	and    %ch,%ss:0x662d2067
 56a:	66 72 65             	data16 jb 5d2 <mbh-0x2ffa2e>
 56d:	65 73 74             	gs jae 5e4 <mbh-0x2ffa1c>
 570:	61                   	popa
 571:	6e                   	outsb  %ds:(%esi),(%dx)
 572:	64 69 6e 67 20 2d 66 	imul   $0x6d662d20,%fs:0x67(%esi),%ebp
 579:	6d 
 57a:	73 2d                	jae    5a9 <mbh-0x2ffa57>
 57c:	65 78 74             	gs js  5f3 <mbh-0x2ffa0d>
 57f:	65 6e                	outsb  %gs:(%esi),(%dx)
 581:	73 69                	jae    5ec <mbh-0x2ffa14>
 583:	6f                   	outsl  %ds:(%esi),(%dx)
 584:	6e                   	outsb  %ds:(%esi),(%dx)
 585:	73 20                	jae    5a7 <mbh-0x2ffa59>
 587:	2d 66 6e 6f 2d       	sub    $0x2d6f6e66,%eax
 58c:	73 74                	jae    602 <mbh-0x2ff9fe>
 58e:	61                   	popa
 58f:	63 6b 2d             	arpl   %ebp,0x2d(%ebx)
 592:	70 72                	jo     606 <mbh-0x2ff9fa>
 594:	6f                   	outsl  %ds:(%esi),(%dx)
 595:	74 65                	je     5fc <mbh-0x2ffa04>
 597:	63 74 6f 72          	arpl   %esi,0x72(%edi,%ebp,2)
 59b:	20 2d 66 6e 6f 2d    	and    %ch,0x2d6f6e66
 5a1:	70 69                	jo     60c <mbh-0x2ff9f4>
 5a3:	63 20                	arpl   %esp,(%eax)
 5a5:	2d 66 61 73 79       	sub    $0x79736166,%eax
 5aa:	6e                   	outsb  %ds:(%esi),(%dx)
 5ab:	63 68 72             	arpl   %ebp,0x72(%eax)
 5ae:	6f                   	outsl  %ds:(%esi),(%dx)
 5af:	6e                   	outsb  %ds:(%esi),(%dx)
 5b0:	6f                   	outsl  %ds:(%esi),(%dx)
 5b1:	75 73                	jne    626 <mbh-0x2ff9da>
 5b3:	2d 75 6e 77 69       	sub    $0x69776e75,%eax
 5b8:	6e                   	outsb  %ds:(%esi),(%dx)
 5b9:	64 2d 74 61 62 6c    	fs sub $0x6c626174,%eax
 5bf:	65 73 20             	gs jae 5e2 <mbh-0x2ffa1e>
 5c2:	2d 66 73 74 61       	sub    $0x61747366,%eax
 5c7:	63 6b 2d             	arpl   %ebp,0x2d(%ebx)
 5ca:	63 6c 61 73          	arpl   %ebp,0x73(%ecx,%eiz,2)
 5ce:	68 2d 70 72 6f       	push   $0x6f72702d
 5d3:	74 65                	je     63a <mbh-0x2ff9c6>
 5d5:	63 74 69 6f          	arpl   %esi,0x6f(%ecx,%ebp,2)
 5d9:	6e                   	outsb  %ds:(%esi),(%dx)
 5da:	00 72 65             	add    %dh,0x65(%edx)
 5dd:	73 65                	jae    644 <mbh-0x2ff9bc>
 5df:	72 76                	jb     657 <mbh-0x2ff9a9>
 5e1:	65 64 00 66 72       	gs add %ah,%fs:0x72(%esi)
 5e6:	61                   	popa
 5e7:	6d                   	insl   (%dx),%es:(%edi)
 5e8:	65 62 75 66          	bound  %esi,%gs:0x66(%ebp)
 5ec:	66 65 72 5f          	data16 gs jb 64f <mbh-0x2ff9b1>
 5f0:	70 61                	jo     653 <mbh-0x2ff9ad>
 5f2:	6c                   	insb   (%dx),%es:(%edi)
 5f3:	65 74 74             	gs je  66a <mbh-0x2ff996>
 5f6:	65 5f                	gs pop %edi
 5f8:	61                   	popa
 5f9:	64 64 72 00          	fs fs jb 5fd <mbh-0x2ffa03>
 5fd:	62 6c 6f 77          	bound  %ebp,0x77(%edi,%ebp,2)
 601:	00 75 61             	add    %dh,0x61(%ebp)
 604:	72 74                	jb     67a <mbh-0x2ff986>
 606:	5f                   	pop    %edi
 607:	66 6c                	data16 insb (%dx),%es:(%edi)
 609:	75 73                	jne    67e <mbh-0x2ff982>
 60b:	68 00 73 69 6e       	push   $0x6e697300
 610:	74 33                	je     645 <mbh-0x2ff9bb>
 612:	32 5f 74             	xor    0x74(%edi),%bl
 615:	00 73 74             	add    %dh,0x74(%ebx)
 618:	72 69                	jb     683 <mbh-0x2ff97d>
 61a:	6e                   	outsb  %ds:(%esi),(%dx)
 61b:	67 00 76 70          	add    %dh,0x70(%bp)
 61f:	72 69                	jb     68a <mbh-0x2ff976>
 621:	6e                   	outsb  %ds:(%esi),(%dx)
 622:	74 5f                	je     683 <mbh-0x2ff97d>
 624:	62 75 66             	bound  %esi,0x66(%ebp)
 627:	66 65 72 00          	data16 gs jb 62b <mbh-0x2ff9d5>
 62b:	66 61                	popaw
 62d:	72 5f                	jb     68e <mbh-0x2ff972>
 62f:	70 74                	jo     6a5 <mbh-0x2ff95b>
 631:	72 36                	jb     669 <mbh-0x2ff997>
 633:	34 00                	xor    $0x0,%al
 635:	72 61                	jb     698 <mbh-0x2ff968>
 637:	77 5f                	ja     698 <mbh-0x2ff968>
 639:	31 36                	xor    %esi,(%esi)
 63b:	5f                   	pop    %edi
 63c:	62 69 74             	bound  %ebp,0x74(%ecx)
 63f:	73 5f                	jae    6a0 <mbh-0x2ff960>
 641:	65 6e                	outsb  %gs:(%esi),(%dx)
 643:	74 72                	je     6b7 <mbh-0x2ff949>
 645:	79 00                	jns    647 <mbh-0x2ff9b9>
 647:	66 70 74             	data16 jo 6be <mbh-0x2ff942>
 64a:	72 33                	jb     67f <mbh-0x2ff981>
 64c:	32 5f 74             	xor    0x74(%edi),%bl
 64f:	00 6c 69 6e          	add    %ch,0x6e(%ecx,%ebp,2)
 653:	65 61                	gs popa
 655:	72 00                	jb     657 <mbh-0x2ff9a9>
 657:	62 75 66             	bound  %esi,0x66(%ebp)
 65a:	66 00 62 6f          	data16 add %ah,0x6f(%edx)
 65e:	6f                   	outsl  %ds:(%esi),(%dx)
 65f:	6c                   	insb   (%dx),%es:(%edi)
 660:	5f                   	pop    %edi
 661:	74 00                	je     663 <mbh-0x2ff99d>
 663:	72 61                	jb     6c6 <mbh-0x2ff93a>
 665:	77 31                	ja     698 <mbh-0x2ff968>
 667:	36 5f                	ss pop %edi
 669:	74 00                	je     66b <mbh-0x2ff995>
 66b:	69 6e 74 65 72 70 00 	imul   $0x707265,0x74(%esi),%ebp
 672:	5f                   	pop    %edi
 673:	5f                   	pop    %edi
 674:	62 75 69             	bound  %esi,0x69(%ebp)
 677:	6c                   	insb   (%dx),%es:(%edi)
 678:	74 69                	je     6e3 <mbh-0x2ff91d>
 67a:	6e                   	outsb  %ds:(%esi),(%dx)
 67b:	5f                   	pop    %edi
 67c:	76 61                	jbe    6df <mbh-0x2ff921>
 67e:	5f                   	pop    %edi
 67f:	6c                   	insb   (%dx),%es:(%edi)
 680:	69 73 74 00 72 61 77 	imul   $0x77617200,0x74(%ebx),%esi
 687:	5f                   	pop    %edi
 688:	36 34 5f             	ss xor $0x5f,%al
 68b:	62 69 74             	bound  %ebp,0x74(%ecx)
 68e:	73 5f                	jae    6ef <mbh-0x2ff911>
 690:	65 6e                	outsb  %gs:(%esi),(%dx)
 692:	74 72                	je     706 <mbh-0x2ff8fa>
 694:	79 00                	jns    696 <mbh-0x2ff96a>
 696:	72 65                	jb     6fd <mbh-0x2ff903>
 698:	74 76                	je     710 <mbh-0x2ff8f0>
 69a:	61                   	popa
 69b:	6c                   	insb   (%dx),%es:(%edi)
 69c:	00 5f 5f             	add    %bl,0x5f(%edi)
 69f:	66 6f                	outsw  %ds:(%esi),(%dx)
 6a1:	72 6d                	jb     710 <mbh-0x2ff8f0>
 6a3:	61                   	popa
 6a4:	74 5f                	je     705 <mbh-0x2ff8fb>
 6a6:	61                   	popa
 6a7:	64 64 5f             	fs fs pop %edi
 6aa:	75 64                	jne    710 <mbh-0x2ff8f0>
 6ac:	65 63 00             	arpl   %eax,%gs:(%eax)
 6af:	5f                   	pop    %edi
 6b0:	5f                   	pop    %edi
 6b1:	76 73                	jbe    726 <mbh-0x2ff8da>
 6b3:	6e                   	outsb  %ds:(%esi),(%dx)
 6b4:	70 72                	jo     728 <mbh-0x2ff8d8>
 6b6:	69 6e 74 66 00 62 79 	imul   $0x79620066,0x74(%esi),%ebp
 6bd:	74 65                	je     724 <mbh-0x2ff8dc>
 6bf:	00 62 75             	add    %ah,0x75(%edx)
 6c2:	66 66 65 72 5f       	data16 data16 gs jb 726 <mbh-0x2ff8da>
 6c7:	74 00                	je     6c9 <mbh-0x2ff937>
 6c9:	76 61                	jbe    72c <mbh-0x2ff8d4>
 6cb:	6c                   	insb   (%dx),%es:(%edi)
 6cc:	75 65                	jne    733 <mbh-0x2ff8cd>
 6ce:	00 5f 5f             	add    %bl,0x5f(%edi)
 6d1:	66 6f                	outsw  %ds:(%esi),(%dx)
 6d3:	72 6d                	jb     742 <mbh-0x2ff8be>
 6d5:	61                   	popa
 6d6:	74 5f                	je     737 <mbh-0x2ff8c9>
 6d8:	61                   	popa
 6d9:	64 64 5f             	fs fs pop %edi
 6dc:	69 64 65 63 00 5f 6c 	imul   $0x6f6c5f00,0x63(%ebp,%eiz,2),%esp
 6e3:	6f 
 6e4:	77 00                	ja     6e6 <mbh-0x2ff91a>
 6e6:	5f                   	pop    %edi
 6e7:	5f                   	pop    %edi
 6e8:	62 75 66             	bound  %esi,0x66(%ebp)
 6eb:	5f                   	pop    %edi
 6ec:	61                   	popa
 6ed:	64 64 00 73 69       	fs add %dh,%fs:0x69(%ebx)
 6f2:	6e                   	outsb  %ds:(%esi),(%dx)
 6f3:	74 36                	je     72b <mbh-0x2ff8d5>
 6f5:	34 5f                	xor    $0x5f,%al
 6f7:	74 00                	je     6f9 <mbh-0x2ff907>
 6f9:	62 68 69             	bound  %ebp,0x69(%eax)
 6fc:	67 68 00 5f 77 6c    	addr16 push $0x6c775f00
 702:	6f                   	outsl  %ds:(%esi),(%dx)
 703:	77 00                	ja     705 <mbh-0x2ff8fb>
 705:	64 61                	fs popa
 707:	74 61                	je     76a <mbh-0x2ff896>
 709:	00 66 61             	add    %ah,0x61(%esi)
 70c:	72 5f                	jb     76d <mbh-0x2ff893>
 70e:	70 74                	jo     784 <mbh-0x2ff87c>
 710:	72 31                	jb     743 <mbh-0x2ff8bd>
 712:	36 00 72 61          	add    %dh,%ss:0x61(%edx)
 716:	77 5f                	ja     777 <mbh-0x2ff889>
 718:	33 32                	xor    (%edx),%esi
 71a:	5f                   	pop    %edi
 71b:	62 69 74             	bound  %ebp,0x74(%ecx)
 71e:	73 5f                	jae    77f <mbh-0x2ff881>
 720:	65 6e                	outsb  %gs:(%esi),(%dx)
 722:	74 72                	je     796 <mbh-0x2ff86a>
 724:	79 00                	jns    726 <mbh-0x2ff8da>
 726:	75 69                	jne    791 <mbh-0x2ff86f>
 728:	6e                   	outsb  %ds:(%esi),(%dx)
 729:	74 36                	je     761 <mbh-0x2ff89f>
 72b:	34 5f                	xor    $0x5f,%al
 72d:	74 6f                	je     79e <mbh-0x2ff862>
 72f:	5f                   	pop    %edi
 730:	68 65 78 00 5f       	push   $0x5f007865
 735:	68 69 67 68 00       	push   $0x686769
 73a:	73 72                	jae    7ae <mbh-0x2ff852>
 73c:	61                   	popa
 73d:	77 00                	ja     73f <mbh-0x2ff8c1>
 73f:	5f                   	pop    %edi
 740:	5f                   	pop    %edi
 741:	66 6f                	outsw  %ds:(%esi),(%dx)
 743:	72 6d                	jb     7b2 <mbh-0x2ff84e>
 745:	61                   	popa
 746:	74 5f                	je     7a7 <mbh-0x2ff859>
 748:	61                   	popa
 749:	64 64 5f             	fs fs pop %edi
 74c:	73 74                	jae    7c2 <mbh-0x2ff83e>
 74e:	72 00                	jb     750 <mbh-0x2ff8b0>
 750:	73 69                	jae    7bb <mbh-0x2ff845>
 752:	6e                   	outsb  %ds:(%esi),(%dx)
 753:	74 31                	je     786 <mbh-0x2ff87a>
 755:	36 5f                	ss pop %edi
 757:	74 00                	je     759 <mbh-0x2ff8a7>
 759:	5f                   	pop    %edi
 75a:	5f                   	pop    %edi
 75b:	66 6f                	outsw  %ds:(%esi),(%dx)
 75d:	72 6d                	jb     7cc <mbh-0x2ff834>
 75f:	61                   	popa
 760:	74 5f                	je     7c1 <mbh-0x2ff83f>
 762:	61                   	popa
 763:	64 64 5f             	fs fs pop %edi
 766:	68 65 78 00 5f       	push   $0x5f007865
 76b:	5f                   	pop    %edi
 76c:	68 65 78 74 61       	push   $0x61747865
 771:	62 6c 65 00          	bound  %ebp,0x0(%ebp,%eiz,2)
 775:	66 70 74             	data16 jo 7ec <mbh-0x2ff814>
 778:	72 36                	jb     7b0 <mbh-0x2ff850>
 77a:	34 5f                	xor    $0x5f,%al
 77c:	74 00                	je     77e <mbh-0x2ff882>
 77e:	72 61                	jb     7e1 <mbh-0x2ff81f>
 780:	77 33                	ja     7b5 <mbh-0x2ff84b>
 782:	32 5f 74             	xor    0x74(%edi),%bl
 785:	00 66 61             	add    %ah,0x61(%esi)
 788:	72 5f                	jb     7e9 <mbh-0x2ff817>
 78a:	70 74                	jo     800 <mbh-0x2ff800>
 78c:	72 33                	jb     7c1 <mbh-0x2ff83f>
 78e:	32 00                	xor    (%eax),%al
 790:	66 61                	popaw
 792:	6c                   	insb   (%dx),%es:(%edi)
 793:	73 65                	jae    7fa <mbh-0x2ff806>
 795:	00 66 6f             	add    %ah,0x6f(%esi)
 798:	72 6d                	jb     807 <mbh-0x2ff7f9>
 79a:	61                   	popa
 79b:	74 00                	je     79d <mbh-0x2ff863>
 79d:	5f                   	pop    %edi
 79e:	5f                   	pop    %edi
 79f:	76 70                	jbe    811 <mbh-0x2ff7ef>
 7a1:	72 69                	jb     80c <mbh-0x2ff7f4>
 7a3:	6e                   	outsb  %ds:(%esi),(%dx)
 7a4:	74 66                	je     80c <mbh-0x2ff7f4>
 7a6:	00 6c 6f 63          	add    %ch,0x63(%edi,%ebp,2)
 7aa:	61                   	popa
 7ab:	74 69                	je     816 <mbh-0x2ff7ea>
 7ad:	6f                   	outsl  %ds:(%esi),(%dx)
 7ae:	6e                   	outsb  %ds:(%esi),(%dx)
 7af:	00 6f 66             	add    %ch,0x66(%edi)
 7b2:	66 73 65             	data16 jae 81a <mbh-0x2ff7e6>
 7b5:	74 5f                	je     816 <mbh-0x2ff7ea>
 7b7:	74 00                	je     7b9 <mbh-0x2ff847>
 7b9:	70 61                	jo     81c <mbh-0x2ff7e4>
 7bb:	72 61                	jb     81e <mbh-0x2ff7e2>
 7bd:	6d                   	insl   (%dx),%es:(%edi)
 7be:	73 00                	jae    7c0 <mbh-0x2ff840>
 7c0:	70 72                	jo     834 <mbh-0x2ff7cc>
 7c2:	65 63 69 73          	arpl   %ebp,%gs:0x73(%ecx)
 7c6:	69 6f 6e 00 6f 66 66 	imul   $0x66666f00,0x6e(%edi),%ebp
 7cd:	73 65                	jae    834 <mbh-0x2ff7cc>
 7cf:	74 00                	je     7d1 <mbh-0x2ff82f>
 7d1:	5f                   	pop    %edi
 7d2:	5f                   	pop    %edi
 7d3:	66 6f                	outsw  %ds:(%esi),(%dx)
 7d5:	72 6d                	jb     844 <mbh-0x2ff7bc>
 7d7:	61                   	popa
 7d8:	74 5f                	je     839 <mbh-0x2ff7c7>
 7da:	61                   	popa
 7db:	64 64 5f             	fs fs pop %edi
 7de:	62 69 6e             	bound  %ebp,0x6e(%ecx)
 7e1:	00 5f 5f             	add    %bl,0x5f(%edi)
 7e4:	66 6f                	outsw  %ds:(%esi),(%dx)
 7e6:	72 6d                	jb     855 <mbh-0x2ff7ab>
 7e8:	61                   	popa
 7e9:	74 5f                	je     84a <mbh-0x2ff7b6>
 7eb:	61                   	popa
 7ec:	64 64 5f             	fs fs pop %edi
 7ef:	63 68 72             	arpl   %ebp,0x72(%eax)
 7f2:	00 66 70             	add    %ah,0x70(%esi)
 7f5:	74 72                	je     869 <mbh-0x2ff797>
 7f7:	31 36                	xor    %esi,(%esi)
 7f9:	5f                   	pop    %edi
 7fa:	74 00                	je     7fc <mbh-0x2ff804>
 7fc:	5f                   	pop    %edi
 7fd:	77 68                	ja     867 <mbh-0x2ff799>
 7ff:	69 67 68 00 73 69 6e 	imul   $0x6e697300,0x68(%edi),%esp
 806:	74 38                	je     840 <mbh-0x2ff7c0>
 808:	5f                   	pop    %edi
 809:	74 00                	je     80b <mbh-0x2ff7f5>
 80b:	6c                   	insb   (%dx),%es:(%edi)
 80c:	6f                   	outsl  %ds:(%esi),(%dx)
 80d:	63 5f 74             	arpl   %ebx,0x74(%edi)
 810:	00 72 61             	add    %dh,0x61(%edx)
 813:	77 36                	ja     84b <mbh-0x2ff7b5>
 815:	34 5f                	xor    $0x5f,%al
 817:	74 00                	je     819 <mbh-0x2ff7e7>
 819:	74 72                	je     88d <mbh-0x2ff773>
 81b:	75 65                	jne    882 <mbh-0x2ff77e>
 81d:	00 73 65             	add    %dh,0x65(%ebx)
 820:	72 69                	jb     88b <mbh-0x2ff775>
 822:	61                   	popa
 823:	6c                   	insb   (%dx),%es:(%edi)
 824:	5f                   	pop    %edi
 825:	6c                   	insb   (%dx),%es:(%edi)
 826:	63 72 5f             	arpl   %esi,0x5f(%edx)
 829:	72 65                	jb     890 <mbh-0x2ff770>
 82b:	67 69 73 74 65 72 00 	imul   $0x74007265,0x74(%bp,%di),%esi
 832:	74 
 833:	68 72 65 00 78       	push   $0x78006572
 838:	6f                   	outsl  %ds:(%esi),(%dx)
 839:	66 66 00 5f 5f       	data16 data16 add %bl,0x5f(%edi)
 83e:	75 61                	jne    8a1 <mbh-0x2ff75f>
 840:	72 74                	jb     8b6 <mbh-0x2ff74a>
 842:	5f                   	pop    %edi
 843:	66 6c                	data16 insb (%dx),%es:(%edi)
 845:	75 73                	jne    8ba <mbh-0x2ff746>
 847:	68 5f 72 65 63       	push   $0x6365725f
 84c:	76 00                	jbe    84e <mbh-0x2ff7b2>
 84e:	72 78                	jb     8c8 <mbh-0x2ff738>
 850:	5f                   	pop    %edi
 851:	74 72                	je     8c5 <mbh-0x2ff73b>
 853:	69 67 67 65 72 00 73 	imul   $0x73007265,0x67(%edi),%esp
 85a:	65 72 69             	gs jb  8c6 <mbh-0x2ff73a>
 85d:	61                   	popa
 85e:	6c                   	insb   (%dx),%es:(%edi)
 85f:	5f                   	pop    %edi
 860:	69 65 72 5f 72 65 67 	imul   $0x6765725f,0x72(%ebp),%esp
 867:	69 73 74 65 72 00 5f 	imul   $0x5f007265,0x74(%ebx),%esi
 86e:	5f                   	pop    %edi
 86f:	75 61                	jne    8d2 <mbh-0x2ff72e>
 871:	72 74                	jb     8e7 <mbh-0x2ff719>
 873:	5f                   	pop    %edi
 874:	63 6f 6d             	arpl   %ebp,0x6d(%edi)
 877:	6d                   	insl   (%dx),%es:(%edi)
 878:	6f                   	outsl  %ds:(%esi),(%dx)
 879:	6e                   	outsb  %ds:(%esi),(%dx)
 87a:	5f                   	pop    %edi
 87b:	69 6e 69 74 00 5f 5f 	imul   $0x5f5f0074,0x69(%esi),%ebp
 882:	75 61                	jne    8e5 <mbh-0x2ff71b>
 884:	72 74                	jb     8fa <mbh-0x2ff706>
 886:	5f                   	pop    %edi
 887:	77 72                	ja     8fb <mbh-0x2ff705>
 889:	69 74 65 00 73 65 72 	imul   $0x69726573,0x0(%ebp,%eiz,2),%esi
 890:	69 
 891:	61                   	popa
 892:	6c                   	insb   (%dx),%es:(%edi)
 893:	5f                   	pop    %edi
 894:	66 63 72 5f          	arpl   %si,0x5f(%edx)
 898:	72 65                	jb     8ff <mbh-0x2ff701>
 89a:	67 69 73 74 65 72 00 	imul   $0x73007265,0x74(%bp,%di),%esi
 8a1:	73 
 8a2:	65 72 69             	gs jb  90e <mbh-0x2ff6f2>
 8a5:	61                   	popa
 8a6:	6c                   	insb   (%dx),%es:(%edi)
 8a7:	5f                   	pop    %edi
 8a8:	66 63 72 5f          	arpl   %si,0x5f(%edx)
 8ac:	72 65                	jb     913 <mbh-0x2ff6ed>
 8ae:	67 5f                	addr16 pop %edi
 8b0:	74 00                	je     8b2 <mbh-0x2ff74e>
 8b2:	70 61                	jo     915 <mbh-0x2ff6eb>
 8b4:	72 69                	jb     91f <mbh-0x2ff6e1>
 8b6:	74 79                	je     931 <mbh-0x2ff6cf>
 8b8:	00 73 65             	add    %dh,0x65(%ebx)
 8bb:	72 69                	jb     926 <mbh-0x2ff6da>
 8bd:	61                   	popa
 8be:	6c                   	insb   (%dx),%es:(%edi)
 8bf:	5f                   	pop    %edi
 8c0:	65 66 72 5f          	gs data16 jb 923 <mbh-0x2ff6dd>
 8c4:	72 65                	jb     92b <mbh-0x2ff6d5>
 8c6:	67 69 73 74 65 72 00 	imul   $0x73007265,0x74(%bp,%di),%esi
 8cd:	73 
 8ce:	6c                   	insb   (%dx),%es:(%edi)
 8cf:	65 65 70 00          	gs gs jo 8d3 <mbh-0x2ff72d>
 8d3:	73 74                	jae    949 <mbh-0x2ff6b7>
 8d5:	6f                   	outsl  %ds:(%esi),(%dx)
 8d6:	70 00                	jo     8d8 <mbh-0x2ff728>
 8d8:	61                   	popa
 8d9:	5f                   	pop    %edi
 8da:	63 74 73 00          	arpl   %esi,0x0(%ebx,%esi,2)
 8de:	73 65                	jae    945 <mbh-0x2ff6bb>
 8e0:	72 69                	jb     94b <mbh-0x2ff6b5>
 8e2:	61                   	popa
 8e3:	6c                   	insb   (%dx),%es:(%edi)
 8e4:	5f                   	pop    %edi
 8e5:	65 66 72 5f          	gs data16 jb 948 <mbh-0x2ff6b8>
 8e9:	72 65                	jb     950 <mbh-0x2ff6b0>
 8eb:	67 5f                	addr16 pop %edi
 8ed:	74 00                	je     8ef <mbh-0x2ff711>
 8ef:	65 6e                	outsb  %gs:(%esi),(%dx)
 8f1:	61                   	popa
 8f2:	62 6c 65 00          	bound  %ebp,0x0(%ebp,%eiz,2)
 8f6:	5f                   	pop    %edi
 8f7:	5f                   	pop    %edi
 8f8:	75 61                	jne    95b <mbh-0x2ff6a5>
 8fa:	72 74                	jb     970 <mbh-0x2ff690>
 8fc:	5f                   	pop    %edi
 8fd:	66 69 66 6f 5f 69    	imul   $0x695f,0x6f(%esi),%sp
 903:	6e                   	outsb  %ds:(%esi),(%dx)
 904:	69 74 00 70 6f 72 74 	imul   $0x74726f,0x70(%eax,%eax,1),%esi
 90b:	00 
 90c:	73 65                	jae    973 <mbh-0x2ff68d>
 90e:	72 69                	jb     979 <mbh-0x2ff687>
 910:	61                   	popa
 911:	6c                   	insb   (%dx),%es:(%edi)
 912:	5f                   	pop    %edi
 913:	6c                   	insb   (%dx),%es:(%edi)
 914:	63 72 5f             	arpl   %esi,0x5f(%edx)
 917:	72 65                	jb     97e <mbh-0x2ff682>
 919:	67 5f                	addr16 pop %edi
 91b:	74 00                	je     91d <mbh-0x2ff6e3>
 91d:	66 6c                	data16 insb (%dx),%es:(%edi)
 91f:	6f                   	outsl  %ds:(%esi),(%dx)
 920:	77 5f                	ja     981 <mbh-0x2ff67f>
 922:	63 74 6c 00          	arpl   %esi,0x0(%esp,%ebp,2)
 926:	73 65                	jae    98d <mbh-0x2ff673>
 928:	72 69                	jb     993 <mbh-0x2ff66d>
 92a:	61                   	popa
 92b:	6c                   	insb   (%dx),%es:(%edi)
 92c:	5f                   	pop    %edi
 92d:	69 65 72 5f 72 65 67 	imul   $0x6765725f,0x72(%ebp),%esp
 934:	5f                   	pop    %edi
 935:	74 00                	je     937 <mbh-0x2ff6c9>
 937:	61                   	popa
 938:	5f                   	pop    %edi
 939:	72 74                	jb     9af <mbh-0x2ff651>
 93b:	73 00                	jae    93d <mbh-0x2ff6c3>
 93d:	5f                   	pop    %edi
 93e:	5f                   	pop    %edi
 93f:	75 61                	jne    9a2 <mbh-0x2ff65e>
 941:	72 74                	jb     9b7 <mbh-0x2ff649>
 943:	5f                   	pop    %edi
 944:	72 65                	jb     9ab <mbh-0x2ff655>
 946:	61                   	popa
 947:	64 00 77 6f          	add    %dh,%fs:0x6f(%edi)
 94b:	72 64                	jb     9b1 <mbh-0x2ff64f>
 94d:	5f                   	pop    %edi
 94e:	6c                   	insb   (%dx),%es:(%edi)
 94f:	65 6e                	outsb  %gs:(%esi),(%dx)
 951:	00 74 78 5f          	add    %dh,0x5f(%eax,%edi,2)
 955:	74 72                	je     9c9 <mbh-0x2ff637>
 957:	69 67 67 65 72 00 70 	imul   $0x70007265,0x67(%edi),%esp
 95e:	69 63 5f 69 63 77 31 	imul   $0x31776369,0x5f(%ebx),%esp
 965:	5f                   	pop    %edi
 966:	74 00                	je     968 <mbh-0x2ff698>
 968:	70 69                	jo     9d3 <mbh-0x2ff62d>
 96a:	63 5f 69             	arpl   %ebx,0x69(%edi)
 96d:	6e                   	outsb  %ds:(%esi),(%dx)
 96e:	69 74 5f 63 6f 6d 6d 	imul   $0x616d6d6f,0x63(%edi,%ebx,2),%esi
 975:	61 
 976:	6e                   	outsb  %ds:(%esi),(%dx)
 977:	64 5f                	fs pop %edi
 979:	77 6f                	ja     9ea <mbh-0x2ff616>
 97b:	72 64                	jb     9e1 <mbh-0x2ff61f>
 97d:	5f                   	pop    %edi
 97e:	31 00                	xor    %eax,(%eax)
 980:	70 69                	jo     9eb <mbh-0x2ff615>
 982:	63 5f 69             	arpl   %ebx,0x69(%edi)
 985:	6e                   	outsb  %ds:(%esi),(%dx)
 986:	69 74 5f 63 6f 6d 6d 	imul   $0x616d6d6f,0x63(%edi,%ebx,2),%esi
 98d:	61 
 98e:	6e                   	outsb  %ds:(%esi),(%dx)
 98f:	64 5f                	fs pop %edi
 991:	77 6f                	ja     a02 <mbh-0x2ff5fe>
 993:	72 64                	jb     9f9 <mbh-0x2ff607>
 995:	5f                   	pop    %edi
 996:	32 00                	xor    (%eax),%al
 998:	69 72 71 30 00 69 72 	imul   $0x72690030,0x71(%edx),%esi
 99f:	71 31                	jno    9d2 <mbh-0x2ff62e>
 9a1:	00 69 72             	add    %ch,0x72(%ecx)
 9a4:	71 32                	jno    9d8 <mbh-0x2ff628>
 9a6:	00 69 72             	add    %ch,0x72(%ecx)
 9a9:	71 33                	jno    9de <mbh-0x2ff622>
 9ab:	00 69 72             	add    %ch,0x72(%ecx)
 9ae:	71 34                	jno    9e4 <mbh-0x2ff61c>
 9b0:	00 69 72             	add    %ch,0x72(%ecx)
 9b3:	71 35                	jno    9ea <mbh-0x2ff616>
 9b5:	00 69 72             	add    %ch,0x72(%ecx)
 9b8:	71 36                	jno    9f0 <mbh-0x2ff610>
 9ba:	00 69 72             	add    %ch,0x72(%ecx)
 9bd:	71 37                	jno    9f6 <mbh-0x2ff60a>
 9bf:	00 61 65             	add    %ah,0x65(%ecx)
 9c2:	6f                   	outsl  %ds:(%esi),(%dx)
 9c3:	69 00 73 69 6e 67    	imul   $0x676e6973,(%eax),%eax
 9c9:	6c                   	insb   (%dx),%es:(%edi)
 9ca:	65 00 69 63          	add    %ch,%gs:0x63(%ecx)
 9ce:	77 32                	ja     a02 <mbh-0x2ff5fe>
 9d0:	00 69 63             	add    %ch,0x63(%ecx)
 9d3:	77 33                	ja     a08 <mbh-0x2ff5f8>
 9d5:	00 69 63             	add    %ch,0x63(%ecx)
 9d8:	77 34                	ja     a0e <mbh-0x2ff5f2>
 9da:	00 6d 61             	add    %ch,0x61(%ebp)
 9dd:	73 74                	jae    a53 <mbh-0x2ff5ad>
 9df:	65 72 00             	gs jb  9e2 <mbh-0x2ff61e>
 9e2:	69 72 71 5f 62 61 73 	imul   $0x7361625f,0x71(%edx),%esi
 9e9:	65 00 73 6c          	add    %dh,%gs:0x6c(%ebx)
 9ed:	61                   	popa
 9ee:	76 65                	jbe    a55 <mbh-0x2ff5ab>
 9f0:	00 70 69             	add    %dh,0x69(%eax)
 9f3:	63 5f 69             	arpl   %ebx,0x69(%edi)
 9f6:	6e                   	outsb  %ds:(%esi),(%dx)
 9f7:	69 74 5f 63 6f 6d 6d 	imul   $0x616d6d6f,0x63(%edi,%ebx,2),%esi
 9fe:	61 
 9ff:	6e                   	outsb  %ds:(%esi),(%dx)
 a00:	64 5f                	fs pop %edi
 a02:	77 6f                	ja     a73 <mbh-0x2ff58d>
 a04:	72 64                	jb     a6a <mbh-0x2ff596>
 a06:	5f                   	pop    %edi
 a07:	33 00                	xor    (%eax),%eax
 a09:	70 69                	jo     a74 <mbh-0x2ff58c>
 a0b:	63 5f 69             	arpl   %ebx,0x69(%edi)
 a0e:	6e                   	outsb  %ds:(%esi),(%dx)
 a0f:	69 74 5f 63 6f 6d 6d 	imul   $0x616d6d6f,0x63(%edi,%ebx,2),%esi
 a16:	61 
 a17:	6e                   	outsb  %ds:(%esi),(%dx)
 a18:	64 5f                	fs pop %edi
 a1a:	77 6f                	ja     a8b <mbh-0x2ff575>
 a1c:	72 64                	jb     a82 <mbh-0x2ff57e>
 a1e:	5f                   	pop    %edi
 a1f:	34 00                	xor    $0x0,%al
 a21:	6c                   	insb   (%dx),%es:(%edi)
 a22:	74 69                	je     a8d <mbh-0x2ff573>
 a24:	6d                   	insl   (%dx),%es:(%edi)
 a25:	00 70 69             	add    %dh,0x69(%eax)
 a28:	63 5f 69             	arpl   %ebx,0x69(%edi)
 a2b:	63 77 34             	arpl   %esi,0x34(%edi)
 a2e:	5f                   	pop    %edi
 a2f:	74 00                	je     a31 <mbh-0x2ff5cf>
 a31:	70 69                	jo     a9c <mbh-0x2ff564>
 a33:	63 5f 69             	arpl   %ebx,0x69(%edi)
 a36:	63 77 33             	arpl   %esi,0x33(%edi)
 a39:	5f                   	pop    %edi
 a3a:	74 00                	je     a3c <mbh-0x2ff5c4>
 a3c:	70 69                	jo     aa7 <mbh-0x2ff559>
 a3e:	63 5f 69             	arpl   %ebx,0x69(%edi)
 a41:	63 77 32             	arpl   %esi,0x32(%edi)
 a44:	5f                   	pop    %edi
 a45:	74 00                	je     a47 <mbh-0x2ff5b9>
 a47:	69 63 77 31 00 76 65 	imul   $0x65760031,0x77(%ebx),%esp
 a4e:	63 74 00 75          	arpl   %esi,0x75(%eax,%eax,1)
 a52:	6e                   	outsb  %ds:(%esi),(%dx)
 a53:	75 73                	jne    ac8 <mbh-0x2ff538>
 a55:	65 64 00 73 66       	gs add %dh,%fs:0x66(%ebx)
 a5a:	6e                   	outsb  %ds:(%esi),(%dx)
 a5b:	6d                   	insl   (%dx),%es:(%edi)
 a5c:	00 7a 65             	add    %bh,0x65(%edx)
 a5f:	72 6f                	jb     ad0 <mbh-0x2ff530>
 a61:	00 69 64             	add    %ch,0x64(%ecx)
 a64:	74 5f                	je     ac5 <mbh-0x2ff53b>
 a66:	72 65                	jb     acd <mbh-0x2ff533>
 a68:	67 5f                	addr16 pop %edi
 a6a:	74 00                	je     a6c <mbh-0x2ff594>
 a6c:	76 65                	jbe    ad3 <mbh-0x2ff52d>
 a6e:	63 74 6f 72          	arpl   %esi,0x72(%edi,%ebp,2)
 a72:	00 70 61             	add    %dh,0x61(%eax)
 a75:	67 65 5f             	addr16 gs pop %edi
 a78:	66 61                	popaw
 a7a:	75 6c                	jne    ae8 <mbh-0x2ff518>
 a7c:	74 5f                	je     add <mbh-0x2ff523>
 a7e:	65 72 72             	gs jb  af3 <mbh-0x2ff50d>
 a81:	6f                   	outsl  %ds:(%esi),(%dx)
 a82:	72 5f                	jb     ae3 <mbh-0x2ff51d>
 a84:	63 6f 64             	arpl   %ebp,0x64(%edi)
 a87:	65 00 65 66          	add    %ah,%gs:0x66(%ebp)
 a8b:	6c                   	insb   (%dx),%es:(%edi)
 a8c:	61                   	popa
 a8d:	67 73 5f             	addr16 jae aef <mbh-0x2ff511>
 a90:	72 65                	jb     af7 <mbh-0x2ff509>
 a92:	67 5f                	addr16 pop %edi
 a94:	74 00                	je     a96 <mbh-0x2ff56a>
 a96:	70 66                	jo     afe <mbh-0x2ff502>
 a98:	5f                   	pop    %edi
 a99:	65 72 72             	gs jb  b0e <mbh-0x2ff4f2>
 a9c:	5f                   	pop    %edi
 a9d:	74 00                	je     a9f <mbh-0x2ff561>
 a9f:	65 78 63             	gs js  b05 <mbh-0x2ff4fb>
 aa2:	70 5f                	jo     b03 <mbh-0x2ff4fd>
 aa4:	65 72 72             	gs jb  b19 <mbh-0x2ff4e7>
 aa7:	5f                   	pop    %edi
 aa8:	63 6f 64             	arpl   %ebp,0x64(%edi)
 aab:	65 5f                	gs pop %edi
 aad:	74 00                	je     aaf <mbh-0x2ff551>
 aaf:	67 65 6e             	outsb  %gs:(%si),(%dx)
 ab2:	65 72 61             	gs jb  b16 <mbh-0x2ff4ea>
 ab5:	6c                   	insb   (%dx),%es:(%edi)
 ab6:	5f                   	pop    %edi
 ab7:	70 75                	jo     b2e <mbh-0x2ff4d2>
 ab9:	72 70                	jb     b2b <mbh-0x2ff4d5>
 abb:	6f                   	outsl  %ds:(%esi),(%dx)
 abc:	73 65                	jae    b23 <mbh-0x2ff4dd>
 abe:	5f                   	pop    %edi
 abf:	72 65                	jb     b26 <mbh-0x2ff4da>
 ac1:	67 69 73 74 65 72 73 	imul   $0x5f737265,0x74(%bp,%di),%esi
 ac8:	5f 
 ac9:	63 6f 6e             	arpl   %ebp,0x6e(%edi)
 acc:	74 65                	je     b33 <mbh-0x2ff4cd>
 ace:	78 74                	js     b44 <mbh-0x2ff4bc>
 ad0:	00 69 6e             	add    %ch,0x6e(%ecx)
 ad3:	74 65                	je     b3a <mbh-0x2ff4c6>
 ad5:	72 72                	jb     b49 <mbh-0x2ff4b7>
 ad7:	75 70                	jne    b49 <mbh-0x2ff4b7>
 ad9:	74 5f                	je     b3a <mbh-0x2ff4c6>
 adb:	64 65 73 63          	fs gs jae b42 <mbh-0x2ff4be>
 adf:	72 69                	jb     b4a <mbh-0x2ff4b6>
 ae1:	70 74                	jo     b57 <mbh-0x2ff4a9>
 ae3:	6f                   	outsl  %ds:(%esi),(%dx)
 ae4:	72 00                	jb     ae6 <mbh-0x2ff51a>
 ae6:	65 78 63             	gs js  b4c <mbh-0x2ff4b4>
 ae9:	65 70 74             	gs jo  b60 <mbh-0x2ff4a0>
 aec:	69 6f 6e 33 32 5f 65 	imul   $0x655f3233,0x6e(%edi),%ebp
 af3:	72 72                	jb     b67 <mbh-0x2ff499>
 af5:	6f                   	outsl  %ds:(%esi),(%dx)
 af6:	72 5f                	jb     b57 <mbh-0x2ff4a9>
 af8:	63 6f 64             	arpl   %ebp,0x64(%edi)
 afb:	65 00 69 64          	add    %ch,%gs:0x64(%ecx)
 aff:	74 72                	je     b73 <mbh-0x2ff48d>
 b01:	00 6c 69 6d          	add    %ch,0x6d(%ecx,%ebp,2)
 b05:	69 74 00 69 6e 74 65 	imul   $0x7265746e,0x69(%eax,%eax,1),%esi
 b0c:	72 
 b0d:	72 75                	jb     b84 <mbh-0x2ff47c>
 b0f:	70 74                	jo     b85 <mbh-0x2ff47b>
 b11:	5f                   	pop    %edi
 b12:	64 65 73 63          	fs gs jae b79 <mbh-0x2ff487>
 b16:	72 69                	jb     b81 <mbh-0x2ff47f>
 b18:	70 74                	jo     b8e <mbh-0x2ff472>
 b1a:	6f                   	outsl  %ds:(%esi),(%dx)
 b1b:	72 5f                	jb     b7c <mbh-0x2ff484>
 b1d:	74 61                	je     b80 <mbh-0x2ff480>
 b1f:	62 6c 65 5f          	bound  %ebp,0x5f(%ebp,%eiz,2)
 b23:	72 65                	jb     b8a <mbh-0x2ff476>
 b25:	67 69 73 74 65 72 00 	imul   $0x69007265,0x74(%bp,%di),%esi
 b2c:	69 
 b2d:	6e                   	outsb  %ds:(%esi),(%dx)
 b2e:	74 5f                	je     b8f <mbh-0x2ff471>
 b30:	63 74 78 5f          	arpl   %esi,0x5f(%eax,%edi,2)
 b34:	74 00                	je     b36 <mbh-0x2ff4ca>
 b36:	63 70 75             	arpl   %esi,0x75(%eax)
 b39:	5f                   	pop    %edi
 b3a:	63 74 78 5f          	arpl   %esi,0x5f(%eax,%edi,2)
 b3e:	74 00                	je     b40 <mbh-0x2ff4c0>
 b40:	64 65 73 63          	fs gs jae ba7 <mbh-0x2ff459>
 b44:	00 65 66             	add    %ah,0x66(%ebp)
 b47:	6c                   	insb   (%dx),%es:(%edi)
 b48:	61                   	popa
 b49:	67 73 00             	addr16 jae b4c <mbh-0x2ff4b4>
 b4c:	69 64 74 5f 74 72 61 	imul   $0x6d617274,0x5f(%esp,%esi,2),%esp
 b53:	6d 
 b54:	70 6f                	jo     bc5 <mbh-0x2ff43b>
 b56:	6c                   	insb   (%dx),%es:(%edi)
 b57:	69 6e 65 00 67 70 72 	imul   $0x72706700,0x65(%esi),%ebp
 b5e:	5f                   	pop    %edi
 b5f:	63 74 78 5f          	arpl   %esi,0x5f(%eax,%edi,2)
 b63:	74 00                	je     b65 <mbh-0x2ff49b>
 b65:	73 65                	jae    bcc <mbh-0x2ff434>
 b67:	6c                   	insb   (%dx),%es:(%edi)
 b68:	65 63 74 6f 72       	arpl   %esi,%gs:0x72(%edi,%ebp,2)
 b6d:	5f                   	pop    %edi
 b6e:	65 72 72             	gs jb  be3 <mbh-0x2ff41d>
 b71:	6f                   	outsl  %ds:(%esi),(%dx)
 b72:	72 5f                	jb     bd3 <mbh-0x2ff42d>
 b74:	63 6f 64             	arpl   %ebp,0x64(%edi)
 b77:	65 00 65 66          	add    %ah,%gs:0x66(%ebp)
 b7b:	6c                   	insb   (%dx),%es:(%edi)
 b7c:	61                   	popa
 b7d:	67 73 5f             	addr16 jae bdf <mbh-0x2ff421>
 b80:	72 65                	jb     be7 <mbh-0x2ff419>
 b82:	67 5f                	addr16 pop %edi
 b84:	66 69 65 6c 64 73    	imul   $0x7364,0x6c(%ebp),%sp
 b8a:	5f                   	pop    %edi
 b8b:	74 00                	je     b8d <mbh-0x2ff473>
 b8d:	73 6c                	jae    bfb <mbh-0x2ff405>
 b8f:	5f                   	pop    %edi
 b90:	65 72 72             	gs jb  c05 <mbh-0x2ff3fb>
 b93:	5f                   	pop    %edi
 b94:	74 00                	je     b96 <mbh-0x2ff46a>
 b96:	6f                   	outsl  %ds:(%esi),(%dx)
 b97:	66 66 73 65          	data16 data16 jae c00 <mbh-0x2ff400>
 b9b:	74 5f                	je     bfc <mbh-0x2ff404>
 b9d:	31 00                	xor    %eax,(%eax)
 b9f:	6f                   	outsl  %ds:(%esi),(%dx)
 ba0:	66 66 73 65          	data16 data16 jae c09 <mbh-0x2ff3f7>
 ba4:	74 5f                	je     c05 <mbh-0x2ff3fb>
 ba6:	32 00                	xor    (%eax),%al
 ba8:	69 6e 74 5f 64 65 73 	imul   $0x7365645f,0x74(%esi),%ebp
 baf:	63 5f 74             	arpl   %ebx,0x74(%edi)
 bb2:	00 69 6e             	add    %ch,0x6e(%ecx)
 bb5:	74 65                	je     c1c <mbh-0x2ff3e4>
 bb7:	72 72                	jb     c2b <mbh-0x2ff3d5>
 bb9:	75 70                	jne    c2b <mbh-0x2ff3d5>
 bbb:	74 5f                	je     c1c <mbh-0x2ff3e4>
 bbd:	63 6f 6e             	arpl   %ebp,0x6e(%edi)
 bc0:	74 65                	je     c27 <mbh-0x2ff3d9>
 bc2:	78 74                	js     c38 <mbh-0x2ff3c8>
 bc4:	00 63 70             	add    %ah,0x70(%ebx)
 bc7:	75 5f                	jne    c28 <mbh-0x2ff3d8>
 bc9:	65 66 6c             	gs data16 insb (%dx),%es:(%edi)
 bcc:	61                   	popa
 bcd:	67 73 5f             	addr16 jae c2f <mbh-0x2ff3d1>
 bd0:	72 65                	jb     c37 <mbh-0x2ff3c9>
 bd2:	67 69 73 74 65 72 00 	imul   $0x63007265,0x74(%bp,%di),%esi
 bd9:	63 
 bda:	70 75                	jo     c51 <mbh-0x2ff3af>
 bdc:	5f                   	pop    %edi
 bdd:	65 66 6c             	gs data16 insb (%dx),%es:(%edi)
 be0:	61                   	popa
 be1:	67 73 5f             	addr16 jae c43 <mbh-0x2ff3bd>
 be4:	72 65                	jb     c4b <mbh-0x2ff3b5>
 be6:	67 69 73 74 65 72 5f 	imul   $0x665f7265,0x74(%bp,%di),%esi
 bed:	66 
 bee:	69 65 6c 64 73 00 69 	imul   $0x69007364,0x6c(%ebp),%esp
 bf5:	6e                   	outsb  %ds:(%esi),(%dx)
 bf6:	74 72                	je     c6a <mbh-0x2ff396>
 bf8:	5f                   	pop    %edi
 bf9:	68 64 6c 72 00       	push   $0x726c64
 bfe:	63 70 75             	arpl   %esi,0x75(%eax)
 c01:	5f                   	pop    %edi
 c02:	63 6f 6e             	arpl   %ebp,0x6e(%edi)
 c05:	74 65                	je     c6c <mbh-0x2ff394>
 c07:	78 74                	js     c7d <mbh-0x2ff383>
 c09:	00 69 6f             	add    %ch,0x6f(%ecx)
 c0c:	70 6c                	jo     c7a <mbh-0x2ff386>
 c0e:	00 65 78             	add    %ah,0x78(%ebp)
 c11:	63 70 5f             	arpl   %esi,0x5f(%eax)
 c14:	68 64 6c 72 00       	push   $0x726c64
 c19:	73 65                	jae    c80 <mbh-0x2ff380>
 c1b:	6c                   	insb   (%dx),%es:(%edi)
 c1c:	65 63 74 6f 72       	arpl   %esi,%gs:0x72(%edi,%ebp,2)
 c21:	00 7a 65             	add    %bh,0x65(%edx)
 c24:	72 6f                	jb     c95 <mbh-0x2ff36b>
 c26:	5f                   	pop    %edi
 c27:	31 00                	xor    %eax,(%eax)
 c29:	7a 65                	jp     c90 <mbh-0x2ff370>
 c2b:	72 6f                	jb     c9c <mbh-0x2ff364>
 c2d:	5f                   	pop    %edi
 c2e:	32 00                	xor    (%eax),%al
 c30:	2e 2e 2f             	cs cs das
 c33:	6b 65 72 6e          	imul   $0x6e,0x72(%ebp),%esp
 c37:	65 6c                	gs insb (%dx),%es:(%edi)
 c39:	2f                   	das
 c3a:	63 6f 72             	arpl   %ebp,0x72(%edi)
 c3d:	65 2f                	gs das
 c3f:	69 64 74 2e 73 00 65 	imul   $0x78650073,0x2e(%esp,%esi,2),%esp
 c46:	78 
 c47:	63 65 70             	arpl   %esp,0x70(%ebp)
 c4a:	74 69                	je     cb5 <mbh-0x2ff34b>
 c4c:	6f                   	outsl  %ds:(%esi),(%dx)
 c4d:	6e                   	outsb  %ds:(%esi),(%dx)
 c4e:	5f                   	pop    %edi
 c4f:	6e                   	outsb  %ds:(%esi),(%dx)
 c50:	61                   	popa
 c51:	6d                   	insl   (%dx),%es:(%edi)
 c52:	65 73 00             	gs jae c55 <mbh-0x2ff3ab>
 c55:	73 74                	jae    ccb <mbh-0x2ff335>
 c57:	61                   	popa
 c58:	63 6b 5f             	arpl   %ebp,0x5f(%ebx)
 c5b:	74 72                	je     ccf <mbh-0x2ff331>
 c5d:	61                   	popa
 c5e:	63 65 00             	arpl   %esp,0x0(%ebp)
 c61:	5f                   	pop    %edi
 c62:	5f                   	pop    %edi
 c63:	6b 65 72 6e          	imul   $0x6e,0x72(%ebp),%esp
 c67:	65 6c                	gs insb (%dx),%es:(%edi)
 c69:	5f                   	pop    %edi
 c6a:	73 74                	jae    ce0 <mbh-0x2ff320>
 c6c:	61                   	popa
 c6d:	72 74                	jb     ce3 <mbh-0x2ff31d>
 c6f:	5f                   	pop    %edi
 c70:	5f                   	pop    %edi
 c71:	00 66 72             	add    %ah,0x72(%esi)
 c74:	6f                   	outsl  %ds:(%esi),(%dx)
 c75:	6d                   	insl   (%dx),%es:(%edi)
 c76:	00 70 67             	add    %dh,0x67(%eax)
 c79:	64 5f                	fs pop %edi
 c7b:	74 61                	je     cde <mbh-0x2ff322>
 c7d:	73 6b                	jae    cea <mbh-0x2ff316>
 c7f:	5f                   	pop    %edi
 c80:	31 5f 70             	xor    %ebx,0x70(%edi)
 c83:	74 62                	je     ce7 <mbh-0x2ff319>
 c85:	5f                   	pop    %edi
 c86:	30 00                	xor    %al,(%eax)
 c88:	70 67                	jo     cf1 <mbh-0x2ff30f>
 c8a:	64 5f                	fs pop %edi
 c8c:	74 61                	je     cef <mbh-0x2ff311>
 c8e:	73 6b                	jae    cfb <mbh-0x2ff305>
 c90:	5f                   	pop    %edi
 c91:	31 5f 70             	xor    %ebx,0x70(%edi)
 c94:	74 62                	je     cf8 <mbh-0x2ff308>
 c96:	5f                   	pop    %edi
 c97:	32 00                	xor    (%eax),%al
 c99:	75 6c                	jne    d07 <mbh-0x2ff2f9>
 c9b:	6f                   	outsl  %ds:(%esi),(%dx)
 c9c:	6e                   	outsb  %ds:(%esi),(%dx)
 c9d:	67 5f                	addr16 pop %edi
 c9f:	74 00                	je     ca1 <mbh-0x2ff35f>
 ca1:	70 67                	jo     d0a <mbh-0x2ff2f6>
 ca3:	64 5f                	fs pop %edi
 ca5:	74 61                	je     d08 <mbh-0x2ff2f8>
 ca7:	73 6b                	jae    d14 <mbh-0x2ff2ec>
 ca9:	5f                   	pop    %edi
 caa:	31 00                	xor    %eax,(%eax)
 cac:	70 67                	jo     d15 <mbh-0x2ff2eb>
 cae:	64 5f                	fs pop %edi
 cb0:	74 61                	je     d13 <mbh-0x2ff2ed>
 cb2:	73 6b                	jae    d1f <mbh-0x2ff2e1>
 cb4:	5f                   	pop    %edi
 cb5:	32 00                	xor    (%eax),%al
 cb7:	6c                   	insb   (%dx),%es:(%edi)
 cb8:	69 6d 69 74 5f 32 00 	imul   $0x325f74,0x69(%ebp),%ebp
 cbf:	73 61                	jae    d22 <mbh-0x2ff2de>
 cc1:	76 65                	jbe    d28 <mbh-0x2ff2d8>
 cc3:	00 74 61 73          	add    %dh,0x73(%ecx,%eiz,2)
 cc7:	6b 31 5f             	imul   $0x5f,(%ecx),%esi
 cca:	66 75 6e             	data16 jne d3b <mbh-0x2ff2c5>
 ccd:	63 74 69 6f          	arpl   %esi,0x6f(%ecx,%ebp,2)
 cd1:	6e                   	outsb  %ds:(%esi),(%dx)
 cd2:	00 73 65             	add    %dh,0x65(%ebx)
 cd5:	67 5f                	addr16 pop %edi
 cd7:	64 65 73 63          	fs gs jae d3e <mbh-0x2ff2c2>
 cdb:	5f                   	pop    %edi
 cdc:	74 00                	je     cde <mbh-0x2ff322>
 cde:	74 61                	je     d41 <mbh-0x2ff2bf>
 ce0:	73 6b                	jae    d4d <mbh-0x2ff2b3>
 ce2:	32 5f 73             	xor    0x73(%edi),%bl
 ce5:	74 61                	je     d48 <mbh-0x2ff2b8>
 ce7:	63 6b 00             	arpl   %ebp,0x0(%ebx)
 cea:	62 6f 75             	bound  %ebp,0x75(%edi)
 ced:	6e                   	outsb  %ds:(%esi),(%dx)
 cee:	64 61                	fs popa
 cf0:	72 79                	jb     d6b <mbh-0x2ff295>
 cf2:	00 67 6c             	add    %ah,0x6c(%edi)
 cf5:	6f                   	outsl  %ds:(%esi),(%dx)
 cf6:	62 61 6c             	bound  %esp,0x6c(%ecx)
 cf9:	5f                   	pop    %edi
 cfa:	64 65 73 63          	fs gs jae d61 <mbh-0x2ff29f>
 cfe:	72 69                	jb     d69 <mbh-0x2ff297>
 d00:	70 74                	jo     d76 <mbh-0x2ff28a>
 d02:	6f                   	outsl  %ds:(%esi),(%dx)
 d03:	72 5f                	jb     d64 <mbh-0x2ff29c>
 d05:	74 61                	je     d68 <mbh-0x2ff298>
 d07:	62 6c 65 5f          	bound  %ebp,0x5f(%ebp,%eiz,2)
 d0b:	72 65                	jb     d72 <mbh-0x2ff28e>
 d0d:	67 69 73 74 65 72 00 	imul   $0x74007265,0x74(%bp,%di),%esi
 d14:	74 
 d15:	61                   	popa
 d16:	73 6b                	jae    d83 <mbh-0x2ff27d>
 d18:	5f                   	pop    %edi
 d19:	73 74                	jae    d8f <mbh-0x2ff271>
 d1b:	61                   	popa
 d1c:	74 65                	je     d83 <mbh-0x2ff27d>
 d1e:	5f                   	pop    %edi
 d1f:	73 65                	jae    d86 <mbh-0x2ff27a>
 d21:	67 6d                	insl   (%dx),%es:(%di)
 d23:	65 6e                	outsb  %gs:(%esi),(%dx)
 d25:	74 00                	je     d27 <mbh-0x2ff2d9>
 d27:	74 61                	je     d8a <mbh-0x2ff276>
 d29:	73 6b                	jae    d96 <mbh-0x2ff26a>
 d2b:	73 00                	jae    d2d <mbh-0x2ff2d3>
 d2d:	74 73                	je     da2 <mbh-0x2ff25e>
 d2f:	73 5f                	jae    d90 <mbh-0x2ff270>
 d31:	6d                   	insl   (%dx),%es:(%edi)
 d32:	61                   	popa
 d33:	70 73                	jo     da8 <mbh-0x2ff258>
 d35:	5f                   	pop    %edi
 d36:	74 00                	je     d38 <mbh-0x2ff2c8>
 d38:	67 70 72             	addr16 jo dad <mbh-0x2ff253>
 d3b:	5f                   	pop    %edi
 d3c:	74 00                	je     d3e <mbh-0x2ff2c2>
 d3e:	74 61                	je     da1 <mbh-0x2ff25f>
 d40:	73 6b                	jae    dad <mbh-0x2ff253>
 d42:	32 5f 73             	xor    0x73(%edi),%bl
 d45:	74 61                	je     da8 <mbh-0x2ff258>
 d47:	63 6b 5f             	arpl   %ebp,0x5f(%ebx)
 d4a:	62 61 73             	bound  %esp,0x73(%ecx)
 d4d:	65 00 67 64          	add    %ah,%gs:0x64(%edi)
 d51:	74 72                	je     dc5 <mbh-0x2ff23b>
 d53:	00 63 6c             	add    %ah,0x6c(%ebx)
 d56:	6f                   	outsl  %ds:(%esi),(%dx)
 d57:	63 6b 5f             	arpl   %ebp,0x5f(%ebx)
 d5a:	69 6e 74 65 72 72 75 	imul   $0x75727265,0x74(%esi),%ebp
 d61:	70 74                	jo     dd7 <mbh-0x2ff229>
 d63:	5f                   	pop    %edi
 d64:	69 73 72 00 70 67 64 	imul   $0x64677000,0x72(%ebx),%esi
 d6b:	5f                   	pop    %edi
 d6c:	74 61                	je     dcf <mbh-0x2ff231>
 d6e:	73 6b                	jae    ddb <mbh-0x2ff225>
 d70:	5f                   	pop    %edi
 d71:	31 5f 70             	xor    %ebx,0x70(%edi)
 d74:	74 62                	je     dd8 <mbh-0x2ff228>
 d76:	5f                   	pop    %edi
 d77:	31 00                	xor    %eax,(%eax)
 d79:	66 75 6e             	data16 jne dea <mbh-0x2ff216>
 d7c:	63 00                	arpl   %eax,(%eax)
 d7e:	72 69                	jb     de9 <mbh-0x2ff217>
 d80:	6e                   	outsb  %ds:(%esi),(%dx)
 d81:	67 5f                	addr16 pop %edi
 d83:	30 5f 74             	xor    %bl,0x74(%edi)
 d86:	6f                   	outsl  %ds:(%esi),(%dx)
 d87:	5f                   	pop    %edi
 d88:	72 69                	jb     df3 <mbh-0x2ff20d>
 d8a:	6e                   	outsb  %ds:(%esi),(%dx)
 d8b:	67 5f                	addr16 pop %edi
 d8d:	33 5f 74             	xor    0x74(%edi),%ebx
 d90:	61                   	popa
 d91:	73 6b                	jae    dfe <mbh-0x2ff202>
 d93:	00 70 61             	add    %dh,0x61(%eax)
 d96:	67 65 5f             	addr16 gs pop %edi
 d99:	74 61                	je     dfc <mbh-0x2ff204>
 d9b:	62 6c 65 5f          	bound  %ebp,0x5f(%ebp,%eiz,2)
 d9f:	65 6e                	outsb  %gs:(%esi),(%dx)
 da1:	74 72                	je     e15 <mbh-0x2ff1eb>
 da3:	79 00                	jns    da5 <mbh-0x2ff25b>
 da5:	6e                   	outsb  %ds:(%esi),(%dx)
 da6:	65 78 74             	gs js  e1d <mbh-0x2ff1e3>
 da9:	5f                   	pop    %edi
 daa:	74 61                	je     e0d <mbh-0x2ff1f3>
 dac:	73 6b                	jae    e19 <mbh-0x2ff1e7>
 dae:	00 70 67             	add    %dh,0x67(%eax)
 db1:	64 5f                	fs pop %edi
 db3:	70 74                	jo     e29 <mbh-0x2ff1d7>
 db5:	62 00                	bound  %eax,(%eax)
 db7:	63 6f 6e             	arpl   %ebp,0x6e(%edi)
 dba:	66 69 67 5f 74 61    	imul   $0x6174,0x5f(%edi),%sp
 dc0:	73 6b                	jae    e2d <mbh-0x2ff1d3>
 dc2:	00 64 6c 6f          	add    %ah,0x6f(%esp,%ebp,2)
 dc6:	63 00                	arpl   %eax,(%eax)
 dc8:	6c                   	insb   (%dx),%es:(%edi)
 dc9:	69 6d 69 74 5f 31 00 	imul   $0x315f74,0x69(%ebp),%ebp
 dd0:	69 6e 74 72 00 62 61 	imul   $0x61620072,0x74(%esi),%ebp
 dd7:	63 6b 5f             	arpl   %ebp,0x5f(%ebx)
 dda:	6c                   	insb   (%dx),%es:(%edi)
 ddb:	69 6e 6b 00 70 61 67 	imul   $0x67617000,0x6b(%esi),%ebp
 de2:	65 00 63 75          	add    %ah,%gs:0x75(%ebx)
 de6:	72 72                	jb     e5a <mbh-0x2ff1a6>
 de8:	65 6e                	outsb  %gs:(%esi),(%dx)
 dea:	74 5f                	je     e4b <mbh-0x2ff1b5>
 dec:	74 61                	je     e4f <mbh-0x2ff1b1>
 dee:	73 6b                	jae    e5b <mbh-0x2ff1a5>
 df0:	5f                   	pop    %edi
 df1:	69 64 78 00 6d 65 6d 	imul   $0x736d656d,0x0(%eax,%edi,2),%esp
 df8:	73 
 df9:	65 74 00             	gs je  dfc <mbh-0x2ff204>
 dfc:	63 6f 6e             	arpl   %ebp,0x6e(%edi)
 dff:	66 69 67 5f 70 67    	imul   $0x6770,0x5f(%edi),%sp
 e05:	64 73 00             	fs jae e08 <mbh-0x2ff1f8>
 e08:	74 61                	je     e6b <mbh-0x2ff195>
 e0a:	73 6b                	jae    e77 <mbh-0x2ff189>
 e0c:	32 5f 66             	xor    0x66(%edi),%bl
 e0f:	75 6e                	jne    e7f <mbh-0x2ff181>
 e11:	63 74 69 6f          	arpl   %esi,0x6f(%ecx,%ebp,2)
 e15:	6e                   	outsb  %ds:(%esi),(%dx)
 e16:	00 70 74             	add    %dh,0x74(%eax)
 e19:	65 33 32             	xor    %gs:(%edx),%esi
 e1c:	5f                   	pop    %edi
 e1d:	74 00                	je     e1f <mbh-0x2ff1e1>
 e1f:	70 67                	jo     e88 <mbh-0x2ff178>
 e21:	64 5f                	fs pop %edi
 e23:	74 61                	je     e86 <mbh-0x2ff17a>
 e25:	73 6b                	jae    e92 <mbh-0x2ff16e>
 e27:	5f                   	pop    %edi
 e28:	32 5f 70             	xor    0x70(%edi),%bl
 e2b:	74 62                	je     e8f <mbh-0x2ff171>
 e2d:	5f                   	pop    %edi
 e2e:	30 00                	xor    %al,(%eax)
 e30:	70 67                	jo     e99 <mbh-0x2ff167>
 e32:	64 5f                	fs pop %edi
 e34:	74 61                	je     e97 <mbh-0x2ff169>
 e36:	73 6b                	jae    ea3 <mbh-0x2ff15d>
 e38:	5f                   	pop    %edi
 e39:	32 5f 70             	xor    0x70(%edi),%bl
 e3c:	74 62                	je     ea0 <mbh-0x2ff160>
 e3e:	5f                   	pop    %edi
 e3f:	31 00                	xor    %eax,(%eax)
 e41:	70 67                	jo     eaa <mbh-0x2ff156>
 e43:	64 5f                	fs pop %edi
 e45:	74 61                	je     ea8 <mbh-0x2ff158>
 e47:	73 6b                	jae    eb4 <mbh-0x2ff14c>
 e49:	5f                   	pop    %edi
 e4a:	32 5f 70             	xor    0x70(%edi),%bl
 e4d:	74 62                	je     eb1 <mbh-0x2ff14f>
 e4f:	5f                   	pop    %edi
 e50:	32 00                	xor    (%eax),%al
 e52:	73 65                	jae    eb9 <mbh-0x2ff147>
 e54:	67 6d                	insl   (%dx),%es:(%di)
 e56:	65 6e                	outsb  %gs:(%esi),(%dx)
 e58:	74 5f                	je     eb9 <mbh-0x2ff147>
 e5a:	64 65 73 63          	fs gs jae ec1 <mbh-0x2ff13f>
 e5e:	72 69                	jb     ec9 <mbh-0x2ff137>
 e60:	70 74                	jo     ed6 <mbh-0x2ff12a>
 e62:	6f                   	outsl  %ds:(%esi),(%dx)
 e63:	72 00                	jb     e65 <mbh-0x2ff19b>
 e65:	74 61                	je     ec8 <mbh-0x2ff138>
 e67:	73 6b                	jae    ed4 <mbh-0x2ff12c>
 e69:	5f                   	pop    %edi
 e6a:	73 74                	jae    ee0 <mbh-0x2ff120>
 e6c:	61                   	popa
 e6d:	74 65                	je     ed4 <mbh-0x2ff12c>
 e6f:	5f                   	pop    %edi
 e70:	73 65                	jae    ed7 <mbh-0x2ff129>
 e72:	67 6d                	insl   (%dx),%es:(%di)
 e74:	65 6e                	outsb  %gs:(%esi),(%dx)
 e76:	74 5f                	je     ed7 <mbh-0x2ff129>
 e78:	73 74                	jae    eee <mbh-0x2ff112>
 e7a:	61                   	popa
 e7b:	63 6b 00             	arpl   %ebp,0x0(%ebx)
 e7e:	63 6f 6e             	arpl   %ebp,0x6e(%edi)
 e81:	66 69 67 5f 63 6c    	imul   $0x6c63,0x5f(%edi),%sp
 e87:	6f                   	outsl  %ds:(%esi),(%dx)
 e88:	63 6b 5f             	arpl   %ebp,0x5f(%ebx)
 e8b:	69 6e 74 65 72 72 75 	imul   $0x75727265,0x74(%esi),%ebp
 e92:	70 74                	jo     f08 <mbh-0x2ff0f8>
 e94:	00 62 61             	add    %ah,0x61(%edx)
 e97:	73 65                	jae    efe <mbh-0x2ff102>
 e99:	5f                   	pop    %edi
 e9a:	31 00                	xor    %eax,(%eax)
 e9c:	62 61 73             	bound  %esp,0x73(%ecx)
 e9f:	65 5f                	gs pop %edi
 ea1:	32 00                	xor    (%eax),%al
 ea3:	62 61 73             	bound  %esp,0x73(%ecx)
 ea6:	65 5f                	gs pop %edi
 ea8:	33 00                	xor    (%eax),%eax
 eaa:	70 64                	jo     f10 <mbh-0x2ff0f0>
 eac:	65 33 32             	xor    %gs:(%edx),%esi
 eaf:	5f                   	pop    %edi
 eb0:	74 00                	je     eb2 <mbh-0x2ff14e>
 eb2:	74 73                	je     f27 <mbh-0x2ff0d9>
 eb4:	73 5f                	jae    f15 <mbh-0x2ff0eb>
 eb6:	74 72                	je     f2a <mbh-0x2ff0d6>
 eb8:	61                   	popa
 eb9:	70 5f                	jo     f1a <mbh-0x2ff0e6>
 ebb:	74 00                	je     ebd <mbh-0x2ff143>
 ebd:	65 6e                	outsb  %gs:(%esi),(%dx)
 ebf:	74 72                	je     f33 <mbh-0x2ff0cd>
 ec1:	79 70                	jns    f33 <mbh-0x2ff0cd>
 ec3:	6f                   	outsl  %ds:(%esi),(%dx)
 ec4:	69 6e 74 00 74 73 73 	imul   $0x73737400,0x74(%esi),%ebp
 ecb:	5f                   	pop    %edi
 ecc:	74 00                	je     ece <mbh-0x2ff132>
 ece:	74 61                	je     f31 <mbh-0x2ff0cf>
 ed0:	73 6b                	jae    f3d <mbh-0x2ff0c3>
 ed2:	5f                   	pop    %edi
 ed3:	73 74                	jae    f49 <mbh-0x2ff0b7>
 ed5:	61                   	popa
 ed6:	74 65                	je     f3d <mbh-0x2ff0c3>
 ed8:	5f                   	pop    %edi
 ed9:	73 65                	jae    f40 <mbh-0x2ff0c0>
 edb:	67 6d                	insl   (%dx),%es:(%di)
 edd:	65 6e                	outsb  %gs:(%esi),(%dx)
 edf:	74 5f                	je     f40 <mbh-0x2ff0c0>
 ee1:	74 72                	je     f55 <mbh-0x2ff0ab>
 ee3:	61                   	popa
 ee4:	70 00                	jo     ee6 <mbh-0x2ff11a>
 ee6:	63 6f 6e             	arpl   %ebp,0x6e(%edi)
 ee9:	74 65                	je     f50 <mbh-0x2ff0b0>
 eeb:	78 74                	js     f61 <mbh-0x2ff09f>
 eed:	5f                   	pop    %edi
 eee:	73 61                	jae    f51 <mbh-0x2ff0af>
 ef0:	76 65                	jbe    f57 <mbh-0x2ff0a9>
 ef2:	64 00 63 6f          	add    %ah,%fs:0x6f(%ebx)
 ef6:	6e                   	outsb  %ds:(%esi),(%dx)
 ef7:	66 69 67 5f 73 65    	imul   $0x6573,0x5f(%edi),%sp
 efd:	67 6d                	insl   (%dx),%es:(%di)
 eff:	65 6e                	outsb  %gs:(%esi),(%dx)
 f01:	74 61                	je     f64 <mbh-0x2ff09c>
 f03:	74 69                	je     f6e <mbh-0x2ff092>
 f05:	6f                   	outsl  %ds:(%esi),(%dx)
 f06:	6e                   	outsb  %ds:(%esi),(%dx)
 f07:	00 67 64             	add    %ah,0x64(%edi)
 f0a:	74 5f                	je     f6b <mbh-0x2ff095>
 f0c:	72 65                	jb     f73 <mbh-0x2ff08d>
 f0e:	67 5f                	addr16 pop %edi
 f10:	74 00                	je     f12 <mbh-0x2ff0ee>
 f12:	74 61                	je     f75 <mbh-0x2ff08b>
 f14:	73 6b                	jae    f81 <mbh-0x2ff07f>
 f16:	31 5f 73             	xor    %ebx,0x73(%edi)
 f19:	74 61                	je     f7c <mbh-0x2ff084>
 f1b:	63 6b 5f             	arpl   %ebp,0x5f(%ebx)
 f1e:	62 61 73             	bound  %esp,0x73(%ecx)
 f21:	65 00 74 73 73       	add    %dh,%gs:0x73(%ebx,%esi,2)
 f26:	5f                   	pop    %edi
 f27:	73 74                	jae    f9d <mbh-0x2ff063>
 f29:	61                   	popa
 f2a:	63 6b 5f             	arpl   %ebp,0x5f(%ebx)
 f2d:	74 00                	je     f2f <mbh-0x2ff0d1>
 f2f:	74 61                	je     f92 <mbh-0x2ff06e>
 f31:	73 6b                	jae    f9e <mbh-0x2ff062>
 f33:	5f                   	pop    %edi
 f34:	73 74                	jae    faa <mbh-0x2ff056>
 f36:	61                   	popa
 f37:	74 65                	je     f9e <mbh-0x2ff062>
 f39:	5f                   	pop    %edi
 f3a:	73 65                	jae    fa1 <mbh-0x2ff05f>
 f3c:	67 6d                	insl   (%dx),%es:(%di)
 f3e:	65 6e                	outsb  %gs:(%esi),(%dx)
 f40:	74 5f                	je     fa1 <mbh-0x2ff05f>
 f42:	6d                   	insl   (%dx),%es:(%edi)
 f43:	61                   	popa
 f44:	70 73                	jo     fb9 <mbh-0x2ff047>
 f46:	00 70 61             	add    %dh,0x61(%eax)
 f49:	67 65 5f             	addr16 gs pop %edi
 f4c:	64 69 72 65 63 74 6f 	imul   $0x726f7463,%fs:0x65(%edx),%esi
 f53:	72 
 f54:	79 5f                	jns    fb5 <mbh-0x2ff04b>
 f56:	65 6e                	outsb  %gs:(%esi),(%dx)
 f58:	74 72                	je     fcc <mbh-0x2ff034>
 f5a:	79 00                	jns    f5c <mbh-0x2ff0a4>
 f5c:	67 65 6e             	outsb  %gs:(%si),(%dx)
 f5f:	65 72 61             	gs jb  fc3 <mbh-0x2ff03d>
 f62:	6c                   	insb   (%dx),%es:(%edi)
 f63:	5f                   	pop    %edi
 f64:	70 75                	jo     fdb <mbh-0x2ff025>
 f66:	72 70                	jb     fd8 <mbh-0x2ff028>
 f68:	6f                   	outsl  %ds:(%esi),(%dx)
 f69:	73 65                	jae    fd0 <mbh-0x2ff030>
 f6b:	5f                   	pop    %edi
 f6c:	72 65                	jb     fd3 <mbh-0x2ff02d>
 f6e:	67 69 73 74 65 72 73 	imul   $0x737265,0x74(%bp,%di),%esi
 f75:	00 
 f76:	63 6c 6f 63          	arpl   %ebp,0x63(%edi,%ebp,2)
 f7a:	6b 5f 69 6e          	imul   $0x6e,0x69(%edi),%ebx
 f7e:	74 65                	je     fe5 <mbh-0x2ff01b>
 f80:	72 72                	jb     ff4 <mbh-0x2ff00c>
 f82:	75 70                	jne    ff4 <mbh-0x2ff00c>
 f84:	74 5f                	je     fe5 <mbh-0x2ff01b>
 f86:	68 61 6e 64 6c       	push   $0x6c646e61
 f8b:	65 72 00             	gs jb  f8e <mbh-0x2ff072>
 f8e:	74 61                	je     ff1 <mbh-0x2ff00f>
 f90:	73 6b                	jae    ffd <mbh-0x2ff003>
 f92:	31 5f 73             	xor    %ebx,0x73(%edi)
 f95:	74 61                	je     ff8 <mbh-0x2ff008>
 f97:	63 6b 00             	arpl   %ebp,0x0(%ebx)

Déassemblage de la section .debug_rnglists :

00000000 <.debug_rnglists>:
   0:	13 00                	adc    (%eax),%eax
   2:	00 00                	add    %al,(%eax)
   4:	05 00 04 00 00       	add    $0x400,%eax
   9:	00 00                	add    %al,(%eax)
   b:	00 04 a3             	add    %al,(%ebx,%eiz,4)
   e:	0c af                	or     $0xaf,%al
  10:	0d 04 b4 0d ce       	or     $0xce0db404,%eax
  15:	0d 00 16 00 00       	or     $0x1600,%eax
  1a:	00 05 00 04 00 00    	add    %al,0x400
  20:	00 00                	add    %al,(%eax)
  22:	00 07                	add    %al,(%edi)
  24:	79 3d                	jns    63 <mbh-0x2fff9d>
  26:	30 00                	xor    %al,(%eax)
  28:	1a 07                	sbb    (%edi),%al
  2a:	10 20                	adc    %ah,(%eax)
  2c:	30 00                	xor    %al,(%eax)
  2e:	fc                   	cld
  2f:	1f                   	pop    %ds
  30:	00 1c 00             	add    %bl,(%eax,%eax,1)
  33:	00 00                	add    %al,(%eax)
  35:	05 00 04 00 00       	add    $0x400,%eax
  3a:	00 00                	add    %al,(%eax)
  3c:	00 07                	add    %al,(%edi)
  3e:	7f 3f                	jg     7f <mbh-0x2fff81>
  40:	30 00                	xor    %al,(%eax)
  42:	ee                   	out    %al,(%dx)
  43:	1a 07                	sbb    (%edi),%al
  45:	00 40 40             	add    %al,0x40(%eax)
  48:	00 06                	add    %al,(%esi)
  4a:	07                   	pop    %es
  4b:	00 40 80             	add    %al,-0x80(%eax)
  4e:	00 06                	add    %al,(%esi)
	...
