
kernel.elf:     format de fichier elf32-i386


Déassemblage de la section .mbh :

00300000 <mbh>:
  300000:	02 b0 ad 1b 03 00    	add    0x31bad(%eax),%dh
  300006:	00 00                	add    %al,(%eax)
  300008:	fb                   	sti
  300009:	4f                   	dec    %edi
  30000a:	52                   	push   %edx
  30000b:	e4                   	.byte 0xe4

Déassemblage de la section .idt_jmp :

00302010 <idt_trampoline>:
  302010:	6a ff                	push   $0xffffffff
  302012:	6a 00                	push   $0x0
  302014:	e9 6d 1d 00 00       	jmp    303d86 <idt_common>
  302019:	8d b4 26 00 00 00 00 	lea    0x0(%esi,%eiz,1),%esi
  302020:	6a ff                	push   $0xffffffff
  302022:	6a 01                	push   $0x1
  302024:	e9 5d 1d 00 00       	jmp    303d86 <idt_common>
  302029:	8d b4 26 00 00 00 00 	lea    0x0(%esi,%eiz,1),%esi
  302030:	6a ff                	push   $0xffffffff
  302032:	6a 02                	push   $0x2
  302034:	e9 4d 1d 00 00       	jmp    303d86 <idt_common>
  302039:	8d b4 26 00 00 00 00 	lea    0x0(%esi,%eiz,1),%esi
  302040:	6a ff                	push   $0xffffffff
  302042:	6a 03                	push   $0x3
  302044:	e9 3d 1d 00 00       	jmp    303d86 <idt_common>
  302049:	8d b4 26 00 00 00 00 	lea    0x0(%esi,%eiz,1),%esi
  302050:	6a ff                	push   $0xffffffff
  302052:	6a 04                	push   $0x4
  302054:	e9 2d 1d 00 00       	jmp    303d86 <idt_common>
  302059:	8d b4 26 00 00 00 00 	lea    0x0(%esi,%eiz,1),%esi
  302060:	6a ff                	push   $0xffffffff
  302062:	6a 05                	push   $0x5
  302064:	e9 1d 1d 00 00       	jmp    303d86 <idt_common>
  302069:	8d b4 26 00 00 00 00 	lea    0x0(%esi,%eiz,1),%esi
  302070:	6a ff                	push   $0xffffffff
  302072:	6a 06                	push   $0x6
  302074:	e9 0d 1d 00 00       	jmp    303d86 <idt_common>
  302079:	8d b4 26 00 00 00 00 	lea    0x0(%esi,%eiz,1),%esi
  302080:	6a ff                	push   $0xffffffff
  302082:	6a 07                	push   $0x7
  302084:	e9 fd 1c 00 00       	jmp    303d86 <idt_common>
  302089:	8d b4 26 00 00 00 00 	lea    0x0(%esi,%eiz,1),%esi
  302090:	6a 08                	push   $0x8
  302092:	e9 ef 1c 00 00       	jmp    303d86 <idt_common>
  302097:	2e 8d b4 26 00 00 00 	lea    %cs:0x0(%esi,%eiz,1),%esi
  30209e:	00 
  30209f:	90                   	nop
  3020a0:	6a ff                	push   $0xffffffff
  3020a2:	6a 09                	push   $0x9
  3020a4:	e9 dd 1c 00 00       	jmp    303d86 <idt_common>
  3020a9:	8d b4 26 00 00 00 00 	lea    0x0(%esi,%eiz,1),%esi
  3020b0:	6a 0a                	push   $0xa
  3020b2:	e9 cf 1c 00 00       	jmp    303d86 <idt_common>
  3020b7:	2e 8d b4 26 00 00 00 	lea    %cs:0x0(%esi,%eiz,1),%esi
  3020be:	00 
  3020bf:	90                   	nop
  3020c0:	6a 0b                	push   $0xb
  3020c2:	e9 bf 1c 00 00       	jmp    303d86 <idt_common>
  3020c7:	2e 8d b4 26 00 00 00 	lea    %cs:0x0(%esi,%eiz,1),%esi
  3020ce:	00 
  3020cf:	90                   	nop
  3020d0:	6a 0c                	push   $0xc
  3020d2:	e9 af 1c 00 00       	jmp    303d86 <idt_common>
  3020d7:	2e 8d b4 26 00 00 00 	lea    %cs:0x0(%esi,%eiz,1),%esi
  3020de:	00 
  3020df:	90                   	nop
  3020e0:	6a 0d                	push   $0xd
  3020e2:	e9 9f 1c 00 00       	jmp    303d86 <idt_common>
  3020e7:	2e 8d b4 26 00 00 00 	lea    %cs:0x0(%esi,%eiz,1),%esi
  3020ee:	00 
  3020ef:	90                   	nop
  3020f0:	6a 0e                	push   $0xe
  3020f2:	e9 8f 1c 00 00       	jmp    303d86 <idt_common>
  3020f7:	2e 8d b4 26 00 00 00 	lea    %cs:0x0(%esi,%eiz,1),%esi
  3020fe:	00 
  3020ff:	90                   	nop
  302100:	6a ff                	push   $0xffffffff
  302102:	6a 0f                	push   $0xf
  302104:	e9 7d 1c 00 00       	jmp    303d86 <idt_common>
  302109:	8d b4 26 00 00 00 00 	lea    0x0(%esi,%eiz,1),%esi
  302110:	6a ff                	push   $0xffffffff
  302112:	6a 10                	push   $0x10
  302114:	e9 6d 1c 00 00       	jmp    303d86 <idt_common>
  302119:	8d b4 26 00 00 00 00 	lea    0x0(%esi,%eiz,1),%esi
  302120:	6a 11                	push   $0x11
  302122:	e9 5f 1c 00 00       	jmp    303d86 <idt_common>
  302127:	2e 8d b4 26 00 00 00 	lea    %cs:0x0(%esi,%eiz,1),%esi
  30212e:	00 
  30212f:	90                   	nop
  302130:	6a ff                	push   $0xffffffff
  302132:	6a 12                	push   $0x12
  302134:	e9 4d 1c 00 00       	jmp    303d86 <idt_common>
  302139:	8d b4 26 00 00 00 00 	lea    0x0(%esi,%eiz,1),%esi
  302140:	6a ff                	push   $0xffffffff
  302142:	6a 13                	push   $0x13
  302144:	e9 3d 1c 00 00       	jmp    303d86 <idt_common>
  302149:	8d b4 26 00 00 00 00 	lea    0x0(%esi,%eiz,1),%esi
  302150:	cf                   	iret
  302151:	2e 8d b4 26 00 00 00 	lea    %cs:0x0(%esi,%eiz,1),%esi
  302158:	00 
  302159:	8d b4 26 00 00 00 00 	lea    0x0(%esi,%eiz,1),%esi
  302160:	cf                   	iret
  302161:	2e 8d b4 26 00 00 00 	lea    %cs:0x0(%esi,%eiz,1),%esi
  302168:	00 
  302169:	8d b4 26 00 00 00 00 	lea    0x0(%esi,%eiz,1),%esi
  302170:	cf                   	iret
  302171:	2e 8d b4 26 00 00 00 	lea    %cs:0x0(%esi,%eiz,1),%esi
  302178:	00 
  302179:	8d b4 26 00 00 00 00 	lea    0x0(%esi,%eiz,1),%esi
  302180:	cf                   	iret
  302181:	2e 8d b4 26 00 00 00 	lea    %cs:0x0(%esi,%eiz,1),%esi
  302188:	00 
  302189:	8d b4 26 00 00 00 00 	lea    0x0(%esi,%eiz,1),%esi
  302190:	cf                   	iret
  302191:	2e 8d b4 26 00 00 00 	lea    %cs:0x0(%esi,%eiz,1),%esi
  302198:	00 
  302199:	8d b4 26 00 00 00 00 	lea    0x0(%esi,%eiz,1),%esi
  3021a0:	cf                   	iret
  3021a1:	2e 8d b4 26 00 00 00 	lea    %cs:0x0(%esi,%eiz,1),%esi
  3021a8:	00 
  3021a9:	8d b4 26 00 00 00 00 	lea    0x0(%esi,%eiz,1),%esi
  3021b0:	cf                   	iret
  3021b1:	2e 8d b4 26 00 00 00 	lea    %cs:0x0(%esi,%eiz,1),%esi
  3021b8:	00 
  3021b9:	8d b4 26 00 00 00 00 	lea    0x0(%esi,%eiz,1),%esi
  3021c0:	cf                   	iret
  3021c1:	2e 8d b4 26 00 00 00 	lea    %cs:0x0(%esi,%eiz,1),%esi
  3021c8:	00 
  3021c9:	8d b4 26 00 00 00 00 	lea    0x0(%esi,%eiz,1),%esi
  3021d0:	cf                   	iret
  3021d1:	2e 8d b4 26 00 00 00 	lea    %cs:0x0(%esi,%eiz,1),%esi
  3021d8:	00 
  3021d9:	8d b4 26 00 00 00 00 	lea    0x0(%esi,%eiz,1),%esi
  3021e0:	cf                   	iret
  3021e1:	2e 8d b4 26 00 00 00 	lea    %cs:0x0(%esi,%eiz,1),%esi
  3021e8:	00 
  3021e9:	8d b4 26 00 00 00 00 	lea    0x0(%esi,%eiz,1),%esi
  3021f0:	cf                   	iret
  3021f1:	2e 8d b4 26 00 00 00 	lea    %cs:0x0(%esi,%eiz,1),%esi
  3021f8:	00 
  3021f9:	8d b4 26 00 00 00 00 	lea    0x0(%esi,%eiz,1),%esi
  302200:	cf                   	iret
  302201:	2e 8d b4 26 00 00 00 	lea    %cs:0x0(%esi,%eiz,1),%esi
  302208:	00 
  302209:	8d b4 26 00 00 00 00 	lea    0x0(%esi,%eiz,1),%esi
  302210:	6a ff                	push   $0xffffffff
  302212:	6a 20                	push   $0x20
  302214:	e9 67 1b 00 00       	jmp    303d80 <ack_pic1>
  302219:	8d b4 26 00 00 00 00 	lea    0x0(%esi,%eiz,1),%esi
  302220:	6a ff                	push   $0xffffffff
  302222:	6a 21                	push   $0x21
  302224:	e9 57 1b 00 00       	jmp    303d80 <ack_pic1>
  302229:	8d b4 26 00 00 00 00 	lea    0x0(%esi,%eiz,1),%esi
  302230:	6a ff                	push   $0xffffffff
  302232:	6a 22                	push   $0x22
  302234:	e9 47 1b 00 00       	jmp    303d80 <ack_pic1>
  302239:	8d b4 26 00 00 00 00 	lea    0x0(%esi,%eiz,1),%esi
  302240:	6a ff                	push   $0xffffffff
  302242:	6a 23                	push   $0x23
  302244:	e9 37 1b 00 00       	jmp    303d80 <ack_pic1>
  302249:	8d b4 26 00 00 00 00 	lea    0x0(%esi,%eiz,1),%esi
  302250:	6a ff                	push   $0xffffffff
  302252:	6a 24                	push   $0x24
  302254:	e9 27 1b 00 00       	jmp    303d80 <ack_pic1>
  302259:	8d b4 26 00 00 00 00 	lea    0x0(%esi,%eiz,1),%esi
  302260:	6a ff                	push   $0xffffffff
  302262:	6a 25                	push   $0x25
  302264:	e9 17 1b 00 00       	jmp    303d80 <ack_pic1>
  302269:	8d b4 26 00 00 00 00 	lea    0x0(%esi,%eiz,1),%esi
  302270:	6a ff                	push   $0xffffffff
  302272:	6a 26                	push   $0x26
  302274:	e9 07 1b 00 00       	jmp    303d80 <ack_pic1>
  302279:	8d b4 26 00 00 00 00 	lea    0x0(%esi,%eiz,1),%esi
  302280:	6a ff                	push   $0xffffffff
  302282:	6a 27                	push   $0x27
  302284:	e9 f7 1a 00 00       	jmp    303d80 <ack_pic1>
  302289:	8d b4 26 00 00 00 00 	lea    0x0(%esi,%eiz,1),%esi
  302290:	6a ff                	push   $0xffffffff
  302292:	6a 28                	push   $0x28
  302294:	e9 e0 1a 00 00       	jmp    303d79 <ack_pic2>
  302299:	8d b4 26 00 00 00 00 	lea    0x0(%esi,%eiz,1),%esi
  3022a0:	6a ff                	push   $0xffffffff
  3022a2:	6a 29                	push   $0x29
  3022a4:	e9 d0 1a 00 00       	jmp    303d79 <ack_pic2>
  3022a9:	8d b4 26 00 00 00 00 	lea    0x0(%esi,%eiz,1),%esi
  3022b0:	6a ff                	push   $0xffffffff
  3022b2:	6a 2a                	push   $0x2a
  3022b4:	e9 c0 1a 00 00       	jmp    303d79 <ack_pic2>
  3022b9:	8d b4 26 00 00 00 00 	lea    0x0(%esi,%eiz,1),%esi
  3022c0:	6a ff                	push   $0xffffffff
  3022c2:	6a 2b                	push   $0x2b
  3022c4:	e9 b0 1a 00 00       	jmp    303d79 <ack_pic2>
  3022c9:	8d b4 26 00 00 00 00 	lea    0x0(%esi,%eiz,1),%esi
  3022d0:	6a ff                	push   $0xffffffff
  3022d2:	6a 2c                	push   $0x2c
  3022d4:	e9 a0 1a 00 00       	jmp    303d79 <ack_pic2>
  3022d9:	8d b4 26 00 00 00 00 	lea    0x0(%esi,%eiz,1),%esi
  3022e0:	6a ff                	push   $0xffffffff
  3022e2:	6a 2d                	push   $0x2d
  3022e4:	e9 90 1a 00 00       	jmp    303d79 <ack_pic2>
  3022e9:	8d b4 26 00 00 00 00 	lea    0x0(%esi,%eiz,1),%esi
  3022f0:	6a ff                	push   $0xffffffff
  3022f2:	6a 2e                	push   $0x2e
  3022f4:	e9 80 1a 00 00       	jmp    303d79 <ack_pic2>
  3022f9:	8d b4 26 00 00 00 00 	lea    0x0(%esi,%eiz,1),%esi
  302300:	6a ff                	push   $0xffffffff
  302302:	6a 2f                	push   $0x2f
  302304:	e9 70 1a 00 00       	jmp    303d79 <ack_pic2>
  302309:	8d b4 26 00 00 00 00 	lea    0x0(%esi,%eiz,1),%esi
  302310:	6a ff                	push   $0xffffffff
  302312:	6a 30                	push   $0x30
  302314:	e9 6d 1a 00 00       	jmp    303d86 <idt_common>
  302319:	8d b4 26 00 00 00 00 	lea    0x0(%esi,%eiz,1),%esi
  302320:	6a ff                	push   $0xffffffff
  302322:	6a 31                	push   $0x31
  302324:	e9 5d 1a 00 00       	jmp    303d86 <idt_common>
  302329:	8d b4 26 00 00 00 00 	lea    0x0(%esi,%eiz,1),%esi
  302330:	6a ff                	push   $0xffffffff
  302332:	6a 32                	push   $0x32
  302334:	e9 4d 1a 00 00       	jmp    303d86 <idt_common>
  302339:	8d b4 26 00 00 00 00 	lea    0x0(%esi,%eiz,1),%esi
  302340:	6a ff                	push   $0xffffffff
  302342:	6a 33                	push   $0x33
  302344:	e9 3d 1a 00 00       	jmp    303d86 <idt_common>
  302349:	8d b4 26 00 00 00 00 	lea    0x0(%esi,%eiz,1),%esi
  302350:	6a ff                	push   $0xffffffff
  302352:	6a 34                	push   $0x34
  302354:	e9 2d 1a 00 00       	jmp    303d86 <idt_common>
  302359:	8d b4 26 00 00 00 00 	lea    0x0(%esi,%eiz,1),%esi
  302360:	6a ff                	push   $0xffffffff
  302362:	6a 35                	push   $0x35
  302364:	e9 1d 1a 00 00       	jmp    303d86 <idt_common>
  302369:	8d b4 26 00 00 00 00 	lea    0x0(%esi,%eiz,1),%esi
  302370:	6a ff                	push   $0xffffffff
  302372:	6a 36                	push   $0x36
  302374:	e9 0d 1a 00 00       	jmp    303d86 <idt_common>
  302379:	8d b4 26 00 00 00 00 	lea    0x0(%esi,%eiz,1),%esi
  302380:	6a ff                	push   $0xffffffff
  302382:	6a 37                	push   $0x37
  302384:	e9 fd 19 00 00       	jmp    303d86 <idt_common>
  302389:	8d b4 26 00 00 00 00 	lea    0x0(%esi,%eiz,1),%esi
  302390:	6a ff                	push   $0xffffffff
  302392:	6a 38                	push   $0x38
  302394:	e9 ed 19 00 00       	jmp    303d86 <idt_common>
  302399:	8d b4 26 00 00 00 00 	lea    0x0(%esi,%eiz,1),%esi
  3023a0:	6a ff                	push   $0xffffffff
  3023a2:	6a 39                	push   $0x39
  3023a4:	e9 dd 19 00 00       	jmp    303d86 <idt_common>
  3023a9:	8d b4 26 00 00 00 00 	lea    0x0(%esi,%eiz,1),%esi
  3023b0:	6a ff                	push   $0xffffffff
  3023b2:	6a 3a                	push   $0x3a
  3023b4:	e9 cd 19 00 00       	jmp    303d86 <idt_common>
  3023b9:	8d b4 26 00 00 00 00 	lea    0x0(%esi,%eiz,1),%esi
  3023c0:	6a ff                	push   $0xffffffff
  3023c2:	6a 3b                	push   $0x3b
  3023c4:	e9 bd 19 00 00       	jmp    303d86 <idt_common>
  3023c9:	8d b4 26 00 00 00 00 	lea    0x0(%esi,%eiz,1),%esi
  3023d0:	6a ff                	push   $0xffffffff
  3023d2:	6a 3c                	push   $0x3c
  3023d4:	e9 ad 19 00 00       	jmp    303d86 <idt_common>
  3023d9:	8d b4 26 00 00 00 00 	lea    0x0(%esi,%eiz,1),%esi
  3023e0:	6a ff                	push   $0xffffffff
  3023e2:	6a 3d                	push   $0x3d
  3023e4:	e9 9d 19 00 00       	jmp    303d86 <idt_common>
  3023e9:	8d b4 26 00 00 00 00 	lea    0x0(%esi,%eiz,1),%esi
  3023f0:	6a ff                	push   $0xffffffff
  3023f2:	6a 3e                	push   $0x3e
  3023f4:	e9 8d 19 00 00       	jmp    303d86 <idt_common>
  3023f9:	8d b4 26 00 00 00 00 	lea    0x0(%esi,%eiz,1),%esi
  302400:	6a ff                	push   $0xffffffff
  302402:	6a 3f                	push   $0x3f
  302404:	e9 7d 19 00 00       	jmp    303d86 <idt_common>
  302409:	8d b4 26 00 00 00 00 	lea    0x0(%esi,%eiz,1),%esi
  302410:	6a ff                	push   $0xffffffff
  302412:	6a 40                	push   $0x40
  302414:	e9 6d 19 00 00       	jmp    303d86 <idt_common>
  302419:	8d b4 26 00 00 00 00 	lea    0x0(%esi,%eiz,1),%esi
  302420:	6a ff                	push   $0xffffffff
  302422:	6a 41                	push   $0x41
  302424:	e9 5d 19 00 00       	jmp    303d86 <idt_common>
  302429:	8d b4 26 00 00 00 00 	lea    0x0(%esi,%eiz,1),%esi
  302430:	6a ff                	push   $0xffffffff
  302432:	6a 42                	push   $0x42
  302434:	e9 4d 19 00 00       	jmp    303d86 <idt_common>
  302439:	8d b4 26 00 00 00 00 	lea    0x0(%esi,%eiz,1),%esi
  302440:	6a ff                	push   $0xffffffff
  302442:	6a 43                	push   $0x43
  302444:	e9 3d 19 00 00       	jmp    303d86 <idt_common>
  302449:	8d b4 26 00 00 00 00 	lea    0x0(%esi,%eiz,1),%esi
  302450:	6a ff                	push   $0xffffffff
  302452:	6a 44                	push   $0x44
  302454:	e9 2d 19 00 00       	jmp    303d86 <idt_common>
  302459:	8d b4 26 00 00 00 00 	lea    0x0(%esi,%eiz,1),%esi
  302460:	6a ff                	push   $0xffffffff
  302462:	6a 45                	push   $0x45
  302464:	e9 1d 19 00 00       	jmp    303d86 <idt_common>
  302469:	8d b4 26 00 00 00 00 	lea    0x0(%esi,%eiz,1),%esi
  302470:	6a ff                	push   $0xffffffff
  302472:	6a 46                	push   $0x46
  302474:	e9 0d 19 00 00       	jmp    303d86 <idt_common>
  302479:	8d b4 26 00 00 00 00 	lea    0x0(%esi,%eiz,1),%esi
  302480:	6a ff                	push   $0xffffffff
  302482:	6a 47                	push   $0x47
  302484:	e9 fd 18 00 00       	jmp    303d86 <idt_common>
  302489:	8d b4 26 00 00 00 00 	lea    0x0(%esi,%eiz,1),%esi
  302490:	6a ff                	push   $0xffffffff
  302492:	6a 48                	push   $0x48
  302494:	e9 ed 18 00 00       	jmp    303d86 <idt_common>
  302499:	8d b4 26 00 00 00 00 	lea    0x0(%esi,%eiz,1),%esi
  3024a0:	6a ff                	push   $0xffffffff
  3024a2:	6a 49                	push   $0x49
  3024a4:	e9 dd 18 00 00       	jmp    303d86 <idt_common>
  3024a9:	8d b4 26 00 00 00 00 	lea    0x0(%esi,%eiz,1),%esi
  3024b0:	6a ff                	push   $0xffffffff
  3024b2:	6a 4a                	push   $0x4a
  3024b4:	e9 cd 18 00 00       	jmp    303d86 <idt_common>
  3024b9:	8d b4 26 00 00 00 00 	lea    0x0(%esi,%eiz,1),%esi
  3024c0:	6a ff                	push   $0xffffffff
  3024c2:	6a 4b                	push   $0x4b
  3024c4:	e9 bd 18 00 00       	jmp    303d86 <idt_common>
  3024c9:	8d b4 26 00 00 00 00 	lea    0x0(%esi,%eiz,1),%esi
  3024d0:	6a ff                	push   $0xffffffff
  3024d2:	6a 4c                	push   $0x4c
  3024d4:	e9 ad 18 00 00       	jmp    303d86 <idt_common>
  3024d9:	8d b4 26 00 00 00 00 	lea    0x0(%esi,%eiz,1),%esi
  3024e0:	6a ff                	push   $0xffffffff
  3024e2:	6a 4d                	push   $0x4d
  3024e4:	e9 9d 18 00 00       	jmp    303d86 <idt_common>
  3024e9:	8d b4 26 00 00 00 00 	lea    0x0(%esi,%eiz,1),%esi
  3024f0:	6a ff                	push   $0xffffffff
  3024f2:	6a 4e                	push   $0x4e
  3024f4:	e9 8d 18 00 00       	jmp    303d86 <idt_common>
  3024f9:	8d b4 26 00 00 00 00 	lea    0x0(%esi,%eiz,1),%esi
  302500:	6a ff                	push   $0xffffffff
  302502:	6a 4f                	push   $0x4f
  302504:	e9 7d 18 00 00       	jmp    303d86 <idt_common>
  302509:	8d b4 26 00 00 00 00 	lea    0x0(%esi,%eiz,1),%esi
  302510:	6a ff                	push   $0xffffffff
  302512:	6a 50                	push   $0x50
  302514:	e9 6d 18 00 00       	jmp    303d86 <idt_common>
  302519:	8d b4 26 00 00 00 00 	lea    0x0(%esi,%eiz,1),%esi
  302520:	6a ff                	push   $0xffffffff
  302522:	6a 51                	push   $0x51
  302524:	e9 5d 18 00 00       	jmp    303d86 <idt_common>
  302529:	8d b4 26 00 00 00 00 	lea    0x0(%esi,%eiz,1),%esi
  302530:	6a ff                	push   $0xffffffff
  302532:	6a 52                	push   $0x52
  302534:	e9 4d 18 00 00       	jmp    303d86 <idt_common>
  302539:	8d b4 26 00 00 00 00 	lea    0x0(%esi,%eiz,1),%esi
  302540:	6a ff                	push   $0xffffffff
  302542:	6a 53                	push   $0x53
  302544:	e9 3d 18 00 00       	jmp    303d86 <idt_common>
  302549:	8d b4 26 00 00 00 00 	lea    0x0(%esi,%eiz,1),%esi
  302550:	6a ff                	push   $0xffffffff
  302552:	6a 54                	push   $0x54
  302554:	e9 2d 18 00 00       	jmp    303d86 <idt_common>
  302559:	8d b4 26 00 00 00 00 	lea    0x0(%esi,%eiz,1),%esi
  302560:	6a ff                	push   $0xffffffff
  302562:	6a 55                	push   $0x55
  302564:	e9 1d 18 00 00       	jmp    303d86 <idt_common>
  302569:	8d b4 26 00 00 00 00 	lea    0x0(%esi,%eiz,1),%esi
  302570:	6a ff                	push   $0xffffffff
  302572:	6a 56                	push   $0x56
  302574:	e9 0d 18 00 00       	jmp    303d86 <idt_common>
  302579:	8d b4 26 00 00 00 00 	lea    0x0(%esi,%eiz,1),%esi
  302580:	6a ff                	push   $0xffffffff
  302582:	6a 57                	push   $0x57
  302584:	e9 fd 17 00 00       	jmp    303d86 <idt_common>
  302589:	8d b4 26 00 00 00 00 	lea    0x0(%esi,%eiz,1),%esi
  302590:	6a ff                	push   $0xffffffff
  302592:	6a 58                	push   $0x58
  302594:	e9 ed 17 00 00       	jmp    303d86 <idt_common>
  302599:	8d b4 26 00 00 00 00 	lea    0x0(%esi,%eiz,1),%esi
  3025a0:	6a ff                	push   $0xffffffff
  3025a2:	6a 59                	push   $0x59
  3025a4:	e9 dd 17 00 00       	jmp    303d86 <idt_common>
  3025a9:	8d b4 26 00 00 00 00 	lea    0x0(%esi,%eiz,1),%esi
  3025b0:	6a ff                	push   $0xffffffff
  3025b2:	6a 5a                	push   $0x5a
  3025b4:	e9 cd 17 00 00       	jmp    303d86 <idt_common>
  3025b9:	8d b4 26 00 00 00 00 	lea    0x0(%esi,%eiz,1),%esi
  3025c0:	6a ff                	push   $0xffffffff
  3025c2:	6a 5b                	push   $0x5b
  3025c4:	e9 bd 17 00 00       	jmp    303d86 <idt_common>
  3025c9:	8d b4 26 00 00 00 00 	lea    0x0(%esi,%eiz,1),%esi
  3025d0:	6a ff                	push   $0xffffffff
  3025d2:	6a 5c                	push   $0x5c
  3025d4:	e9 ad 17 00 00       	jmp    303d86 <idt_common>
  3025d9:	8d b4 26 00 00 00 00 	lea    0x0(%esi,%eiz,1),%esi
  3025e0:	6a ff                	push   $0xffffffff
  3025e2:	6a 5d                	push   $0x5d
  3025e4:	e9 9d 17 00 00       	jmp    303d86 <idt_common>
  3025e9:	8d b4 26 00 00 00 00 	lea    0x0(%esi,%eiz,1),%esi
  3025f0:	6a ff                	push   $0xffffffff
  3025f2:	6a 5e                	push   $0x5e
  3025f4:	e9 8d 17 00 00       	jmp    303d86 <idt_common>
  3025f9:	8d b4 26 00 00 00 00 	lea    0x0(%esi,%eiz,1),%esi
  302600:	6a ff                	push   $0xffffffff
  302602:	6a 5f                	push   $0x5f
  302604:	e9 7d 17 00 00       	jmp    303d86 <idt_common>
  302609:	8d b4 26 00 00 00 00 	lea    0x0(%esi,%eiz,1),%esi
  302610:	6a ff                	push   $0xffffffff
  302612:	6a 60                	push   $0x60
  302614:	e9 6d 17 00 00       	jmp    303d86 <idt_common>
  302619:	8d b4 26 00 00 00 00 	lea    0x0(%esi,%eiz,1),%esi
  302620:	6a ff                	push   $0xffffffff
  302622:	6a 61                	push   $0x61
  302624:	e9 5d 17 00 00       	jmp    303d86 <idt_common>
  302629:	8d b4 26 00 00 00 00 	lea    0x0(%esi,%eiz,1),%esi
  302630:	6a ff                	push   $0xffffffff
  302632:	6a 62                	push   $0x62
  302634:	e9 4d 17 00 00       	jmp    303d86 <idt_common>
  302639:	8d b4 26 00 00 00 00 	lea    0x0(%esi,%eiz,1),%esi
  302640:	6a ff                	push   $0xffffffff
  302642:	6a 63                	push   $0x63
  302644:	e9 3d 17 00 00       	jmp    303d86 <idt_common>
  302649:	8d b4 26 00 00 00 00 	lea    0x0(%esi,%eiz,1),%esi
  302650:	6a ff                	push   $0xffffffff
  302652:	6a 64                	push   $0x64
  302654:	e9 2d 17 00 00       	jmp    303d86 <idt_common>
  302659:	8d b4 26 00 00 00 00 	lea    0x0(%esi,%eiz,1),%esi
  302660:	6a ff                	push   $0xffffffff
  302662:	6a 65                	push   $0x65
  302664:	e9 1d 17 00 00       	jmp    303d86 <idt_common>
  302669:	8d b4 26 00 00 00 00 	lea    0x0(%esi,%eiz,1),%esi
  302670:	6a ff                	push   $0xffffffff
  302672:	6a 66                	push   $0x66
  302674:	e9 0d 17 00 00       	jmp    303d86 <idt_common>
  302679:	8d b4 26 00 00 00 00 	lea    0x0(%esi,%eiz,1),%esi
  302680:	6a ff                	push   $0xffffffff
  302682:	6a 67                	push   $0x67
  302684:	e9 fd 16 00 00       	jmp    303d86 <idt_common>
  302689:	8d b4 26 00 00 00 00 	lea    0x0(%esi,%eiz,1),%esi
  302690:	6a ff                	push   $0xffffffff
  302692:	6a 68                	push   $0x68
  302694:	e9 ed 16 00 00       	jmp    303d86 <idt_common>
  302699:	8d b4 26 00 00 00 00 	lea    0x0(%esi,%eiz,1),%esi
  3026a0:	6a ff                	push   $0xffffffff
  3026a2:	6a 69                	push   $0x69
  3026a4:	e9 dd 16 00 00       	jmp    303d86 <idt_common>
  3026a9:	8d b4 26 00 00 00 00 	lea    0x0(%esi,%eiz,1),%esi
  3026b0:	6a ff                	push   $0xffffffff
  3026b2:	6a 6a                	push   $0x6a
  3026b4:	e9 cd 16 00 00       	jmp    303d86 <idt_common>
  3026b9:	8d b4 26 00 00 00 00 	lea    0x0(%esi,%eiz,1),%esi
  3026c0:	6a ff                	push   $0xffffffff
  3026c2:	6a 6b                	push   $0x6b
  3026c4:	e9 bd 16 00 00       	jmp    303d86 <idt_common>
  3026c9:	8d b4 26 00 00 00 00 	lea    0x0(%esi,%eiz,1),%esi
  3026d0:	6a ff                	push   $0xffffffff
  3026d2:	6a 6c                	push   $0x6c
  3026d4:	e9 ad 16 00 00       	jmp    303d86 <idt_common>
  3026d9:	8d b4 26 00 00 00 00 	lea    0x0(%esi,%eiz,1),%esi
  3026e0:	6a ff                	push   $0xffffffff
  3026e2:	6a 6d                	push   $0x6d
  3026e4:	e9 9d 16 00 00       	jmp    303d86 <idt_common>
  3026e9:	8d b4 26 00 00 00 00 	lea    0x0(%esi,%eiz,1),%esi
  3026f0:	6a ff                	push   $0xffffffff
  3026f2:	6a 6e                	push   $0x6e
  3026f4:	e9 8d 16 00 00       	jmp    303d86 <idt_common>
  3026f9:	8d b4 26 00 00 00 00 	lea    0x0(%esi,%eiz,1),%esi
  302700:	6a ff                	push   $0xffffffff
  302702:	6a 6f                	push   $0x6f
  302704:	e9 7d 16 00 00       	jmp    303d86 <idt_common>
  302709:	8d b4 26 00 00 00 00 	lea    0x0(%esi,%eiz,1),%esi
  302710:	6a ff                	push   $0xffffffff
  302712:	6a 70                	push   $0x70
  302714:	e9 6d 16 00 00       	jmp    303d86 <idt_common>
  302719:	8d b4 26 00 00 00 00 	lea    0x0(%esi,%eiz,1),%esi
  302720:	6a ff                	push   $0xffffffff
  302722:	6a 71                	push   $0x71
  302724:	e9 5d 16 00 00       	jmp    303d86 <idt_common>
  302729:	8d b4 26 00 00 00 00 	lea    0x0(%esi,%eiz,1),%esi
  302730:	6a ff                	push   $0xffffffff
  302732:	6a 72                	push   $0x72
  302734:	e9 4d 16 00 00       	jmp    303d86 <idt_common>
  302739:	8d b4 26 00 00 00 00 	lea    0x0(%esi,%eiz,1),%esi
  302740:	6a ff                	push   $0xffffffff
  302742:	6a 73                	push   $0x73
  302744:	e9 3d 16 00 00       	jmp    303d86 <idt_common>
  302749:	8d b4 26 00 00 00 00 	lea    0x0(%esi,%eiz,1),%esi
  302750:	6a ff                	push   $0xffffffff
  302752:	6a 74                	push   $0x74
  302754:	e9 2d 16 00 00       	jmp    303d86 <idt_common>
  302759:	8d b4 26 00 00 00 00 	lea    0x0(%esi,%eiz,1),%esi
  302760:	6a ff                	push   $0xffffffff
  302762:	6a 75                	push   $0x75
  302764:	e9 1d 16 00 00       	jmp    303d86 <idt_common>
  302769:	8d b4 26 00 00 00 00 	lea    0x0(%esi,%eiz,1),%esi
  302770:	6a ff                	push   $0xffffffff
  302772:	6a 76                	push   $0x76
  302774:	e9 0d 16 00 00       	jmp    303d86 <idt_common>
  302779:	8d b4 26 00 00 00 00 	lea    0x0(%esi,%eiz,1),%esi
  302780:	6a ff                	push   $0xffffffff
  302782:	6a 77                	push   $0x77
  302784:	e9 fd 15 00 00       	jmp    303d86 <idt_common>
  302789:	8d b4 26 00 00 00 00 	lea    0x0(%esi,%eiz,1),%esi
  302790:	6a ff                	push   $0xffffffff
  302792:	6a 78                	push   $0x78
  302794:	e9 ed 15 00 00       	jmp    303d86 <idt_common>
  302799:	8d b4 26 00 00 00 00 	lea    0x0(%esi,%eiz,1),%esi
  3027a0:	6a ff                	push   $0xffffffff
  3027a2:	6a 79                	push   $0x79
  3027a4:	e9 dd 15 00 00       	jmp    303d86 <idt_common>
  3027a9:	8d b4 26 00 00 00 00 	lea    0x0(%esi,%eiz,1),%esi
  3027b0:	6a ff                	push   $0xffffffff
  3027b2:	6a 7a                	push   $0x7a
  3027b4:	e9 cd 15 00 00       	jmp    303d86 <idt_common>
  3027b9:	8d b4 26 00 00 00 00 	lea    0x0(%esi,%eiz,1),%esi
  3027c0:	6a ff                	push   $0xffffffff
  3027c2:	6a 7b                	push   $0x7b
  3027c4:	e9 bd 15 00 00       	jmp    303d86 <idt_common>
  3027c9:	8d b4 26 00 00 00 00 	lea    0x0(%esi,%eiz,1),%esi
  3027d0:	6a ff                	push   $0xffffffff
  3027d2:	6a 7c                	push   $0x7c
  3027d4:	e9 ad 15 00 00       	jmp    303d86 <idt_common>
  3027d9:	8d b4 26 00 00 00 00 	lea    0x0(%esi,%eiz,1),%esi
  3027e0:	6a ff                	push   $0xffffffff
  3027e2:	6a 7d                	push   $0x7d
  3027e4:	e9 9d 15 00 00       	jmp    303d86 <idt_common>
  3027e9:	8d b4 26 00 00 00 00 	lea    0x0(%esi,%eiz,1),%esi
  3027f0:	6a ff                	push   $0xffffffff
  3027f2:	6a 7e                	push   $0x7e
  3027f4:	e9 8d 15 00 00       	jmp    303d86 <idt_common>
  3027f9:	8d b4 26 00 00 00 00 	lea    0x0(%esi,%eiz,1),%esi
  302800:	6a ff                	push   $0xffffffff
  302802:	6a 7f                	push   $0x7f
  302804:	e9 7d 15 00 00       	jmp    303d86 <idt_common>
  302809:	8d b4 26 00 00 00 00 	lea    0x0(%esi,%eiz,1),%esi
  302810:	6a ff                	push   $0xffffffff
  302812:	68 80 00 00 00       	push   $0x80
  302817:	e9 6a 15 00 00       	jmp    303d86 <idt_common>
  30281c:	8d 74 26 00          	lea    0x0(%esi,%eiz,1),%esi
  302820:	6a ff                	push   $0xffffffff
  302822:	68 81 00 00 00       	push   $0x81
  302827:	e9 5a 15 00 00       	jmp    303d86 <idt_common>
  30282c:	8d 74 26 00          	lea    0x0(%esi,%eiz,1),%esi
  302830:	6a ff                	push   $0xffffffff
  302832:	68 82 00 00 00       	push   $0x82
  302837:	e9 4a 15 00 00       	jmp    303d86 <idt_common>
  30283c:	8d 74 26 00          	lea    0x0(%esi,%eiz,1),%esi
  302840:	6a ff                	push   $0xffffffff
  302842:	68 83 00 00 00       	push   $0x83
  302847:	e9 3a 15 00 00       	jmp    303d86 <idt_common>
  30284c:	8d 74 26 00          	lea    0x0(%esi,%eiz,1),%esi
  302850:	6a ff                	push   $0xffffffff
  302852:	68 84 00 00 00       	push   $0x84
  302857:	e9 2a 15 00 00       	jmp    303d86 <idt_common>
  30285c:	8d 74 26 00          	lea    0x0(%esi,%eiz,1),%esi
  302860:	6a ff                	push   $0xffffffff
  302862:	68 85 00 00 00       	push   $0x85
  302867:	e9 1a 15 00 00       	jmp    303d86 <idt_common>
  30286c:	8d 74 26 00          	lea    0x0(%esi,%eiz,1),%esi
  302870:	6a ff                	push   $0xffffffff
  302872:	68 86 00 00 00       	push   $0x86
  302877:	e9 0a 15 00 00       	jmp    303d86 <idt_common>
  30287c:	8d 74 26 00          	lea    0x0(%esi,%eiz,1),%esi
  302880:	6a ff                	push   $0xffffffff
  302882:	68 87 00 00 00       	push   $0x87
  302887:	e9 fa 14 00 00       	jmp    303d86 <idt_common>
  30288c:	8d 74 26 00          	lea    0x0(%esi,%eiz,1),%esi
  302890:	6a ff                	push   $0xffffffff
  302892:	68 88 00 00 00       	push   $0x88
  302897:	e9 ea 14 00 00       	jmp    303d86 <idt_common>
  30289c:	8d 74 26 00          	lea    0x0(%esi,%eiz,1),%esi
  3028a0:	6a ff                	push   $0xffffffff
  3028a2:	68 89 00 00 00       	push   $0x89
  3028a7:	e9 da 14 00 00       	jmp    303d86 <idt_common>
  3028ac:	8d 74 26 00          	lea    0x0(%esi,%eiz,1),%esi
  3028b0:	6a ff                	push   $0xffffffff
  3028b2:	68 8a 00 00 00       	push   $0x8a
  3028b7:	e9 ca 14 00 00       	jmp    303d86 <idt_common>
  3028bc:	8d 74 26 00          	lea    0x0(%esi,%eiz,1),%esi
  3028c0:	6a ff                	push   $0xffffffff
  3028c2:	68 8b 00 00 00       	push   $0x8b
  3028c7:	e9 ba 14 00 00       	jmp    303d86 <idt_common>
  3028cc:	8d 74 26 00          	lea    0x0(%esi,%eiz,1),%esi
  3028d0:	6a ff                	push   $0xffffffff
  3028d2:	68 8c 00 00 00       	push   $0x8c
  3028d7:	e9 aa 14 00 00       	jmp    303d86 <idt_common>
  3028dc:	8d 74 26 00          	lea    0x0(%esi,%eiz,1),%esi
  3028e0:	6a ff                	push   $0xffffffff
  3028e2:	68 8d 00 00 00       	push   $0x8d
  3028e7:	e9 9a 14 00 00       	jmp    303d86 <idt_common>
  3028ec:	8d 74 26 00          	lea    0x0(%esi,%eiz,1),%esi
  3028f0:	6a ff                	push   $0xffffffff
  3028f2:	68 8e 00 00 00       	push   $0x8e
  3028f7:	e9 8a 14 00 00       	jmp    303d86 <idt_common>
  3028fc:	8d 74 26 00          	lea    0x0(%esi,%eiz,1),%esi
  302900:	6a ff                	push   $0xffffffff
  302902:	68 8f 00 00 00       	push   $0x8f
  302907:	e9 7a 14 00 00       	jmp    303d86 <idt_common>
  30290c:	8d 74 26 00          	lea    0x0(%esi,%eiz,1),%esi
  302910:	6a ff                	push   $0xffffffff
  302912:	68 90 00 00 00       	push   $0x90
  302917:	e9 6a 14 00 00       	jmp    303d86 <idt_common>
  30291c:	8d 74 26 00          	lea    0x0(%esi,%eiz,1),%esi
  302920:	6a ff                	push   $0xffffffff
  302922:	68 91 00 00 00       	push   $0x91
  302927:	e9 5a 14 00 00       	jmp    303d86 <idt_common>
  30292c:	8d 74 26 00          	lea    0x0(%esi,%eiz,1),%esi
  302930:	6a ff                	push   $0xffffffff
  302932:	68 92 00 00 00       	push   $0x92
  302937:	e9 4a 14 00 00       	jmp    303d86 <idt_common>
  30293c:	8d 74 26 00          	lea    0x0(%esi,%eiz,1),%esi
  302940:	6a ff                	push   $0xffffffff
  302942:	68 93 00 00 00       	push   $0x93
  302947:	e9 3a 14 00 00       	jmp    303d86 <idt_common>
  30294c:	8d 74 26 00          	lea    0x0(%esi,%eiz,1),%esi
  302950:	6a ff                	push   $0xffffffff
  302952:	68 94 00 00 00       	push   $0x94
  302957:	e9 2a 14 00 00       	jmp    303d86 <idt_common>
  30295c:	8d 74 26 00          	lea    0x0(%esi,%eiz,1),%esi
  302960:	6a ff                	push   $0xffffffff
  302962:	68 95 00 00 00       	push   $0x95
  302967:	e9 1a 14 00 00       	jmp    303d86 <idt_common>
  30296c:	8d 74 26 00          	lea    0x0(%esi,%eiz,1),%esi
  302970:	6a ff                	push   $0xffffffff
  302972:	68 96 00 00 00       	push   $0x96
  302977:	e9 0a 14 00 00       	jmp    303d86 <idt_common>
  30297c:	8d 74 26 00          	lea    0x0(%esi,%eiz,1),%esi
  302980:	6a ff                	push   $0xffffffff
  302982:	68 97 00 00 00       	push   $0x97
  302987:	e9 fa 13 00 00       	jmp    303d86 <idt_common>
  30298c:	8d 74 26 00          	lea    0x0(%esi,%eiz,1),%esi
  302990:	6a ff                	push   $0xffffffff
  302992:	68 98 00 00 00       	push   $0x98
  302997:	e9 ea 13 00 00       	jmp    303d86 <idt_common>
  30299c:	8d 74 26 00          	lea    0x0(%esi,%eiz,1),%esi
  3029a0:	6a ff                	push   $0xffffffff
  3029a2:	68 99 00 00 00       	push   $0x99
  3029a7:	e9 da 13 00 00       	jmp    303d86 <idt_common>
  3029ac:	8d 74 26 00          	lea    0x0(%esi,%eiz,1),%esi
  3029b0:	6a ff                	push   $0xffffffff
  3029b2:	68 9a 00 00 00       	push   $0x9a
  3029b7:	e9 ca 13 00 00       	jmp    303d86 <idt_common>
  3029bc:	8d 74 26 00          	lea    0x0(%esi,%eiz,1),%esi
  3029c0:	6a ff                	push   $0xffffffff
  3029c2:	68 9b 00 00 00       	push   $0x9b
  3029c7:	e9 ba 13 00 00       	jmp    303d86 <idt_common>
  3029cc:	8d 74 26 00          	lea    0x0(%esi,%eiz,1),%esi
  3029d0:	6a ff                	push   $0xffffffff
  3029d2:	68 9c 00 00 00       	push   $0x9c
  3029d7:	e9 aa 13 00 00       	jmp    303d86 <idt_common>
  3029dc:	8d 74 26 00          	lea    0x0(%esi,%eiz,1),%esi
  3029e0:	6a ff                	push   $0xffffffff
  3029e2:	68 9d 00 00 00       	push   $0x9d
  3029e7:	e9 9a 13 00 00       	jmp    303d86 <idt_common>
  3029ec:	8d 74 26 00          	lea    0x0(%esi,%eiz,1),%esi
  3029f0:	6a ff                	push   $0xffffffff
  3029f2:	68 9e 00 00 00       	push   $0x9e
  3029f7:	e9 8a 13 00 00       	jmp    303d86 <idt_common>
  3029fc:	8d 74 26 00          	lea    0x0(%esi,%eiz,1),%esi
  302a00:	6a ff                	push   $0xffffffff
  302a02:	68 9f 00 00 00       	push   $0x9f
  302a07:	e9 7a 13 00 00       	jmp    303d86 <idt_common>
  302a0c:	8d 74 26 00          	lea    0x0(%esi,%eiz,1),%esi
  302a10:	6a ff                	push   $0xffffffff
  302a12:	68 a0 00 00 00       	push   $0xa0
  302a17:	e9 6a 13 00 00       	jmp    303d86 <idt_common>
  302a1c:	8d 74 26 00          	lea    0x0(%esi,%eiz,1),%esi
  302a20:	6a ff                	push   $0xffffffff
  302a22:	68 a1 00 00 00       	push   $0xa1
  302a27:	e9 5a 13 00 00       	jmp    303d86 <idt_common>
  302a2c:	8d 74 26 00          	lea    0x0(%esi,%eiz,1),%esi
  302a30:	6a ff                	push   $0xffffffff
  302a32:	68 a2 00 00 00       	push   $0xa2
  302a37:	e9 4a 13 00 00       	jmp    303d86 <idt_common>
  302a3c:	8d 74 26 00          	lea    0x0(%esi,%eiz,1),%esi
  302a40:	6a ff                	push   $0xffffffff
  302a42:	68 a3 00 00 00       	push   $0xa3
  302a47:	e9 3a 13 00 00       	jmp    303d86 <idt_common>
  302a4c:	8d 74 26 00          	lea    0x0(%esi,%eiz,1),%esi
  302a50:	6a ff                	push   $0xffffffff
  302a52:	68 a4 00 00 00       	push   $0xa4
  302a57:	e9 2a 13 00 00       	jmp    303d86 <idt_common>
  302a5c:	8d 74 26 00          	lea    0x0(%esi,%eiz,1),%esi
  302a60:	6a ff                	push   $0xffffffff
  302a62:	68 a5 00 00 00       	push   $0xa5
  302a67:	e9 1a 13 00 00       	jmp    303d86 <idt_common>
  302a6c:	8d 74 26 00          	lea    0x0(%esi,%eiz,1),%esi
  302a70:	6a ff                	push   $0xffffffff
  302a72:	68 a6 00 00 00       	push   $0xa6
  302a77:	e9 0a 13 00 00       	jmp    303d86 <idt_common>
  302a7c:	8d 74 26 00          	lea    0x0(%esi,%eiz,1),%esi
  302a80:	6a ff                	push   $0xffffffff
  302a82:	68 a7 00 00 00       	push   $0xa7
  302a87:	e9 fa 12 00 00       	jmp    303d86 <idt_common>
  302a8c:	8d 74 26 00          	lea    0x0(%esi,%eiz,1),%esi
  302a90:	6a ff                	push   $0xffffffff
  302a92:	68 a8 00 00 00       	push   $0xa8
  302a97:	e9 ea 12 00 00       	jmp    303d86 <idt_common>
  302a9c:	8d 74 26 00          	lea    0x0(%esi,%eiz,1),%esi
  302aa0:	6a ff                	push   $0xffffffff
  302aa2:	68 a9 00 00 00       	push   $0xa9
  302aa7:	e9 da 12 00 00       	jmp    303d86 <idt_common>
  302aac:	8d 74 26 00          	lea    0x0(%esi,%eiz,1),%esi
  302ab0:	6a ff                	push   $0xffffffff
  302ab2:	68 aa 00 00 00       	push   $0xaa
  302ab7:	e9 ca 12 00 00       	jmp    303d86 <idt_common>
  302abc:	8d 74 26 00          	lea    0x0(%esi,%eiz,1),%esi
  302ac0:	6a ff                	push   $0xffffffff
  302ac2:	68 ab 00 00 00       	push   $0xab
  302ac7:	e9 ba 12 00 00       	jmp    303d86 <idt_common>
  302acc:	8d 74 26 00          	lea    0x0(%esi,%eiz,1),%esi
  302ad0:	6a ff                	push   $0xffffffff
  302ad2:	68 ac 00 00 00       	push   $0xac
  302ad7:	e9 aa 12 00 00       	jmp    303d86 <idt_common>
  302adc:	8d 74 26 00          	lea    0x0(%esi,%eiz,1),%esi
  302ae0:	6a ff                	push   $0xffffffff
  302ae2:	68 ad 00 00 00       	push   $0xad
  302ae7:	e9 9a 12 00 00       	jmp    303d86 <idt_common>
  302aec:	8d 74 26 00          	lea    0x0(%esi,%eiz,1),%esi
  302af0:	6a ff                	push   $0xffffffff
  302af2:	68 ae 00 00 00       	push   $0xae
  302af7:	e9 8a 12 00 00       	jmp    303d86 <idt_common>
  302afc:	8d 74 26 00          	lea    0x0(%esi,%eiz,1),%esi
  302b00:	6a ff                	push   $0xffffffff
  302b02:	68 af 00 00 00       	push   $0xaf
  302b07:	e9 7a 12 00 00       	jmp    303d86 <idt_common>
  302b0c:	8d 74 26 00          	lea    0x0(%esi,%eiz,1),%esi
  302b10:	6a ff                	push   $0xffffffff
  302b12:	68 b0 00 00 00       	push   $0xb0
  302b17:	e9 6a 12 00 00       	jmp    303d86 <idt_common>
  302b1c:	8d 74 26 00          	lea    0x0(%esi,%eiz,1),%esi
  302b20:	6a ff                	push   $0xffffffff
  302b22:	68 b1 00 00 00       	push   $0xb1
  302b27:	e9 5a 12 00 00       	jmp    303d86 <idt_common>
  302b2c:	8d 74 26 00          	lea    0x0(%esi,%eiz,1),%esi
  302b30:	6a ff                	push   $0xffffffff
  302b32:	68 b2 00 00 00       	push   $0xb2
  302b37:	e9 4a 12 00 00       	jmp    303d86 <idt_common>
  302b3c:	8d 74 26 00          	lea    0x0(%esi,%eiz,1),%esi
  302b40:	6a ff                	push   $0xffffffff
  302b42:	68 b3 00 00 00       	push   $0xb3
  302b47:	e9 3a 12 00 00       	jmp    303d86 <idt_common>
  302b4c:	8d 74 26 00          	lea    0x0(%esi,%eiz,1),%esi
  302b50:	6a ff                	push   $0xffffffff
  302b52:	68 b4 00 00 00       	push   $0xb4
  302b57:	e9 2a 12 00 00       	jmp    303d86 <idt_common>
  302b5c:	8d 74 26 00          	lea    0x0(%esi,%eiz,1),%esi
  302b60:	6a ff                	push   $0xffffffff
  302b62:	68 b5 00 00 00       	push   $0xb5
  302b67:	e9 1a 12 00 00       	jmp    303d86 <idt_common>
  302b6c:	8d 74 26 00          	lea    0x0(%esi,%eiz,1),%esi
  302b70:	6a ff                	push   $0xffffffff
  302b72:	68 b6 00 00 00       	push   $0xb6
  302b77:	e9 0a 12 00 00       	jmp    303d86 <idt_common>
  302b7c:	8d 74 26 00          	lea    0x0(%esi,%eiz,1),%esi
  302b80:	6a ff                	push   $0xffffffff
  302b82:	68 b7 00 00 00       	push   $0xb7
  302b87:	e9 fa 11 00 00       	jmp    303d86 <idt_common>
  302b8c:	8d 74 26 00          	lea    0x0(%esi,%eiz,1),%esi
  302b90:	6a ff                	push   $0xffffffff
  302b92:	68 b8 00 00 00       	push   $0xb8
  302b97:	e9 ea 11 00 00       	jmp    303d86 <idt_common>
  302b9c:	8d 74 26 00          	lea    0x0(%esi,%eiz,1),%esi
  302ba0:	6a ff                	push   $0xffffffff
  302ba2:	68 b9 00 00 00       	push   $0xb9
  302ba7:	e9 da 11 00 00       	jmp    303d86 <idt_common>
  302bac:	8d 74 26 00          	lea    0x0(%esi,%eiz,1),%esi
  302bb0:	6a ff                	push   $0xffffffff
  302bb2:	68 ba 00 00 00       	push   $0xba
  302bb7:	e9 ca 11 00 00       	jmp    303d86 <idt_common>
  302bbc:	8d 74 26 00          	lea    0x0(%esi,%eiz,1),%esi
  302bc0:	6a ff                	push   $0xffffffff
  302bc2:	68 bb 00 00 00       	push   $0xbb
  302bc7:	e9 ba 11 00 00       	jmp    303d86 <idt_common>
  302bcc:	8d 74 26 00          	lea    0x0(%esi,%eiz,1),%esi
  302bd0:	6a ff                	push   $0xffffffff
  302bd2:	68 bc 00 00 00       	push   $0xbc
  302bd7:	e9 aa 11 00 00       	jmp    303d86 <idt_common>
  302bdc:	8d 74 26 00          	lea    0x0(%esi,%eiz,1),%esi
  302be0:	6a ff                	push   $0xffffffff
  302be2:	68 bd 00 00 00       	push   $0xbd
  302be7:	e9 9a 11 00 00       	jmp    303d86 <idt_common>
  302bec:	8d 74 26 00          	lea    0x0(%esi,%eiz,1),%esi
  302bf0:	6a ff                	push   $0xffffffff
  302bf2:	68 be 00 00 00       	push   $0xbe
  302bf7:	e9 8a 11 00 00       	jmp    303d86 <idt_common>
  302bfc:	8d 74 26 00          	lea    0x0(%esi,%eiz,1),%esi
  302c00:	6a ff                	push   $0xffffffff
  302c02:	68 bf 00 00 00       	push   $0xbf
  302c07:	e9 7a 11 00 00       	jmp    303d86 <idt_common>
  302c0c:	8d 74 26 00          	lea    0x0(%esi,%eiz,1),%esi
  302c10:	6a ff                	push   $0xffffffff
  302c12:	68 c0 00 00 00       	push   $0xc0
  302c17:	e9 6a 11 00 00       	jmp    303d86 <idt_common>
  302c1c:	8d 74 26 00          	lea    0x0(%esi,%eiz,1),%esi
  302c20:	6a ff                	push   $0xffffffff
  302c22:	68 c1 00 00 00       	push   $0xc1
  302c27:	e9 5a 11 00 00       	jmp    303d86 <idt_common>
  302c2c:	8d 74 26 00          	lea    0x0(%esi,%eiz,1),%esi
  302c30:	6a ff                	push   $0xffffffff
  302c32:	68 c2 00 00 00       	push   $0xc2
  302c37:	e9 4a 11 00 00       	jmp    303d86 <idt_common>
  302c3c:	8d 74 26 00          	lea    0x0(%esi,%eiz,1),%esi
  302c40:	6a ff                	push   $0xffffffff
  302c42:	68 c3 00 00 00       	push   $0xc3
  302c47:	e9 3a 11 00 00       	jmp    303d86 <idt_common>
  302c4c:	8d 74 26 00          	lea    0x0(%esi,%eiz,1),%esi
  302c50:	6a ff                	push   $0xffffffff
  302c52:	68 c4 00 00 00       	push   $0xc4
  302c57:	e9 2a 11 00 00       	jmp    303d86 <idt_common>
  302c5c:	8d 74 26 00          	lea    0x0(%esi,%eiz,1),%esi
  302c60:	6a ff                	push   $0xffffffff
  302c62:	68 c5 00 00 00       	push   $0xc5
  302c67:	e9 1a 11 00 00       	jmp    303d86 <idt_common>
  302c6c:	8d 74 26 00          	lea    0x0(%esi,%eiz,1),%esi
  302c70:	6a ff                	push   $0xffffffff
  302c72:	68 c6 00 00 00       	push   $0xc6
  302c77:	e9 0a 11 00 00       	jmp    303d86 <idt_common>
  302c7c:	8d 74 26 00          	lea    0x0(%esi,%eiz,1),%esi
  302c80:	6a ff                	push   $0xffffffff
  302c82:	68 c7 00 00 00       	push   $0xc7
  302c87:	e9 fa 10 00 00       	jmp    303d86 <idt_common>
  302c8c:	8d 74 26 00          	lea    0x0(%esi,%eiz,1),%esi
  302c90:	6a ff                	push   $0xffffffff
  302c92:	68 c8 00 00 00       	push   $0xc8
  302c97:	e9 ea 10 00 00       	jmp    303d86 <idt_common>
  302c9c:	8d 74 26 00          	lea    0x0(%esi,%eiz,1),%esi
  302ca0:	6a ff                	push   $0xffffffff
  302ca2:	68 c9 00 00 00       	push   $0xc9
  302ca7:	e9 da 10 00 00       	jmp    303d86 <idt_common>
  302cac:	8d 74 26 00          	lea    0x0(%esi,%eiz,1),%esi
  302cb0:	6a ff                	push   $0xffffffff
  302cb2:	68 ca 00 00 00       	push   $0xca
  302cb7:	e9 ca 10 00 00       	jmp    303d86 <idt_common>
  302cbc:	8d 74 26 00          	lea    0x0(%esi,%eiz,1),%esi
  302cc0:	6a ff                	push   $0xffffffff
  302cc2:	68 cb 00 00 00       	push   $0xcb
  302cc7:	e9 ba 10 00 00       	jmp    303d86 <idt_common>
  302ccc:	8d 74 26 00          	lea    0x0(%esi,%eiz,1),%esi
  302cd0:	6a ff                	push   $0xffffffff
  302cd2:	68 cc 00 00 00       	push   $0xcc
  302cd7:	e9 aa 10 00 00       	jmp    303d86 <idt_common>
  302cdc:	8d 74 26 00          	lea    0x0(%esi,%eiz,1),%esi
  302ce0:	6a ff                	push   $0xffffffff
  302ce2:	68 cd 00 00 00       	push   $0xcd
  302ce7:	e9 9a 10 00 00       	jmp    303d86 <idt_common>
  302cec:	8d 74 26 00          	lea    0x0(%esi,%eiz,1),%esi
  302cf0:	6a ff                	push   $0xffffffff
  302cf2:	68 ce 00 00 00       	push   $0xce
  302cf7:	e9 8a 10 00 00       	jmp    303d86 <idt_common>
  302cfc:	8d 74 26 00          	lea    0x0(%esi,%eiz,1),%esi
  302d00:	6a ff                	push   $0xffffffff
  302d02:	68 cf 00 00 00       	push   $0xcf
  302d07:	e9 7a 10 00 00       	jmp    303d86 <idt_common>
  302d0c:	8d 74 26 00          	lea    0x0(%esi,%eiz,1),%esi
  302d10:	6a ff                	push   $0xffffffff
  302d12:	68 d0 00 00 00       	push   $0xd0
  302d17:	e9 6a 10 00 00       	jmp    303d86 <idt_common>
  302d1c:	8d 74 26 00          	lea    0x0(%esi,%eiz,1),%esi
  302d20:	6a ff                	push   $0xffffffff
  302d22:	68 d1 00 00 00       	push   $0xd1
  302d27:	e9 5a 10 00 00       	jmp    303d86 <idt_common>
  302d2c:	8d 74 26 00          	lea    0x0(%esi,%eiz,1),%esi
  302d30:	6a ff                	push   $0xffffffff
  302d32:	68 d2 00 00 00       	push   $0xd2
  302d37:	e9 4a 10 00 00       	jmp    303d86 <idt_common>
  302d3c:	8d 74 26 00          	lea    0x0(%esi,%eiz,1),%esi
  302d40:	6a ff                	push   $0xffffffff
  302d42:	68 d3 00 00 00       	push   $0xd3
  302d47:	e9 3a 10 00 00       	jmp    303d86 <idt_common>
  302d4c:	8d 74 26 00          	lea    0x0(%esi,%eiz,1),%esi
  302d50:	6a ff                	push   $0xffffffff
  302d52:	68 d4 00 00 00       	push   $0xd4
  302d57:	e9 2a 10 00 00       	jmp    303d86 <idt_common>
  302d5c:	8d 74 26 00          	lea    0x0(%esi,%eiz,1),%esi
  302d60:	6a ff                	push   $0xffffffff
  302d62:	68 d5 00 00 00       	push   $0xd5
  302d67:	e9 1a 10 00 00       	jmp    303d86 <idt_common>
  302d6c:	8d 74 26 00          	lea    0x0(%esi,%eiz,1),%esi
  302d70:	6a ff                	push   $0xffffffff
  302d72:	68 d6 00 00 00       	push   $0xd6
  302d77:	e9 0a 10 00 00       	jmp    303d86 <idt_common>
  302d7c:	8d 74 26 00          	lea    0x0(%esi,%eiz,1),%esi
  302d80:	6a ff                	push   $0xffffffff
  302d82:	68 d7 00 00 00       	push   $0xd7
  302d87:	e9 fa 0f 00 00       	jmp    303d86 <idt_common>
  302d8c:	8d 74 26 00          	lea    0x0(%esi,%eiz,1),%esi
  302d90:	6a ff                	push   $0xffffffff
  302d92:	68 d8 00 00 00       	push   $0xd8
  302d97:	e9 ea 0f 00 00       	jmp    303d86 <idt_common>
  302d9c:	8d 74 26 00          	lea    0x0(%esi,%eiz,1),%esi
  302da0:	6a ff                	push   $0xffffffff
  302da2:	68 d9 00 00 00       	push   $0xd9
  302da7:	e9 da 0f 00 00       	jmp    303d86 <idt_common>
  302dac:	8d 74 26 00          	lea    0x0(%esi,%eiz,1),%esi
  302db0:	6a ff                	push   $0xffffffff
  302db2:	68 da 00 00 00       	push   $0xda
  302db7:	e9 ca 0f 00 00       	jmp    303d86 <idt_common>
  302dbc:	8d 74 26 00          	lea    0x0(%esi,%eiz,1),%esi
  302dc0:	6a ff                	push   $0xffffffff
  302dc2:	68 db 00 00 00       	push   $0xdb
  302dc7:	e9 ba 0f 00 00       	jmp    303d86 <idt_common>
  302dcc:	8d 74 26 00          	lea    0x0(%esi,%eiz,1),%esi
  302dd0:	6a ff                	push   $0xffffffff
  302dd2:	68 dc 00 00 00       	push   $0xdc
  302dd7:	e9 aa 0f 00 00       	jmp    303d86 <idt_common>
  302ddc:	8d 74 26 00          	lea    0x0(%esi,%eiz,1),%esi
  302de0:	6a ff                	push   $0xffffffff
  302de2:	68 dd 00 00 00       	push   $0xdd
  302de7:	e9 9a 0f 00 00       	jmp    303d86 <idt_common>
  302dec:	8d 74 26 00          	lea    0x0(%esi,%eiz,1),%esi
  302df0:	6a ff                	push   $0xffffffff
  302df2:	68 de 00 00 00       	push   $0xde
  302df7:	e9 8a 0f 00 00       	jmp    303d86 <idt_common>
  302dfc:	8d 74 26 00          	lea    0x0(%esi,%eiz,1),%esi
  302e00:	6a ff                	push   $0xffffffff
  302e02:	68 df 00 00 00       	push   $0xdf
  302e07:	e9 7a 0f 00 00       	jmp    303d86 <idt_common>
  302e0c:	8d 74 26 00          	lea    0x0(%esi,%eiz,1),%esi
  302e10:	6a ff                	push   $0xffffffff
  302e12:	68 e0 00 00 00       	push   $0xe0
  302e17:	e9 6a 0f 00 00       	jmp    303d86 <idt_common>
  302e1c:	8d 74 26 00          	lea    0x0(%esi,%eiz,1),%esi
  302e20:	6a ff                	push   $0xffffffff
  302e22:	68 e1 00 00 00       	push   $0xe1
  302e27:	e9 5a 0f 00 00       	jmp    303d86 <idt_common>
  302e2c:	8d 74 26 00          	lea    0x0(%esi,%eiz,1),%esi
  302e30:	6a ff                	push   $0xffffffff
  302e32:	68 e2 00 00 00       	push   $0xe2
  302e37:	e9 4a 0f 00 00       	jmp    303d86 <idt_common>
  302e3c:	8d 74 26 00          	lea    0x0(%esi,%eiz,1),%esi
  302e40:	6a ff                	push   $0xffffffff
  302e42:	68 e3 00 00 00       	push   $0xe3
  302e47:	e9 3a 0f 00 00       	jmp    303d86 <idt_common>
  302e4c:	8d 74 26 00          	lea    0x0(%esi,%eiz,1),%esi
  302e50:	6a ff                	push   $0xffffffff
  302e52:	68 e4 00 00 00       	push   $0xe4
  302e57:	e9 2a 0f 00 00       	jmp    303d86 <idt_common>
  302e5c:	8d 74 26 00          	lea    0x0(%esi,%eiz,1),%esi
  302e60:	6a ff                	push   $0xffffffff
  302e62:	68 e5 00 00 00       	push   $0xe5
  302e67:	e9 1a 0f 00 00       	jmp    303d86 <idt_common>
  302e6c:	8d 74 26 00          	lea    0x0(%esi,%eiz,1),%esi
  302e70:	6a ff                	push   $0xffffffff
  302e72:	68 e6 00 00 00       	push   $0xe6
  302e77:	e9 0a 0f 00 00       	jmp    303d86 <idt_common>
  302e7c:	8d 74 26 00          	lea    0x0(%esi,%eiz,1),%esi
  302e80:	6a ff                	push   $0xffffffff
  302e82:	68 e7 00 00 00       	push   $0xe7
  302e87:	e9 fa 0e 00 00       	jmp    303d86 <idt_common>
  302e8c:	8d 74 26 00          	lea    0x0(%esi,%eiz,1),%esi
  302e90:	6a ff                	push   $0xffffffff
  302e92:	68 e8 00 00 00       	push   $0xe8
  302e97:	e9 ea 0e 00 00       	jmp    303d86 <idt_common>
  302e9c:	8d 74 26 00          	lea    0x0(%esi,%eiz,1),%esi
  302ea0:	6a ff                	push   $0xffffffff
  302ea2:	68 e9 00 00 00       	push   $0xe9
  302ea7:	e9 da 0e 00 00       	jmp    303d86 <idt_common>
  302eac:	8d 74 26 00          	lea    0x0(%esi,%eiz,1),%esi
  302eb0:	6a ff                	push   $0xffffffff
  302eb2:	68 ea 00 00 00       	push   $0xea
  302eb7:	e9 ca 0e 00 00       	jmp    303d86 <idt_common>
  302ebc:	8d 74 26 00          	lea    0x0(%esi,%eiz,1),%esi
  302ec0:	6a ff                	push   $0xffffffff
  302ec2:	68 eb 00 00 00       	push   $0xeb
  302ec7:	e9 ba 0e 00 00       	jmp    303d86 <idt_common>
  302ecc:	8d 74 26 00          	lea    0x0(%esi,%eiz,1),%esi
  302ed0:	6a ff                	push   $0xffffffff
  302ed2:	68 ec 00 00 00       	push   $0xec
  302ed7:	e9 aa 0e 00 00       	jmp    303d86 <idt_common>
  302edc:	8d 74 26 00          	lea    0x0(%esi,%eiz,1),%esi
  302ee0:	6a ff                	push   $0xffffffff
  302ee2:	68 ed 00 00 00       	push   $0xed
  302ee7:	e9 9a 0e 00 00       	jmp    303d86 <idt_common>
  302eec:	8d 74 26 00          	lea    0x0(%esi,%eiz,1),%esi
  302ef0:	6a ff                	push   $0xffffffff
  302ef2:	68 ee 00 00 00       	push   $0xee
  302ef7:	e9 8a 0e 00 00       	jmp    303d86 <idt_common>
  302efc:	8d 74 26 00          	lea    0x0(%esi,%eiz,1),%esi
  302f00:	6a ff                	push   $0xffffffff
  302f02:	68 ef 00 00 00       	push   $0xef
  302f07:	e9 7a 0e 00 00       	jmp    303d86 <idt_common>
  302f0c:	8d 74 26 00          	lea    0x0(%esi,%eiz,1),%esi
  302f10:	6a ff                	push   $0xffffffff
  302f12:	68 f0 00 00 00       	push   $0xf0
  302f17:	e9 6a 0e 00 00       	jmp    303d86 <idt_common>
  302f1c:	8d 74 26 00          	lea    0x0(%esi,%eiz,1),%esi
  302f20:	6a ff                	push   $0xffffffff
  302f22:	68 f1 00 00 00       	push   $0xf1
  302f27:	e9 5a 0e 00 00       	jmp    303d86 <idt_common>
  302f2c:	8d 74 26 00          	lea    0x0(%esi,%eiz,1),%esi
  302f30:	6a ff                	push   $0xffffffff
  302f32:	68 f2 00 00 00       	push   $0xf2
  302f37:	e9 4a 0e 00 00       	jmp    303d86 <idt_common>
  302f3c:	8d 74 26 00          	lea    0x0(%esi,%eiz,1),%esi
  302f40:	6a ff                	push   $0xffffffff
  302f42:	68 f3 00 00 00       	push   $0xf3
  302f47:	e9 3a 0e 00 00       	jmp    303d86 <idt_common>
  302f4c:	8d 74 26 00          	lea    0x0(%esi,%eiz,1),%esi
  302f50:	6a ff                	push   $0xffffffff
  302f52:	68 f4 00 00 00       	push   $0xf4
  302f57:	e9 2a 0e 00 00       	jmp    303d86 <idt_common>
  302f5c:	8d 74 26 00          	lea    0x0(%esi,%eiz,1),%esi
  302f60:	6a ff                	push   $0xffffffff
  302f62:	68 f5 00 00 00       	push   $0xf5
  302f67:	e9 1a 0e 00 00       	jmp    303d86 <idt_common>
  302f6c:	8d 74 26 00          	lea    0x0(%esi,%eiz,1),%esi
  302f70:	6a ff                	push   $0xffffffff
  302f72:	68 f6 00 00 00       	push   $0xf6
  302f77:	e9 0a 0e 00 00       	jmp    303d86 <idt_common>
  302f7c:	8d 74 26 00          	lea    0x0(%esi,%eiz,1),%esi
  302f80:	6a ff                	push   $0xffffffff
  302f82:	68 f7 00 00 00       	push   $0xf7
  302f87:	e9 fa 0d 00 00       	jmp    303d86 <idt_common>
  302f8c:	8d 74 26 00          	lea    0x0(%esi,%eiz,1),%esi
  302f90:	6a ff                	push   $0xffffffff
  302f92:	68 f8 00 00 00       	push   $0xf8
  302f97:	e9 ea 0d 00 00       	jmp    303d86 <idt_common>
  302f9c:	8d 74 26 00          	lea    0x0(%esi,%eiz,1),%esi
  302fa0:	6a ff                	push   $0xffffffff
  302fa2:	68 f9 00 00 00       	push   $0xf9
  302fa7:	e9 da 0d 00 00       	jmp    303d86 <idt_common>
  302fac:	8d 74 26 00          	lea    0x0(%esi,%eiz,1),%esi
  302fb0:	6a ff                	push   $0xffffffff
  302fb2:	68 fa 00 00 00       	push   $0xfa
  302fb7:	e9 ca 0d 00 00       	jmp    303d86 <idt_common>
  302fbc:	8d 74 26 00          	lea    0x0(%esi,%eiz,1),%esi
  302fc0:	6a ff                	push   $0xffffffff
  302fc2:	68 fb 00 00 00       	push   $0xfb
  302fc7:	e9 ba 0d 00 00       	jmp    303d86 <idt_common>
  302fcc:	8d 74 26 00          	lea    0x0(%esi,%eiz,1),%esi
  302fd0:	6a ff                	push   $0xffffffff
  302fd2:	68 fc 00 00 00       	push   $0xfc
  302fd7:	e9 aa 0d 00 00       	jmp    303d86 <idt_common>
  302fdc:	8d 74 26 00          	lea    0x0(%esi,%eiz,1),%esi
  302fe0:	6a ff                	push   $0xffffffff
  302fe2:	68 fd 00 00 00       	push   $0xfd
  302fe7:	e9 9a 0d 00 00       	jmp    303d86 <idt_common>
  302fec:	8d 74 26 00          	lea    0x0(%esi,%eiz,1),%esi
  302ff0:	6a ff                	push   $0xffffffff
  302ff2:	68 fe 00 00 00       	push   $0xfe
  302ff7:	e9 8a 0d 00 00       	jmp    303d86 <idt_common>
  302ffc:	8d 74 26 00          	lea    0x0(%esi,%eiz,1),%esi
  303000:	6a ff                	push   $0xffffffff
  303002:	68 ff 00 00 00       	push   $0xff
  303007:	e9 7a 0d 00 00       	jmp    303d86 <idt_common>

Déassemblage de la section .text :

00303010 <entry>:
  303010:	fa                   	cli
  303011:	bc 10 20 30 00       	mov    $0x302010,%esp
  303016:	6a 00                	push   $0x0
  303018:	9d                   	popf
  303019:	89 d8                	mov    %ebx,%eax
  30301b:	e8 03 00 00 00       	call   303023 <start>

00303020 <halt>:
  303020:	f4                   	hlt
  303021:	eb fd                	jmp    303020 <halt>

00303023 <start>:
  303023:	55                   	push   %ebp
  303024:	89 e5                	mov    %esp,%ebp
  303026:	83 ec 18             	sub    $0x18,%esp
  303029:	89 45 f4             	mov    %eax,-0xc(%ebp)
  30302c:	a1 00 49 30 00       	mov    0x304900,%eax
  303031:	8b 55 f4             	mov    -0xc(%ebp),%edx
  303034:	89 10                	mov    %edx,(%eax)
  303036:	e8 09 0b 00 00       	call   303b44 <pic_init>
  30303b:	e8 8a 09 00 00       	call   3039ca <uart_init>
  303040:	e8 87 0b 00 00       	call   303bcc <intr_init>
  303045:	83 ec 0c             	sub    $0xc,%esp
  303048:	68 90 45 30 00       	push   $0x304590
  30304d:	e8 7e 00 00 00       	call   3030d0 <printf>
  303052:	83 c4 10             	add    $0x10,%esp
  303055:	e8 37 0f 00 00       	call   303f91 <tp>
  30305a:	83 ec 0c             	sub    $0xc,%esp
  30305d:	68 b3 45 30 00       	push   $0x3045b3
  303062:	e8 41 00 00 00       	call   3030a8 <panic>
  303067:	83 c4 10             	add    $0x10,%esp
  30306a:	90                   	nop
  30306b:	c9                   	leave
  30306c:	c3                   	ret

0030306d <__buf_add>:
  30306d:	55                   	push   %ebp
  30306e:	89 e5                	mov    %esp,%ebp
  303070:	53                   	push   %ebx
  303071:	83 ec 04             	sub    $0x4,%esp
  303074:	8b 45 10             	mov    0x10(%ebp),%eax
  303077:	88 45 f8             	mov    %al,-0x8(%ebp)
  30307a:	8b 45 08             	mov    0x8(%ebp),%eax
  30307d:	8b 40 08             	mov    0x8(%eax),%eax
  303080:	3b 45 0c             	cmp    0xc(%ebp),%eax
  303083:	73 1d                	jae    3030a2 <__buf_add+0x35>
  303085:	8b 45 08             	mov    0x8(%ebp),%eax
  303088:	8b 18                	mov    (%eax),%ebx
  30308a:	8b 45 08             	mov    0x8(%ebp),%eax
  30308d:	8b 40 08             	mov    0x8(%eax),%eax
  303090:	8d 48 01             	lea    0x1(%eax),%ecx
  303093:	8b 55 08             	mov    0x8(%ebp),%edx
  303096:	89 4a 08             	mov    %ecx,0x8(%edx)
  303099:	8d 14 03             	lea    (%ebx,%eax,1),%edx
  30309c:	0f b6 45 f8          	movzbl -0x8(%ebp),%eax
  3030a0:	88 02                	mov    %al,(%edx)
  3030a2:	90                   	nop
  3030a3:	8b 5d fc             	mov    -0x4(%ebp),%ebx
  3030a6:	c9                   	leave
  3030a7:	c3                   	ret

003030a8 <panic>:
  3030a8:	55                   	push   %ebp
  3030a9:	89 e5                	mov    %esp,%ebp
  3030ab:	83 ec 18             	sub    $0x18,%esp
  3030ae:	fa                   	cli
  3030af:	8d 45 0c             	lea    0xc(%ebp),%eax
  3030b2:	89 45 f4             	mov    %eax,-0xc(%ebp)
  3030b5:	8b 45 f4             	mov    -0xc(%ebp),%eax
  3030b8:	83 ec 08             	sub    $0x8,%esp
  3030bb:	50                   	push   %eax
  3030bc:	ff 75 08             	push   0x8(%ebp)
  3030bf:	e8 5b 00 00 00       	call   30311f <__vprintf>
  3030c4:	83 c4 10             	add    $0x10,%esp
  3030c7:	e8 37 0a 00 00       	call   303b03 <uart_flush>
  3030cc:	fa                   	cli
  3030cd:	f4                   	hlt
  3030ce:	eb fc                	jmp    3030cc <panic+0x24>

003030d0 <printf>:
  3030d0:	55                   	push   %ebp
  3030d1:	89 e5                	mov    %esp,%ebp
  3030d3:	83 ec 18             	sub    $0x18,%esp
  3030d6:	8d 45 0c             	lea    0xc(%ebp),%eax
  3030d9:	89 45 f0             	mov    %eax,-0x10(%ebp)
  3030dc:	8b 45 f0             	mov    -0x10(%ebp),%eax
  3030df:	83 ec 08             	sub    $0x8,%esp
  3030e2:	50                   	push   %eax
  3030e3:	ff 75 08             	push   0x8(%ebp)
  3030e6:	e8 34 00 00 00       	call   30311f <__vprintf>
  3030eb:	83 c4 10             	add    $0x10,%esp
  3030ee:	89 45 f4             	mov    %eax,-0xc(%ebp)
  3030f1:	8b 45 f4             	mov    -0xc(%ebp),%eax
  3030f4:	c9                   	leave
  3030f5:	c3                   	ret

003030f6 <snprintf>:
  3030f6:	55                   	push   %ebp
  3030f7:	89 e5                	mov    %esp,%ebp
  3030f9:	83 ec 18             	sub    $0x18,%esp
  3030fc:	8d 45 14             	lea    0x14(%ebp),%eax
  3030ff:	89 45 f0             	mov    %eax,-0x10(%ebp)
  303102:	8b 45 f0             	mov    -0x10(%ebp),%eax
  303105:	50                   	push   %eax
  303106:	ff 75 10             	push   0x10(%ebp)
  303109:	ff 75 0c             	push   0xc(%ebp)
  30310c:	ff 75 08             	push   0x8(%ebp)
  30310f:	e8 88 03 00 00       	call   30349c <__vsnprintf>
  303114:	83 c4 10             	add    $0x10,%esp
  303117:	89 45 f4             	mov    %eax,-0xc(%ebp)
  30311a:	8b 45 f4             	mov    -0xc(%ebp),%eax
  30311d:	c9                   	leave
  30311e:	c3                   	ret

0030311f <__vprintf>:
  30311f:	55                   	push   %ebp
  303120:	89 e5                	mov    %esp,%ebp
  303122:	83 ec 18             	sub    $0x18,%esp
  303125:	ff 75 0c             	push   0xc(%ebp)
  303128:	ff 75 08             	push   0x8(%ebp)
  30312b:	68 00 04 00 00       	push   $0x400
  303130:	68 a0 49 30 00       	push   $0x3049a0
  303135:	e8 62 03 00 00       	call   30349c <__vsnprintf>
  30313a:	83 c4 10             	add    $0x10,%esp
  30313d:	89 45 f4             	mov    %eax,-0xc(%ebp)
  303140:	8b 45 f4             	mov    -0xc(%ebp),%eax
  303143:	83 e8 01             	sub    $0x1,%eax
  303146:	83 ec 08             	sub    $0x8,%esp
  303149:	50                   	push   %eax
  30314a:	68 a0 49 30 00       	push   $0x3049a0
  30314f:	e8 83 09 00 00       	call   303ad7 <uart_write>
  303154:	83 c4 10             	add    $0x10,%esp
  303157:	8b 45 f4             	mov    -0xc(%ebp),%eax
  30315a:	c9                   	leave
  30315b:	c3                   	ret

0030315c <__format_add_str>:
  30315c:	55                   	push   %ebp
  30315d:	89 e5                	mov    %esp,%ebp
  30315f:	eb 1e                	jmp    30317f <__format_add_str+0x23>
  303161:	8b 45 10             	mov    0x10(%ebp),%eax
  303164:	8d 50 01             	lea    0x1(%eax),%edx
  303167:	89 55 10             	mov    %edx,0x10(%ebp)
  30316a:	0f b6 00             	movzbl (%eax),%eax
  30316d:	0f be c0             	movsbl %al,%eax
  303170:	50                   	push   %eax
  303171:	ff 75 0c             	push   0xc(%ebp)
  303174:	ff 75 08             	push   0x8(%ebp)
  303177:	e8 f1 fe ff ff       	call   30306d <__buf_add>
  30317c:	83 c4 0c             	add    $0xc,%esp
  30317f:	8b 45 10             	mov    0x10(%ebp),%eax
  303182:	0f b6 00             	movzbl (%eax),%eax
  303185:	84 c0                	test   %al,%al
  303187:	75 d8                	jne    303161 <__format_add_str+0x5>
  303189:	90                   	nop
  30318a:	90                   	nop
  30318b:	c9                   	leave
  30318c:	c3                   	ret

0030318d <__format_add_chr>:
  30318d:	55                   	push   %ebp
  30318e:	89 e5                	mov    %esp,%ebp
  303190:	8b 45 10             	mov    0x10(%ebp),%eax
  303193:	0f be c0             	movsbl %al,%eax
  303196:	50                   	push   %eax
  303197:	ff 75 0c             	push   0xc(%ebp)
  30319a:	ff 75 08             	push   0x8(%ebp)
  30319d:	e8 cb fe ff ff       	call   30306d <__buf_add>
  3031a2:	83 c4 0c             	add    $0xc,%esp
  3031a5:	90                   	nop
  3031a6:	c9                   	leave
  3031a7:	c3                   	ret

003031a8 <__format_add_bin>:
  3031a8:	55                   	push   %ebp
  3031a9:	89 e5                	mov    %esp,%ebp
  3031ab:	83 ec 18             	sub    $0x18,%esp
  3031ae:	8b 45 10             	mov    0x10(%ebp),%eax
  3031b1:	89 45 e8             	mov    %eax,-0x18(%ebp)
  3031b4:	8b 45 14             	mov    0x14(%ebp),%eax
  3031b7:	89 45 ec             	mov    %eax,-0x14(%ebp)
  3031ba:	c7 45 fc 00 00 00 00 	movl   $0x0,-0x4(%ebp)
  3031c1:	eb 48                	jmp    30320b <__format_add_bin+0x63>
  3031c3:	8b 45 18             	mov    0x18(%ebp),%eax
  3031c6:	2b 45 fc             	sub    -0x4(%ebp),%eax
  3031c9:	8d 48 ff             	lea    -0x1(%eax),%ecx
  3031cc:	8b 45 e8             	mov    -0x18(%ebp),%eax
  3031cf:	8b 55 ec             	mov    -0x14(%ebp),%edx
  3031d2:	0f ad d0             	shrd   %cl,%edx,%eax
  3031d5:	d3 ea                	shr    %cl,%edx
  3031d7:	f6 c1 20             	test   $0x20,%cl
  3031da:	74 04                	je     3031e0 <__format_add_bin+0x38>
  3031dc:	89 d0                	mov    %edx,%eax
  3031de:	31 d2                	xor    %edx,%edx
  3031e0:	83 e0 01             	and    $0x1,%eax
  3031e3:	89 45 f8             	mov    %eax,-0x8(%ebp)
  3031e6:	83 7d f8 00          	cmpl   $0x0,-0x8(%ebp)
  3031ea:	74 07                	je     3031f3 <__format_add_bin+0x4b>
  3031ec:	b8 31 00 00 00       	mov    $0x31,%eax
  3031f1:	eb 05                	jmp    3031f8 <__format_add_bin+0x50>
  3031f3:	b8 30 00 00 00       	mov    $0x30,%eax
  3031f8:	50                   	push   %eax
  3031f9:	ff 75 0c             	push   0xc(%ebp)
  3031fc:	ff 75 08             	push   0x8(%ebp)
  3031ff:	e8 69 fe ff ff       	call   30306d <__buf_add>
  303204:	83 c4 0c             	add    $0xc,%esp
  303207:	83 45 fc 01          	addl   $0x1,-0x4(%ebp)
  30320b:	8b 45 fc             	mov    -0x4(%ebp),%eax
  30320e:	3b 45 18             	cmp    0x18(%ebp),%eax
  303211:	72 b0                	jb     3031c3 <__format_add_bin+0x1b>
  303213:	90                   	nop
  303214:	90                   	nop
  303215:	c9                   	leave
  303216:	c3                   	ret

00303217 <__format_add_idec>:
  303217:	55                   	push   %ebp
  303218:	89 e5                	mov    %esp,%ebp
  30321a:	53                   	push   %ebx
  30321b:	83 ec 44             	sub    $0x44,%esp
  30321e:	8b 45 10             	mov    0x10(%ebp),%eax
  303221:	89 45 c0             	mov    %eax,-0x40(%ebp)
  303224:	8b 45 14             	mov    0x14(%ebp),%eax
  303227:	89 45 c4             	mov    %eax,-0x3c(%ebp)
  30322a:	8b 45 c0             	mov    -0x40(%ebp),%eax
  30322d:	0b 45 c4             	or     -0x3c(%ebp),%eax
  303230:	75 15                	jne    303247 <__format_add_idec+0x30>
  303232:	6a 30                	push   $0x30
  303234:	ff 75 0c             	push   0xc(%ebp)
  303237:	ff 75 08             	push   0x8(%ebp)
  30323a:	e8 2e fe ff ff       	call   30306d <__buf_add>
  30323f:	83 c4 0c             	add    $0xc,%esp
  303242:	e9 a9 00 00 00       	jmp    3032f0 <__format_add_idec+0xd9>
  303247:	8d 45 e0             	lea    -0x20(%ebp),%eax
  30324a:	89 45 d4             	mov    %eax,-0x2c(%ebp)
  30324d:	c7 45 dc 00 00 00 00 	movl   $0x0,-0x24(%ebp)
  303254:	83 7d c4 00          	cmpl   $0x0,-0x3c(%ebp)
  303258:	79 5f                	jns    3032b9 <__format_add_idec+0xa2>
  30325a:	6a 2d                	push   $0x2d
  30325c:	ff 75 0c             	push   0xc(%ebp)
  30325f:	ff 75 08             	push   0x8(%ebp)
  303262:	e8 06 fe ff ff       	call   30306d <__buf_add>
  303267:	83 c4 0c             	add    $0xc,%esp
  30326a:	f7 5d c0             	negl   -0x40(%ebp)
  30326d:	83 55 c4 00          	adcl   $0x0,-0x3c(%ebp)
  303271:	f7 5d c4             	negl   -0x3c(%ebp)
  303274:	eb 43                	jmp    3032b9 <__format_add_idec+0xa2>
  303276:	8b 45 c0             	mov    -0x40(%ebp),%eax
  303279:	8b 55 c4             	mov    -0x3c(%ebp),%edx
  30327c:	6a 00                	push   $0x0
  30327e:	6a 0a                	push   $0xa
  303280:	52                   	push   %edx
  303281:	50                   	push   %eax
  303282:	e8 09 0f 00 00       	call   304190 <__moddi3>
  303287:	83 c4 10             	add    $0x10,%esp
  30328a:	8d 58 30             	lea    0x30(%eax),%ebx
  30328d:	8b 4d d4             	mov    -0x2c(%ebp),%ecx
  303290:	8b 45 dc             	mov    -0x24(%ebp),%eax
  303293:	8d 50 01             	lea    0x1(%eax),%edx
  303296:	89 55 dc             	mov    %edx,-0x24(%ebp)
  303299:	01 c8                	add    %ecx,%eax
  30329b:	89 da                	mov    %ebx,%edx
  30329d:	88 10                	mov    %dl,(%eax)
  30329f:	8b 45 c0             	mov    -0x40(%ebp),%eax
  3032a2:	8b 55 c4             	mov    -0x3c(%ebp),%edx
  3032a5:	6a 00                	push   $0x0
  3032a7:	6a 0a                	push   $0xa
  3032a9:	52                   	push   %edx
  3032aa:	50                   	push   %eax
  3032ab:	e8 a0 0d 00 00       	call   304050 <__divdi3>
  3032b0:	83 c4 10             	add    $0x10,%esp
  3032b3:	89 45 c0             	mov    %eax,-0x40(%ebp)
  3032b6:	89 55 c4             	mov    %edx,-0x3c(%ebp)
  3032b9:	8b 45 c0             	mov    -0x40(%ebp),%eax
  3032bc:	0b 45 c4             	or     -0x3c(%ebp),%eax
  3032bf:	75 b5                	jne    303276 <__format_add_idec+0x5f>
  3032c1:	eb 20                	jmp    3032e3 <__format_add_idec+0xcc>
  3032c3:	8b 55 d4             	mov    -0x2c(%ebp),%edx
  3032c6:	8b 45 dc             	mov    -0x24(%ebp),%eax
  3032c9:	01 d0                	add    %edx,%eax
  3032cb:	0f b6 00             	movzbl (%eax),%eax
  3032ce:	0f be c0             	movsbl %al,%eax
  3032d1:	83 ec 04             	sub    $0x4,%esp
  3032d4:	50                   	push   %eax
  3032d5:	ff 75 0c             	push   0xc(%ebp)
  3032d8:	ff 75 08             	push   0x8(%ebp)
  3032db:	e8 8d fd ff ff       	call   30306d <__buf_add>
  3032e0:	83 c4 10             	add    $0x10,%esp
  3032e3:	8b 45 dc             	mov    -0x24(%ebp),%eax
  3032e6:	8d 50 ff             	lea    -0x1(%eax),%edx
  3032e9:	89 55 dc             	mov    %edx,-0x24(%ebp)
  3032ec:	85 c0                	test   %eax,%eax
  3032ee:	75 d3                	jne    3032c3 <__format_add_idec+0xac>
  3032f0:	8b 5d fc             	mov    -0x4(%ebp),%ebx
  3032f3:	c9                   	leave
  3032f4:	c3                   	ret

003032f5 <__format_add_udec>:
  3032f5:	55                   	push   %ebp
  3032f6:	89 e5                	mov    %esp,%ebp
  3032f8:	53                   	push   %ebx
  3032f9:	83 ec 44             	sub    $0x44,%esp
  3032fc:	8b 45 10             	mov    0x10(%ebp),%eax
  3032ff:	89 45 c0             	mov    %eax,-0x40(%ebp)
  303302:	8b 45 14             	mov    0x14(%ebp),%eax
  303305:	89 45 c4             	mov    %eax,-0x3c(%ebp)
  303308:	8b 45 c0             	mov    -0x40(%ebp),%eax
  30330b:	0b 45 c4             	or     -0x3c(%ebp),%eax
  30330e:	75 15                	jne    303325 <__format_add_udec+0x30>
  303310:	6a 30                	push   $0x30
  303312:	ff 75 0c             	push   0xc(%ebp)
  303315:	ff 75 08             	push   0x8(%ebp)
  303318:	e8 50 fd ff ff       	call   30306d <__buf_add>
  30331d:	83 c4 0c             	add    $0xc,%esp
  303320:	e9 89 00 00 00       	jmp    3033ae <__format_add_udec+0xb9>
  303325:	8d 45 e0             	lea    -0x20(%ebp),%eax
  303328:	89 45 d4             	mov    %eax,-0x2c(%ebp)
  30332b:	c7 45 dc 00 00 00 00 	movl   $0x0,-0x24(%ebp)
  303332:	eb 43                	jmp    303377 <__format_add_udec+0x82>
  303334:	8b 45 c0             	mov    -0x40(%ebp),%eax
  303337:	8b 55 c4             	mov    -0x3c(%ebp),%edx
  30333a:	6a 00                	push   $0x0
  30333c:	6a 0a                	push   $0xa
  30333e:	52                   	push   %edx
  30333f:	50                   	push   %eax
  303340:	e8 0b 11 00 00       	call   304450 <__umoddi3>
  303345:	83 c4 10             	add    $0x10,%esp
  303348:	8d 58 30             	lea    0x30(%eax),%ebx
  30334b:	8b 4d d4             	mov    -0x2c(%ebp),%ecx
  30334e:	8b 45 dc             	mov    -0x24(%ebp),%eax
  303351:	8d 50 01             	lea    0x1(%eax),%edx
  303354:	89 55 dc             	mov    %edx,-0x24(%ebp)
  303357:	01 c8                	add    %ecx,%eax
  303359:	89 da                	mov    %ebx,%edx
  30335b:	88 10                	mov    %dl,(%eax)
  30335d:	8b 45 c0             	mov    -0x40(%ebp),%eax
  303360:	8b 55 c4             	mov    -0x3c(%ebp),%edx
  303363:	6a 00                	push   $0x0
  303365:	6a 0a                	push   $0xa
  303367:	52                   	push   %edx
  303368:	50                   	push   %eax
  303369:	e8 c2 0f 00 00       	call   304330 <__udivdi3>
  30336e:	83 c4 10             	add    $0x10,%esp
  303371:	89 45 c0             	mov    %eax,-0x40(%ebp)
  303374:	89 55 c4             	mov    %edx,-0x3c(%ebp)
  303377:	8b 45 c0             	mov    -0x40(%ebp),%eax
  30337a:	0b 45 c4             	or     -0x3c(%ebp),%eax
  30337d:	75 b5                	jne    303334 <__format_add_udec+0x3f>
  30337f:	eb 20                	jmp    3033a1 <__format_add_udec+0xac>
  303381:	8b 55 d4             	mov    -0x2c(%ebp),%edx
  303384:	8b 45 dc             	mov    -0x24(%ebp),%eax
  303387:	01 d0                	add    %edx,%eax
  303389:	0f b6 00             	movzbl (%eax),%eax
  30338c:	0f be c0             	movsbl %al,%eax
  30338f:	83 ec 04             	sub    $0x4,%esp
  303392:	50                   	push   %eax
  303393:	ff 75 0c             	push   0xc(%ebp)
  303396:	ff 75 08             	push   0x8(%ebp)
  303399:	e8 cf fc ff ff       	call   30306d <__buf_add>
  30339e:	83 c4 10             	add    $0x10,%esp
  3033a1:	8b 45 dc             	mov    -0x24(%ebp),%eax
  3033a4:	8d 50 ff             	lea    -0x1(%eax),%edx
  3033a7:	89 55 dc             	mov    %edx,-0x24(%ebp)
  3033aa:	85 c0                	test   %eax,%eax
  3033ac:	75 d3                	jne    303381 <__format_add_udec+0x8c>
  3033ae:	8b 5d fc             	mov    -0x4(%ebp),%ebx
  3033b1:	c9                   	leave
  3033b2:	c3                   	ret

003033b3 <uint64_to_hex>:
  3033b3:	55                   	push   %ebp
  3033b4:	89 e5                	mov    %esp,%ebp
  3033b6:	83 ec 28             	sub    $0x28,%esp
  3033b9:	8b 45 10             	mov    0x10(%ebp),%eax
  3033bc:	89 45 d8             	mov    %eax,-0x28(%ebp)
  3033bf:	8b 45 14             	mov    0x14(%ebp),%eax
  3033c2:	89 45 dc             	mov    %eax,-0x24(%ebp)
  3033c5:	c7 45 fc 00 00 00 00 	movl   $0x0,-0x4(%ebp)
  3033cc:	83 7d 18 00          	cmpl   $0x0,0x18(%ebp)
  3033d0:	74 06                	je     3033d8 <uint64_to_hex+0x25>
  3033d2:	83 7d 18 10          	cmpl   $0x10,0x18(%ebp)
  3033d6:	76 44                	jbe    30341c <uint64_to_hex+0x69>
  3033d8:	c7 45 18 ff ff ff ff 	movl   $0xffffffff,0x18(%ebp)
  3033df:	eb 3b                	jmp    30341c <uint64_to_hex+0x69>
  3033e1:	8b 45 d8             	mov    -0x28(%ebp),%eax
  3033e4:	8b 55 dc             	mov    -0x24(%ebp),%edx
  3033e7:	83 e0 0f             	and    $0xf,%eax
  3033ea:	ba 00 00 00 00       	mov    $0x0,%edx
  3033ef:	05 04 49 30 00       	add    $0x304904,%eax
  3033f4:	0f b6 00             	movzbl (%eax),%eax
  3033f7:	8d 4d e8             	lea    -0x18(%ebp),%ecx
  3033fa:	8b 55 fc             	mov    -0x4(%ebp),%edx
  3033fd:	01 ca                	add    %ecx,%edx
  3033ff:	88 02                	mov    %al,(%edx)
  303401:	8b 45 d8             	mov    -0x28(%ebp),%eax
  303404:	8b 55 dc             	mov    -0x24(%ebp),%edx
  303407:	0f ac d0 04          	shrd   $0x4,%edx,%eax
  30340b:	c1 ea 04             	shr    $0x4,%edx
  30340e:	89 45 d8             	mov    %eax,-0x28(%ebp)
  303411:	89 55 dc             	mov    %edx,-0x24(%ebp)
  303414:	83 45 fc 01          	addl   $0x1,-0x4(%ebp)
  303418:	83 6d 18 01          	subl   $0x1,0x18(%ebp)
  30341c:	83 7d 18 00          	cmpl   $0x0,0x18(%ebp)
  303420:	74 14                	je     303436 <uint64_to_hex+0x83>
  303422:	83 7d 18 10          	cmpl   $0x10,0x18(%ebp)
  303426:	76 b9                	jbe    3033e1 <uint64_to_hex+0x2e>
  303428:	8b 45 d8             	mov    -0x28(%ebp),%eax
  30342b:	0b 45 dc             	or     -0x24(%ebp),%eax
  30342e:	75 b1                	jne    3033e1 <uint64_to_hex+0x2e>
  303430:	83 7d fc 00          	cmpl   $0x0,-0x4(%ebp)
  303434:	74 ab                	je     3033e1 <uint64_to_hex+0x2e>
  303436:	8b 45 fc             	mov    -0x4(%ebp),%eax
  303439:	89 45 f8             	mov    %eax,-0x8(%ebp)
  30343c:	eb 1d                	jmp    30345b <uint64_to_hex+0xa8>
  30343e:	8d 55 e8             	lea    -0x18(%ebp),%edx
  303441:	8b 45 fc             	mov    -0x4(%ebp),%eax
  303444:	01 d0                	add    %edx,%eax
  303446:	0f b6 00             	movzbl (%eax),%eax
  303449:	0f be c0             	movsbl %al,%eax
  30344c:	50                   	push   %eax
  30344d:	ff 75 0c             	push   0xc(%ebp)
  303450:	ff 75 08             	push   0x8(%ebp)
  303453:	e8 15 fc ff ff       	call   30306d <__buf_add>
  303458:	83 c4 0c             	add    $0xc,%esp
  30345b:	8b 45 fc             	mov    -0x4(%ebp),%eax
  30345e:	8d 50 ff             	lea    -0x1(%eax),%edx
  303461:	89 55 fc             	mov    %edx,-0x4(%ebp)
  303464:	85 c0                	test   %eax,%eax
  303466:	75 d6                	jne    30343e <uint64_to_hex+0x8b>
  303468:	8b 45 f8             	mov    -0x8(%ebp),%eax
  30346b:	c9                   	leave
  30346c:	c3                   	ret

0030346d <__format_add_hex>:
  30346d:	55                   	push   %ebp
  30346e:	89 e5                	mov    %esp,%ebp
  303470:	83 ec 08             	sub    $0x8,%esp
  303473:	8b 45 10             	mov    0x10(%ebp),%eax
  303476:	89 45 f8             	mov    %eax,-0x8(%ebp)
  303479:	8b 45 14             	mov    0x14(%ebp),%eax
  30347c:	89 45 fc             	mov    %eax,-0x4(%ebp)
  30347f:	83 ec 04             	sub    $0x4,%esp
  303482:	ff 75 18             	push   0x18(%ebp)
  303485:	ff 75 fc             	push   -0x4(%ebp)
  303488:	ff 75 f8             	push   -0x8(%ebp)
  30348b:	ff 75 0c             	push   0xc(%ebp)
  30348e:	ff 75 08             	push   0x8(%ebp)
  303491:	e8 1d ff ff ff       	call   3033b3 <uint64_to_hex>
  303496:	83 c4 18             	add    $0x18,%esp
  303499:	90                   	nop
  30349a:	c9                   	leave
  30349b:	c3                   	ret

0030349c <__vsnprintf>:
  30349c:	55                   	push   %ebp
  30349d:	89 e5                	mov    %esp,%ebp
  30349f:	83 ec 78             	sub    $0x78,%esp
  3034a2:	8b 45 08             	mov    0x8(%ebp),%eax
  3034a5:	89 45 94             	mov    %eax,-0x6c(%ebp)
  3034a8:	c7 45 9c 00 00 00 00 	movl   $0x0,-0x64(%ebp)
  3034af:	c7 45 f0 00 00 00 00 	movl   $0x0,-0x10(%ebp)
  3034b6:	c7 45 ec 00 00 00 00 	movl   $0x0,-0x14(%ebp)
  3034bd:	c7 45 f4 04 00 00 00 	movl   $0x4,-0xc(%ebp)
  3034c4:	83 7d 0c 00          	cmpl   $0x0,0xc(%ebp)
  3034c8:	0f 84 ad 03 00 00    	je     30387b <__vsnprintf+0x3df>
  3034ce:	83 6d 0c 01          	subl   $0x1,0xc(%ebp)
  3034d2:	e9 a4 03 00 00       	jmp    30387b <__vsnprintf+0x3df>
  3034d7:	8b 45 10             	mov    0x10(%ebp),%eax
  3034da:	8d 50 01             	lea    0x1(%eax),%edx
  3034dd:	89 55 10             	mov    %edx,0x10(%ebp)
  3034e0:	0f b6 00             	movzbl (%eax),%eax
  3034e3:	88 45 d7             	mov    %al,-0x29(%ebp)
  3034e6:	83 7d f0 00          	cmpl   $0x0,-0x10(%ebp)
  3034ea:	0f 84 5b 03 00 00    	je     30384b <__vsnprintf+0x3af>
  3034f0:	80 7d d7 6c          	cmpb   $0x6c,-0x29(%ebp)
  3034f4:	75 1e                	jne    303514 <__vsnprintf+0x78>
  3034f6:	83 7d ec 00          	cmpl   $0x0,-0x14(%ebp)
  3034fa:	74 0c                	je     303508 <__vsnprintf+0x6c>
  3034fc:	c7 45 f4 08 00 00 00 	movl   $0x8,-0xc(%ebp)
  303503:	e9 73 03 00 00       	jmp    30387b <__vsnprintf+0x3df>
  303508:	c7 45 ec 01 00 00 00 	movl   $0x1,-0x14(%ebp)
  30350f:	e9 67 03 00 00       	jmp    30387b <__vsnprintf+0x3df>
  303514:	80 7d d7 68          	cmpb   $0x68,-0x29(%ebp)
  303518:	75 0d                	jne    303527 <__vsnprintf+0x8b>
  30351a:	8b 45 f4             	mov    -0xc(%ebp),%eax
  30351d:	d1 e8                	shr    $1,%eax
  30351f:	89 45 f4             	mov    %eax,-0xc(%ebp)
  303522:	e9 54 03 00 00       	jmp    30387b <__vsnprintf+0x3df>
  303527:	80 7d d7 73          	cmpb   $0x73,-0x29(%ebp)
  30352b:	75 25                	jne    303552 <__vsnprintf+0xb6>
  30352d:	8b 45 14             	mov    0x14(%ebp),%eax
  303530:	8d 50 04             	lea    0x4(%eax),%edx
  303533:	89 55 14             	mov    %edx,0x14(%ebp)
  303536:	8b 00                	mov    (%eax),%eax
  303538:	89 45 a0             	mov    %eax,-0x60(%ebp)
  30353b:	ff 75 a0             	push   -0x60(%ebp)
  30353e:	ff 75 0c             	push   0xc(%ebp)
  303541:	8d 45 94             	lea    -0x6c(%ebp),%eax
  303544:	50                   	push   %eax
  303545:	e8 12 fc ff ff       	call   30315c <__format_add_str>
  30354a:	83 c4 0c             	add    $0xc,%esp
  30354d:	e9 e9 02 00 00       	jmp    30383b <__vsnprintf+0x39f>
  303552:	80 7d d7 63          	cmpb   $0x63,-0x29(%ebp)
  303556:	75 25                	jne    30357d <__vsnprintf+0xe1>
  303558:	8b 45 14             	mov    0x14(%ebp),%eax
  30355b:	8d 50 04             	lea    0x4(%eax),%edx
  30355e:	89 55 14             	mov    %edx,0x14(%ebp)
  303561:	8b 00                	mov    (%eax),%eax
  303563:	89 45 a4             	mov    %eax,-0x5c(%ebp)
  303566:	ff 75 a4             	push   -0x5c(%ebp)
  303569:	ff 75 0c             	push   0xc(%ebp)
  30356c:	8d 45 94             	lea    -0x6c(%ebp),%eax
  30356f:	50                   	push   %eax
  303570:	e8 18 fc ff ff       	call   30318d <__format_add_chr>
  303575:	83 c4 0c             	add    $0xc,%esp
  303578:	e9 be 02 00 00       	jmp    30383b <__vsnprintf+0x39f>
  30357d:	80 7d d7 62          	cmpb   $0x62,-0x29(%ebp)
  303581:	75 34                	jne    3035b7 <__vsnprintf+0x11b>
  303583:	8b 45 14             	mov    0x14(%ebp),%eax
  303586:	8d 50 04             	lea    0x4(%eax),%edx
  303589:	89 55 14             	mov    %edx,0x14(%ebp)
  30358c:	8b 00                	mov    (%eax),%eax
  30358e:	89 45 a8             	mov    %eax,-0x58(%ebp)
  303591:	c7 45 ac 00 00 00 00 	movl   $0x0,-0x54(%ebp)
  303598:	83 ec 04             	sub    $0x4,%esp
  30359b:	6a 20                	push   $0x20
  30359d:	ff 75 ac             	push   -0x54(%ebp)
  3035a0:	ff 75 a8             	push   -0x58(%ebp)
  3035a3:	ff 75 0c             	push   0xc(%ebp)
  3035a6:	8d 45 94             	lea    -0x6c(%ebp),%eax
  3035a9:	50                   	push   %eax
  3035aa:	e8 f9 fb ff ff       	call   3031a8 <__format_add_bin>
  3035af:	83 c4 18             	add    $0x18,%esp
  3035b2:	e9 84 02 00 00       	jmp    30383b <__vsnprintf+0x39f>
  3035b7:	80 7d d7 42          	cmpb   $0x42,-0x29(%ebp)
  3035bb:	75 33                	jne    3035f0 <__vsnprintf+0x154>
  3035bd:	8b 45 14             	mov    0x14(%ebp),%eax
  3035c0:	8d 50 08             	lea    0x8(%eax),%edx
  3035c3:	89 55 14             	mov    %edx,0x14(%ebp)
  3035c6:	8b 50 04             	mov    0x4(%eax),%edx
  3035c9:	8b 00                	mov    (%eax),%eax
  3035cb:	89 45 b0             	mov    %eax,-0x50(%ebp)
  3035ce:	89 55 b4             	mov    %edx,-0x4c(%ebp)
  3035d1:	83 ec 04             	sub    $0x4,%esp
  3035d4:	6a 40                	push   $0x40
  3035d6:	ff 75 b4             	push   -0x4c(%ebp)
  3035d9:	ff 75 b0             	push   -0x50(%ebp)
  3035dc:	ff 75 0c             	push   0xc(%ebp)
  3035df:	8d 45 94             	lea    -0x6c(%ebp),%eax
  3035e2:	50                   	push   %eax
  3035e3:	e8 c0 fb ff ff       	call   3031a8 <__format_add_bin>
  3035e8:	83 c4 18             	add    $0x18,%esp
  3035eb:	e9 4b 02 00 00       	jmp    30383b <__vsnprintf+0x39f>
  3035f0:	80 7d d7 64          	cmpb   $0x64,-0x29(%ebp)
  3035f4:	74 0a                	je     303600 <__vsnprintf+0x164>
  3035f6:	80 7d d7 69          	cmpb   $0x69,-0x29(%ebp)
  3035fa:	0f 85 80 00 00 00    	jne    303680 <__vsnprintf+0x1e4>
  303600:	83 7d f4 07          	cmpl   $0x7,-0xc(%ebp)
  303604:	76 16                	jbe    30361c <__vsnprintf+0x180>
  303606:	8b 45 14             	mov    0x14(%ebp),%eax
  303609:	8d 50 08             	lea    0x8(%eax),%edx
  30360c:	89 55 14             	mov    %edx,0x14(%ebp)
  30360f:	8b 50 04             	mov    0x4(%eax),%edx
  303612:	8b 00                	mov    (%eax),%eax
  303614:	89 45 e0             	mov    %eax,-0x20(%ebp)
  303617:	89 55 e4             	mov    %edx,-0x1c(%ebp)
  30361a:	eb 4a                	jmp    303666 <__vsnprintf+0x1ca>
  30361c:	83 7d f4 04          	cmpl   $0x4,-0xc(%ebp)
  303620:	75 14                	jne    303636 <__vsnprintf+0x19a>
  303622:	8b 45 14             	mov    0x14(%ebp),%eax
  303625:	8d 50 04             	lea    0x4(%eax),%edx
  303628:	89 55 14             	mov    %edx,0x14(%ebp)
  30362b:	8b 00                	mov    (%eax),%eax
  30362d:	99                   	cltd
  30362e:	89 45 e0             	mov    %eax,-0x20(%ebp)
  303631:	89 55 e4             	mov    %edx,-0x1c(%ebp)
  303634:	eb 30                	jmp    303666 <__vsnprintf+0x1ca>
  303636:	83 7d f4 02          	cmpl   $0x2,-0xc(%ebp)
  30363a:	75 15                	jne    303651 <__vsnprintf+0x1b5>
  30363c:	8b 45 14             	mov    0x14(%ebp),%eax
  30363f:	8d 50 04             	lea    0x4(%eax),%edx
  303642:	89 55 14             	mov    %edx,0x14(%ebp)
  303645:	8b 00                	mov    (%eax),%eax
  303647:	98                   	cwtl
  303648:	99                   	cltd
  303649:	89 45 e0             	mov    %eax,-0x20(%ebp)
  30364c:	89 55 e4             	mov    %edx,-0x1c(%ebp)
  30364f:	eb 15                	jmp    303666 <__vsnprintf+0x1ca>
  303651:	8b 45 14             	mov    0x14(%ebp),%eax
  303654:	8d 50 04             	lea    0x4(%eax),%edx
  303657:	89 55 14             	mov    %edx,0x14(%ebp)
  30365a:	8b 00                	mov    (%eax),%eax
  30365c:	0f be c0             	movsbl %al,%eax
  30365f:	99                   	cltd
  303660:	89 45 e0             	mov    %eax,-0x20(%ebp)
  303663:	89 55 e4             	mov    %edx,-0x1c(%ebp)
  303666:	ff 75 e4             	push   -0x1c(%ebp)
  303669:	ff 75 e0             	push   -0x20(%ebp)
  30366c:	ff 75 0c             	push   0xc(%ebp)
  30366f:	8d 45 94             	lea    -0x6c(%ebp),%eax
  303672:	50                   	push   %eax
  303673:	e8 9f fb ff ff       	call   303217 <__format_add_idec>
  303678:	83 c4 10             	add    $0x10,%esp
  30367b:	e9 bb 01 00 00       	jmp    30383b <__vsnprintf+0x39f>
  303680:	80 7d d7 75          	cmpb   $0x75,-0x29(%ebp)
  303684:	74 0a                	je     303690 <__vsnprintf+0x1f4>
  303686:	80 7d d7 78          	cmpb   $0x78,-0x29(%ebp)
  30368a:	0f 85 b0 00 00 00    	jne    303740 <__vsnprintf+0x2a4>
  303690:	83 7d f4 07          	cmpl   $0x7,-0xc(%ebp)
  303694:	76 16                	jbe    3036ac <__vsnprintf+0x210>
  303696:	8b 45 14             	mov    0x14(%ebp),%eax
  303699:	8d 50 08             	lea    0x8(%eax),%edx
  30369c:	89 55 14             	mov    %edx,0x14(%ebp)
  30369f:	8b 50 04             	mov    0x4(%eax),%edx
  3036a2:	8b 00                	mov    (%eax),%eax
  3036a4:	89 45 d8             	mov    %eax,-0x28(%ebp)
  3036a7:	89 55 dc             	mov    %edx,-0x24(%ebp)
  3036aa:	eb 55                	jmp    303701 <__vsnprintf+0x265>
  3036ac:	83 7d f4 04          	cmpl   $0x4,-0xc(%ebp)
  3036b0:	75 17                	jne    3036c9 <__vsnprintf+0x22d>
  3036b2:	8b 45 14             	mov    0x14(%ebp),%eax
  3036b5:	8d 50 04             	lea    0x4(%eax),%edx
  3036b8:	89 55 14             	mov    %edx,0x14(%ebp)
  3036bb:	8b 00                	mov    (%eax),%eax
  3036bd:	89 45 d8             	mov    %eax,-0x28(%ebp)
  3036c0:	c7 45 dc 00 00 00 00 	movl   $0x0,-0x24(%ebp)
  3036c7:	eb 38                	jmp    303701 <__vsnprintf+0x265>
  3036c9:	83 7d f4 02          	cmpl   $0x2,-0xc(%ebp)
  3036cd:	75 1a                	jne    3036e9 <__vsnprintf+0x24d>
  3036cf:	8b 45 14             	mov    0x14(%ebp),%eax
  3036d2:	8d 50 04             	lea    0x4(%eax),%edx
  3036d5:	89 55 14             	mov    %edx,0x14(%ebp)
  3036d8:	8b 00                	mov    (%eax),%eax
  3036da:	0f b7 c0             	movzwl %ax,%eax
  3036dd:	89 45 d8             	mov    %eax,-0x28(%ebp)
  3036e0:	c7 45 dc 00 00 00 00 	movl   $0x0,-0x24(%ebp)
  3036e7:	eb 18                	jmp    303701 <__vsnprintf+0x265>
  3036e9:	8b 45 14             	mov    0x14(%ebp),%eax
  3036ec:	8d 50 04             	lea    0x4(%eax),%edx
  3036ef:	89 55 14             	mov    %edx,0x14(%ebp)
  3036f2:	8b 00                	mov    (%eax),%eax
  3036f4:	0f b6 c0             	movzbl %al,%eax
  3036f7:	89 45 d8             	mov    %eax,-0x28(%ebp)
  3036fa:	c7 45 dc 00 00 00 00 	movl   $0x0,-0x24(%ebp)
  303701:	80 7d d7 75          	cmpb   $0x75,-0x29(%ebp)
  303705:	75 1a                	jne    303721 <__vsnprintf+0x285>
  303707:	ff 75 dc             	push   -0x24(%ebp)
  30370a:	ff 75 d8             	push   -0x28(%ebp)
  30370d:	ff 75 0c             	push   0xc(%ebp)
  303710:	8d 45 94             	lea    -0x6c(%ebp),%eax
  303713:	50                   	push   %eax
  303714:	e8 dc fb ff ff       	call   3032f5 <__format_add_udec>
  303719:	83 c4 10             	add    $0x10,%esp
  30371c:	e9 1a 01 00 00       	jmp    30383b <__vsnprintf+0x39f>
  303721:	83 ec 0c             	sub    $0xc,%esp
  303724:	6a 00                	push   $0x0
  303726:	ff 75 dc             	push   -0x24(%ebp)
  303729:	ff 75 d8             	push   -0x28(%ebp)
  30372c:	ff 75 0c             	push   0xc(%ebp)
  30372f:	8d 45 94             	lea    -0x6c(%ebp),%eax
  303732:	50                   	push   %eax
  303733:	e8 35 fd ff ff       	call   30346d <__format_add_hex>
  303738:	83 c4 20             	add    $0x20,%esp
  30373b:	e9 fb 00 00 00       	jmp    30383b <__vsnprintf+0x39f>
  303740:	80 7d d7 44          	cmpb   $0x44,-0x29(%ebp)
  303744:	75 2e                	jne    303774 <__vsnprintf+0x2d8>
  303746:	8b 45 14             	mov    0x14(%ebp),%eax
  303749:	8d 50 08             	lea    0x8(%eax),%edx
  30374c:	89 55 14             	mov    %edx,0x14(%ebp)
  30374f:	8b 50 04             	mov    0x4(%eax),%edx
  303752:	8b 00                	mov    (%eax),%eax
  303754:	89 45 b8             	mov    %eax,-0x48(%ebp)
  303757:	89 55 bc             	mov    %edx,-0x44(%ebp)
  30375a:	ff 75 bc             	push   -0x44(%ebp)
  30375d:	ff 75 b8             	push   -0x48(%ebp)
  303760:	ff 75 0c             	push   0xc(%ebp)
  303763:	8d 45 94             	lea    -0x6c(%ebp),%eax
  303766:	50                   	push   %eax
  303767:	e8 ab fa ff ff       	call   303217 <__format_add_idec>
  30376c:	83 c4 10             	add    $0x10,%esp
  30376f:	e9 c7 00 00 00       	jmp    30383b <__vsnprintf+0x39f>
  303774:	80 7d d7 58          	cmpb   $0x58,-0x29(%ebp)
  303778:	75 33                	jne    3037ad <__vsnprintf+0x311>
  30377a:	8b 45 14             	mov    0x14(%ebp),%eax
  30377d:	8d 50 08             	lea    0x8(%eax),%edx
  303780:	89 55 14             	mov    %edx,0x14(%ebp)
  303783:	8b 50 04             	mov    0x4(%eax),%edx
  303786:	8b 00                	mov    (%eax),%eax
  303788:	89 45 c0             	mov    %eax,-0x40(%ebp)
  30378b:	89 55 c4             	mov    %edx,-0x3c(%ebp)
  30378e:	83 ec 0c             	sub    $0xc,%esp
  303791:	6a 00                	push   $0x0
  303793:	ff 75 c4             	push   -0x3c(%ebp)
  303796:	ff 75 c0             	push   -0x40(%ebp)
  303799:	ff 75 0c             	push   0xc(%ebp)
  30379c:	8d 45 94             	lea    -0x6c(%ebp),%eax
  30379f:	50                   	push   %eax
  3037a0:	e8 c8 fc ff ff       	call   30346d <__format_add_hex>
  3037a5:	83 c4 20             	add    $0x20,%esp
  3037a8:	e9 8e 00 00 00       	jmp    30383b <__vsnprintf+0x39f>
  3037ad:	80 7d d7 70          	cmpb   $0x70,-0x29(%ebp)
  3037b1:	75 48                	jne    3037fb <__vsnprintf+0x35f>
  3037b3:	8b 45 14             	mov    0x14(%ebp),%eax
  3037b6:	8d 50 04             	lea    0x4(%eax),%edx
  3037b9:	89 55 14             	mov    %edx,0x14(%ebp)
  3037bc:	8b 00                	mov    (%eax),%eax
  3037be:	89 45 c8             	mov    %eax,-0x38(%ebp)
  3037c1:	c7 45 cc 00 00 00 00 	movl   $0x0,-0x34(%ebp)
  3037c8:	83 ec 04             	sub    $0x4,%esp
  3037cb:	68 bc 45 30 00       	push   $0x3045bc
  3037d0:	ff 75 0c             	push   0xc(%ebp)
  3037d3:	8d 45 94             	lea    -0x6c(%ebp),%eax
  3037d6:	50                   	push   %eax
  3037d7:	e8 80 f9 ff ff       	call   30315c <__format_add_str>
  3037dc:	83 c4 10             	add    $0x10,%esp
  3037df:	83 ec 0c             	sub    $0xc,%esp
  3037e2:	6a 00                	push   $0x0
  3037e4:	ff 75 cc             	push   -0x34(%ebp)
  3037e7:	ff 75 c8             	push   -0x38(%ebp)
  3037ea:	ff 75 0c             	push   0xc(%ebp)
  3037ed:	8d 45 94             	lea    -0x6c(%ebp),%eax
  3037f0:	50                   	push   %eax
  3037f1:	e8 77 fc ff ff       	call   30346d <__format_add_hex>
  3037f6:	83 c4 20             	add    $0x20,%esp
  3037f9:	eb 40                	jmp    30383b <__vsnprintf+0x39f>
  3037fb:	80 7d d7 2f          	cmpb   $0x2f,-0x29(%ebp)
  3037ff:	7e 06                	jle    303807 <__vsnprintf+0x36b>
  303801:	80 7d d7 39          	cmpb   $0x39,-0x29(%ebp)
  303805:	7e 73                	jle    30387a <__vsnprintf+0x3de>
  303807:	80 7d d7 25          	cmpb   $0x25,-0x29(%ebp)
  30380b:	75 19                	jne    303826 <__vsnprintf+0x38a>
  30380d:	0f be 45 d7          	movsbl -0x29(%ebp),%eax
  303811:	83 ec 04             	sub    $0x4,%esp
  303814:	50                   	push   %eax
  303815:	ff 75 0c             	push   0xc(%ebp)
  303818:	8d 45 94             	lea    -0x6c(%ebp),%eax
  30381b:	50                   	push   %eax
  30381c:	e8 4c f8 ff ff       	call   30306d <__buf_add>
  303821:	83 c4 10             	add    $0x10,%esp
  303824:	eb 15                	jmp    30383b <__vsnprintf+0x39f>
  303826:	0f be 45 d7          	movsbl -0x29(%ebp),%eax
  30382a:	83 ec 08             	sub    $0x8,%esp
  30382d:	50                   	push   %eax
  30382e:	68 bf 45 30 00       	push   $0x3045bf
  303833:	e8 70 f8 ff ff       	call   3030a8 <panic>
  303838:	83 c4 10             	add    $0x10,%esp
  30383b:	c7 45 f0 00 00 00 00 	movl   $0x0,-0x10(%ebp)
  303842:	c7 45 ec 00 00 00 00 	movl   $0x0,-0x14(%ebp)
  303849:	eb 30                	jmp    30387b <__vsnprintf+0x3df>
  30384b:	80 7d d7 25          	cmpb   $0x25,-0x29(%ebp)
  30384f:	75 10                	jne    303861 <__vsnprintf+0x3c5>
  303851:	c7 45 f0 01 00 00 00 	movl   $0x1,-0x10(%ebp)
  303858:	c7 45 f4 04 00 00 00 	movl   $0x4,-0xc(%ebp)
  30385f:	eb 1a                	jmp    30387b <__vsnprintf+0x3df>
  303861:	0f be 45 d7          	movsbl -0x29(%ebp),%eax
  303865:	83 ec 04             	sub    $0x4,%esp
  303868:	50                   	push   %eax
  303869:	ff 75 0c             	push   0xc(%ebp)
  30386c:	8d 45 94             	lea    -0x6c(%ebp),%eax
  30386f:	50                   	push   %eax
  303870:	e8 f8 f7 ff ff       	call   30306d <__buf_add>
  303875:	83 c4 10             	add    $0x10,%esp
  303878:	eb 01                	jmp    30387b <__vsnprintf+0x3df>
  30387a:	90                   	nop
  30387b:	8b 45 10             	mov    0x10(%ebp),%eax
  30387e:	0f b6 00             	movzbl (%eax),%eax
  303881:	84 c0                	test   %al,%al
  303883:	0f 85 4e fc ff ff    	jne    3034d7 <__vsnprintf+0x3b>
  303889:	8b 4d 94             	mov    -0x6c(%ebp),%ecx
  30388c:	8b 45 9c             	mov    -0x64(%ebp),%eax
  30388f:	8d 50 01             	lea    0x1(%eax),%edx
  303892:	89 55 9c             	mov    %edx,-0x64(%ebp)
  303895:	01 c8                	add    %ecx,%eax
  303897:	c6 00 00             	movb   $0x0,(%eax)
  30389a:	8b 45 9c             	mov    -0x64(%ebp),%eax
  30389d:	c9                   	leave
  30389e:	c3                   	ret

0030389f <__uart_flush_recv>:
  30389f:	55                   	push   %ebp
  3038a0:	89 e5                	mov    %esp,%ebp
  3038a2:	83 ec 14             	sub    $0x14,%esp
  3038a5:	8b 45 08             	mov    0x8(%ebp),%eax
  3038a8:	66 89 45 ec          	mov    %ax,-0x14(%ebp)
  3038ac:	eb 0a                	jmp    3038b8 <__uart_flush_recv+0x19>
  3038ae:	0f b7 45 ec          	movzwl -0x14(%ebp),%eax
  3038b2:	89 c2                	mov    %eax,%edx
  3038b4:	ec                   	in     (%dx),%al
  3038b5:	88 45 fe             	mov    %al,-0x2(%ebp)
  3038b8:	0f b7 45 ec          	movzwl -0x14(%ebp),%eax
  3038bc:	83 c0 05             	add    $0x5,%eax
  3038bf:	89 c2                	mov    %eax,%edx
  3038c1:	ec                   	in     (%dx),%al
  3038c2:	88 45 ff             	mov    %al,-0x1(%ebp)
  3038c5:	0f b6 45 ff          	movzbl -0x1(%ebp),%eax
  3038c9:	0f b6 c0             	movzbl %al,%eax
  3038cc:	83 e0 01             	and    $0x1,%eax
  3038cf:	85 c0                	test   %eax,%eax
  3038d1:	75 db                	jne    3038ae <__uart_flush_recv+0xf>
  3038d3:	90                   	nop
  3038d4:	90                   	nop
  3038d5:	c9                   	leave
  3038d6:	c3                   	ret

003038d7 <__uart_fifo_init>:
  3038d7:	55                   	push   %ebp
  3038d8:	89 e5                	mov    %esp,%ebp
  3038da:	83 ec 14             	sub    $0x14,%esp
  3038dd:	8b 45 08             	mov    0x8(%ebp),%eax
  3038e0:	66 89 45 ec          	mov    %ax,-0x14(%ebp)
  3038e4:	0f b7 45 ec          	movzwl -0x14(%ebp),%eax
  3038e8:	8d 50 03             	lea    0x3(%eax),%edx
  3038eb:	b8 bf 00 00 00       	mov    $0xbf,%eax
  3038f0:	ee                   	out    %al,(%dx)
  3038f1:	c6 45 fe 00          	movb   $0x0,-0x2(%ebp)
  3038f5:	0f b6 45 fe          	movzbl -0x2(%ebp),%eax
  3038f9:	83 c8 10             	or     $0x10,%eax
  3038fc:	88 45 fe             	mov    %al,-0x2(%ebp)
  3038ff:	0f b6 45 fe          	movzbl -0x2(%ebp),%eax
  303903:	0f b7 55 ec          	movzwl -0x14(%ebp),%edx
  303907:	83 c2 02             	add    $0x2,%edx
  30390a:	ee                   	out    %al,(%dx)
  30390b:	0f b6 45 ff          	movzbl -0x1(%ebp),%eax
  30390f:	83 e0 fe             	and    $0xfffffffe,%eax
  303912:	88 45 ff             	mov    %al,-0x1(%ebp)
  303915:	0f b6 45 ff          	movzbl -0x1(%ebp),%eax
  303919:	83 e0 f7             	and    $0xfffffff7,%eax
  30391c:	88 45 ff             	mov    %al,-0x1(%ebp)
  30391f:	0f b6 45 ff          	movzbl -0x1(%ebp),%eax
  303923:	0f b7 55 ec          	movzwl -0x14(%ebp),%edx
  303927:	83 c2 02             	add    $0x2,%edx
  30392a:	ee                   	out    %al,(%dx)
  30392b:	0f b7 45 ec          	movzwl -0x14(%ebp),%eax
  30392f:	8d 50 03             	lea    0x3(%eax),%edx
  303932:	b8 00 00 00 00       	mov    $0x0,%eax
  303937:	ee                   	out    %al,(%dx)
  303938:	c6 45 fe 00          	movb   $0x0,-0x2(%ebp)
  30393c:	0f b6 45 fe          	movzbl -0x2(%ebp),%eax
  303940:	83 c8 40             	or     $0x40,%eax
  303943:	88 45 fe             	mov    %al,-0x2(%ebp)
  303946:	0f b6 45 fe          	movzbl -0x2(%ebp),%eax
  30394a:	83 c8 80             	or     $0xffffff80,%eax
  30394d:	88 45 fe             	mov    %al,-0x2(%ebp)
  303950:	0f b6 45 fe          	movzbl -0x2(%ebp),%eax
  303954:	0f b7 55 ec          	movzwl -0x14(%ebp),%edx
  303958:	83 c2 02             	add    $0x2,%edx
  30395b:	ee                   	out    %al,(%dx)
  30395c:	90                   	nop
  30395d:	c9                   	leave
  30395e:	c3                   	ret

0030395f <__uart_common_init>:
  30395f:	55                   	push   %ebp
  303960:	89 e5                	mov    %esp,%ebp
  303962:	83 ec 14             	sub    $0x14,%esp
  303965:	8b 45 08             	mov    0x8(%ebp),%eax
  303968:	66 89 45 ec          	mov    %ax,-0x14(%ebp)
  30396c:	0f b7 45 ec          	movzwl -0x14(%ebp),%eax
  303970:	8d 50 03             	lea    0x3(%eax),%edx
  303973:	b8 80 00 00 00       	mov    $0x80,%eax
  303978:	ee                   	out    %al,(%dx)
  303979:	b8 01 00 00 00       	mov    $0x1,%eax
  30397e:	0f b7 55 ec          	movzwl -0x14(%ebp),%edx
  303982:	ee                   	out    %al,(%dx)
  303983:	0f b7 45 ec          	movzwl -0x14(%ebp),%eax
  303987:	8d 50 01             	lea    0x1(%eax),%edx
  30398a:	b8 00 00 00 00       	mov    $0x0,%eax
  30398f:	ee                   	out    %al,(%dx)
  303990:	c6 45 fe 00          	movb   $0x0,-0x2(%ebp)
  303994:	0f b6 45 fe          	movzbl -0x2(%ebp),%eax
  303998:	83 c8 03             	or     $0x3,%eax
  30399b:	88 45 fe             	mov    %al,-0x2(%ebp)
  30399e:	0f b6 45 fe          	movzbl -0x2(%ebp),%eax
  3039a2:	0f b7 55 ec          	movzwl -0x14(%ebp),%edx
  3039a6:	83 c2 03             	add    $0x3,%edx
  3039a9:	ee                   	out    %al,(%dx)
  3039aa:	c6 45 ff 00          	movb   $0x0,-0x1(%ebp)
  3039ae:	0f b6 45 ff          	movzbl -0x1(%ebp),%eax
  3039b2:	0f b7 55 ec          	movzwl -0x14(%ebp),%edx
  3039b6:	83 c2 01             	add    $0x1,%edx
  3039b9:	ee                   	out    %al,(%dx)
  3039ba:	0f b7 45 ec          	movzwl -0x14(%ebp),%eax
  3039be:	50                   	push   %eax
  3039bf:	e8 db fe ff ff       	call   30389f <__uart_flush_recv>
  3039c4:	83 c4 04             	add    $0x4,%esp
  3039c7:	90                   	nop
  3039c8:	c9                   	leave
  3039c9:	c3                   	ret

003039ca <uart_init>:
  3039ca:	55                   	push   %ebp
  3039cb:	89 e5                	mov    %esp,%ebp
  3039cd:	68 f8 03 00 00       	push   $0x3f8
  3039d2:	e8 00 ff ff ff       	call   3038d7 <__uart_fifo_init>
  3039d7:	83 c4 04             	add    $0x4,%esp
  3039da:	68 f8 03 00 00       	push   $0x3f8
  3039df:	e8 7b ff ff ff       	call   30395f <__uart_common_init>
  3039e4:	83 c4 04             	add    $0x4,%esp
  3039e7:	90                   	nop
  3039e8:	c9                   	leave
  3039e9:	c3                   	ret

003039ea <__uart_read>:
  3039ea:	55                   	push   %ebp
  3039eb:	89 e5                	mov    %esp,%ebp
  3039ed:	83 ec 14             	sub    $0x14,%esp
  3039f0:	8b 45 08             	mov    0x8(%ebp),%eax
  3039f3:	66 89 45 ec          	mov    %ax,-0x14(%ebp)
  3039f7:	eb 2c                	jmp    303a25 <__uart_read+0x3b>
  3039f9:	0f b7 45 ec          	movzwl -0x14(%ebp),%eax
  3039fd:	89 c2                	mov    %eax,%edx
  3039ff:	ec                   	in     (%dx),%al
  303a00:	88 45 fe             	mov    %al,-0x2(%ebp)
  303a03:	0f b6 45 fe          	movzbl -0x2(%ebp),%eax
  303a07:	8b 55 0c             	mov    0xc(%ebp),%edx
  303a0a:	8b 0a                	mov    (%edx),%ecx
  303a0c:	8b 55 0c             	mov    0xc(%ebp),%edx
  303a0f:	8b 52 08             	mov    0x8(%edx),%edx
  303a12:	01 ca                	add    %ecx,%edx
  303a14:	88 02                	mov    %al,(%edx)
  303a16:	8b 45 0c             	mov    0xc(%ebp),%eax
  303a19:	8b 40 08             	mov    0x8(%eax),%eax
  303a1c:	8d 50 01             	lea    0x1(%eax),%edx
  303a1f:	8b 45 0c             	mov    0xc(%ebp),%eax
  303a22:	89 50 08             	mov    %edx,0x8(%eax)
  303a25:	0f b7 45 ec          	movzwl -0x14(%ebp),%eax
  303a29:	83 c0 05             	add    $0x5,%eax
  303a2c:	89 c2                	mov    %eax,%edx
  303a2e:	ec                   	in     (%dx),%al
  303a2f:	88 45 ff             	mov    %al,-0x1(%ebp)
  303a32:	0f b6 45 ff          	movzbl -0x1(%ebp),%eax
  303a36:	0f b6 c0             	movzbl %al,%eax
  303a39:	83 e0 01             	and    $0x1,%eax
  303a3c:	85 c0                	test   %eax,%eax
  303a3e:	74 0b                	je     303a4b <__uart_read+0x61>
  303a40:	8b 45 0c             	mov    0xc(%ebp),%eax
  303a43:	8b 40 08             	mov    0x8(%eax),%eax
  303a46:	3b 45 10             	cmp    0x10(%ebp),%eax
  303a49:	72 ae                	jb     3039f9 <__uart_read+0xf>
  303a4b:	90                   	nop
  303a4c:	c9                   	leave
  303a4d:	c3                   	ret

00303a4e <__uart_write>:
  303a4e:	55                   	push   %ebp
  303a4f:	89 e5                	mov    %esp,%ebp
  303a51:	83 ec 14             	sub    $0x14,%esp
  303a54:	8b 45 08             	mov    0x8(%ebp),%eax
  303a57:	66 89 45 ec          	mov    %ax,-0x14(%ebp)
  303a5b:	eb 3f                	jmp    303a9c <__uart_write+0x4e>
  303a5d:	0f b7 45 ec          	movzwl -0x14(%ebp),%eax
  303a61:	83 c0 05             	add    $0x5,%eax
  303a64:	89 c2                	mov    %eax,%edx
  303a66:	ec                   	in     (%dx),%al
  303a67:	88 45 ff             	mov    %al,-0x1(%ebp)
  303a6a:	0f b6 45 ff          	movzbl -0x1(%ebp),%eax
  303a6e:	0f b6 c0             	movzbl %al,%eax
  303a71:	83 e0 20             	and    $0x20,%eax
  303a74:	85 c0                	test   %eax,%eax
  303a76:	74 24                	je     303a9c <__uart_write+0x4e>
  303a78:	8b 45 0c             	mov    0xc(%ebp),%eax
  303a7b:	8b 10                	mov    (%eax),%edx
  303a7d:	8b 45 0c             	mov    0xc(%ebp),%eax
  303a80:	8b 40 08             	mov    0x8(%eax),%eax
  303a83:	01 d0                	add    %edx,%eax
  303a85:	0f b6 00             	movzbl (%eax),%eax
  303a88:	0f b7 55 ec          	movzwl -0x14(%ebp),%edx
  303a8c:	ee                   	out    %al,(%dx)
  303a8d:	8b 45 0c             	mov    0xc(%ebp),%eax
  303a90:	8b 40 08             	mov    0x8(%eax),%eax
  303a93:	8d 50 01             	lea    0x1(%eax),%edx
  303a96:	8b 45 0c             	mov    0xc(%ebp),%eax
  303a99:	89 50 08             	mov    %edx,0x8(%eax)
  303a9c:	8b 45 0c             	mov    0xc(%ebp),%eax
  303a9f:	8b 40 08             	mov    0x8(%eax),%eax
  303aa2:	3b 45 10             	cmp    0x10(%ebp),%eax
  303aa5:	72 b6                	jb     303a5d <__uart_write+0xf>
  303aa7:	90                   	nop
  303aa8:	90                   	nop
  303aa9:	c9                   	leave
  303aaa:	c3                   	ret

00303aab <uart_read>:
  303aab:	55                   	push   %ebp
  303aac:	89 e5                	mov    %esp,%ebp
  303aae:	83 ec 10             	sub    $0x10,%esp
  303ab1:	8b 45 08             	mov    0x8(%ebp),%eax
  303ab4:	89 45 f4             	mov    %eax,-0xc(%ebp)
  303ab7:	c7 45 fc 00 00 00 00 	movl   $0x0,-0x4(%ebp)
  303abe:	ff 75 0c             	push   0xc(%ebp)
  303ac1:	8d 45 f4             	lea    -0xc(%ebp),%eax
  303ac4:	50                   	push   %eax
  303ac5:	68 f8 03 00 00       	push   $0x3f8
  303aca:	e8 1b ff ff ff       	call   3039ea <__uart_read>
  303acf:	83 c4 0c             	add    $0xc,%esp
  303ad2:	8b 45 fc             	mov    -0x4(%ebp),%eax
  303ad5:	c9                   	leave
  303ad6:	c3                   	ret

00303ad7 <uart_write>:
  303ad7:	55                   	push   %ebp
  303ad8:	89 e5                	mov    %esp,%ebp
  303ada:	83 ec 10             	sub    $0x10,%esp
  303add:	8b 45 08             	mov    0x8(%ebp),%eax
  303ae0:	89 45 f4             	mov    %eax,-0xc(%ebp)
  303ae3:	c7 45 fc 00 00 00 00 	movl   $0x0,-0x4(%ebp)
  303aea:	ff 75 0c             	push   0xc(%ebp)
  303aed:	8d 45 f4             	lea    -0xc(%ebp),%eax
  303af0:	50                   	push   %eax
  303af1:	68 f8 03 00 00       	push   $0x3f8
  303af6:	e8 53 ff ff ff       	call   303a4e <__uart_write>
  303afb:	83 c4 0c             	add    $0xc,%esp
  303afe:	8b 45 fc             	mov    -0x4(%ebp),%eax
  303b01:	c9                   	leave
  303b02:	c3                   	ret

00303b03 <uart_flush>:
  303b03:	55                   	push   %ebp
  303b04:	89 e5                	mov    %esp,%ebp
  303b06:	83 ec 10             	sub    $0x10,%esp
  303b09:	c7 45 fc 10 00 00 00 	movl   $0x10,-0x4(%ebp)
  303b10:	eb 28                	jmp    303b3a <uart_flush+0x37>
  303b12:	b8 fd 03 00 00       	mov    $0x3fd,%eax
  303b17:	89 c2                	mov    %eax,%edx
  303b19:	ec                   	in     (%dx),%al
  303b1a:	88 45 fb             	mov    %al,-0x5(%ebp)
  303b1d:	0f b6 45 fb          	movzbl -0x5(%ebp),%eax
  303b21:	0f b6 c0             	movzbl %al,%eax
  303b24:	83 e0 20             	and    $0x20,%eax
  303b27:	85 c0                	test   %eax,%eax
  303b29:	74 0f                	je     303b3a <uart_flush+0x37>
  303b2b:	b8 00 00 00 00       	mov    $0x0,%eax
  303b30:	ba f8 03 00 00       	mov    $0x3f8,%edx
  303b35:	ee                   	out    %al,(%dx)
  303b36:	83 6d fc 01          	subl   $0x1,-0x4(%ebp)
  303b3a:	83 7d fc 00          	cmpl   $0x0,-0x4(%ebp)
  303b3e:	75 d2                	jne    303b12 <uart_flush+0xf>
  303b40:	90                   	nop
  303b41:	90                   	nop
  303b42:	c9                   	leave
  303b43:	c3                   	ret

00303b44 <pic_init>:
  303b44:	55                   	push   %ebp
  303b45:	89 e5                	mov    %esp,%ebp
  303b47:	83 ec 10             	sub    $0x10,%esp
  303b4a:	c6 45 ff 11          	movb   $0x11,-0x1(%ebp)
  303b4e:	0f b6 45 ff          	movzbl -0x1(%ebp),%eax
  303b52:	ba 20 00 00 00       	mov    $0x20,%edx
  303b57:	ee                   	out    %al,(%dx)
  303b58:	0f b6 45 ff          	movzbl -0x1(%ebp),%eax
  303b5c:	ba a0 00 00 00       	mov    $0xa0,%edx
  303b61:	ee                   	out    %al,(%dx)
  303b62:	c6 45 fe 20          	movb   $0x20,-0x2(%ebp)
  303b66:	0f b6 45 fe          	movzbl -0x2(%ebp),%eax
  303b6a:	ba 21 00 00 00       	mov    $0x21,%edx
  303b6f:	ee                   	out    %al,(%dx)
  303b70:	c6 45 fe 28          	movb   $0x28,-0x2(%ebp)
  303b74:	0f b6 45 fe          	movzbl -0x2(%ebp),%eax
  303b78:	ba a1 00 00 00       	mov    $0xa1,%edx
  303b7d:	ee                   	out    %al,(%dx)
  303b7e:	c6 45 fd 00          	movb   $0x0,-0x3(%ebp)
  303b82:	0f b6 45 fd          	movzbl -0x3(%ebp),%eax
  303b86:	83 c8 04             	or     $0x4,%eax
  303b89:	88 45 fd             	mov    %al,-0x3(%ebp)
  303b8c:	0f b6 45 fd          	movzbl -0x3(%ebp),%eax
  303b90:	ba 21 00 00 00       	mov    $0x21,%edx
  303b95:	ee                   	out    %al,(%dx)
  303b96:	c6 45 fd 00          	movb   $0x0,-0x3(%ebp)
  303b9a:	0f b6 45 fd          	movzbl -0x3(%ebp),%eax
  303b9e:	83 e0 f8             	and    $0xfffffff8,%eax
  303ba1:	83 c8 02             	or     $0x2,%eax
  303ba4:	88 45 fd             	mov    %al,-0x3(%ebp)
  303ba7:	0f b6 45 fd          	movzbl -0x3(%ebp),%eax
  303bab:	ba a1 00 00 00       	mov    $0xa1,%edx
  303bb0:	ee                   	out    %al,(%dx)
  303bb1:	c6 45 fc 01          	movb   $0x1,-0x4(%ebp)
  303bb5:	0f b6 45 fc          	movzbl -0x4(%ebp),%eax
  303bb9:	ba 21 00 00 00       	mov    $0x21,%edx
  303bbe:	ee                   	out    %al,(%dx)
  303bbf:	0f b6 45 fc          	movzbl -0x4(%ebp),%eax
  303bc3:	ba a1 00 00 00       	mov    $0xa1,%edx
  303bc8:	ee                   	out    %al,(%dx)
  303bc9:	90                   	nop
  303bca:	c9                   	leave
  303bcb:	c3                   	ret

00303bcc <intr_init>:
  303bcc:	55                   	push   %ebp
  303bcd:	89 e5                	mov    %esp,%ebp
  303bcf:	83 ec 20             	sub    $0x20,%esp
  303bd2:	c7 45 fc 10 20 30 00 	movl   $0x302010,-0x4(%ebp)
  303bd9:	c7 45 f8 00 00 00 00 	movl   $0x0,-0x8(%ebp)
  303be0:	e9 8d 00 00 00       	jmp    303c72 <intr_init+0xa6>
  303be5:	8b 45 fc             	mov    -0x4(%ebp),%eax
  303be8:	89 45 ee             	mov    %eax,-0x12(%ebp)
  303beb:	0f b7 4d ee          	movzwl -0x12(%ebp),%ecx
  303bef:	0f b7 c1             	movzwl %cx,%eax
  303bf2:	ba 00 00 00 00       	mov    $0x0,%edx
  303bf7:	8b 4d f8             	mov    -0x8(%ebp),%ecx
  303bfa:	89 04 cd a0 4d 30 00 	mov    %eax,0x304da0(,%ecx,8)
  303c01:	89 14 cd a4 4d 30 00 	mov    %edx,0x304da4(,%ecx,8)
  303c08:	8b 45 f8             	mov    -0x8(%ebp),%eax
  303c0b:	0f b7 14 c5 a2 4d 30 	movzwl 0x304da2(,%eax,8),%edx
  303c12:	00 
  303c13:	83 e2 00             	and    $0x0,%edx
  303c16:	83 ca 08             	or     $0x8,%edx
  303c19:	66 89 14 c5 a2 4d 30 	mov    %dx,0x304da2(,%eax,8)
  303c20:	00 
  303c21:	8b 45 f8             	mov    -0x8(%ebp),%eax
  303c24:	0f b6 14 c5 a5 4d 30 	movzbl 0x304da5(,%eax,8),%edx
  303c2b:	00 
  303c2c:	83 e2 f0             	and    $0xfffffff0,%edx
  303c2f:	83 ca 0e             	or     $0xe,%edx
  303c32:	88 14 c5 a5 4d 30 00 	mov    %dl,0x304da5(,%eax,8)
  303c39:	0f b7 4d f0          	movzwl -0x10(%ebp),%ecx
  303c3d:	8b 45 f8             	mov    -0x8(%ebp),%eax
  303c40:	0f b7 14 c5 a6 4d 30 	movzwl 0x304da6(,%eax,8),%edx
  303c47:	00 
  303c48:	83 e2 00             	and    $0x0,%edx
  303c4b:	09 ca                	or     %ecx,%edx
  303c4d:	66 89 14 c5 a6 4d 30 	mov    %dx,0x304da6(,%eax,8)
  303c54:	00 
  303c55:	8b 45 f8             	mov    -0x8(%ebp),%eax
  303c58:	0f b6 14 c5 a5 4d 30 	movzbl 0x304da5(,%eax,8),%edx
  303c5f:	00 
  303c60:	83 ca 80             	or     $0xffffff80,%edx
  303c63:	88 14 c5 a5 4d 30 00 	mov    %dl,0x304da5(,%eax,8)
  303c6a:	83 45 f8 01          	addl   $0x1,-0x8(%ebp)
  303c6e:	83 45 fc 10          	addl   $0x10,-0x4(%ebp)
  303c72:	81 7d f8 ff 00 00 00 	cmpl   $0xff,-0x8(%ebp)
  303c79:	0f 86 66 ff ff ff    	jbe    303be5 <intr_init+0x19>
  303c7f:	c7 45 f4 a0 4d 30 00 	movl   $0x304da0,-0xc(%ebp)
  303c86:	66 c7 45 f2 ff 07    	movw   $0x7ff,-0xe(%ebp)
  303c8c:	0f 01 5d f2          	lidtl  -0xe(%ebp)
  303c90:	90                   	nop
  303c91:	c9                   	leave
  303c92:	c3                   	ret

00303c93 <intr_hdlr>:
  303c93:	55                   	push   %ebp
  303c94:	89 e5                	mov    %esp,%ebp
  303c96:	57                   	push   %edi
  303c97:	56                   	push   %esi
  303c98:	53                   	push   %ebx
  303c99:	83 ec 4c             	sub    $0x4c,%esp
  303c9c:	89 45 d4             	mov    %eax,-0x2c(%ebp)
  303c9f:	8b 45 d4             	mov    -0x2c(%ebp),%eax
  303ca2:	8b 38                	mov    (%eax),%edi
  303ca4:	8b 45 d4             	mov    -0x2c(%ebp),%eax
  303ca7:	8b 40 04             	mov    0x4(%eax),%eax
  303caa:	89 45 d0             	mov    %eax,-0x30(%ebp)
  303cad:	8b 45 d4             	mov    -0x2c(%ebp),%eax
  303cb0:	8b 50 08             	mov    0x8(%eax),%edx
  303cb3:	89 55 cc             	mov    %edx,-0x34(%ebp)
  303cb6:	8b 45 d4             	mov    -0x2c(%ebp),%eax
  303cb9:	8b 48 0c             	mov    0xc(%eax),%ecx
  303cbc:	89 4d c8             	mov    %ecx,-0x38(%ebp)
  303cbf:	8b 45 d4             	mov    -0x2c(%ebp),%eax
  303cc2:	8b 58 10             	mov    0x10(%eax),%ebx
  303cc5:	89 5d c4             	mov    %ebx,-0x3c(%ebp)
  303cc8:	8b 45 d4             	mov    -0x2c(%ebp),%eax
  303ccb:	8b 70 14             	mov    0x14(%eax),%esi
  303cce:	89 75 c0             	mov    %esi,-0x40(%ebp)
  303cd1:	8b 45 d4             	mov    -0x2c(%ebp),%eax
  303cd4:	8b 40 18             	mov    0x18(%eax),%eax
  303cd7:	89 45 bc             	mov    %eax,-0x44(%ebp)
  303cda:	8b 45 d4             	mov    -0x2c(%ebp),%eax
  303cdd:	8b 50 1c             	mov    0x1c(%eax),%edx
  303ce0:	89 55 b8             	mov    %edx,-0x48(%ebp)
  303ce3:	8b 45 d4             	mov    -0x2c(%ebp),%eax
  303ce6:	8b 48 30             	mov    0x30(%eax),%ecx
  303ce9:	89 4d b4             	mov    %ecx,-0x4c(%ebp)
  303cec:	8b 45 d4             	mov    -0x2c(%ebp),%eax
  303cef:	8b 58 34             	mov    0x34(%eax),%ebx
  303cf2:	89 5d b0             	mov    %ebx,-0x50(%ebp)
  303cf5:	8b 45 d4             	mov    -0x2c(%ebp),%eax
  303cf8:	8b 70 38             	mov    0x38(%eax),%esi
  303cfb:	8b 45 d4             	mov    -0x2c(%ebp),%eax
  303cfe:	8b 58 28             	mov    0x28(%eax),%ebx
  303d01:	8b 45 d4             	mov    -0x2c(%ebp),%eax
  303d04:	8b 48 2c             	mov    0x2c(%eax),%ecx
  303d07:	8b 45 d4             	mov    -0x2c(%ebp),%eax
  303d0a:	8b 50 24             	mov    0x24(%eax),%edx
  303d0d:	8b 45 d4             	mov    -0x2c(%ebp),%eax
  303d10:	8b 40 20             	mov    0x20(%eax),%eax
  303d13:	57                   	push   %edi
  303d14:	ff 75 d0             	push   -0x30(%ebp)
  303d17:	ff 75 cc             	push   -0x34(%ebp)
  303d1a:	ff 75 c8             	push   -0x38(%ebp)
  303d1d:	ff 75 c4             	push   -0x3c(%ebp)
  303d20:	ff 75 c0             	push   -0x40(%ebp)
  303d23:	ff 75 bc             	push   -0x44(%ebp)
  303d26:	ff 75 b8             	push   -0x48(%ebp)
  303d29:	ff 75 b4             	push   -0x4c(%ebp)
  303d2c:	ff 75 b0             	push   -0x50(%ebp)
  303d2f:	56                   	push   %esi
  303d30:	53                   	push   %ebx
  303d31:	51                   	push   %ecx
  303d32:	52                   	push   %edx
  303d33:	50                   	push   %eax
  303d34:	68 dc 45 30 00       	push   $0x3045dc
  303d39:	e8 92 f3 ff ff       	call   3030d0 <printf>
  303d3e:	83 c4 40             	add    $0x40,%esp
  303d41:	8b 45 d4             	mov    -0x2c(%ebp),%eax
  303d44:	0f b6 40 20          	movzbl 0x20(%eax),%eax
  303d48:	88 45 e7             	mov    %al,-0x19(%ebp)
  303d4b:	80 7d e7 1f          	cmpb   $0x1f,-0x19(%ebp)
  303d4f:	77 0a                	ja     303d5b <intr_hdlr+0xc8>
  303d51:	8b 45 d4             	mov    -0x2c(%ebp),%eax
  303d54:	e8 3a 00 00 00       	call   303d93 <excp_hdlr>
  303d59:	eb 15                	jmp    303d70 <intr_hdlr+0xdd>
  303d5b:	0f b6 45 e7          	movzbl -0x19(%ebp),%eax
  303d5f:	83 ec 08             	sub    $0x8,%esp
  303d62:	50                   	push   %eax
  303d63:	68 bb 46 30 00       	push   $0x3046bb
  303d68:	e8 63 f3 ff ff       	call   3030d0 <printf>
  303d6d:	83 c4 10             	add    $0x10,%esp
  303d70:	90                   	nop
  303d71:	8d 65 f4             	lea    -0xc(%ebp),%esp
  303d74:	5b                   	pop    %ebx
  303d75:	5e                   	pop    %esi
  303d76:	5f                   	pop    %edi
  303d77:	5d                   	pop    %ebp
  303d78:	c3                   	ret

00303d79 <ack_pic2>:
  303d79:	50                   	push   %eax
  303d7a:	b0 20                	mov    $0x20,%al
  303d7c:	e6 a0                	out    %al,$0xa0
  303d7e:	eb 03                	jmp    303d83 <eoi_pic1>

00303d80 <ack_pic1>:
  303d80:	50                   	push   %eax
  303d81:	b0 20                	mov    $0x20,%al

00303d83 <eoi_pic1>:
  303d83:	e6 20                	out    %al,$0x20
  303d85:	58                   	pop    %eax

00303d86 <idt_common>:
  303d86:	60                   	pusha
  303d87:	89 e0                	mov    %esp,%eax
  303d89:	e8 05 ff ff ff       	call   303c93 <intr_hdlr>

00303d8e <resume_from_intr>:
  303d8e:	61                   	popa
  303d8f:	83 c4 08             	add    $0x8,%esp
  303d92:	cf                   	iret

00303d93 <excp_hdlr>:
  303d93:	55                   	push   %ebp
  303d94:	89 e5                	mov    %esp,%ebp
  303d96:	56                   	push   %esi
  303d97:	53                   	push   %ebx
  303d98:	83 ec 20             	sub    $0x20,%esp
  303d9b:	89 45 e4             	mov    %eax,-0x1c(%ebp)
  303d9e:	8b 45 e4             	mov    -0x1c(%ebp),%eax
  303da1:	0f b6 40 20          	movzbl 0x20(%eax),%eax
  303da5:	0f b6 c0             	movzbl %al,%eax
  303da8:	8b 04 85 20 49 30 00 	mov    0x304920(,%eax,4),%eax
  303daf:	83 ec 08             	sub    $0x8,%esp
  303db2:	50                   	push   %eax
  303db3:	68 05 48 30 00       	push   $0x304805
  303db8:	e8 13 f3 ff ff       	call   3030d0 <printf>
  303dbd:	83 c4 10             	add    $0x10,%esp
  303dc0:	8b 45 e4             	mov    -0x1c(%ebp),%eax
  303dc3:	0f b6 40 20          	movzbl 0x20(%eax),%eax
  303dc7:	0f b6 c0             	movzbl %al,%eax
  303dca:	83 f8 0e             	cmp    $0xe,%eax
  303dcd:	74 2d                	je     303dfc <excp_hdlr+0x69>
  303dcf:	83 f8 0e             	cmp    $0xe,%eax
  303dd2:	0f 8f da 00 00 00    	jg     303eb2 <excp_hdlr+0x11f>
  303dd8:	83 f8 02             	cmp    $0x2,%eax
  303ddb:	74 0a                	je     303de7 <excp_hdlr+0x54>
  303ddd:	83 f8 0d             	cmp    $0xd,%eax
  303de0:	74 76                	je     303e58 <excp_hdlr+0xc5>
  303de2:	e9 cb 00 00 00       	jmp    303eb2 <excp_hdlr+0x11f>
  303de7:	83 ec 0c             	sub    $0xc,%esp
  303dea:	68 15 48 30 00       	push   $0x304815
  303def:	e8 dc f2 ff ff       	call   3030d0 <printf>
  303df4:	83 c4 10             	add    $0x10,%esp
  303df7:	e9 0c 01 00 00       	jmp    303f08 <excp_hdlr+0x175>
  303dfc:	0f 20 d0             	mov    %cr2,%eax
  303dff:	89 45 f4             	mov    %eax,-0xc(%ebp)
  303e02:	8b 75 f4             	mov    -0xc(%ebp),%esi
  303e05:	8b 45 e4             	mov    -0x1c(%ebp),%eax
  303e08:	0f b6 40 24          	movzbl 0x24(%eax),%eax
  303e0c:	c0 e8 04             	shr    $0x4,%al
  303e0f:	83 e0 01             	and    $0x1,%eax
  303e12:	0f b6 d8             	movzbl %al,%ebx
  303e15:	8b 45 e4             	mov    -0x1c(%ebp),%eax
  303e18:	0f b6 40 24          	movzbl 0x24(%eax),%eax
  303e1c:	c0 e8 02             	shr    $0x2,%al
  303e1f:	83 e0 01             	and    $0x1,%eax
  303e22:	0f b6 c8             	movzbl %al,%ecx
  303e25:	8b 45 e4             	mov    -0x1c(%ebp),%eax
  303e28:	0f b6 40 24          	movzbl 0x24(%eax),%eax
  303e2c:	d0 e8                	shr    $1,%al
  303e2e:	83 e0 01             	and    $0x1,%eax
  303e31:	0f b6 d0             	movzbl %al,%edx
  303e34:	8b 45 e4             	mov    -0x1c(%ebp),%eax
  303e37:	0f b6 40 24          	movzbl 0x24(%eax),%eax
  303e3b:	83 e0 01             	and    $0x1,%eax
  303e3e:	0f b6 c0             	movzbl %al,%eax
  303e41:	83 ec 08             	sub    $0x8,%esp
  303e44:	56                   	push   %esi
  303e45:	53                   	push   %ebx
  303e46:	51                   	push   %ecx
  303e47:	52                   	push   %edx
  303e48:	50                   	push   %eax
  303e49:	68 28 48 30 00       	push   $0x304828
  303e4e:	e8 7d f2 ff ff       	call   3030d0 <printf>
  303e53:	83 c4 20             	add    $0x20,%esp
  303e56:	eb 5a                	jmp    303eb2 <excp_hdlr+0x11f>
  303e58:	8b 45 e4             	mov    -0x1c(%ebp),%eax
  303e5b:	0f b6 50 24          	movzbl 0x24(%eax),%edx
  303e5f:	c0 ea 03             	shr    $0x3,%dl
  303e62:	0f b6 d2             	movzbl %dl,%edx
  303e65:	0f b6 40 25          	movzbl 0x25(%eax),%eax
  303e69:	c1 e0 05             	shl    $0x5,%eax
  303e6c:	09 d0                	or     %edx,%eax
  303e6e:	0f b7 d8             	movzwl %ax,%ebx
  303e71:	8b 45 e4             	mov    -0x1c(%ebp),%eax
  303e74:	0f b6 40 24          	movzbl 0x24(%eax),%eax
  303e78:	c0 e8 02             	shr    $0x2,%al
  303e7b:	83 e0 01             	and    $0x1,%eax
  303e7e:	0f b6 c8             	movzbl %al,%ecx
  303e81:	8b 45 e4             	mov    -0x1c(%ebp),%eax
  303e84:	0f b6 40 24          	movzbl 0x24(%eax),%eax
  303e88:	d0 e8                	shr    $1,%al
  303e8a:	83 e0 01             	and    $0x1,%eax
  303e8d:	0f b6 d0             	movzbl %al,%edx
  303e90:	8b 45 e4             	mov    -0x1c(%ebp),%eax
  303e93:	0f b6 40 24          	movzbl 0x24(%eax),%eax
  303e97:	83 e0 01             	and    $0x1,%eax
  303e9a:	0f b6 c0             	movzbl %al,%eax
  303e9d:	83 ec 0c             	sub    $0xc,%esp
  303ea0:	53                   	push   %ebx
  303ea1:	51                   	push   %ecx
  303ea2:	52                   	push   %edx
  303ea3:	50                   	push   %eax
  303ea4:	68 58 48 30 00       	push   $0x304858
  303ea9:	e8 22 f2 ff ff       	call   3030d0 <printf>
  303eae:	83 c4 20             	add    $0x20,%esp
  303eb1:	90                   	nop
  303eb2:	0f 20 c0             	mov    %cr0,%eax
  303eb5:	89 45 f0             	mov    %eax,-0x10(%ebp)
  303eb8:	8b 45 f0             	mov    -0x10(%ebp),%eax
  303ebb:	83 ec 08             	sub    $0x8,%esp
  303ebe:	50                   	push   %eax
  303ebf:	68 83 48 30 00       	push   $0x304883
  303ec4:	e8 07 f2 ff ff       	call   3030d0 <printf>
  303ec9:	83 c4 10             	add    $0x10,%esp
  303ecc:	0f 20 e0             	mov    %cr4,%eax
  303ecf:	89 45 ec             	mov    %eax,-0x14(%ebp)
  303ed2:	8b 45 ec             	mov    -0x14(%ebp),%eax
  303ed5:	83 ec 08             	sub    $0x8,%esp
  303ed8:	50                   	push   %eax
  303ed9:	68 8d 48 30 00       	push   $0x30488d
  303ede:	e8 ed f1 ff ff       	call   3030d0 <printf>
  303ee3:	83 c4 10             	add    $0x10,%esp
  303ee6:	8b 45 e4             	mov    -0x1c(%ebp),%eax
  303ee9:	8b 40 08             	mov    0x8(%eax),%eax
  303eec:	83 ec 0c             	sub    $0xc,%esp
  303eef:	50                   	push   %eax
  303ef0:	e8 1a 00 00 00       	call   303f0f <stack_trace>
  303ef5:	83 c4 10             	add    $0x10,%esp
  303ef8:	83 ec 0c             	sub    $0xc,%esp
  303efb:	68 97 48 30 00       	push   $0x304897
  303f00:	e8 a3 f1 ff ff       	call   3030a8 <panic>
  303f05:	83 c4 10             	add    $0x10,%esp
  303f08:	8d 65 f8             	lea    -0x8(%ebp),%esp
  303f0b:	5b                   	pop    %ebx
  303f0c:	5e                   	pop    %esi
  303f0d:	5d                   	pop    %ebp
  303f0e:	c3                   	ret

00303f0f <stack_trace>:
  303f0f:	55                   	push   %ebp
  303f10:	89 e5                	mov    %esp,%ebp
  303f12:	83 ec 18             	sub    $0x18,%esp
  303f15:	83 ec 0c             	sub    $0xc,%esp
  303f18:	68 aa 48 30 00       	push   $0x3048aa
  303f1d:	e8 ae f1 ff ff       	call   3030d0 <printf>
  303f22:	83 c4 10             	add    $0x10,%esp
  303f25:	8b 45 08             	mov    0x8(%ebp),%eax
  303f28:	89 45 f4             	mov    %eax,-0xc(%ebp)
  303f2b:	eb 26                	jmp    303f53 <stack_trace+0x44>
  303f2d:	8b 45 f4             	mov    -0xc(%ebp),%eax
  303f30:	83 c0 04             	add    $0x4,%eax
  303f33:	8b 00                	mov    (%eax),%eax
  303f35:	89 45 f0             	mov    %eax,-0x10(%ebp)
  303f38:	8b 45 f4             	mov    -0xc(%ebp),%eax
  303f3b:	8b 00                	mov    (%eax),%eax
  303f3d:	89 45 f4             	mov    %eax,-0xc(%ebp)
  303f40:	83 ec 08             	sub    $0x8,%esp
  303f43:	ff 75 f0             	push   -0x10(%ebp)
  303f46:	68 be 48 30 00       	push   $0x3048be
  303f4b:	e8 80 f1 ff ff       	call   3030d0 <printf>
  303f50:	83 c4 10             	add    $0x10,%esp
  303f53:	83 7d f4 00          	cmpl   $0x0,-0xc(%ebp)
  303f57:	74 09                	je     303f62 <stack_trace+0x53>
  303f59:	81 7d f4 10 20 30 00 	cmpl   $0x302010,-0xc(%ebp)
  303f60:	72 cb                	jb     303f2d <stack_trace+0x1e>
  303f62:	90                   	nop
  303f63:	c9                   	leave
  303f64:	c3                   	ret

00303f65 <bp_handler>:
  303f65:	55                   	push   %ebp
  303f66:	89 e5                	mov    %esp,%ebp
  303f68:	83 ec 18             	sub    $0x18,%esp
  303f6b:	60                   	pusha
  303f6c:	8b 45 04             	mov    0x4(%ebp),%eax
  303f6f:	89 45 f4             	mov    %eax,-0xc(%ebp)
  303f72:	83 ec 08             	sub    $0x8,%esp
  303f75:	ff 75 f4             	push   -0xc(%ebp)
  303f78:	68 c4 48 30 00       	push   $0x3048c4
  303f7d:	e8 4e f1 ff ff       	call   3030d0 <printf>
  303f82:	83 c4 10             	add    $0x10,%esp
  303f85:	61                   	popa
  303f86:	cf                   	iret
  303f87:	90                   	nop
  303f88:	c9                   	leave
  303f89:	c3                   	ret

00303f8a <bp_trigger>:
  303f8a:	55                   	push   %ebp
  303f8b:	89 e5                	mov    %esp,%ebp
  303f8d:	cc                   	int3
  303f8e:	90                   	nop
  303f8f:	5d                   	pop    %ebp
  303f90:	c3                   	ret

00303f91 <tp>:
  303f91:	55                   	push   %ebp
  303f92:	89 e5                	mov    %esp,%ebp
  303f94:	53                   	push   %ebx
  303f95:	83 ec 14             	sub    $0x14,%esp
  303f98:	0f 01 4d f2          	sidtl  -0xe(%ebp)
  303f9c:	8b 45 f4             	mov    -0xc(%ebp),%eax
  303f9f:	83 ec 08             	sub    $0x8,%esp
  303fa2:	50                   	push   %eax
  303fa3:	68 e3 48 30 00       	push   $0x3048e3
  303fa8:	e8 23 f1 ff ff       	call   3030d0 <printf>
  303fad:	83 c4 10             	add    $0x10,%esp
  303fb0:	b8 65 3f 30 00       	mov    $0x303f65,%eax
  303fb5:	89 45 ee             	mov    %eax,-0x12(%ebp)
  303fb8:	0f b7 5d ee          	movzwl -0x12(%ebp),%ebx
  303fbc:	8b 45 f4             	mov    -0xc(%ebp),%eax
  303fbf:	8d 48 18             	lea    0x18(%eax),%ecx
  303fc2:	0f b7 c3             	movzwl %bx,%eax
  303fc5:	ba 00 00 00 00       	mov    $0x0,%edx
  303fca:	89 01                	mov    %eax,(%ecx)
  303fcc:	89 51 04             	mov    %edx,0x4(%ecx)
  303fcf:	8b 45 f4             	mov    -0xc(%ebp),%eax
  303fd2:	83 c0 18             	add    $0x18,%eax
  303fd5:	0f b6 50 02          	movzbl 0x2(%eax),%edx
  303fd9:	83 e2 00             	and    $0x0,%edx
  303fdc:	83 ca 08             	or     $0x8,%edx
  303fdf:	88 50 02             	mov    %dl,0x2(%eax)
  303fe2:	0f b6 50 03          	movzbl 0x3(%eax),%edx
  303fe6:	83 e2 00             	and    $0x0,%edx
  303fe9:	88 50 03             	mov    %dl,0x3(%eax)
  303fec:	8b 45 f4             	mov    -0xc(%ebp),%eax
  303fef:	83 c0 18             	add    $0x18,%eax
  303ff2:	0f b6 50 05          	movzbl 0x5(%eax),%edx
  303ff6:	83 e2 f0             	and    $0xfffffff0,%edx
  303ff9:	83 ca 0e             	or     $0xe,%edx
  303ffc:	88 50 05             	mov    %dl,0x5(%eax)
  303fff:	8b 45 f4             	mov    -0xc(%ebp),%eax
  304002:	83 c0 18             	add    $0x18,%eax
  304005:	0f b7 55 f0          	movzwl -0x10(%ebp),%edx
  304009:	0f b7 ca             	movzwl %dx,%ecx
  30400c:	0f b6 d9             	movzbl %cl,%ebx
  30400f:	0f b6 48 06          	movzbl 0x6(%eax),%ecx
  304013:	83 e1 00             	and    $0x0,%ecx
  304016:	09 d9                	or     %ebx,%ecx
  304018:	88 48 06             	mov    %cl,0x6(%eax)
  30401b:	66 c1 ea 08          	shr    $0x8,%dx
  30401f:	0f b7 ca             	movzwl %dx,%ecx
  304022:	0f b6 50 07          	movzbl 0x7(%eax),%edx
  304026:	83 e2 00             	and    $0x0,%edx
  304029:	09 ca                	or     %ecx,%edx
  30402b:	88 50 07             	mov    %dl,0x7(%eax)
  30402e:	8b 45 f4             	mov    -0xc(%ebp),%eax
  304031:	83 c0 18             	add    $0x18,%eax
  304034:	0f b6 50 05          	movzbl 0x5(%eax),%edx
  304038:	83 ca 80             	or     $0xffffff80,%edx
  30403b:	88 50 05             	mov    %dl,0x5(%eax)
  30403e:	e8 47 ff ff ff       	call   303f8a <bp_trigger>
  304043:	90                   	nop
  304044:	8b 5d fc             	mov    -0x4(%ebp),%ebx
  304047:	c9                   	leave
  304048:	c3                   	ret
  304049:	66 90                	xchg   %ax,%ax
  30404b:	66 90                	xchg   %ax,%ax
  30404d:	66 90                	xchg   %ax,%ax
  30404f:	90                   	nop

00304050 <__divdi3>:
  304050:	f3 0f 1e fb          	endbr32
  304054:	55                   	push   %ebp
  304055:	57                   	push   %edi
  304056:	56                   	push   %esi
  304057:	53                   	push   %ebx
  304058:	83 ec 1c             	sub    $0x1c,%esp
  30405b:	8b 5c 24 34          	mov    0x34(%esp),%ebx
  30405f:	8b 4c 24 30          	mov    0x30(%esp),%ecx
  304063:	c7 44 24 08 00 00 00 	movl   $0x0,0x8(%esp)
  30406a:	00 
  30406b:	8b 44 24 38          	mov    0x38(%esp),%eax
  30406f:	8b 54 24 3c          	mov    0x3c(%esp),%edx
  304073:	89 0c 24             	mov    %ecx,(%esp)
  304076:	89 dd                	mov    %ebx,%ebp
  304078:	89 5c 24 04          	mov    %ebx,0x4(%esp)
  30407c:	85 db                	test   %ebx,%ebx
  30407e:	79 18                	jns    304098 <__divdi3+0x48>
  304080:	f7 d9                	neg    %ecx
  304082:	c7 44 24 08 ff ff ff 	movl   $0xffffffff,0x8(%esp)
  304089:	ff 
  30408a:	83 d3 00             	adc    $0x0,%ebx
  30408d:	89 0c 24             	mov    %ecx,(%esp)
  304090:	f7 db                	neg    %ebx
  304092:	89 5c 24 04          	mov    %ebx,0x4(%esp)
  304096:	89 dd                	mov    %ebx,%ebp
  304098:	89 d3                	mov    %edx,%ebx
  30409a:	85 d2                	test   %edx,%edx
  30409c:	79 0d                	jns    3040ab <__divdi3+0x5b>
  30409e:	f7 d8                	neg    %eax
  3040a0:	f7 54 24 08          	notl   0x8(%esp)
  3040a4:	83 d2 00             	adc    $0x0,%edx
  3040a7:	f7 da                	neg    %edx
  3040a9:	89 d3                	mov    %edx,%ebx
  3040ab:	89 c7                	mov    %eax,%edi
  3040ad:	8b 04 24             	mov    (%esp),%eax
  3040b0:	85 db                	test   %ebx,%ebx
  3040b2:	75 14                	jne    3040c8 <__divdi3+0x78>
  3040b4:	39 fd                	cmp    %edi,%ebp
  3040b6:	73 58                	jae    304110 <__divdi3+0xc0>
  3040b8:	89 ea                	mov    %ebp,%edx
  3040ba:	31 f6                	xor    %esi,%esi
  3040bc:	f7 f7                	div    %edi
  3040be:	89 c5                	mov    %eax,%ebp
  3040c0:	eb 0e                	jmp    3040d0 <__divdi3+0x80>
  3040c2:	8d b6 00 00 00 00    	lea    0x0(%esi),%esi
  3040c8:	39 dd                	cmp    %ebx,%ebp
  3040ca:	73 24                	jae    3040f0 <__divdi3+0xa0>
  3040cc:	31 f6                	xor    %esi,%esi
  3040ce:	31 ed                	xor    %ebp,%ebp
  3040d0:	8b 4c 24 08          	mov    0x8(%esp),%ecx
  3040d4:	89 e8                	mov    %ebp,%eax
  3040d6:	89 f2                	mov    %esi,%edx
  3040d8:	85 c9                	test   %ecx,%ecx
  3040da:	74 07                	je     3040e3 <__divdi3+0x93>
  3040dc:	f7 d8                	neg    %eax
  3040de:	83 d2 00             	adc    $0x0,%edx
  3040e1:	f7 da                	neg    %edx
  3040e3:	83 c4 1c             	add    $0x1c,%esp
  3040e6:	5b                   	pop    %ebx
  3040e7:	5e                   	pop    %esi
  3040e8:	5f                   	pop    %edi
  3040e9:	5d                   	pop    %ebp
  3040ea:	c3                   	ret
  3040eb:	2e 8d 74 26 00       	lea    %cs:0x0(%esi,%eiz,1),%esi
  3040f0:	0f bd c3             	bsr    %ebx,%eax
  3040f3:	83 f0 1f             	xor    $0x1f,%eax
  3040f6:	89 c6                	mov    %eax,%esi
  3040f8:	75 36                	jne    304130 <__divdi3+0xe0>
  3040fa:	39 eb                	cmp    %ebp,%ebx
  3040fc:	72 07                	jb     304105 <__divdi3+0xb5>
  3040fe:	31 ed                	xor    %ebp,%ebp
  304100:	39 3c 24             	cmp    %edi,(%esp)
  304103:	72 cb                	jb     3040d0 <__divdi3+0x80>
  304105:	bd 01 00 00 00       	mov    $0x1,%ebp
  30410a:	eb c4                	jmp    3040d0 <__divdi3+0x80>
  30410c:	8d 74 26 00          	lea    0x0(%esi,%eiz,1),%esi
  304110:	85 ff                	test   %edi,%edi
  304112:	75 0b                	jne    30411f <__divdi3+0xcf>
  304114:	b8 01 00 00 00       	mov    $0x1,%eax
  304119:	31 d2                	xor    %edx,%edx
  30411b:	f7 f3                	div    %ebx
  30411d:	89 c7                	mov    %eax,%edi
  30411f:	89 e8                	mov    %ebp,%eax
  304121:	31 d2                	xor    %edx,%edx
  304123:	f7 f7                	div    %edi
  304125:	89 c6                	mov    %eax,%esi
  304127:	8b 04 24             	mov    (%esp),%eax
  30412a:	f7 f7                	div    %edi
  30412c:	89 c5                	mov    %eax,%ebp
  30412e:	eb a0                	jmp    3040d0 <__divdi3+0x80>
  304130:	b8 20 00 00 00       	mov    $0x20,%eax
  304135:	89 f1                	mov    %esi,%ecx
  304137:	89 fa                	mov    %edi,%edx
  304139:	29 f0                	sub    %esi,%eax
  30413b:	d3 e3                	shl    %cl,%ebx
  30413d:	89 c1                	mov    %eax,%ecx
  30413f:	d3 ea                	shr    %cl,%edx
  304141:	89 f1                	mov    %esi,%ecx
  304143:	09 da                	or     %ebx,%edx
  304145:	d3 e7                	shl    %cl,%edi
  304147:	89 eb                	mov    %ebp,%ebx
  304149:	89 c1                	mov    %eax,%ecx
  30414b:	d3 eb                	shr    %cl,%ebx
  30414d:	89 54 24 0c          	mov    %edx,0xc(%esp)
  304151:	89 f1                	mov    %esi,%ecx
  304153:	8b 14 24             	mov    (%esp),%edx
  304156:	d3 e5                	shl    %cl,%ebp
  304158:	89 c1                	mov    %eax,%ecx
  30415a:	d3 ea                	shr    %cl,%edx
  30415c:	09 d5                	or     %edx,%ebp
  30415e:	89 da                	mov    %ebx,%edx
  304160:	89 e8                	mov    %ebp,%eax
  304162:	f7 74 24 0c          	divl   0xc(%esp)
  304166:	89 d3                	mov    %edx,%ebx
  304168:	89 c5                	mov    %eax,%ebp
  30416a:	f7 e7                	mul    %edi
  30416c:	39 d3                	cmp    %edx,%ebx
  30416e:	72 0f                	jb     30417f <__divdi3+0x12f>
  304170:	8b 3c 24             	mov    (%esp),%edi
  304173:	89 f1                	mov    %esi,%ecx
  304175:	d3 e7                	shl    %cl,%edi
  304177:	39 c7                	cmp    %eax,%edi
  304179:	73 07                	jae    304182 <__divdi3+0x132>
  30417b:	39 d3                	cmp    %edx,%ebx
  30417d:	75 03                	jne    304182 <__divdi3+0x132>
  30417f:	83 ed 01             	sub    $0x1,%ebp
  304182:	31 f6                	xor    %esi,%esi
  304184:	e9 47 ff ff ff       	jmp    3040d0 <__divdi3+0x80>
  304189:	66 90                	xchg   %ax,%ax
  30418b:	66 90                	xchg   %ax,%ax
  30418d:	66 90                	xchg   %ax,%ax
  30418f:	90                   	nop

00304190 <__moddi3>:
  304190:	f3 0f 1e fb          	endbr32
  304194:	55                   	push   %ebp
  304195:	57                   	push   %edi
  304196:	56                   	push   %esi
  304197:	53                   	push   %ebx
  304198:	83 ec 2c             	sub    $0x2c,%esp
  30419b:	8b 54 24 44          	mov    0x44(%esp),%edx
  30419f:	8b 44 24 40          	mov    0x40(%esp),%eax
  3041a3:	c7 44 24 0c 00 00 00 	movl   $0x0,0xc(%esp)
  3041aa:	00 
  3041ab:	8b 4c 24 48          	mov    0x48(%esp),%ecx
  3041af:	8b 5c 24 4c          	mov    0x4c(%esp),%ebx
  3041b3:	89 d6                	mov    %edx,%esi
  3041b5:	85 d2                	test   %edx,%edx
  3041b7:	79 11                	jns    3041ca <__moddi3+0x3a>
  3041b9:	f7 d8                	neg    %eax
  3041bb:	c7 44 24 0c ff ff ff 	movl   $0xffffffff,0xc(%esp)
  3041c2:	ff 
  3041c3:	83 d2 00             	adc    $0x0,%edx
  3041c6:	f7 da                	neg    %edx
  3041c8:	89 d6                	mov    %edx,%esi
  3041ca:	89 df                	mov    %ebx,%edi
  3041cc:	85 db                	test   %ebx,%ebx
  3041ce:	0f 88 04 01 00 00    	js     3042d8 <__moddi3+0x148>
  3041d4:	89 44 24 18          	mov    %eax,0x18(%esp)
  3041d8:	89 cb                	mov    %ecx,%ebx
  3041da:	89 fd                	mov    %edi,%ebp
  3041dc:	75 32                	jne    304210 <__moddi3+0x80>
  3041de:	39 de                	cmp    %ebx,%esi
  3041e0:	0f 83 ca 00 00 00    	jae    3042b0 <__moddi3+0x120>
  3041e6:	8b 44 24 18          	mov    0x18(%esp),%eax
  3041ea:	89 f2                	mov    %esi,%edx
  3041ec:	f7 f3                	div    %ebx
  3041ee:	89 d1                	mov    %edx,%ecx
  3041f0:	89 c8                	mov    %ecx,%eax
  3041f2:	31 d2                	xor    %edx,%edx
  3041f4:	8b 4c 24 0c          	mov    0xc(%esp),%ecx
  3041f8:	85 c9                	test   %ecx,%ecx
  3041fa:	74 07                	je     304203 <__moddi3+0x73>
  3041fc:	f7 d8                	neg    %eax
  3041fe:	83 d2 00             	adc    $0x0,%edx
  304201:	f7 da                	neg    %edx
  304203:	83 c4 2c             	add    $0x2c,%esp
  304206:	5b                   	pop    %ebx
  304207:	5e                   	pop    %esi
  304208:	5f                   	pop    %edi
  304209:	5d                   	pop    %ebp
  30420a:	c3                   	ret
  30420b:	2e 8d 74 26 00       	lea    %cs:0x0(%esi,%eiz,1),%esi
  304210:	39 fe                	cmp    %edi,%esi
  304212:	0f 82 07 01 00 00    	jb     30431f <__moddi3+0x18f>
  304218:	0f bd c7             	bsr    %edi,%eax
  30421b:	83 f0 1f             	xor    $0x1f,%eax
  30421e:	89 c7                	mov    %eax,%edi
  304220:	ba 20 00 00 00       	mov    $0x20,%edx
  304225:	89 f9                	mov    %edi,%ecx
  304227:	89 d8                	mov    %ebx,%eax
  304229:	29 fa                	sub    %edi,%edx
  30422b:	d3 e5                	shl    %cl,%ebp
  30422d:	89 d1                	mov    %edx,%ecx
  30422f:	89 54 24 1c          	mov    %edx,0x1c(%esp)
  304233:	d3 e8                	shr    %cl,%eax
  304235:	89 f9                	mov    %edi,%ecx
  304237:	d3 e3                	shl    %cl,%ebx
  304239:	09 c5                	or     %eax,%ebp
  30423b:	89 d1                	mov    %edx,%ecx
  30423d:	89 f0                	mov    %esi,%eax
  30423f:	d3 e8                	shr    %cl,%eax
  304241:	89 5c 24 10          	mov    %ebx,0x10(%esp)
  304245:	89 f9                	mov    %edi,%ecx
  304247:	89 d3                	mov    %edx,%ebx
  304249:	89 c2                	mov    %eax,%edx
  30424b:	8b 44 24 18          	mov    0x18(%esp),%eax
  30424f:	d3 e6                	shl    %cl,%esi
  304251:	89 d9                	mov    %ebx,%ecx
  304253:	d3 e8                	shr    %cl,%eax
  304255:	89 f9                	mov    %edi,%ecx
  304257:	09 f0                	or     %esi,%eax
  304259:	8b 74 24 18          	mov    0x18(%esp),%esi
  30425d:	f7 f5                	div    %ebp
  30425f:	d3 e6                	shl    %cl,%esi
  304261:	89 d3                	mov    %edx,%ebx
  304263:	89 74 24 18          	mov    %esi,0x18(%esp)
  304267:	f7 64 24 10          	mull   0x10(%esp)
  30426b:	89 c6                	mov    %eax,%esi
  30426d:	89 d1                	mov    %edx,%ecx
  30426f:	39 d3                	cmp    %edx,%ebx
  304271:	72 08                	jb     30427b <__moddi3+0xeb>
  304273:	75 10                	jne    304285 <__moddi3+0xf5>
  304275:	39 44 24 18          	cmp    %eax,0x18(%esp)
  304279:	73 0a                	jae    304285 <__moddi3+0xf5>
  30427b:	2b 44 24 10          	sub    0x10(%esp),%eax
  30427f:	19 ea                	sbb    %ebp,%edx
  304281:	89 d1                	mov    %edx,%ecx
  304283:	89 c6                	mov    %eax,%esi
  304285:	8b 6c 24 18          	mov    0x18(%esp),%ebp
  304289:	29 f5                	sub    %esi,%ebp
  30428b:	19 cb                	sbb    %ecx,%ebx
  30428d:	0f b6 4c 24 1c       	movzbl 0x1c(%esp),%ecx
  304292:	89 de                	mov    %ebx,%esi
  304294:	d3 e6                	shl    %cl,%esi
  304296:	89 f9                	mov    %edi,%ecx
  304298:	d3 ed                	shr    %cl,%ebp
  30429a:	d3 eb                	shr    %cl,%ebx
  30429c:	09 ee                	or     %ebp,%esi
  30429e:	89 da                	mov    %ebx,%edx
  3042a0:	89 f0                	mov    %esi,%eax
  3042a2:	e9 4d ff ff ff       	jmp    3041f4 <__moddi3+0x64>
  3042a7:	2e 8d b4 26 00 00 00 	lea    %cs:0x0(%esi,%eiz,1),%esi
  3042ae:	00 
  3042af:	90                   	nop
  3042b0:	85 db                	test   %ebx,%ebx
  3042b2:	75 0b                	jne    3042bf <__moddi3+0x12f>
  3042b4:	b8 01 00 00 00       	mov    $0x1,%eax
  3042b9:	31 d2                	xor    %edx,%edx
  3042bb:	f7 f3                	div    %ebx
  3042bd:	89 c3                	mov    %eax,%ebx
  3042bf:	89 f0                	mov    %esi,%eax
  3042c1:	31 d2                	xor    %edx,%edx
  3042c3:	f7 f3                	div    %ebx
  3042c5:	8b 44 24 18          	mov    0x18(%esp),%eax
  3042c9:	f7 f3                	div    %ebx
  3042cb:	89 d1                	mov    %edx,%ecx
  3042cd:	e9 1e ff ff ff       	jmp    3041f0 <__moddi3+0x60>
  3042d2:	8d b6 00 00 00 00    	lea    0x0(%esi),%esi
  3042d8:	f7 d9                	neg    %ecx
  3042da:	89 44 24 18          	mov    %eax,0x18(%esp)
  3042de:	83 d3 00             	adc    $0x0,%ebx
  3042e1:	89 4c 24 10          	mov    %ecx,0x10(%esp)
  3042e5:	f7 db                	neg    %ebx
  3042e7:	89 5c 24 14          	mov    %ebx,0x14(%esp)
  3042eb:	89 dd                	mov    %ebx,%ebp
  3042ed:	89 cb                	mov    %ecx,%ebx
  3042ef:	0f 84 e9 fe ff ff    	je     3041de <__moddi3+0x4e>
  3042f5:	89 c1                	mov    %eax,%ecx
  3042f7:	39 ee                	cmp    %ebp,%esi
  3042f9:	72 26                	jb     304321 <__moddi3+0x191>
  3042fb:	0f bd c5             	bsr    %ebp,%eax
  3042fe:	83 f0 1f             	xor    $0x1f,%eax
  304301:	89 c7                	mov    %eax,%edi
  304303:	0f 85 17 ff ff ff    	jne    304220 <__moddi3+0x90>
  304309:	39 f5                	cmp    %esi,%ebp
  30430b:	72 06                	jb     304313 <__moddi3+0x183>
  30430d:	39 5c 24 18          	cmp    %ebx,0x18(%esp)
  304311:	72 0e                	jb     304321 <__moddi3+0x191>
  304313:	8b 44 24 18          	mov    0x18(%esp),%eax
  304317:	2b 44 24 10          	sub    0x10(%esp),%eax
  30431b:	1b 74 24 14          	sbb    0x14(%esp),%esi
  30431f:	89 c1                	mov    %eax,%ecx
  304321:	89 c8                	mov    %ecx,%eax
  304323:	89 f2                	mov    %esi,%edx
  304325:	e9 ca fe ff ff       	jmp    3041f4 <__moddi3+0x64>
  30432a:	66 90                	xchg   %ax,%ax
  30432c:	66 90                	xchg   %ax,%ax
  30432e:	66 90                	xchg   %ax,%ax

00304330 <__udivdi3>:
  304330:	f3 0f 1e fb          	endbr32
  304334:	55                   	push   %ebp
  304335:	57                   	push   %edi
  304336:	56                   	push   %esi
  304337:	53                   	push   %ebx
  304338:	83 ec 1c             	sub    $0x1c,%esp
  30433b:	8b 44 24 3c          	mov    0x3c(%esp),%eax
  30433f:	8b 6c 24 30          	mov    0x30(%esp),%ebp
  304343:	8b 74 24 34          	mov    0x34(%esp),%esi
  304347:	8b 5c 24 38          	mov    0x38(%esp),%ebx
  30434b:	85 c0                	test   %eax,%eax
  30434d:	75 19                	jne    304368 <__udivdi3+0x38>
  30434f:	39 de                	cmp    %ebx,%esi
  304351:	73 4d                	jae    3043a0 <__udivdi3+0x70>
  304353:	31 ff                	xor    %edi,%edi
  304355:	89 e8                	mov    %ebp,%eax
  304357:	89 f2                	mov    %esi,%edx
  304359:	f7 f3                	div    %ebx
  30435b:	89 fa                	mov    %edi,%edx
  30435d:	83 c4 1c             	add    $0x1c,%esp
  304360:	5b                   	pop    %ebx
  304361:	5e                   	pop    %esi
  304362:	5f                   	pop    %edi
  304363:	5d                   	pop    %ebp
  304364:	c3                   	ret
  304365:	8d 76 00             	lea    0x0(%esi),%esi
  304368:	39 c6                	cmp    %eax,%esi
  30436a:	73 14                	jae    304380 <__udivdi3+0x50>
  30436c:	31 ff                	xor    %edi,%edi
  30436e:	31 c0                	xor    %eax,%eax
  304370:	89 fa                	mov    %edi,%edx
  304372:	83 c4 1c             	add    $0x1c,%esp
  304375:	5b                   	pop    %ebx
  304376:	5e                   	pop    %esi
  304377:	5f                   	pop    %edi
  304378:	5d                   	pop    %ebp
  304379:	c3                   	ret
  30437a:	8d b6 00 00 00 00    	lea    0x0(%esi),%esi
  304380:	0f bd f8             	bsr    %eax,%edi
  304383:	83 f7 1f             	xor    $0x1f,%edi
  304386:	75 48                	jne    3043d0 <__udivdi3+0xa0>
  304388:	39 f0                	cmp    %esi,%eax
  30438a:	72 06                	jb     304392 <__udivdi3+0x62>
  30438c:	31 c0                	xor    %eax,%eax
  30438e:	39 dd                	cmp    %ebx,%ebp
  304390:	72 de                	jb     304370 <__udivdi3+0x40>
  304392:	b8 01 00 00 00       	mov    $0x1,%eax
  304397:	eb d7                	jmp    304370 <__udivdi3+0x40>
  304399:	8d b4 26 00 00 00 00 	lea    0x0(%esi,%eiz,1),%esi
  3043a0:	89 d9                	mov    %ebx,%ecx
  3043a2:	85 db                	test   %ebx,%ebx
  3043a4:	75 0b                	jne    3043b1 <__udivdi3+0x81>
  3043a6:	b8 01 00 00 00       	mov    $0x1,%eax
  3043ab:	31 d2                	xor    %edx,%edx
  3043ad:	f7 f3                	div    %ebx
  3043af:	89 c1                	mov    %eax,%ecx
  3043b1:	31 d2                	xor    %edx,%edx
  3043b3:	89 f0                	mov    %esi,%eax
  3043b5:	f7 f1                	div    %ecx
  3043b7:	89 c6                	mov    %eax,%esi
  3043b9:	89 e8                	mov    %ebp,%eax
  3043bb:	89 f7                	mov    %esi,%edi
  3043bd:	f7 f1                	div    %ecx
  3043bf:	89 fa                	mov    %edi,%edx
  3043c1:	83 c4 1c             	add    $0x1c,%esp
  3043c4:	5b                   	pop    %ebx
  3043c5:	5e                   	pop    %esi
  3043c6:	5f                   	pop    %edi
  3043c7:	5d                   	pop    %ebp
  3043c8:	c3                   	ret
  3043c9:	8d b4 26 00 00 00 00 	lea    0x0(%esi,%eiz,1),%esi
  3043d0:	89 f9                	mov    %edi,%ecx
  3043d2:	ba 20 00 00 00       	mov    $0x20,%edx
  3043d7:	29 fa                	sub    %edi,%edx
  3043d9:	d3 e0                	shl    %cl,%eax
  3043db:	89 44 24 08          	mov    %eax,0x8(%esp)
  3043df:	89 d1                	mov    %edx,%ecx
  3043e1:	89 d8                	mov    %ebx,%eax
  3043e3:	d3 e8                	shr    %cl,%eax
  3043e5:	89 c1                	mov    %eax,%ecx
  3043e7:	8b 44 24 08          	mov    0x8(%esp),%eax
  3043eb:	09 c1                	or     %eax,%ecx
  3043ed:	89 f0                	mov    %esi,%eax
  3043ef:	89 4c 24 08          	mov    %ecx,0x8(%esp)
  3043f3:	89 f9                	mov    %edi,%ecx
  3043f5:	d3 e3                	shl    %cl,%ebx
  3043f7:	89 d1                	mov    %edx,%ecx
  3043f9:	d3 e8                	shr    %cl,%eax
  3043fb:	89 f9                	mov    %edi,%ecx
  3043fd:	89 5c 24 0c          	mov    %ebx,0xc(%esp)
  304401:	89 eb                	mov    %ebp,%ebx
  304403:	d3 e6                	shl    %cl,%esi
  304405:	89 d1                	mov    %edx,%ecx
  304407:	d3 eb                	shr    %cl,%ebx
  304409:	09 f3                	or     %esi,%ebx
  30440b:	89 c6                	mov    %eax,%esi
  30440d:	89 f2                	mov    %esi,%edx
  30440f:	89 d8                	mov    %ebx,%eax
  304411:	f7 74 24 08          	divl   0x8(%esp)
  304415:	89 d6                	mov    %edx,%esi
  304417:	89 c3                	mov    %eax,%ebx
  304419:	f7 64 24 0c          	mull   0xc(%esp)
  30441d:	39 d6                	cmp    %edx,%esi
  30441f:	72 1f                	jb     304440 <__udivdi3+0x110>
  304421:	89 f9                	mov    %edi,%ecx
  304423:	d3 e5                	shl    %cl,%ebp
  304425:	39 c5                	cmp    %eax,%ebp
  304427:	73 04                	jae    30442d <__udivdi3+0xfd>
  304429:	39 d6                	cmp    %edx,%esi
  30442b:	74 13                	je     304440 <__udivdi3+0x110>
  30442d:	89 d8                	mov    %ebx,%eax
  30442f:	31 ff                	xor    %edi,%edi
  304431:	e9 3a ff ff ff       	jmp    304370 <__udivdi3+0x40>
  304436:	2e 8d b4 26 00 00 00 	lea    %cs:0x0(%esi,%eiz,1),%esi
  30443d:	00 
  30443e:	66 90                	xchg   %ax,%ax
  304440:	8d 43 ff             	lea    -0x1(%ebx),%eax
  304443:	31 ff                	xor    %edi,%edi
  304445:	e9 26 ff ff ff       	jmp    304370 <__udivdi3+0x40>
  30444a:	66 90                	xchg   %ax,%ax
  30444c:	66 90                	xchg   %ax,%ax
  30444e:	66 90                	xchg   %ax,%ax

00304450 <__umoddi3>:
  304450:	f3 0f 1e fb          	endbr32
  304454:	55                   	push   %ebp
  304455:	57                   	push   %edi
  304456:	56                   	push   %esi
  304457:	53                   	push   %ebx
  304458:	83 ec 1c             	sub    $0x1c,%esp
  30445b:	8b 5c 24 34          	mov    0x34(%esp),%ebx
  30445f:	8b 44 24 3c          	mov    0x3c(%esp),%eax
  304463:	8b 74 24 30          	mov    0x30(%esp),%esi
  304467:	8b 7c 24 38          	mov    0x38(%esp),%edi
  30446b:	89 da                	mov    %ebx,%edx
  30446d:	85 c0                	test   %eax,%eax
  30446f:	75 17                	jne    304488 <__umoddi3+0x38>
  304471:	39 fb                	cmp    %edi,%ebx
  304473:	73 53                	jae    3044c8 <__umoddi3+0x78>
  304475:	89 f0                	mov    %esi,%eax
  304477:	f7 f7                	div    %edi
  304479:	89 d0                	mov    %edx,%eax
  30447b:	31 d2                	xor    %edx,%edx
  30447d:	83 c4 1c             	add    $0x1c,%esp
  304480:	5b                   	pop    %ebx
  304481:	5e                   	pop    %esi
  304482:	5f                   	pop    %edi
  304483:	5d                   	pop    %ebp
  304484:	c3                   	ret
  304485:	8d 76 00             	lea    0x0(%esi),%esi
  304488:	89 f1                	mov    %esi,%ecx
  30448a:	39 c3                	cmp    %eax,%ebx
  30448c:	73 12                	jae    3044a0 <__umoddi3+0x50>
  30448e:	89 f0                	mov    %esi,%eax
  304490:	83 c4 1c             	add    $0x1c,%esp
  304493:	5b                   	pop    %ebx
  304494:	5e                   	pop    %esi
  304495:	5f                   	pop    %edi
  304496:	5d                   	pop    %ebp
  304497:	c3                   	ret
  304498:	2e 8d b4 26 00 00 00 	lea    %cs:0x0(%esi,%eiz,1),%esi
  30449f:	00 
  3044a0:	0f bd e8             	bsr    %eax,%ebp
  3044a3:	83 f5 1f             	xor    $0x1f,%ebp
  3044a6:	75 48                	jne    3044f0 <__umoddi3+0xa0>
  3044a8:	39 d8                	cmp    %ebx,%eax
  3044aa:	0f 82 d0 00 00 00    	jb     304580 <__umoddi3+0x130>
  3044b0:	39 fe                	cmp    %edi,%esi
  3044b2:	0f 83 c8 00 00 00    	jae    304580 <__umoddi3+0x130>
  3044b8:	89 c8                	mov    %ecx,%eax
  3044ba:	83 c4 1c             	add    $0x1c,%esp
  3044bd:	5b                   	pop    %ebx
  3044be:	5e                   	pop    %esi
  3044bf:	5f                   	pop    %edi
  3044c0:	5d                   	pop    %ebp
  3044c1:	c3                   	ret
  3044c2:	8d b6 00 00 00 00    	lea    0x0(%esi),%esi
  3044c8:	89 f9                	mov    %edi,%ecx
  3044ca:	85 ff                	test   %edi,%edi
  3044cc:	75 0b                	jne    3044d9 <__umoddi3+0x89>
  3044ce:	b8 01 00 00 00       	mov    $0x1,%eax
  3044d3:	31 d2                	xor    %edx,%edx
  3044d5:	f7 f7                	div    %edi
  3044d7:	89 c1                	mov    %eax,%ecx
  3044d9:	89 d8                	mov    %ebx,%eax
  3044db:	31 d2                	xor    %edx,%edx
  3044dd:	f7 f1                	div    %ecx
  3044df:	89 f0                	mov    %esi,%eax
  3044e1:	f7 f1                	div    %ecx
  3044e3:	89 d0                	mov    %edx,%eax
  3044e5:	31 d2                	xor    %edx,%edx
  3044e7:	eb 94                	jmp    30447d <__umoddi3+0x2d>
  3044e9:	8d b4 26 00 00 00 00 	lea    0x0(%esi,%eiz,1),%esi
  3044f0:	89 e9                	mov    %ebp,%ecx
  3044f2:	ba 20 00 00 00       	mov    $0x20,%edx
  3044f7:	29 ea                	sub    %ebp,%edx
  3044f9:	d3 e0                	shl    %cl,%eax
  3044fb:	89 44 24 08          	mov    %eax,0x8(%esp)
  3044ff:	89 d1                	mov    %edx,%ecx
  304501:	89 f8                	mov    %edi,%eax
  304503:	d3 e8                	shr    %cl,%eax
  304505:	89 54 24 04          	mov    %edx,0x4(%esp)
  304509:	8b 54 24 04          	mov    0x4(%esp),%edx
  30450d:	89 c1                	mov    %eax,%ecx
  30450f:	8b 44 24 08          	mov    0x8(%esp),%eax
  304513:	09 c1                	or     %eax,%ecx
  304515:	89 d8                	mov    %ebx,%eax
  304517:	89 4c 24 08          	mov    %ecx,0x8(%esp)
  30451b:	89 e9                	mov    %ebp,%ecx
  30451d:	d3 e7                	shl    %cl,%edi
  30451f:	89 d1                	mov    %edx,%ecx
  304521:	d3 e8                	shr    %cl,%eax
  304523:	89 e9                	mov    %ebp,%ecx
  304525:	89 7c 24 0c          	mov    %edi,0xc(%esp)
  304529:	d3 e3                	shl    %cl,%ebx
  30452b:	89 c7                	mov    %eax,%edi
  30452d:	89 d1                	mov    %edx,%ecx
  30452f:	89 f0                	mov    %esi,%eax
  304531:	d3 e8                	shr    %cl,%eax
  304533:	89 fa                	mov    %edi,%edx
  304535:	89 e9                	mov    %ebp,%ecx
  304537:	09 d8                	or     %ebx,%eax
  304539:	d3 e6                	shl    %cl,%esi
  30453b:	f7 74 24 08          	divl   0x8(%esp)
  30453f:	89 d3                	mov    %edx,%ebx
  304541:	f7 64 24 0c          	mull   0xc(%esp)
  304545:	89 c7                	mov    %eax,%edi
  304547:	89 d1                	mov    %edx,%ecx
  304549:	39 d3                	cmp    %edx,%ebx
  30454b:	72 06                	jb     304553 <__umoddi3+0x103>
  30454d:	75 10                	jne    30455f <__umoddi3+0x10f>
  30454f:	39 c6                	cmp    %eax,%esi
  304551:	73 0c                	jae    30455f <__umoddi3+0x10f>
  304553:	2b 44 24 0c          	sub    0xc(%esp),%eax
  304557:	1b 54 24 08          	sbb    0x8(%esp),%edx
  30455b:	89 d1                	mov    %edx,%ecx
  30455d:	89 c7                	mov    %eax,%edi
  30455f:	89 f2                	mov    %esi,%edx
  304561:	29 fa                	sub    %edi,%edx
  304563:	19 cb                	sbb    %ecx,%ebx
  304565:	0f b6 4c 24 04       	movzbl 0x4(%esp),%ecx
  30456a:	89 d8                	mov    %ebx,%eax
  30456c:	d3 e0                	shl    %cl,%eax
  30456e:	89 e9                	mov    %ebp,%ecx
  304570:	d3 ea                	shr    %cl,%edx
  304572:	d3 eb                	shr    %cl,%ebx
  304574:	09 d0                	or     %edx,%eax
  304576:	89 da                	mov    %ebx,%edx
  304578:	83 c4 1c             	add    $0x1c,%esp
  30457b:	5b                   	pop    %ebx
  30457c:	5e                   	pop    %esi
  30457d:	5f                   	pop    %edi
  30457e:	5d                   	pop    %ebp
  30457f:	c3                   	ret
  304580:	89 da                	mov    %ebx,%edx
  304582:	89 f1                	mov    %esi,%ecx
  304584:	29 f9                	sub    %edi,%ecx
  304586:	19 c2                	sbb    %eax,%edx
  304588:	89 c8                	mov    %ecx,%eax
  30458a:	e9 2b ff ff ff       	jmp    3044ba <__umoddi3+0x6a>

Déassemblage de la section .rodata :

00304590 <.rodata>:
  304590:	0a 73 65             	or     0x65(%ebx),%dh
  304593:	63 6f 73             	arpl   %ebp,0x73(%edi)
  304596:	2d 39 31 31 66       	sub    $0x66313139,%eax
  30459b:	38 32                	cmp    %dh,(%edx)
  30459d:	64 2d 30 31 65 30    	fs sub $0x30653130,%eax
  3045a3:	30 35 32 20 28 63    	xor    %dh,0x63282032
  3045a9:	29 20                	sub    %esp,(%eax)
  3045ab:	41                   	inc    %ecx
  3045ac:	69 72 62 75 73 0a 00 	imul   $0xa7375,0x62(%edx),%esi
  3045b3:	68 61 6c 74 65       	push   $0x65746c61
  3045b8:	64 20 21             	and    %ah,%fs:(%ecx)
  3045bb:	00 30                	add    %dh,(%eax)
  3045bd:	78 00                	js     3045bf <__umoddi3+0x16f>
  3045bf:	75 6e                	jne    30462f <__umoddi3+0x1df>
  3045c1:	73 75                	jae    304638 <__umoddi3+0x1e8>
  3045c3:	70 70                	jo     304635 <__umoddi3+0x1e5>
  3045c5:	6f                   	outsl  %ds:(%esi),(%dx)
  3045c6:	72 74                	jb     30463c <__umoddi3+0x1ec>
  3045c8:	65 64 20 66 6f       	gs and %ah,%fs:0x6f(%esi)
  3045cd:	72 6d                	jb     30463c <__umoddi3+0x1ec>
  3045cf:	61                   	popa
  3045d0:	74 20                	je     3045f2 <__umoddi3+0x1a2>
  3045d2:	61                   	popa
  3045d3:	72 67                	jb     30463c <__umoddi3+0x1ec>
  3045d5:	20 27                	and    %ah,(%edi)
  3045d7:	25 63 27 0a 00       	and    $0xa2763,%eax
  3045dc:	0a 49 44             	or     0x44(%ecx),%cl
  3045df:	54                   	push   %esp
  3045e0:	20 65 76             	and    %ah,0x76(%ebp)
  3045e3:	65 6e                	outsb  %gs:(%esi),(%dx)
  3045e5:	74 0a                	je     3045f1 <__umoddi3+0x1a1>
  3045e7:	20 2e                	and    %ch,(%esi)
  3045e9:	20 69 6e             	and    %ch,0x6e(%ecx)
  3045ec:	74 20                	je     30460e <__umoddi3+0x1be>
  3045ee:	20 20                	and    %ah,(%eax)
  3045f0:	20 23                	and    %ah,(%ebx)
  3045f2:	25 64 0a 20 2e       	and    $0x2e200a64,%eax
  3045f7:	20 65 72             	and    %ah,0x72(%ebp)
  3045fa:	72 6f                	jb     30466b <__umoddi3+0x21b>
  3045fc:	72 20                	jb     30461e <__umoddi3+0x1ce>
  3045fe:	20 30                	and    %dh,(%eax)
  304600:	78 25                	js     304627 <__umoddi3+0x1d7>
  304602:	78 0a                	js     30460e <__umoddi3+0x1be>
  304604:	20 2e                	and    %ch,(%esi)
  304606:	20 63 73             	and    %ah,0x73(%ebx)
  304609:	3a 65 69             	cmp    0x69(%ebp),%ah
  30460c:	70 20                	jo     30462e <__umoddi3+0x1de>
  30460e:	30 78 25             	xor    %bh,0x25(%eax)
  304611:	78 3a                	js     30464d <__umoddi3+0x1fd>
  304613:	30 78 25             	xor    %bh,0x25(%eax)
  304616:	78 0a                	js     304622 <__umoddi3+0x1d2>
  304618:	20 2e                	and    %ch,(%esi)
  30461a:	20 73 73             	and    %dh,0x73(%ebx)
  30461d:	3a 65 73             	cmp    0x73(%ebp),%ah
  304620:	70 20                	jo     304642 <__umoddi3+0x1f2>
  304622:	30 78 25             	xor    %bh,0x25(%eax)
  304625:	78 3a                	js     304661 <__umoddi3+0x211>
  304627:	30 78 25             	xor    %bh,0x25(%eax)
  30462a:	78 0a                	js     304636 <__umoddi3+0x1e6>
  30462c:	20 2e                	and    %ch,(%esi)
  30462e:	20 65 66             	and    %ah,0x66(%ebp)
  304631:	6c                   	insb   (%dx),%es:(%edi)
  304632:	61                   	popa
  304633:	67 73 20             	addr16 jae 304656 <__umoddi3+0x206>
  304636:	30 78 25             	xor    %bh,0x25(%eax)
  304639:	78 0a                	js     304645 <__umoddi3+0x1f5>
  30463b:	0a 2d 20 47 50 52    	or     0x52504720,%ch
  304641:	0a 65 61             	or     0x61(%ebp),%ah
  304644:	78 20                	js     304666 <__umoddi3+0x216>
  304646:	20 20                	and    %ah,(%eax)
  304648:	20 20                	and    %ah,(%eax)
  30464a:	3a 20                	cmp    (%eax),%ah
  30464c:	30 78 25             	xor    %bh,0x25(%eax)
  30464f:	78 0a                	js     30465b <__umoddi3+0x20b>
  304651:	65 63 78 20          	arpl   %edi,%gs:0x20(%eax)
  304655:	20 20                	and    %ah,(%eax)
  304657:	20 20                	and    %ah,(%eax)
  304659:	3a 20                	cmp    (%eax),%ah
  30465b:	30 78 25             	xor    %bh,0x25(%eax)
  30465e:	78 0a                	js     30466a <__umoddi3+0x21a>
  304660:	65 64 78 20          	gs fs js 304684 <__umoddi3+0x234>
  304664:	20 20                	and    %ah,(%eax)
  304666:	20 20                	and    %ah,(%eax)
  304668:	3a 20                	cmp    (%eax),%ah
  30466a:	30 78 25             	xor    %bh,0x25(%eax)
  30466d:	78 0a                	js     304679 <__umoddi3+0x229>
  30466f:	65 62 78 20          	bound  %edi,%gs:0x20(%eax)
  304673:	20 20                	and    %ah,(%eax)
  304675:	20 20                	and    %ah,(%eax)
  304677:	3a 20                	cmp    (%eax),%ah
  304679:	30 78 25             	xor    %bh,0x25(%eax)
  30467c:	78 0a                	js     304688 <__umoddi3+0x238>
  30467e:	65 73 70             	gs jae 3046f1 <__umoddi3+0x2a1>
  304681:	20 20                	and    %ah,(%eax)
  304683:	20 20                	and    %ah,(%eax)
  304685:	20 3a                	and    %bh,(%edx)
  304687:	20 30                	and    %dh,(%eax)
  304689:	78 25                	js     3046b0 <__umoddi3+0x260>
  30468b:	78 0a                	js     304697 <__umoddi3+0x247>
  30468d:	65 62 70 20          	bound  %esi,%gs:0x20(%eax)
  304691:	20 20                	and    %ah,(%eax)
  304693:	20 20                	and    %ah,(%eax)
  304695:	3a 20                	cmp    (%eax),%ah
  304697:	30 78 25             	xor    %bh,0x25(%eax)
  30469a:	78 0a                	js     3046a6 <__umoddi3+0x256>
  30469c:	65 73 69             	gs jae 304708 <__umoddi3+0x2b8>
  30469f:	20 20                	and    %ah,(%eax)
  3046a1:	20 20                	and    %ah,(%eax)
  3046a3:	20 3a                	and    %bh,(%edx)
  3046a5:	20 30                	and    %dh,(%eax)
  3046a7:	78 25                	js     3046ce <__umoddi3+0x27e>
  3046a9:	78 0a                	js     3046b5 <__umoddi3+0x265>
  3046ab:	65 64 69 20 20 20 20 	gs imul $0x20202020,%fs:(%eax),%esp
  3046b2:	20 
  3046b3:	3a 20                	cmp    (%eax),%ah
  3046b5:	30 78 25             	xor    %bh,0x25(%eax)
  3046b8:	78 0a                	js     3046c4 <__umoddi3+0x274>
  3046ba:	00 69 67             	add    %ch,0x67(%ecx)
  3046bd:	6e                   	outsb  %ds:(%esi),(%dx)
  3046be:	6f                   	outsl  %ds:(%esi),(%dx)
  3046bf:	72 65                	jb     304726 <__umoddi3+0x2d6>
  3046c1:	20 49 52             	and    %cl,0x52(%ecx)
  3046c4:	51                   	push   %ecx
  3046c5:	20 25 64 0a 00 00    	and    %ah,0xa64
  3046cb:	00 44 69 76          	add    %al,0x76(%ecx,%ebp,2)
  3046cf:	69 64 65 20 62 79 20 	imul   $0x7a207962,0x20(%ebp,%eiz,2),%esp
  3046d6:	7a 
  3046d7:	65 72 6f             	gs jb  304749 <__umoddi3+0x2f9>
  3046da:	00 44 65 62          	add    %al,0x62(%ebp,%eiz,2)
  3046de:	75 67                	jne    304747 <__umoddi3+0x2f7>
  3046e0:	00 4e 4d             	add    %cl,0x4d(%esi)
  3046e3:	49                   	dec    %ecx
  3046e4:	20 69 6e             	and    %ch,0x6e(%ecx)
  3046e7:	74 65                	je     30474e <__umoddi3+0x2fe>
  3046e9:	72 72                	jb     30475d <__umoddi3+0x30d>
  3046eb:	75 70                	jne    30475d <__umoddi3+0x30d>
  3046ed:	74 00                	je     3046ef <__umoddi3+0x29f>
  3046ef:	42                   	inc    %edx
  3046f0:	72 65                	jb     304757 <__umoddi3+0x307>
  3046f2:	61                   	popa
  3046f3:	6b 70 6f 69          	imul   $0x69,0x6f(%eax),%esi
  3046f7:	6e                   	outsb  %ds:(%esi),(%dx)
  3046f8:	74 00                	je     3046fa <__umoddi3+0x2aa>
  3046fa:	4f                   	dec    %edi
  3046fb:	76 65                	jbe    304762 <__umoddi3+0x312>
  3046fd:	72 66                	jb     304765 <__umoddi3+0x315>
  3046ff:	6c                   	insb   (%dx),%es:(%edi)
  304700:	6f                   	outsl  %ds:(%esi),(%dx)
  304701:	77 00                	ja     304703 <__umoddi3+0x2b3>
  304703:	42                   	inc    %edx
  304704:	4f                   	dec    %edi
  304705:	55                   	push   %ebp
  304706:	4e                   	dec    %esi
  304707:	44                   	inc    %esp
  304708:	20 72 61             	and    %dh,0x61(%edx)
  30470b:	6e                   	outsb  %ds:(%esi),(%dx)
  30470c:	67 65 20 65 78       	and    %ah,%gs:0x78(%di)
  304711:	63 65 65             	arpl   %esp,0x65(%ebp)
  304714:	64 65 64 00 49 6e    	fs gs add %cl,%fs:0x6e(%ecx)
  30471a:	76 61                	jbe    30477d <__umoddi3+0x32d>
  30471c:	6c                   	insb   (%dx),%es:(%edi)
  30471d:	69 64 20 4f 70 63 6f 	imul   $0x646f6370,0x4f(%eax,%eiz,1),%esp
  304724:	64 
  304725:	65 00 44 65 76       	add    %al,%gs:0x76(%ebp,%eiz,2)
  30472a:	69 63 65 20 6e 6f 74 	imul   $0x746f6e20,0x65(%ebx),%esp
  304731:	20 61 76             	and    %ah,0x76(%ecx)
  304734:	61                   	popa
  304735:	69 6c 61 62 6c 65 00 	imul   $0x4400656c,0x62(%ecx,%eiz,2),%ebp
  30473c:	44 
  30473d:	6f                   	outsl  %ds:(%esi),(%dx)
  30473e:	75 62                	jne    3047a2 <__umoddi3+0x352>
  304740:	6c                   	insb   (%dx),%es:(%edi)
  304741:	65 20 66 61          	and    %ah,%gs:0x61(%esi)
  304745:	75 6c                	jne    3047b3 <__umoddi3+0x363>
  304747:	74 00                	je     304749 <__umoddi3+0x2f9>
  304749:	43                   	inc    %ebx
  30474a:	6f                   	outsl  %ds:(%esi),(%dx)
  30474b:	70 72                	jo     3047bf <__umoddi3+0x36f>
  30474d:	6f                   	outsl  %ds:(%esi),(%dx)
  30474e:	63 65 73             	arpl   %esp,0x73(%ebp)
  304751:	73 6f                	jae    3047c2 <__umoddi3+0x372>
  304753:	72 20                	jb     304775 <__umoddi3+0x325>
  304755:	73 65                	jae    3047bc <__umoddi3+0x36c>
  304757:	67 6d                	insl   (%dx),%es:(%di)
  304759:	65 6e                	outsb  %gs:(%esi),(%dx)
  30475b:	74 20                	je     30477d <__umoddi3+0x32d>
  30475d:	6f                   	outsl  %ds:(%esi),(%dx)
  30475e:	76 65                	jbe    3047c5 <__umoddi3+0x375>
  304760:	72 72                	jb     3047d4 <__umoddi3+0x384>
  304762:	75 6e                	jne    3047d2 <__umoddi3+0x382>
  304764:	00 49 6e             	add    %cl,0x6e(%ecx)
  304767:	76 61                	jbe    3047ca <__umoddi3+0x37a>
  304769:	6c                   	insb   (%dx),%es:(%edi)
  30476a:	69 64 20 54 53 53 00 	imul   $0x53005353,0x54(%eax,%eiz,1),%esp
  304771:	53 
  304772:	65 67 6d             	gs insl (%dx),%es:(%di)
  304775:	65 6e                	outsb  %gs:(%esi),(%dx)
  304777:	74 20                	je     304799 <__umoddi3+0x349>
  304779:	6e                   	outsb  %ds:(%esi),(%dx)
  30477a:	6f                   	outsl  %ds:(%esi),(%dx)
  30477b:	74 20                	je     30479d <__umoddi3+0x34d>
  30477d:	70 72                	jo     3047f1 <__umoddi3+0x3a1>
  30477f:	65 73 65             	gs jae 3047e7 <__umoddi3+0x397>
  304782:	6e                   	outsb  %ds:(%esi),(%dx)
  304783:	74 00                	je     304785 <__umoddi3+0x335>
  304785:	53                   	push   %ebx
  304786:	74 61                	je     3047e9 <__umoddi3+0x399>
  304788:	63 6b 20             	arpl   %ebp,0x20(%ebx)
  30478b:	66 61                	popaw
  30478d:	75 6c                	jne    3047fb <__umoddi3+0x3ab>
  30478f:	74 00                	je     304791 <__umoddi3+0x341>
  304791:	47                   	inc    %edi
  304792:	65 6e                	outsb  %gs:(%esi),(%dx)
  304794:	65 72 61             	gs jb  3047f8 <__umoddi3+0x3a8>
  304797:	6c                   	insb   (%dx),%es:(%edi)
  304798:	20 70 72             	and    %dh,0x72(%eax)
  30479b:	6f                   	outsl  %ds:(%esi),(%dx)
  30479c:	74 65                	je     304803 <__umoddi3+0x3b3>
  30479e:	63 74 69 6f          	arpl   %esi,0x6f(%ecx,%ebp,2)
  3047a2:	6e                   	outsb  %ds:(%esi),(%dx)
  3047a3:	00 50 61             	add    %dl,0x61(%eax)
  3047a6:	67 65 20 66 61       	and    %ah,%gs:0x61(%bp)
  3047ab:	75 6c                	jne    304819 <__umoddi3+0x3c9>
  3047ad:	74 00                	je     3047af <__umoddi3+0x35f>
  3047af:	49                   	dec    %ecx
  3047b0:	6e                   	outsb  %ds:(%esi),(%dx)
  3047b1:	74 65                	je     304818 <__umoddi3+0x3c8>
  3047b3:	6c                   	insb   (%dx),%es:(%edi)
  3047b4:	20 52 65             	and    %dl,0x65(%edx)
  3047b7:	73 65                	jae    30481e <__umoddi3+0x3ce>
  3047b9:	72 76                	jb     304831 <__umoddi3+0x3e1>
  3047bb:	65 64 00 46 6c       	gs add %al,%fs:0x6c(%esi)
  3047c0:	6f                   	outsl  %ds:(%esi),(%dx)
  3047c1:	61                   	popa
  3047c2:	74 69                	je     30482d <__umoddi3+0x3dd>
  3047c4:	6e                   	outsb  %ds:(%esi),(%dx)
  3047c5:	67 20 70 6f          	and    %dh,0x6f(%bx,%si)
  3047c9:	69 6e 74 20 65 72 72 	imul   $0x72726520,0x74(%esi),%ebp
  3047d0:	6f                   	outsl  %ds:(%esi),(%dx)
  3047d1:	72 00                	jb     3047d3 <__umoddi3+0x383>
  3047d3:	41                   	inc    %ecx
  3047d4:	6c                   	insb   (%dx),%es:(%edi)
  3047d5:	69 67 6e 6d 65 6e 74 	imul   $0x746e656d,0x6e(%edi),%esp
  3047dc:	20 63 68             	and    %ah,0x68(%ebx)
  3047df:	65 63 6b 00          	arpl   %ebp,%gs:0x0(%ebx)
  3047e3:	4d                   	dec    %ebp
  3047e4:	61                   	popa
  3047e5:	63 68 69             	arpl   %ebp,0x69(%eax)
  3047e8:	6e                   	outsb  %ds:(%esi),(%dx)
  3047e9:	65 20 63 68          	and    %ah,%gs:0x68(%ebx)
  3047ed:	65 63 6b 00          	arpl   %ebp,%gs:0x0(%ebx)
  3047f1:	53                   	push   %ebx
  3047f2:	49                   	dec    %ecx
  3047f3:	4d                   	dec    %ebp
  3047f4:	44                   	inc    %esp
  3047f5:	20 66 6c             	and    %ah,0x6c(%esi)
  3047f8:	6f                   	outsl  %ds:(%esi),(%dx)
  3047f9:	61                   	popa
  3047fa:	74 69                	je     304865 <__umoddi3+0x415>
  3047fc:	6e                   	outsb  %ds:(%esi),(%dx)
  3047fd:	67 20 70 6f          	and    %dh,0x6f(%bx,%si)
  304801:	69 6e 74 00 0a 45 78 	imul   $0x78450a00,0x74(%esi),%ebp
  304808:	63 65 70             	arpl   %esp,0x70(%ebp)
  30480b:	74 69                	je     304876 <__umoddi3+0x426>
  30480d:	6f                   	outsl  %ds:(%esi),(%dx)
  30480e:	6e                   	outsb  %ds:(%esi),(%dx)
  30480f:	3a 20                	cmp    (%eax),%ah
  304811:	25 73 0a 00 23       	and    $0x23000a73,%eax
  304816:	4e                   	dec    %esi
  304817:	4d                   	dec    %ebp
  304818:	49                   	dec    %ecx
  304819:	20 28                	and    %ch,(%eax)
  30481b:	69 67 6e 6f 72 65 64 	imul   $0x6465726f,0x6e(%edi),%esp
  304822:	29 0a                	sub    %ecx,(%edx)
  304824:	00 00                	add    %al,(%eax)
  304826:	00 00                	add    %al,(%eax)
  304828:	23 50 46             	and    0x46(%eax),%edx
  30482b:	20 64 65 74          	and    %ah,0x74(%ebp,%eiz,2)
  30482f:	61                   	popa
  304830:	69 6c 73 3a 20 70 3a 	imul   $0x253a7020,0x3a(%ebx,%esi,2),%ebp
  304837:	25 
  304838:	64 20 77 72          	and    %dh,%fs:0x72(%edi)
  30483c:	3a 25 64 20 75 73    	cmp    0x73752064,%ah
  304842:	3a 25 64 20 69 64    	cmp    0x64692064,%ah
  304848:	3a 25 64 20 61 64    	cmp    0x64612064,%ah
  30484e:	64 72 20             	fs jb  304871 <__umoddi3+0x421>
  304851:	30 78 25             	xor    %bh,0x25(%eax)
  304854:	78 0a                	js     304860 <__umoddi3+0x410>
  304856:	00 00                	add    %al,(%eax)
  304858:	23 47 50             	and    0x50(%edi),%eax
  30485b:	20 64 65 74          	and    %ah,0x74(%ebp,%eiz,2)
  30485f:	61                   	popa
  304860:	69 6c 73 3a 20 65 78 	imul   $0x74786520,0x3a(%ebx,%esi,2),%ebp
  304867:	74 
  304868:	3a 25 64 20 69 64    	cmp    0x64692064,%ah
  30486e:	74 3a                	je     3048aa <__umoddi3+0x45a>
  304870:	25 64 20 74 69       	and    $0x69742064,%eax
  304875:	3a 25 64 20 69 6e    	cmp    0x6e692064,%ah
  30487b:	64 65 78 3a          	fs gs js 3048b9 <__umoddi3+0x469>
  30487f:	25 64 0a 00 63       	and    $0x63000a64,%eax
  304884:	72 30                	jb     3048b6 <__umoddi3+0x466>
  304886:	20 3d 20 25 70 0a    	and    %bh,0xa702520
  30488c:	00 63 72             	add    %ah,0x72(%ebx)
  30488f:	34 20                	xor    $0x20,%al
  304891:	3d 20 25 70 0a       	cmp    $0xa702520,%eax
  304896:	00 66 61             	add    %ah,0x61(%esi)
  304899:	74 61                	je     3048fc <__umoddi3+0x4ac>
  30489b:	6c                   	insb   (%dx),%es:(%edi)
  30489c:	20 65 78             	and    %ah,0x78(%ebp)
  30489f:	63 65 70             	arpl   %esp,0x70(%ebp)
  3048a2:	74 69                	je     30490d <__hextable+0x9>
  3048a4:	6f                   	outsl  %ds:(%esi),(%dx)
  3048a5:	6e                   	outsb  %ds:(%esi),(%dx)
  3048a6:	20 21                	and    %ah,(%ecx)
  3048a8:	0a 00                	or     (%eax),%al
  3048aa:	0a 2d 3d 20 53 74    	or     0x7453203d,%ch
  3048b0:	61                   	popa
  3048b1:	63 6b 20             	arpl   %ebp,0x20(%ebx)
  3048b4:	54                   	push   %esp
  3048b5:	72 61                	jb     304918 <__hextable+0x14>
  3048b7:	63 65 20             	arpl   %esp,0x20(%ebp)
  3048ba:	3d 2d 0a 00 25       	cmp    $0x25000a2d,%eax
  3048bf:	70 0a                	jo     3048cb <__umoddi3+0x47b>
  3048c1:	00 00                	add    %al,(%eax)
  3048c3:	00 62 70             	add    %ah,0x70(%edx)
  3048c6:	20 68 61             	and    %ch,0x61(%eax)
  3048c9:	6e                   	outsb  %ds:(%esi),(%dx)
  3048ca:	64 6c                	fs insb (%dx),%es:(%edi)
  3048cc:	65 72 20             	gs jb  3048ef <__umoddi3+0x49f>
  3048cf:	63 61 6c             	arpl   %esp,0x6c(%ecx)
  3048d2:	6c                   	insb   (%dx),%es:(%edi)
  3048d3:	65 64 2c 20          	gs fs sub $0x20,%al
  3048d7:	65 62 70 34          	bound  %esi,%gs:0x34(%eax)
  3048db:	3a 28                	cmp    (%eax),%ch
  3048dd:	30 78 25             	xor    %bh,0x25(%eax)
  3048e0:	78 29                	js     30490b <__hextable+0x7>
  3048e2:	00 69 64             	add    %ch,0x64(%ecx)
  3048e5:	74 72                	je     304959 <exception_names+0x39>
  3048e7:	20 61 64             	and    %ah,0x64(%ecx)
  3048ea:	64 72 3a             	fs jb  304927 <exception_names+0x7>
  3048ed:	20                   	.byte 0x20
  3048ee:	25                   	.byte 0x25
  3048ef:	70 0a                	jo     3048fb <__umoddi3+0x4ab>
	...

Déassemblage de la section .data :

00304900 <info>:
  304900:	80 49 30 00          	orb    $0x0,0x30(%ecx)

00304904 <__hextable>:
  304904:	30 31                	xor    %dh,(%ecx)
  304906:	32 33                	xor    (%ebx),%dh
  304908:	34 35                	xor    $0x35,%al
  30490a:	36 37                	ss aaa
  30490c:	38 39                	cmp    %bh,(%ecx)
  30490e:	61                   	popa
  30490f:	62 63 64             	bound  %esp,0x64(%ebx)
  304912:	65 66 00 00          	data16 add %al,%gs:(%eax)
	...

00304920 <exception_names>:
  304920:	cc                   	int3
  304921:	46                   	inc    %esi
  304922:	30 00                	xor    %al,(%eax)
  304924:	db 46 30             	fildl  0x30(%esi)
  304927:	00 e1                	add    %ah,%cl
  304929:	46                   	inc    %esi
  30492a:	30 00                	xor    %al,(%eax)
  30492c:	ef                   	out    %eax,(%dx)
  30492d:	46                   	inc    %esi
  30492e:	30 00                	xor    %al,(%eax)
  304930:	fa                   	cli
  304931:	46                   	inc    %esi
  304932:	30 00                	xor    %al,(%eax)
  304934:	03 47 30             	add    0x30(%edi),%eax
  304937:	00 18                	add    %bl,(%eax)
  304939:	47                   	inc    %edi
  30493a:	30 00                	xor    %al,(%eax)
  30493c:	27                   	daa
  30493d:	47                   	inc    %edi
  30493e:	30 00                	xor    %al,(%eax)
  304940:	3c 47                	cmp    $0x47,%al
  304942:	30 00                	xor    %al,(%eax)
  304944:	49                   	dec    %ecx
  304945:	47                   	inc    %edi
  304946:	30 00                	xor    %al,(%eax)
  304948:	65 47                	gs inc %edi
  30494a:	30 00                	xor    %al,(%eax)
  30494c:	71 47                	jno    304995 <__info+0x15>
  30494e:	30 00                	xor    %al,(%eax)
  304950:	85 47 30             	test   %eax,0x30(%edi)
  304953:	00 91 47 30 00 a4    	add    %dl,-0x5bffcfb9(%ecx)
  304959:	47                   	inc    %edi
  30495a:	30 00                	xor    %al,(%eax)
  30495c:	af                   	scas   %es:(%edi),%eax
  30495d:	47                   	inc    %edi
  30495e:	30 00                	xor    %al,(%eax)
  304960:	be 47 30 00 d3       	mov    $0xd3003047,%esi
  304965:	47                   	inc    %edi
  304966:	30 00                	xor    %al,(%eax)
  304968:	e3 47                	jecxz  3049b1 <vprint_buffer+0x11>
  30496a:	30 00                	xor    %al,(%eax)
  30496c:	f1                   	int1
  30496d:	47                   	inc    %edi
  30496e:	30 00                	xor    %al,(%eax)

Déassemblage de la section .debug_line :

00000000 <.debug_line>:
   0:	4c                   	dec    %esp
   1:	00 00                	add    %al,(%eax)
   3:	00 05 00 04 00 2e    	add    %al,0x2e000400
   9:	00 00                	add    %al,(%eax)
   b:	00 01                	add    %al,(%ecx)
   d:	01 01                	add    %eax,(%ecx)
   f:	fb                   	sti
  10:	0e                   	push   %cs
  11:	0d 00 01 01 01       	or     $0x1010100,%eax
  16:	01 00                	add    %eax,(%eax)
  18:	00 00                	add    %al,(%eax)
  1a:	01 00                	add    %eax,(%eax)
  1c:	00 01                	add    %al,(%ecx)
  1e:	01 01                	add    %eax,(%ecx)
  20:	1f                   	pop    %ds
  21:	02 00                	add    (%eax),%al
  23:	00 00                	add    %al,(%eax)
  25:	00 21                	add    %ah,(%ecx)
  27:	00 00                	add    %al,(%eax)
  29:	00 02                	add    %al,(%edx)
  2b:	01 1f                	add    %ebx,(%edi)
  2d:	02 0f                	add    (%edi),%cl
  2f:	02 30                	add    (%eax),%dh
  31:	00 00                	add    %al,(%eax)
  33:	00 01                	add    %al,(%ecx)
  35:	30 00                	xor    %al,(%eax)
  37:	00 00                	add    %al,(%eax)
  39:	01 00                	add    %eax,(%eax)
  3b:	05 02 10 30 30       	add    $0x30301002,%eax
  40:	00 03                	add    %al,(%ebx)
  42:	0a 01                	or     (%ecx),%al
  44:	21 59 2f             	and    %ebx,0x2f(%ecx)
  47:	21 2f                	and    %ebp,(%edi)
  49:	5b                   	pop    %ebx
  4a:	21 02                	and    %eax,(%edx)
  4c:	02 00                	add    (%eax),%al
  4e:	01 01                	add    %eax,(%ecx)
  50:	89 00                	mov    %eax,(%eax)
  52:	00 00                	add    %al,(%eax)
  54:	05 00 04 00 5f       	add    $0x5f000400,%eax
  59:	00 00                	add    %al,(%eax)
  5b:	00 01                	add    %al,(%ecx)
  5d:	01 01                	add    %eax,(%ecx)
  5f:	fb                   	sti
  60:	0e                   	push   %cs
  61:	0d 00 01 01 01       	or     $0x1010100,%eax
  66:	01 00                	add    %eax,(%eax)
  68:	00 00                	add    %al,(%eax)
  6a:	01 00                	add    %eax,(%eax)
  6c:	00 01                	add    %al,(%ecx)
  6e:	01 01                	add    %eax,(%ecx)
  70:	1f                   	pop    %ds
  71:	03 00                	add    (%eax),%eax
  73:	00 00                	add    %al,(%eax)
  75:	00 21                	add    %ah,(%ecx)
  77:	00 00                	add    %al,(%eax)
  79:	00 4f 00             	add    %cl,0x0(%edi)
  7c:	00 00                	add    %al,(%eax)
  7e:	02 01                	add    (%ecx),%al
  80:	1f                   	pop    %ds
  81:	02 0f                	add    (%edi),%cl
  83:	0b 47 00             	or     0x0(%edi),%eax
  86:	00 00                	add    %al,(%eax)
  88:	01 47 00             	add    %eax,0x0(%edi)
  8b:	00 00                	add    %al,(%eax)
  8d:	01 61 00             	add    %esp,0x0(%ecx)
  90:	00 00                	add    %al,(%eax)
  92:	02 69 00             	add    0x0(%ecx),%ch
  95:	00 00                	add    %al,(%eax)
  97:	02 6e 00             	add    0x0(%esi),%ch
  9a:	00 00                	add    %al,(%eax)
  9c:	02 74 00 00          	add    0x0(%eax,%eax,1),%dh
  a0:	00 02                	add    %al,(%edx)
  a2:	7b 00                	jnp    a4 <mbh-0x2fff5c>
  a4:	00 00                	add    %al,(%eax)
  a6:	02 82 00 00 00 02    	add    0x2000000(%edx),%al
  ac:	89 00                	mov    %eax,(%eax)
  ae:	00 00                	add    %al,(%eax)
  b0:	02 8f 00 00 00 02    	add    0x2000000(%edi),%cl
  b6:	97                   	xchg   %eax,%edi
  b7:	00 00                	add    %al,(%eax)
  b9:	00 02                	add    %al,(%edx)
  bb:	05 01 00 05 02       	add    $0x2050001,%eax
  c0:	23 30                	and    (%eax),%esi
  c2:	30 00                	xor    %al,(%eax)
  c4:	03 12                	add    (%edx),%edx
  c6:	01 05 08 91 05 0e    	add    %eax,0xe059108
  cc:	58                   	pop    %eax
  cd:	05 04 5a 59 59       	add    $0x59595a04,%eax
  d2:	59                   	pop    %ecx
  d3:	f4                   	hlt
  d4:	5a                   	pop    %edx
  d5:	05 01 f3 02 03       	add    $0x302f301,%eax
  da:	00 01                	add    %al,(%ecx)
  dc:	01 84 03 00 00 05 00 	add    %eax,0x50000(%ebx,%eax,1)
  e3:	04 00                	add    $0x0,%al
  e5:	46                   	inc    %esi
  e6:	00 00                	add    %al,(%eax)
  e8:	00 01                	add    %al,(%ecx)
  ea:	01 01                	add    %eax,(%ecx)
  ec:	fb                   	sti
  ed:	0e                   	push   %cs
  ee:	0d 00 01 01 01       	or     $0x1010100,%eax
  f3:	01 00                	add    %eax,(%eax)
  f5:	00 00                	add    %al,(%eax)
  f7:	01 00                	add    %eax,(%eax)
  f9:	00 01                	add    %al,(%ecx)
  fb:	01 01                	add    %eax,(%ecx)
  fd:	1f                   	pop    %ds
  fe:	03 00                	add    (%eax),%eax
 100:	00 00                	add    %al,(%eax)
 102:	00 21                	add    %ah,(%ecx)
 104:	00 00                	add    %al,(%eax)
 106:	00 4f 00             	add    %cl,0x0(%edi)
 109:	00 00                	add    %al,(%eax)
 10b:	02 01                	add    (%ecx),%al
 10d:	1f                   	pop    %ds
 10e:	02 0f                	add    (%edi),%cl
 110:	06                   	push   %es
 111:	ae                   	scas   %es:(%edi),%al
 112:	00 00                	add    %al,(%eax)
 114:	00 01                	add    %al,(%ecx)
 116:	b6 00                	mov    $0x0,%dh
 118:	00 00                	add    %al,(%eax)
 11a:	02 ae 00 00 00 01    	add    0x1000000(%esi),%ch
 120:	61                   	popa
 121:	00 00                	add    %al,(%eax)
 123:	00 02                	add    %al,(%edx)
 125:	8f 00                	pop    (%eax)
 127:	00 00                	add    %al,(%eax)
 129:	02 82 00 00 00 02    	add    0x2000000(%edx),%al
 12f:	05 01 00 05 02       	add    $0x2050001,%eax
 134:	6d                   	insl   (%dx),%es:(%edi)
 135:	30 30                	xor    %dh,(%eax)
 137:	00 03                	add    %al,(%ebx)
 139:	fc                   	cld
 13a:	00 01                	add    %al,(%ecx)
 13c:	05 0a c9 05 06       	add    $0x605c90a,%eax
 141:	66 05 10 59          	add    $0x5910,%ax
 145:	05 18 58 05 1c       	add    $0x1c055818,%eax
 14a:	66 05 14 90          	add    $0x9014,%ax
 14e:	05 20 3c 05 01       	add    $0x1053c20,%eax
 153:	67 04 02             	addr16 add $0x2,%al
 156:	03 8a 7f 66 05 04    	add    0x405667f(%edx),%ecx
 15c:	69 22 67 08 23 05    	imul   $0x5230867,(%edx),%esp
 162:	0e                   	push   %cs
 163:	00 02                	add    %al,(%edx)
 165:	04 01                	add    $0x1,%al
 167:	59                   	pop    %ecx
 168:	05 01 4f 05 04       	add    $0x4054f01,%eax
 16d:	6a 05                	push   $0x5
 16f:	0d 67 05 0b 08       	or     $0x80b0567,%eax
 174:	4d                   	dec    %ebp
 175:	05 01 3d 31 05       	add    $0x5313d01,%eax
 17a:	04 6a                	add    $0x6a,%al
 17c:	05 0d 67 05 0b       	add    $0xb05670d,%eax
 181:	08 77 05             	or     %dh,0x5(%edi)
 184:	01 3d 31 05 0d 69    	add    %edi,0x690d0531
 18a:	05 04 08 9f 05       	add    $0x59f0804,%eax
 18f:	0b 08                	or     (%eax),%ecx
 191:	67 05 01 3d 31 05    	addr16 add $0x5313d01,%eax
 197:	09 3d 05 1d 2f 05    	or     %edi,0x52f1d05
 19d:	1b 90 05 07 3c 05    	sbb    0x53c0705(%eax),%edx
 1a3:	0a 08                	or     (%eax),%cl
 1a5:	1f                   	pop    %ds
 1a6:	05 01 a0 4d 05       	add    $0x54da001,%eax
 1ab:	18 3d 05 04 3c 05    	sbb    %bh,0x53c0405
 1b1:	01 08                	add    %ecx,(%eax)
 1b3:	21 40 05             	and    %eax,0x5(%eax)
 1b6:	09 08                	or     %ecx,(%eax)
 1b8:	23 05 04 74 05 19    	and    0x19057404,%eax
 1be:	30 05 1b 66 05 14    	xor    %al,0x1405661b
 1c4:	3c 05                	cmp    $0x5,%al
 1c6:	0b 08                	or     (%eax),%ecx
 1c8:	3c 05                	cmp    $0x5,%al
 1ca:	07                   	pop    %es
 1cb:	67 00 02             	add    %al,(%bp,%si)
 1ce:	04 01                	add    $0x1,%al
 1d0:	06                   	push   %es
 1d1:	66 00 02             	data16 add %al,(%edx)
 1d4:	04 02                	add    $0x2,%al
 1d6:	74 00                	je     1d8 <mbh-0x2ffe28>
 1d8:	02 04 04             	add    (%esp,%eax,1),%al
 1db:	58                   	pop    %eax
 1dc:	05 15 00 02 04       	add    $0x4020015,%eax
 1e1:	02 06                	add    (%esi),%al
 1e3:	e1 05                	loope  1ea <mbh-0x2ffe16>
 1e5:	0f 00 02             	sldt   (%edx)
 1e8:	04 01                	add    $0x1,%al
 1ea:	4a                   	dec    %edx
 1eb:	05 01 87 4d 05       	add    $0x54d8701,%eax
 1f0:	06                   	push   %es
 1f1:	08 32                	or     %dh,(%edx)
 1f3:	05 0e 83 05 11       	add    $0x1105830e,%eax
 1f8:	08 4c 05 0b          	or     %cl,0xb(%ebp,%eax,1)
 1fc:	67 05 06 76 05 07    	addr16 add $0x7057606,%eax
 202:	68 05 0d f3 05       	push   $0x5f30d05
 207:	09 a1 05 26 30 05    	or     %esp,0x5302605(%ecx)
 20d:	2b 08                	sub    (%eax),%ecx
 20f:	3c 05                	cmp    $0x5,%al
 211:	0f 3c                	(bad)
 213:	05 17 3c 05 1a       	add    $0x1a053c17,%eax
 218:	3c 05                	cmp    $0x5,%al
 21a:	13 66 05             	adc    0x5(%esi),%esp
 21d:	2b 2e                	sub    (%esi),%ebp
 21f:	05 1e 2e 05 0d       	add    $0xd052e1e,%eax
 224:	2f                   	das
 225:	05 0a 08 8d 05       	add    $0x58d080a,%eax
 22a:	09 88 05 23 2f 05    	or     %ecx,0x52f2305(%eax)
 230:	2b 3c 05 27 3c 05 07 	sub    0x7053c27(,%eax,1),%edi
 237:	58                   	pop    %eax
 238:	05 0d 08 49 05       	add    $0x549080d,%eax
 23d:	10 3c 05 0a 66 05 01 	adc    %bh,0x105660a(,%eax,1)
 244:	4c                   	dec    %esp
 245:	5b                   	pop    %ebx
 246:	05 06 08 32 05       	add    $0x5320806,%eax
 24b:	0e                   	push   %cs
 24c:	83 05 11 08 4c 05 0b 	addl   $0xb,0x54c0811
 253:	67 05 09 76 05 26    	addr16 add $0x26057609,%eax
 259:	30 05 2b 08 3c 05    	xor    %al,0x53c082b
 25f:	0f 3c                	(bad)
 261:	05 17 3c 05 1a       	add    $0x1a053c17,%eax
 266:	3c 05                	cmp    $0x5,%al
 268:	13 66 05             	adc    0x5(%esi),%esp
 26b:	2b 2e                	sub    (%esi),%ebp
 26d:	05 1e 2e 05 0d       	add    $0xd052e1e,%eax
 272:	2f                   	das
 273:	05 0a 08 8d 05       	add    $0x58d080a,%eax
 278:	09 88 05 23 2f 05    	or     %ecx,0x52f2305(%eax)
 27e:	2b 3c 05 27 3c 05 07 	sub    0x7053c27(,%eax,1),%edi
 285:	58                   	pop    %eax
 286:	05 0d 08 49 05       	add    $0x549080d,%eax
 28b:	10 3c 05 0a 66 05 01 	adc    %bh,0x105660a(,%eax,1)
 292:	4c                   	dec    %esp
 293:	60                   	pusha
 294:	05 0f 08 22 05       	add    $0x522080f,%eax
 299:	06                   	push   %es
 29a:	76 05                	jbe    2a1 <mbh-0x2ffd5f>
 29c:	12 00                	adc    (%eax),%al
 29e:	02 04 01             	add    (%ecx,%eax,1),%al
 2a1:	66 05 11 67          	add    $0x6711,%ax
 2a5:	05 09 76 05 23       	add    $0x23057609,%eax
 2aa:	30 05 1c d6 05 10    	xor    %al,0x1005d61c
 2b0:	82 05 0d 9f 05 0a 08 	addb   $0x8,0xa059f0d
 2b7:	2f                   	das
 2b8:	05 10 4b 05 14       	add    $0x14054b10,%eax
 2bd:	45                   	inc    %ebp
 2be:	00 02                	add    %al,(%edx)
 2c0:	04 01                	add    $0x1,%al
 2c2:	06                   	push   %es
 2c3:	66 05 28 00          	add    $0x28,%ax
 2c7:	02 04 02             	add    (%edx,%eax,1),%al
 2ca:	06                   	push   %es
 2cb:	66 05 17 00          	add    $0x17,%ax
 2cf:	02 04 03             	add    (%ebx,%eax,1),%al
 2d2:	82 05 07 6e 05 09 67 	addb   $0x67,0x9056e07
 2d9:	05 1e 2f 05 07       	add    $0x7052f1e,%eax
 2de:	ac                   	lods   %ds:(%esi),%al
 2df:	05 0d 08 1f 05       	add    $0x51f080d,%eax
 2e4:	0a 90 05 0b 4d 05    	or     0x54d0b05(%eax),%dl
 2ea:	01 3d 32 05 04 08    	add    %edi,0x8040532
 2f0:	21 05 01 08 91 40    	and    %eax,0x40910801
 2f6:	05 11 6c 05 0b       	add    $0xb056c11,%eax
 2fb:	67 75 05             	addr16 jne 303 <mbh-0x2ffcfd>
 2fe:	08 75 05             	or     %dh,0x5(%ebp)
 301:	09 75 05             	or     %esi,0x5(%ebp)
 304:	06                   	push   %es
 305:	76 05                	jbe    30c <mbh-0x2ffcf4>
 307:	0f 00 02             	sldt   (%edx)
 30a:	04 01                	add    $0x1,%al
 30c:	9e                   	sahf
 30d:	05 09 4c 05 12       	add    $0x12054c09,%eax
 312:	5a                   	pop    %edx
 313:	05 09 90 68 05       	add    $0x5689009,%eax
 318:	0c a1                	or     $0xa1,%al
 31a:	05 0f 67 05 15       	add    $0x1505670f,%eax
 31f:	67 05 0d 77 05 14    	addr16 add $0x1405770d,%eax
 325:	57                   	push   %edi
 326:	05 0d 75 05 13       	add    $0x1305750d,%eax
 32b:	59                   	pop    %ecx
 32c:	05 12 67 05 0d       	add    $0xd056712,%eax
 331:	83 05 0c 5c 05 13 67 	addl   $0x67,0x13055c0c
 338:	05 0d d7 05 13       	add    $0x1305d70d,%eax
 33d:	08 67 05             	or     %ah,0x5(%edi)
 340:	11 67 05             	adc    %esp,0x5(%edi)
 343:	0d d7 05 13 08       	or     $0x81305d7,%eax
 348:	67 05 1e 67 05 16    	addr16 add $0x1605671e,%eax
 34e:	00 02                	add    %al,(%edx)
 350:	04 01                	add    $0x1,%al
 352:	ac                   	lods   %ds:(%esi),%al
 353:	05 0d 9f 05 13       	add    $0x13059f0d,%eax
 358:	08 d7                	or     %dl,%bh
 35a:	05 16 67 05 0d       	add    $0xd056716,%eax
 35f:	08 3d 05 13 08 d9    	or     %bh,0xd9081305
 365:	05 1d 00 02 04       	add    $0x402001d,%eax
 36a:	01 66 05             	add    %esp,0x5(%esi)
 36d:	0f a1                	pop    %fs
 36f:	05 16 67 05 14       	add    $0x14056716,%eax
 374:	08 59 05             	or     %bl,0x5(%ecx)
 377:	18 67 05             	sbb    %ah,0x5(%edi)
 37a:	16                   	push   %ss
 37b:	00 02                	add    %al,(%edx)
 37d:	04 01                	add    $0x1,%al
 37f:	ac                   	lods   %ds:(%esi),%al
 380:	05 14 91 05 22       	add    $0x22059114,%eax
 385:	67 05 16 00 02 04    	addr16 add $0x4020016,%eax
 38b:	01 ac 05 21 a0 05 16 	add    %ebp,0x1605a021(%ebp,%eax,1)
 392:	00 02                	add    %al,(%edx)
 394:	04 01                	add    $0x1,%al
 396:	ac                   	lods   %ds:(%esi),%al
 397:	05 0d a0 05 29       	add    $0x2905a00d,%eax
 39c:	03 74 08 4a          	add    0x4a(%eax,%ecx,1),%esi
 3a0:	05 13 03 0e 58       	add    $0x580e0313,%eax
 3a5:	05 1d 00 02 04       	add    $0x402001d,%eax
 3aa:	01 66 05             	add    %esp,0x5(%esi)
 3ad:	0f a1                	pop    %fs
 3af:	05 16 67 05 14       	add    $0x14056716,%eax
 3b4:	08 59 05             	or     %bl,0x5(%ecx)
 3b7:	18 67 05             	sbb    %ah,0x5(%edi)
 3ba:	16                   	push   %ss
 3bb:	00 02                	add    %al,(%edx)
 3bd:	04 01                	add    $0x1,%al
 3bf:	ac                   	lods   %ds:(%esi),%al
 3c0:	05 14 bb 05 22       	add    $0x2205bb14,%eax
 3c5:	67 05 16 00 02 04    	addr16 add $0x4020016,%eax
 3cb:	01 ac 05 21 e6 05 16 	add    %ebp,0x1605e621(%ebp,%eax,1)
 3d2:	00 02                	add    %al,(%edx)
 3d4:	04 01                	add    $0x1,%al
 3d6:	ac                   	lods   %ds:(%esi),%al
 3d7:	05 0f ca 05 10       	add    $0x1005ca0f,%eax
 3dc:	67 05 29 03 73 08    	addr16 add $0x8730329,%eax
 3e2:	4a                   	dec    %edx
 3e3:	05 10 03 0f 58       	add    $0x580f0310,%eax
 3e8:	05 29 03 71 08       	add    $0x8710329,%eax
 3ed:	90                   	nop
 3ee:	05 13 03 12 58       	add    $0x58120313,%eax
 3f3:	05 16 67 05 0d       	add    $0xd056716,%eax
 3f8:	08 3d 05 13 08 91    	or     %bh,0x91081305
 3fe:	05 16 67 05 0d       	add    $0xd056716,%eax
 403:	08 3d 05 13 08 d9    	or     %bh,0xd9081305
 409:	05 1e 67 05 16       	add    $0x1605671e,%eax
 40e:	00 02                	add    %al,(%edx)
 410:	04 01                	add    $0x1,%al
 412:	ac                   	lods   %ds:(%esi),%al
 413:	05 0d 9f 08 67       	add    $0x67089f0d,%eax
 418:	05 14 08 af 05       	add    $0x5af0814,%eax
 41d:	1e                   	push   %ds
 41e:	00 02                	add    %al,(%edx)
 420:	04 01                	add    $0x1,%al
 422:	66 05 14 6a          	add    $0x6a14,%ax
 426:	05 0d 67 08 86       	add    $0x8608670d,%eax
 42b:	05 11 08 4d 05       	add    $0x54d0811,%eax
 430:	0e                   	push   %cs
 431:	75 92                	jne    3c5 <mbh-0x2ffc3b>
 433:	05 11 68 05 0f       	add    $0xf056811,%eax
 438:	75 05                	jne    43f <mbh-0x2ffbc1>
 43a:	0a 93 05 0d 03 6c    	or     0x6c030d05(%ebx),%dl
 440:	08 82 05 0a 03 b0    	or     %al,-0x4ffcf5fb(%edx)
 446:	7f 20                	jg     468 <mbh-0x2ffb98>
 448:	05 0c 03 e7 00       	add    $0xe7030c,%eax
 44d:	d6                   	(bad)
 44e:	05 14 3c 05 17       	add    $0x17053c14,%eax
 453:	3c 05                	cmp    $0x5,%al
 455:	10 66 05             	adc    %ah,0x5(%esi)
 458:	1b 2e                	sbb    (%esi),%ebp
 45a:	05 0e 3d 05 01       	add    $0x1053d0e,%eax
 45f:	3d 02 02 00 01       	cmp    $0x1000202,%eax
 464:	01 30                	add    %esi,(%eax)
 466:	01 00                	add    %eax,(%eax)
 468:	00 05 00 04 00 3c    	add    %al,0x3c000400
 46e:	00 00                	add    %al,(%eax)
 470:	00 01                	add    %al,(%ecx)
 472:	01 01                	add    %eax,(%ecx)
 474:	fb                   	sti
 475:	0e                   	push   %cs
 476:	0d 00 01 01 01       	or     $0x1010100,%eax
 47b:	01 00                	add    %eax,(%eax)
 47d:	00 00                	add    %al,(%eax)
 47f:	01 00                	add    %eax,(%eax)
 481:	00 01                	add    %al,(%ecx)
 483:	01 01                	add    %eax,(%ecx)
 485:	1f                   	pop    %ds
 486:	03 00                	add    (%eax),%eax
 488:	00 00                	add    %al,(%eax)
 48a:	00 21                	add    %ah,(%ecx)
 48c:	00 00                	add    %al,(%eax)
 48e:	00 4f 00             	add    %cl,0x0(%edi)
 491:	00 00                	add    %al,(%eax)
 493:	02 01                	add    (%ecx),%al
 495:	1f                   	pop    %ds
 496:	02 0f                	add    (%edi),%cl
 498:	04 ce                	add    $0xce,%al
 49a:	00 00                	add    %al,(%eax)
 49c:	00 01                	add    %al,(%ecx)
 49e:	ce                   	into
 49f:	00 00                	add    %al,(%eax)
 4a1:	00 01                	add    %al,(%ecx)
 4a3:	61                   	popa
 4a4:	00 00                	add    %al,(%eax)
 4a6:	00 02                	add    %al,(%edx)
 4a8:	82 00 00             	addb   $0x0,(%eax)
 4ab:	00 02                	add    %al,(%edx)
 4ad:	05 01 00 05 02       	add    $0x2050001,%eax
 4b2:	9f                   	lahf
 4b3:	38 30                	cmp    %dh,(%eax)
 4b5:	00 16                	add    %dl,(%esi)
 4b7:	05 09 c9 05 07       	add    $0x705c909,%eax
 4bc:	2f                   	das
 4bd:	05 0a 9d 05 01       	add    $0x1059d0a,%eax
 4c2:	08 a0 4d 05 04 cc    	or     %ah,-0x33fbfab3(%eax)
 4c8:	05 0c c9 4b 05       	add    $0x54bc90c,%eax
 4cd:	04 9f                	add    $0x9f,%al
 4cf:	05 0f bc 05 0c       	add    $0xc05bc0f,%eax
 4d4:	9f                   	lahf
 4d5:	05 04 9f bc 05       	add    $0x5bc9f04,%eax
 4da:	0c ca                	or     $0xca,%al
 4dc:	05 0e 4b 9f 05       	add    $0x59f4b0e,%eax
 4e1:	04 9f                	add    $0x9f,%al
 4e3:	05 01 bb 3f 05       	add    $0x53fbb01,%eax
 4e8:	04 ce                	add    $0xce,%al
 4ea:	c9                   	leave
 4eb:	9f                   	lahf
 4ec:	05 0c cb 05 11       	add    $0x1105cb0c,%eax
 4f1:	4b                   	dec    %ebx
 4f2:	05 04 9f 05 0c       	add    $0xc059f04,%eax
 4f7:	03 0b                	add    (%ebx),%ecx
 4f9:	ba 05 04 4c bd       	mov    $0xbd4c0405,%edx
 4fe:	05 01 c9 3f 05       	add    $0x53fc901,%eax
 503:	04 3d                	add    $0x3d,%al
 505:	c9                   	leave
 506:	05 01 c9 3f 05       	add    $0x53fc901,%eax
 50b:	09 c9                	or     %ecx,%ecx
 50d:	05 1f 30 05 10       	add    $0x1005301f,%eax
 512:	d6                   	(bad)
 513:	05 17 58 05 13       	add    $0x13055817,%eax
 518:	66 05 1d 2e          	add    $0x2e1d,%ax
 51c:	05 0a 2f 05 0e       	add    $0xe052f0a,%eax
 521:	66 05 0a 8d          	add    $0x8d0a,%ax
 525:	05 20 08 66 05       	add    $0x5660820,%eax
 52a:	26 00 02             	add    %al,%es:(%edx)
 52d:	04 01                	add    $0x1,%al
 52f:	4a                   	dec    %edx
 530:	05 20 00 02 04       	add    $0x4020020,%eax
 535:	01 66 05             	add    %esp,0x5(%esi)
 538:	01 5d 3f             	add    %ebx,0x3f(%ebp)
 53b:	05 09 c9 05 0a       	add    $0xa05c909,%eax
 540:	30 05 09 08 66 05    	xor    %al,0x5660809
 546:	0a 4c 05 0d          	or     0xd(%ebp,%eax,1),%cl
 54a:	08 4b 05             	or     %cl,0x5(%ebx)
 54d:	11 66 05             	adc    %esp,0x5(%esi)
 550:	0d 8b 05 12 66       	or     $0x6612058b,%eax
 555:	05 01 60 4d 05       	add    $0x54d6001,%eax
 55a:	10 69 05             	adc    %ch,0x5(%ecx)
 55d:	0b 67 05             	or     0x5(%edi),%esp
 560:	04 76                	add    $0x76,%al
 562:	05 0e 08 3d 05       	add    $0x53d080e,%eax
 567:	01 3d 31 05 10 69    	add    %edi,0x69100531
 56d:	05 0b 67 05 04       	add    $0x405670b,%eax
 572:	76 05                	jbe    579 <mbh-0x2ffa87>
 574:	0e                   	push   %cs
 575:	08 3d 05 01 3d 31    	or     %bh,0x313d0105
 57b:	05 0b 67 05 09       	add    $0x905670b,%eax
 580:	76 05                	jbe    587 <mbh-0x2ffa79>
 582:	0a 2f                	or     (%edi),%ch
 584:	05 09 08 4a 05       	add    $0x54a0809,%eax
 589:	0a 4c 05 0b          	or     0xb(%ebp,%eax,1),%cl
 58d:	ad                   	lods   %ds:(%esi),%eax
 58e:	05 0a 46 05 01       	add    $0x105460a,%eax
 593:	6c                   	insb   (%dx),%es:(%edi)
 594:	02 04 00             	add    (%eax,%eax,1),%al
 597:	01 01                	add    %eax,(%ecx)
 599:	86 00                	xchg   %al,(%eax)
 59b:	00 00                	add    %al,(%eax)
 59d:	05 00 04 00 3c       	add    $0x3c000400,%eax
 5a2:	00 00                	add    %al,(%eax)
 5a4:	00 01                	add    %al,(%ecx)
 5a6:	01 01                	add    %eax,(%ecx)
 5a8:	fb                   	sti
 5a9:	0e                   	push   %cs
 5aa:	0d 00 01 01 01       	or     $0x1010100,%eax
 5af:	01 00                	add    %eax,(%eax)
 5b1:	00 00                	add    %al,(%eax)
 5b3:	01 00                	add    %eax,(%eax)
 5b5:	00 01                	add    %al,(%ecx)
 5b7:	01 01                	add    %eax,(%ecx)
 5b9:	1f                   	pop    %ds
 5ba:	03 00                	add    (%eax),%eax
 5bc:	00 00                	add    %al,(%eax)
 5be:	00 21                	add    %ah,(%ecx)
 5c0:	00 00                	add    %al,(%eax)
 5c2:	00 4f 00             	add    %cl,0x0(%edi)
 5c5:	00 00                	add    %al,(%eax)
 5c7:	02 01                	add    (%ecx),%al
 5c9:	1f                   	pop    %ds
 5ca:	02 0f                	add    (%edi),%cl
 5cc:	04 e4                	add    $0xe4,%al
 5ce:	00 00                	add    %al,(%eax)
 5d0:	00 01                	add    %al,(%ecx)
 5d2:	e4 00                	in     $0x0,%al
 5d4:	00 00                	add    %al,(%eax)
 5d6:	01 89 00 00 00 02    	add    %ecx,0x2000000(%ecx)
 5dc:	61                   	popa
 5dd:	00 00                	add    %al,(%eax)
 5df:	00 02                	add    %al,(%edx)
 5e1:	05 01 00 05 02       	add    $0x2050001,%eax
 5e6:	44                   	inc    %esp
 5e7:	3b 30                	cmp    (%eax),%esi
 5e9:	00 16                	add    %dl,(%esi)
 5eb:	05 0d 03 0b 66       	add    $0x660b030d,%eax
 5f0:	05 04 4b 9f 05       	add    $0x59f4b04,%eax
 5f5:	0d a5 05 04 4b       	or     $0x4b0405a5,%eax
 5fa:	05 0d a0 05 04       	add    $0x405a00d,%eax
 5ff:	4b                   	dec    %ebx
 600:	05 0d a5 05 15       	add    $0x1505a50d,%eax
 605:	4b                   	dec    %ebx
 606:	05 04 9f 05 0d       	add    $0xd059f04,%eax
 60b:	a0 05 12 4b 05       	mov    0x54b1205,%al
 610:	04 c9                	add    $0xc9,%al
 612:	05 0d 03 09 9e       	add    $0x9e09030d,%eax
 617:	05 04 4b 9f 05       	add    $0x59f4b04,%eax
 61c:	01 9f 02 03 00 01    	add    %ebx,0x1000302(%edi)
 622:	01 ac 00 00 00 05 00 	add    %ebp,0x50000(%eax,%eax,1)
 629:	04 00                	add    $0x0,%al
 62b:	4b                   	dec    %ebx
 62c:	00 00                	add    %al,(%eax)
 62e:	00 01                	add    %al,(%ecx)
 630:	01 01                	add    %eax,(%ecx)
 632:	fb                   	sti
 633:	0e                   	push   %cs
 634:	0d 00 01 01 01       	or     $0x1010100,%eax
 639:	01 00                	add    %eax,(%eax)
 63b:	00 00                	add    %al,(%eax)
 63d:	01 00                	add    %eax,(%eax)
 63f:	00 01                	add    %al,(%ecx)
 641:	01 01                	add    %eax,(%ecx)
 643:	1f                   	pop    %ds
 644:	03 00                	add    (%eax),%eax
 646:	00 00                	add    %al,(%eax)
 648:	00 21                	add    %ah,(%ecx)
 64a:	00 00                	add    %al,(%eax)
 64c:	00 4f 00             	add    %cl,0x0(%edi)
 64f:	00 00                	add    %al,(%eax)
 651:	02 01                	add    (%ecx),%al
 653:	1f                   	pop    %ds
 654:	02 0f                	add    (%edi),%cl
 656:	07                   	pop    %es
 657:	f9                   	stc
 658:	00 00                	add    %al,(%eax)
 65a:	00 01                	add    %al,(%ecx)
 65c:	f9                   	stc
 65d:	00 00                	add    %al,(%eax)
 65f:	00 01                	add    %al,(%ecx)
 661:	61                   	popa
 662:	00 00                	add    %al,(%eax)
 664:	00 02                	add    %al,(%edx)
 666:	00 01                	add    %al,(%ecx)
 668:	00 00                	add    %al,(%eax)
 66a:	02 06                	add    (%esi),%al
 66c:	01 00                	add    %eax,(%eax)
 66e:	00 02                	add    %al,(%edx)
 670:	7b 00                	jnp    672 <mbh-0x2ff98e>
 672:	00 00                	add    %al,(%eax)
 674:	02 8f 00 00 00 02    	add    0x2000000(%edi),%cl
 67a:	05 01 00 05 02       	add    $0x2050001,%eax
 67f:	cc                   	int3
 680:	3b 30                	cmp    (%eax),%esi
 682:	00 03                	add    %al,(%ebx)
 684:	0a 01                	or     (%ecx),%al
 686:	05 08 6b 05 09       	add    $0x9056b08,%eax
 68b:	77 05                	ja     692 <mbh-0x2ff96e>
 68d:	04 74                	add    $0x74,%al
 68f:	05 07 59 05 1f       	add    $0x1f055907,%eax
 694:	00 02                	add    %al,(%edx)
 696:	04 03                	add    $0x3,%al
 698:	02 85 01 11 05 27    	add    0x27051101(%ebp),%al
 69e:	00 02                	add    %al,(%edx)
 6a0:	04 03                	add    $0x3,%al
 6a2:	4a                   	dec    %edx
 6a3:	05 0f 00 02 04       	add    $0x402000f,%eax
 6a8:	01 4a cb             	add    %ecx,-0x35(%edx)
 6ab:	75 05                	jne    6b2 <mbh-0x2ff94e>
 6ad:	04 67                	add    $0x67,%al
 6af:	05 01 4b 3f 05       	add    $0x53f4b01,%eax
 6b4:	04 bb                	add    $0xbb,%al
 6b6:	05 0c 03 1c 02       	add    $0x21c030c,%eax
 6bb:	a2 01 01 05 06       	mov    %al,0x6050101
 6c0:	a0 05 07 67 05       	mov    0x5670705,%al
 6c5:	01 85 05 07 2d 05    	add    %eax,0x52d0705(%ebp)
 6cb:	01 08                	add    %ecx,(%eax)
 6cd:	4b                   	dec    %ebx
 6ce:	02 09                	add    (%ecx),%cl
 6d0:	00 01                	add    %al,(%ecx)
 6d2:	01 3b                	add    %edi,(%ebx)
 6d4:	03 00                	add    (%eax),%eax
 6d6:	00 05 00 04 00 2e    	add    %al,0x2e000400
 6dc:	00 00                	add    %al,(%eax)
 6de:	00 01                	add    %al,(%ecx)
 6e0:	01 01                	add    %eax,(%ecx)
 6e2:	fb                   	sti
 6e3:	0e                   	push   %cs
 6e4:	0d 00 01 01 01       	or     $0x1010100,%eax
 6e9:	01 00                	add    %eax,(%eax)
 6eb:	00 00                	add    %al,(%eax)
 6ed:	01 00                	add    %eax,(%eax)
 6ef:	00 01                	add    %al,(%ecx)
 6f1:	01 01                	add    %eax,(%ecx)
 6f3:	1f                   	pop    %ds
 6f4:	02 00                	add    (%eax),%al
 6f6:	00 00                	add    %al,(%eax)
 6f8:	00 21                	add    %ah,(%ecx)
 6fa:	00 00                	add    %al,(%eax)
 6fc:	00 02                	add    %al,(%edx)
 6fe:	01 1f                	add    %ebx,(%edi)
 700:	02 0f                	add    (%edi),%cl
 702:	02 0d 01 00 00 01    	add    0x1000001,%cl
 708:	0d 01 00 00 01       	or     $0x1000001,%eax
 70d:	00 05 02 79 3d 30    	add    %al,0x303d7902
 713:	00 03                	add    %al,(%ebx)
 715:	0d 01 21 2f 2f       	or     $0x2f2f2101,%eax
 71a:	30 21                	xor    %ah,(%ecx)
 71c:	30 2f                	xor    %ch,(%edi)
 71e:	03 11                	add    (%ecx),%edx
 720:	20 21                	and    %ah,(%ecx)
 722:	2f                   	das
 723:	5b                   	pop    %ebx
 724:	21 3d 02 01 00 01    	and    %edi,0x1000102
 72a:	01 00                	add    %eax,(%eax)
 72c:	05 02 10 20 30       	add    $0x30201002,%eax
 731:	00 03                	add    %al,(%ebx)
 733:	38 01                	cmp    %al,(%ecx)
 735:	2f                   	das
 736:	2f                   	das
 737:	be 2f 2f be 2f       	mov    $0x2fbe2f2f,%esi
 73c:	2f                   	das
 73d:	be 2f 2f be 2f       	mov    $0x2fbe2f2f,%esi
 742:	2f                   	das
 743:	be 2f 2f be 2f       	mov    $0x2fbe2f2f,%esi
 748:	2f                   	das
 749:	be 2f 2f be 2f       	mov    $0x2fbe2f2f,%esi
 74e:	da 2f                	fisubrl (%edi)
 750:	2f                   	das
 751:	be 2f da 2f da       	mov    $0xda2fda2f,%esi
 756:	2f                   	das
 757:	da 2f                	fisubrl (%edi)
 759:	da 2f                	fisubrl (%edi)
 75b:	da 2f                	fisubrl (%edi)
 75d:	2f                   	das
 75e:	be 2f 2f be 2f       	mov    $0x2fbe2f2f,%esi
 763:	da 2f                	fisubrl (%edi)
 765:	2f                   	das
 766:	be 2f 2f bf 02       	mov    $0x2bf2f2f,%esi
 76b:	c0 01 18             	rolb   $0x18,(%ecx)
 76e:	2f                   	das
 76f:	2f                   	das
 770:	b8 2f 2f b8 2f       	mov    $0x2fb82f2f,%eax
 775:	2f                   	das
 776:	b8 2f 2f b8 2f       	mov    $0x2fb82f2f,%eax
 77b:	2f                   	das
 77c:	b8 2f 2f b8 2f       	mov    $0x2fb82f2f,%eax
 781:	2f                   	das
 782:	b8 2f 2f c0 2f       	mov    $0x2fc02f2f,%eax
 787:	2f                   	das
 788:	b8 2f 2f b8 2f       	mov    $0x2fb82f2f,%eax
 78d:	2f                   	das
 78e:	b8 2f 2f b8 2f       	mov    $0x2fb82f2f,%eax
 793:	2f                   	das
 794:	b8 2f 2f b8 2f       	mov    $0x2fb82f2f,%eax
 799:	2f                   	das
 79a:	b8 2f 2f c0 2f       	mov    $0x2fc02f2f,%eax
 79f:	2f                   	das
 7a0:	b8 2f 2f b8 2f       	mov    $0x2fb82f2f,%eax
 7a5:	2f                   	das
 7a6:	b8 2f 2f b8 2f       	mov    $0x2fb82f2f,%eax
 7ab:	2f                   	das
 7ac:	b8 2f 2f b8 2f       	mov    $0x2fb82f2f,%eax
 7b1:	2f                   	das
 7b2:	b8 2f 2f b8 2f       	mov    $0x2fb82f2f,%eax
 7b7:	2f                   	das
 7b8:	b8 2f 2f b8 2f       	mov    $0x2fb82f2f,%eax
 7bd:	2f                   	das
 7be:	b8 2f 2f b8 2f       	mov    $0x2fb82f2f,%eax
 7c3:	2f                   	das
 7c4:	b8 2f 2f b8 2f       	mov    $0x2fb82f2f,%eax
 7c9:	2f                   	das
 7ca:	b8 2f 2f b8 2f       	mov    $0x2fb82f2f,%eax
 7cf:	2f                   	das
 7d0:	b8 2f 2f b8 2f       	mov    $0x2fb82f2f,%eax
 7d5:	2f                   	das
 7d6:	b8 2f 2f b8 2f       	mov    $0x2fb82f2f,%eax
 7db:	2f                   	das
 7dc:	b8 2f 2f b8 2f       	mov    $0x2fb82f2f,%eax
 7e1:	2f                   	das
 7e2:	b8 2f 2f b8 2f       	mov    $0x2fb82f2f,%eax
 7e7:	2f                   	das
 7e8:	b8 2f 2f b8 2f       	mov    $0x2fb82f2f,%eax
 7ed:	2f                   	das
 7ee:	b8 2f 2f b8 2f       	mov    $0x2fb82f2f,%eax
 7f3:	2f                   	das
 7f4:	b8 2f 2f b8 2f       	mov    $0x2fb82f2f,%eax
 7f9:	2f                   	das
 7fa:	b8 2f 2f b8 2f       	mov    $0x2fb82f2f,%eax
 7ff:	2f                   	das
 800:	b8 2f 2f b8 2f       	mov    $0x2fb82f2f,%eax
 805:	2f                   	das
 806:	b8 2f 2f b8 2f       	mov    $0x2fb82f2f,%eax
 80b:	2f                   	das
 80c:	b8 2f 2f b8 2f       	mov    $0x2fb82f2f,%eax
 811:	2f                   	das
 812:	b8 2f 2f b8 2f       	mov    $0x2fb82f2f,%eax
 817:	2f                   	das
 818:	b8 2f 2f b8 2f       	mov    $0x2fb82f2f,%eax
 81d:	2f                   	das
 81e:	b8 2f 2f b8 2f       	mov    $0x2fb82f2f,%eax
 823:	2f                   	das
 824:	b8 2f 2f b8 2f       	mov    $0x2fb82f2f,%eax
 829:	2f                   	das
 82a:	b8 2f 2f b8 2f       	mov    $0x2fb82f2f,%eax
 82f:	2f                   	das
 830:	b8 2f 2f b8 2f       	mov    $0x2fb82f2f,%eax
 835:	2f                   	das
 836:	b8 2f 2f b8 2f       	mov    $0x2fb82f2f,%eax
 83b:	2f                   	das
 83c:	b8 2f 2f b8 2f       	mov    $0x2fb82f2f,%eax
 841:	2f                   	das
 842:	b8 2f 2f b8 2f       	mov    $0x2fb82f2f,%eax
 847:	2f                   	das
 848:	b8 2f 2f b8 2f       	mov    $0x2fb82f2f,%eax
 84d:	2f                   	das
 84e:	b8 2f 2f b8 2f       	mov    $0x2fb82f2f,%eax
 853:	2f                   	das
 854:	b8 2f 2f b8 2f       	mov    $0x2fb82f2f,%eax
 859:	2f                   	das
 85a:	b8 2f 2f b8 2f       	mov    $0x2fb82f2f,%eax
 85f:	2f                   	das
 860:	b8 2f 2f b8 2f       	mov    $0x2fb82f2f,%eax
 865:	2f                   	das
 866:	b8 2f 2f b8 2f       	mov    $0x2fb82f2f,%eax
 86b:	2f                   	das
 86c:	b8 2f 2f b8 2f       	mov    $0x2fb82f2f,%eax
 871:	2f                   	das
 872:	b8 2f 2f b8 2f       	mov    $0x2fb82f2f,%eax
 877:	2f                   	das
 878:	b8 2f 2f b8 2f       	mov    $0x2fb82f2f,%eax
 87d:	2f                   	das
 87e:	b8 2f 2f b8 2f       	mov    $0x2fb82f2f,%eax
 883:	2f                   	das
 884:	b8 2f 2f b8 2f       	mov    $0x2fb82f2f,%eax
 889:	2f                   	das
 88a:	b8 2f 2f b8 2f       	mov    $0x2fb82f2f,%eax
 88f:	59                   	pop    %ecx
 890:	8e 2f                	mov    (%edi),%gs
 892:	59                   	pop    %ecx
 893:	8e 2f                	mov    (%edi),%gs
 895:	59                   	pop    %ecx
 896:	8e 2f                	mov    (%edi),%gs
 898:	59                   	pop    %ecx
 899:	8e 2f                	mov    (%edi),%gs
 89b:	59                   	pop    %ecx
 89c:	8e 2f                	mov    (%edi),%gs
 89e:	59                   	pop    %ecx
 89f:	8e 2f                	mov    (%edi),%gs
 8a1:	59                   	pop    %ecx
 8a2:	8e 2f                	mov    (%edi),%gs
 8a4:	59                   	pop    %ecx
 8a5:	8e 2f                	mov    (%edi),%gs
 8a7:	59                   	pop    %ecx
 8a8:	8e 2f                	mov    (%edi),%gs
 8aa:	59                   	pop    %ecx
 8ab:	8e 2f                	mov    (%edi),%gs
 8ad:	59                   	pop    %ecx
 8ae:	8e 2f                	mov    (%edi),%gs
 8b0:	59                   	pop    %ecx
 8b1:	8e 2f                	mov    (%edi),%gs
 8b3:	59                   	pop    %ecx
 8b4:	8e 2f                	mov    (%edi),%gs
 8b6:	59                   	pop    %ecx
 8b7:	8e 2f                	mov    (%edi),%gs
 8b9:	59                   	pop    %ecx
 8ba:	8e 2f                	mov    (%edi),%gs
 8bc:	59                   	pop    %ecx
 8bd:	8e 2f                	mov    (%edi),%gs
 8bf:	59                   	pop    %ecx
 8c0:	8e 2f                	mov    (%edi),%gs
 8c2:	59                   	pop    %ecx
 8c3:	8e 2f                	mov    (%edi),%gs
 8c5:	59                   	pop    %ecx
 8c6:	8e 2f                	mov    (%edi),%gs
 8c8:	59                   	pop    %ecx
 8c9:	8e 2f                	mov    (%edi),%gs
 8cb:	59                   	pop    %ecx
 8cc:	8e 2f                	mov    (%edi),%gs
 8ce:	59                   	pop    %ecx
 8cf:	8e 2f                	mov    (%edi),%gs
 8d1:	59                   	pop    %ecx
 8d2:	8e 2f                	mov    (%edi),%gs
 8d4:	59                   	pop    %ecx
 8d5:	8e 2f                	mov    (%edi),%gs
 8d7:	59                   	pop    %ecx
 8d8:	8e 2f                	mov    (%edi),%gs
 8da:	59                   	pop    %ecx
 8db:	8e 2f                	mov    (%edi),%gs
 8dd:	59                   	pop    %ecx
 8de:	8e 2f                	mov    (%edi),%gs
 8e0:	59                   	pop    %ecx
 8e1:	8e 2f                	mov    (%edi),%gs
 8e3:	59                   	pop    %ecx
 8e4:	8e 2f                	mov    (%edi),%gs
 8e6:	59                   	pop    %ecx
 8e7:	8e 2f                	mov    (%edi),%gs
 8e9:	59                   	pop    %ecx
 8ea:	8e 2f                	mov    (%edi),%gs
 8ec:	59                   	pop    %ecx
 8ed:	8e 2f                	mov    (%edi),%gs
 8ef:	59                   	pop    %ecx
 8f0:	8e 2f                	mov    (%edi),%gs
 8f2:	59                   	pop    %ecx
 8f3:	8e 2f                	mov    (%edi),%gs
 8f5:	59                   	pop    %ecx
 8f6:	8e 2f                	mov    (%edi),%gs
 8f8:	59                   	pop    %ecx
 8f9:	8e 2f                	mov    (%edi),%gs
 8fb:	59                   	pop    %ecx
 8fc:	8e 2f                	mov    (%edi),%gs
 8fe:	59                   	pop    %ecx
 8ff:	8e 2f                	mov    (%edi),%gs
 901:	59                   	pop    %ecx
 902:	8e 2f                	mov    (%edi),%gs
 904:	59                   	pop    %ecx
 905:	8e 2f                	mov    (%edi),%gs
 907:	59                   	pop    %ecx
 908:	8e 2f                	mov    (%edi),%gs
 90a:	59                   	pop    %ecx
 90b:	8e 2f                	mov    (%edi),%gs
 90d:	59                   	pop    %ecx
 90e:	8e 2f                	mov    (%edi),%gs
 910:	59                   	pop    %ecx
 911:	8e 2f                	mov    (%edi),%gs
 913:	59                   	pop    %ecx
 914:	8e 2f                	mov    (%edi),%gs
 916:	59                   	pop    %ecx
 917:	8e 2f                	mov    (%edi),%gs
 919:	59                   	pop    %ecx
 91a:	8e 2f                	mov    (%edi),%gs
 91c:	59                   	pop    %ecx
 91d:	8e 2f                	mov    (%edi),%gs
 91f:	59                   	pop    %ecx
 920:	8e 2f                	mov    (%edi),%gs
 922:	59                   	pop    %ecx
 923:	8e 2f                	mov    (%edi),%gs
 925:	59                   	pop    %ecx
 926:	8e 2f                	mov    (%edi),%gs
 928:	59                   	pop    %ecx
 929:	8e 2f                	mov    (%edi),%gs
 92b:	59                   	pop    %ecx
 92c:	8e 2f                	mov    (%edi),%gs
 92e:	59                   	pop    %ecx
 92f:	8e 2f                	mov    (%edi),%gs
 931:	59                   	pop    %ecx
 932:	8e 2f                	mov    (%edi),%gs
 934:	59                   	pop    %ecx
 935:	8e 2f                	mov    (%edi),%gs
 937:	59                   	pop    %ecx
 938:	8e 2f                	mov    (%edi),%gs
 93a:	59                   	pop    %ecx
 93b:	8e 2f                	mov    (%edi),%gs
 93d:	59                   	pop    %ecx
 93e:	8e 2f                	mov    (%edi),%gs
 940:	59                   	pop    %ecx
 941:	8e 2f                	mov    (%edi),%gs
 943:	59                   	pop    %ecx
 944:	8e 2f                	mov    (%edi),%gs
 946:	59                   	pop    %ecx
 947:	8e 2f                	mov    (%edi),%gs
 949:	59                   	pop    %ecx
 94a:	8e 2f                	mov    (%edi),%gs
 94c:	59                   	pop    %ecx
 94d:	8e 2f                	mov    (%edi),%gs
 94f:	59                   	pop    %ecx
 950:	8e 2f                	mov    (%edi),%gs
 952:	59                   	pop    %ecx
 953:	8e 2f                	mov    (%edi),%gs
 955:	59                   	pop    %ecx
 956:	8e 2f                	mov    (%edi),%gs
 958:	59                   	pop    %ecx
 959:	8e 2f                	mov    (%edi),%gs
 95b:	59                   	pop    %ecx
 95c:	8e 2f                	mov    (%edi),%gs
 95e:	59                   	pop    %ecx
 95f:	8e 2f                	mov    (%edi),%gs
 961:	59                   	pop    %ecx
 962:	8e 2f                	mov    (%edi),%gs
 964:	59                   	pop    %ecx
 965:	8e 2f                	mov    (%edi),%gs
 967:	59                   	pop    %ecx
 968:	8e 2f                	mov    (%edi),%gs
 96a:	59                   	pop    %ecx
 96b:	8e 2f                	mov    (%edi),%gs
 96d:	59                   	pop    %ecx
 96e:	8e 2f                	mov    (%edi),%gs
 970:	59                   	pop    %ecx
 971:	8e 2f                	mov    (%edi),%gs
 973:	59                   	pop    %ecx
 974:	8e 2f                	mov    (%edi),%gs
 976:	59                   	pop    %ecx
 977:	8e 2f                	mov    (%edi),%gs
 979:	59                   	pop    %ecx
 97a:	8e 2f                	mov    (%edi),%gs
 97c:	59                   	pop    %ecx
 97d:	8e 2f                	mov    (%edi),%gs
 97f:	59                   	pop    %ecx
 980:	8e 2f                	mov    (%edi),%gs
 982:	59                   	pop    %ecx
 983:	8e 2f                	mov    (%edi),%gs
 985:	59                   	pop    %ecx
 986:	8e 2f                	mov    (%edi),%gs
 988:	59                   	pop    %ecx
 989:	8e 2f                	mov    (%edi),%gs
 98b:	59                   	pop    %ecx
 98c:	8e 2f                	mov    (%edi),%gs
 98e:	59                   	pop    %ecx
 98f:	8e 2f                	mov    (%edi),%gs
 991:	59                   	pop    %ecx
 992:	8e 2f                	mov    (%edi),%gs
 994:	59                   	pop    %ecx
 995:	8e 2f                	mov    (%edi),%gs
 997:	59                   	pop    %ecx
 998:	8e 2f                	mov    (%edi),%gs
 99a:	59                   	pop    %ecx
 99b:	8e 2f                	mov    (%edi),%gs
 99d:	59                   	pop    %ecx
 99e:	8e 2f                	mov    (%edi),%gs
 9a0:	59                   	pop    %ecx
 9a1:	8e 2f                	mov    (%edi),%gs
 9a3:	59                   	pop    %ecx
 9a4:	8e 2f                	mov    (%edi),%gs
 9a6:	59                   	pop    %ecx
 9a7:	8e 2f                	mov    (%edi),%gs
 9a9:	59                   	pop    %ecx
 9aa:	8e 2f                	mov    (%edi),%gs
 9ac:	59                   	pop    %ecx
 9ad:	8e 2f                	mov    (%edi),%gs
 9af:	59                   	pop    %ecx
 9b0:	8e 2f                	mov    (%edi),%gs
 9b2:	59                   	pop    %ecx
 9b3:	8e 2f                	mov    (%edi),%gs
 9b5:	59                   	pop    %ecx
 9b6:	8e 2f                	mov    (%edi),%gs
 9b8:	59                   	pop    %ecx
 9b9:	8e 2f                	mov    (%edi),%gs
 9bb:	59                   	pop    %ecx
 9bc:	8e 2f                	mov    (%edi),%gs
 9be:	59                   	pop    %ecx
 9bf:	8e 2f                	mov    (%edi),%gs
 9c1:	59                   	pop    %ecx
 9c2:	8e 2f                	mov    (%edi),%gs
 9c4:	59                   	pop    %ecx
 9c5:	8e 2f                	mov    (%edi),%gs
 9c7:	59                   	pop    %ecx
 9c8:	8e 2f                	mov    (%edi),%gs
 9ca:	59                   	pop    %ecx
 9cb:	8e 2f                	mov    (%edi),%gs
 9cd:	59                   	pop    %ecx
 9ce:	8e 2f                	mov    (%edi),%gs
 9d0:	59                   	pop    %ecx
 9d1:	8e 2f                	mov    (%edi),%gs
 9d3:	59                   	pop    %ecx
 9d4:	8e 2f                	mov    (%edi),%gs
 9d6:	59                   	pop    %ecx
 9d7:	8e 2f                	mov    (%edi),%gs
 9d9:	59                   	pop    %ecx
 9da:	8e 2f                	mov    (%edi),%gs
 9dc:	59                   	pop    %ecx
 9dd:	8e 2f                	mov    (%edi),%gs
 9df:	59                   	pop    %ecx
 9e0:	8e 2f                	mov    (%edi),%gs
 9e2:	59                   	pop    %ecx
 9e3:	8e 2f                	mov    (%edi),%gs
 9e5:	59                   	pop    %ecx
 9e6:	8e 2f                	mov    (%edi),%gs
 9e8:	59                   	pop    %ecx
 9e9:	8e 2f                	mov    (%edi),%gs
 9eb:	59                   	pop    %ecx
 9ec:	8e 2f                	mov    (%edi),%gs
 9ee:	59                   	pop    %ecx
 9ef:	8e 2f                	mov    (%edi),%gs
 9f1:	59                   	pop    %ecx
 9f2:	8e 2f                	mov    (%edi),%gs
 9f4:	59                   	pop    %ecx
 9f5:	8e 2f                	mov    (%edi),%gs
 9f7:	59                   	pop    %ecx
 9f8:	8e 2f                	mov    (%edi),%gs
 9fa:	59                   	pop    %ecx
 9fb:	8e 2f                	mov    (%edi),%gs
 9fd:	59                   	pop    %ecx
 9fe:	8e 2f                	mov    (%edi),%gs
 a00:	59                   	pop    %ecx
 a01:	8e 2f                	mov    (%edi),%gs
 a03:	59                   	pop    %ecx
 a04:	8e 2f                	mov    (%edi),%gs
 a06:	59                   	pop    %ecx
 a07:	8e 2f                	mov    (%edi),%gs
 a09:	59                   	pop    %ecx
 a0a:	8e 2f                	mov    (%edi),%gs
 a0c:	59                   	pop    %ecx
 a0d:	02 05 00 01 01 91    	add    0x91010100,%al
 a13:	00 00                	add    %al,(%eax)
 a15:	00 05 00 04 00 50    	add    %al,0x50000400
 a1b:	00 00                	add    %al,(%eax)
 a1d:	00 01                	add    %al,(%ecx)
 a1f:	01 01                	add    %eax,(%ecx)
 a21:	fb                   	sti
 a22:	0e                   	push   %cs
 a23:	0d 00 01 01 01       	or     $0x1010100,%eax
 a28:	01 00                	add    %eax,(%eax)
 a2a:	00 00                	add    %al,(%eax)
 a2c:	01 00                	add    %eax,(%eax)
 a2e:	00 01                	add    %al,(%ecx)
 a30:	01 01                	add    %eax,(%ecx)
 a32:	1f                   	pop    %ds
 a33:	03 00                	add    (%eax),%eax
 a35:	00 00                	add    %al,(%eax)
 a37:	00 21                	add    %ah,(%ecx)
 a39:	00 00                	add    %al,(%eax)
 a3b:	00 4f 00             	add    %cl,0x0(%edi)
 a3e:	00 00                	add    %al,(%eax)
 a40:	02 01                	add    (%ecx),%al
 a42:	1f                   	pop    %ds
 a43:	02 0f                	add    (%edi),%cl
 a45:	08 22                	or     %ah,(%edx)
 a47:	01 00                	add    %eax,(%eax)
 a49:	00 01                	add    %al,(%ecx)
 a4b:	22 01                	and    (%ecx),%al
 a4d:	00 00                	add    %al,(%eax)
 a4f:	01 61 00             	add    %esp,0x0(%ecx)
 a52:	00 00                	add    %al,(%eax)
 a54:	02 00                	add    (%eax),%al
 a56:	01 00                	add    %eax,(%eax)
 a58:	00 02                	add    %al,(%edx)
 a5a:	06                   	push   %es
 a5b:	01 00                	add    %eax,(%eax)
 a5d:	00 02                	add    %al,(%edx)
 a5f:	7b 00                	jnp    a61 <mbh-0x2ff59f>
 a61:	00 00                	add    %al,(%eax)
 a63:	02 8f 00 00 00 02    	add    0x2000000(%edi),%cl
 a69:	29 01                	sub    %eax,(%ecx)
 a6b:	00 00                	add    %al,(%eax)
 a6d:	02 05 01 00 05 02    	add    0x2050001,%al
 a73:	93                   	xchg   %eax,%ebx
 a74:	3d 30 00 03 20       	cmp    $0x20030030,%eax
 a79:	01 05 04 ad 05 12    	add    %eax,0x1205ad04
 a7f:	02 22                	add    (%edx),%ah
 a81:	14 05                	adc    $0x5,%al
 a83:	04 9e                	add    $0x9e,%al
 a85:	05 07 08 bd f3       	add    $0xf3bd0807,%eax
 a8a:	5c                   	pop    %esp
 a8b:	02 5a 18             	add    0x18(%edx),%bl
 a8e:	31 02                	xor    %eax,(%edx)
 a90:	59                   	pop    %ecx
 a91:	17                   	pop    %ss
 a92:	05 04 23 08 91       	add    $0x91082304,%eax
 a97:	05 1c 08 91 05       	add    $0x591081c,%eax
 a9c:	04 66                	add    $0x66,%al
 a9e:	bb 05 01 f3 02       	mov    $0x2f30105,%ebx
 aa3:	07                   	pop    %es
 aa4:	00 01                	add    %al,(%ecx)
 aa6:	01 7c 00 00          	add    %edi,0x0(%eax,%eax,1)
 aaa:	00 05 00 04 00 3c    	add    %al,0x3c000400
 ab0:	00 00                	add    %al,(%eax)
 ab2:	00 01                	add    %al,(%ecx)
 ab4:	01 01                	add    %eax,(%ecx)
 ab6:	fb                   	sti
 ab7:	0e                   	push   %cs
 ab8:	0d 00 01 01 01       	or     $0x1010100,%eax
 abd:	01 00                	add    %eax,(%eax)
 abf:	00 00                	add    %al,(%eax)
 ac1:	01 00                	add    %eax,(%eax)
 ac3:	00 01                	add    %al,(%ecx)
 ac5:	01 01                	add    %eax,(%ecx)
 ac7:	1f                   	pop    %ds
 ac8:	03 00                	add    (%eax),%eax
 aca:	00 00                	add    %al,(%eax)
 acc:	00 21                	add    %ah,(%ecx)
 ace:	00 00                	add    %al,(%eax)
 ad0:	00 4f 00             	add    %cl,0x0(%edi)
 ad3:	00 00                	add    %al,(%eax)
 ad5:	02 01                	add    (%ecx),%al
 ad7:	1f                   	pop    %ds
 ad8:	02 0f                	add    (%edi),%cl
 ada:	04 40                	add    $0x40,%al
 adc:	01 00                	add    %eax,(%eax)
 ade:	00 01                	add    %al,(%ecx)
 ae0:	40                   	inc    %eax
 ae1:	01 00                	add    %eax,(%eax)
 ae3:	00 01                	add    %al,(%ecx)
 ae5:	61                   	popa
 ae6:	00 00                	add    %al,(%eax)
 ae8:	00 02                	add    %al,(%edx)
 aea:	8f 00                	pop    (%eax)
 aec:	00 00                	add    %al,(%eax)
 aee:	02 05 01 00 05 02    	add    0x2050001,%al
 af4:	0f 3f                	(bad)
 af6:	30 00                	xor    %al,(%eax)
 af8:	1a 05 04 69 05 08    	sbb    0x8056904,%al
 afe:	f4                   	hlt
 aff:	05 09 67 05 1e       	add    $0x1e056709,%eax
 b04:	30 05 19 66 05 0b    	xor    %al,0xb056619
 b0a:	2e 05 19 3d 05 0b    	cs add $0xb053d19,%eax
 b10:	58                   	pop    %eax
 b11:	05 07 3d 05 0e       	add    $0xe053d07,%eax
 b16:	08 2a                	or     %ch,(%edx)
 b18:	00 02                	add    %al,(%edx)
 b1a:	04 01                	add    $0x1,%al
 b1c:	06                   	push   %es
 b1d:	66 05 01 06          	add    $0x601,%ax
 b21:	96                   	xchg   %eax,%esi
 b22:	02 03                	add    (%ebx),%al
 b24:	00 01                	add    %al,(%ecx)
 b26:	01 78 00             	add    %edi,0x0(%eax)
 b29:	00 00                	add    %al,(%eax)
 b2b:	05 00 04 00 3d       	add    $0x3d000400,%eax
 b30:	00 00                	add    %al,(%eax)
 b32:	00 01                	add    %al,(%ecx)
 b34:	01 01                	add    %eax,(%ecx)
 b36:	fb                   	sti
 b37:	0e                   	push   %cs
 b38:	0d 00 01 01 01       	or     $0x1010100,%eax
 b3d:	01 00                	add    %eax,(%eax)
 b3f:	00 00                	add    %al,(%eax)
 b41:	01 00                	add    %eax,(%eax)
 b43:	00 01                	add    %al,(%ecx)
 b45:	01 01                	add    %eax,(%ecx)
 b47:	1f                   	pop    %ds
 b48:	02 00                	add    (%eax),%al
 b4a:	00 00                	add    %al,(%eax)
 b4c:	00 4f 00             	add    %cl,0x0(%edi)
 b4f:	00 00                	add    %al,(%eax)
 b51:	02 01                	add    (%ecx),%al
 b53:	1f                   	pop    %ds
 b54:	02 0f                	add    (%edi),%cl
 b56:	05 48 01 00 00       	add    $0x148,%eax
 b5b:	00 48 01             	add    %cl,0x1(%eax)
 b5e:	00 00                	add    %al,(%eax)
 b60:	00 61 00             	add    %ah,0x0(%ecx)
 b63:	00 00                	add    %al,(%eax)
 b65:	01 7b 00             	add    %edi,0x0(%ebx)
 b68:	00 00                	add    %al,(%eax)
 b6a:	01 8f 00 00 00 01    	add    %ecx,0x1000000(%edi)
 b70:	05 13 00 05 02       	add    $0x2050013,%eax
 b75:	65 3f                	gs aas
 b77:	30 00                	xor    %al,(%eax)
 b79:	18 05 04 68 7a 05    	sbb    %al,0x57a6804
 b7f:	02 08                	add    (%eax),%cl
 b81:	2f                   	das
 b82:	05 01 31 05 13       	add    $0x13053101,%eax
 b87:	3e 05 02 3d 05 01    	ds add $0x1053d02,%eax
 b8d:	21 05 0b 3e 05 02    	and    %eax,0x2053e0b
 b93:	76 4b                	jbe    be0 <mbh-0x2ff420>
 b95:	08 3d 02 8e 01 13    	or     %bh,0x13018e02
 b9b:	05 01 59 02 06       	add    $0x6025901,%eax
 ba0:	00 01                	add    %al,(%ecx)
 ba2:	01                   	.byte 0x1

Déassemblage de la section .debug_line_str :

00000000 <.debug_line_str>:
   0:	2f                   	das
   1:	68 6f 6d 65 2f       	push   $0x2f656d6f
   6:	73 61                	jae    69 <mbh-0x2fff97>
   8:	6e                   	outsb  %ds:(%esi),(%dx)
   9:	69 6d 2f 74 6c 73 2d 	imul   $0x2d736c74,0x2f(%ebp),%ebp
  10:	73 65                	jae    77 <mbh-0x2fff89>
  12:	63 2f                	arpl   %ebp,(%edi)
  14:	73 65                	jae    7b <mbh-0x2fff85>
  16:	63 6f 73             	arpl   %ebp,0x73(%edi)
  19:	2d 6e 67 2f 74       	sub    $0x742f676e,%eax
  1e:	70 32                	jo     52 <mbh-0x2fffae>
  20:	00 2e                	add    %ch,(%esi)
  22:	2e 2f                	cs das
  24:	6b 65 72 6e          	imul   $0x6e,0x72(%ebp),%esp
  28:	65 6c                	gs insb (%dx),%es:(%edi)
  2a:	2f                   	das
  2b:	63 6f 72             	arpl   %ebp,0x72(%edi)
  2e:	65 00 65 6e          	add    %ah,%gs:0x6e(%ebp)
  32:	74 72                	je     a6 <mbh-0x2fff5a>
  34:	79 2e                	jns    64 <mbh-0x2fff9c>
  36:	73 00                	jae    38 <mbh-0x2fffc8>
  38:	2e 2e 2f             	cs cs das
  3b:	6b 65 72 6e          	imul   $0x6e,0x72(%ebp),%esp
  3f:	65 6c                	gs insb (%dx),%es:(%edi)
  41:	2f                   	das
  42:	63 6f 72             	arpl   %ebp,0x72(%edi)
  45:	65 2f                	gs das
  47:	73 74                	jae    bd <mbh-0x2fff43>
  49:	61                   	popa
  4a:	72 74                	jb     c0 <mbh-0x2fff40>
  4c:	2e 63 00             	arpl   %eax,%cs:(%eax)
  4f:	2e 2e 2f             	cs cs das
  52:	6b 65 72 6e          	imul   $0x6e,0x72(%ebp),%esp
  56:	65 6c                	gs insb (%dx),%es:(%edi)
  58:	2f                   	das
  59:	69 6e 63 6c 75 64 65 	imul   $0x6564756c,0x63(%esi),%ebp
  60:	00 74 79 70          	add    %dh,0x70(%ecx,%edi,2)
  64:	65 73 2e             	gs jae 95 <mbh-0x2fff6b>
  67:	68 00 67 72 75       	push   $0x75726700
  6c:	62 5f 6d             	bound  %ebx,0x6d(%edi)
  6f:	62 69 2e             	bound  %ebp,0x2e(%ecx)
  72:	68 00 69 6e 66       	push   $0x666e6900
  77:	6f                   	outsl  %ds:(%esi),(%dx)
  78:	2e 68 00 69 6e 74    	cs push $0x746e6900
  7e:	72 2e                	jb     ae <mbh-0x2fff52>
  80:	68 00 75 61 72       	push   $0x72617500
  85:	74 2e                	je     b5 <mbh-0x2fff4b>
  87:	68 00 70 69 63       	push   $0x63697000
  8c:	2e 68 00 70 72 69    	cs push $0x69727000
  92:	6e                   	outsb  %ds:(%esi),(%dx)
  93:	74 2e                	je     c3 <mbh-0x2fff3d>
  95:	68 00 73 74 61       	push   $0x61747300
  9a:	72 74                	jb     110 <mbh-0x2ffef0>
  9c:	2e 68 00 2e 2e 2f    	cs push $0x2f2e2e00
  a2:	6b 65 72 6e          	imul   $0x6e,0x72(%ebp),%esp
  a6:	65 6c                	gs insb (%dx),%es:(%edi)
  a8:	2f                   	das
  a9:	63 6f 72             	arpl   %ebp,0x72(%edi)
  ac:	65 2f                	gs das
  ae:	70 72                	jo     122 <mbh-0x2ffede>
  b0:	69 6e 74 2e 63 00 73 	imul   $0x7300632e,0x74(%esi),%ebp
  b7:	74 72                	je     12b <mbh-0x2ffed5>
  b9:	69 6e 67 2e 68 00 2e 	imul   $0x2e00682e,0x67(%esi),%ebp
  c0:	2e 2f                	cs das
  c2:	6b 65 72 6e          	imul   $0x6e,0x72(%ebp),%esp
  c6:	65 6c                	gs insb (%dx),%es:(%edi)
  c8:	2f                   	das
  c9:	63 6f 72             	arpl   %ebp,0x72(%edi)
  cc:	65 2f                	gs das
  ce:	75 61                	jne    131 <mbh-0x2ffecf>
  d0:	72 74                	jb     146 <mbh-0x2ffeba>
  d2:	2e 63 00             	arpl   %eax,%cs:(%eax)
  d5:	2e 2e 2f             	cs cs das
  d8:	6b 65 72 6e          	imul   $0x6e,0x72(%ebp),%esp
  dc:	65 6c                	gs insb (%dx),%es:(%edi)
  de:	2f                   	das
  df:	63 6f 72             	arpl   %ebp,0x72(%edi)
  e2:	65 2f                	gs das
  e4:	70 69                	jo     14f <mbh-0x2ffeb1>
  e6:	63 2e                	arpl   %ebp,(%esi)
  e8:	63 00                	arpl   %eax,(%eax)
  ea:	2e 2e 2f             	cs cs das
  ed:	6b 65 72 6e          	imul   $0x6e,0x72(%ebp),%esp
  f1:	65 6c                	gs insb (%dx),%es:(%edi)
  f3:	2f                   	das
  f4:	63 6f 72             	arpl   %ebp,0x72(%edi)
  f7:	65 2f                	gs das
  f9:	69 6e 74 72 2e 63 00 	imul   $0x632e72,0x74(%esi),%ebp
 100:	67 70 72             	addr16 jo 175 <mbh-0x2ffe8b>
 103:	2e 68 00 65 78 63    	cs push $0x63786500
 109:	70 2e                	jo     139 <mbh-0x2ffec7>
 10b:	68 00 69 64 74       	push   $0x74646900
 110:	2e 73 00             	jae,pn 113 <mbh-0x2ffeed>
 113:	2e 2e 2f             	cs cs das
 116:	6b 65 72 6e          	imul   $0x6e,0x72(%ebp),%esp
 11a:	65 6c                	gs insb (%dx),%es:(%edi)
 11c:	2f                   	das
 11d:	63 6f 72             	arpl   %ebp,0x72(%edi)
 120:	65 2f                	gs das
 122:	65 78 63             	gs js  188 <mbh-0x2ffe78>
 125:	70 2e                	jo     155 <mbh-0x2ffeab>
 127:	63 00                	arpl   %eax,(%eax)
 129:	64 65 62 75 67       	fs bound %esi,%gs:0x67(%ebp)
 12e:	2e 68 00 2e 2e 2f    	cs push $0x2f2e2e00
 134:	6b 65 72 6e          	imul   $0x6e,0x72(%ebp),%esp
 138:	65 6c                	gs insb (%dx),%es:(%edi)
 13a:	2f                   	das
 13b:	63 6f 72             	arpl   %ebp,0x72(%edi)
 13e:	65 2f                	gs das
 140:	73 74                	jae    1b6 <mbh-0x2ffe4a>
 142:	61                   	popa
 143:	63 6b 2e             	arpl   %ebp,0x2e(%ebx)
 146:	63 00                	arpl   %eax,(%eax)
 148:	74 70                	je     1ba <mbh-0x2ffe46>
 14a:	2e 63 00             	arpl   %eax,%cs:(%eax)

Déassemblage de la section .debug_info :

00000000 <.debug_info>:
       0:	20 00                	and    %al,(%eax)
       2:	00 00                	add    %al,(%eax)
       4:	05 00 01 04 00       	add    $0x40100,%eax
       9:	00 00                	add    %al,(%eax)
       b:	00 01                	add    %al,(%ecx)
       d:	00 00                	add    %al,(%eax)
       f:	00 00                	add    %al,(%eax)
      11:	10 30                	adc    %dh,(%eax)
      13:	30 00                	xor    %al,(%eax)
      15:	13 00                	adc    (%eax),%eax
      17:	00 00                	add    %al,(%eax)
      19:	00 17                	add    %dl,(%edi)
      1b:	00 00                	add    %al,(%eax)
      1d:	00 38                	add    %bh,(%eax)
      1f:	00 00                	add    %al,(%eax)
      21:	00 01                	add    %al,(%ecx)
      23:	80 71 04 00          	xorb   $0x0,0x4(%ecx)
      27:	00 05 00 01 04 14    	add    %al,0x14040100
      2d:	00 00                	add    %al,(%eax)
      2f:	00 10                	add    %dl,(%eax)
      31:	1d 04 00 00 1d       	sbb    $0x1d000004,%eax
      36:	38 00                	cmp    %al,(%eax)
      38:	00 00                	add    %al,(%eax)
      3a:	00 00                	add    %al,(%eax)
      3c:	00 00                	add    %al,(%eax)
      3e:	23 30                	and    (%eax),%esi
      40:	30 00                	xor    %al,(%eax)
      42:	4a                   	dec    %edx
      43:	00 00                	add    %al,(%eax)
      45:	00 50 00             	add    %dl,0x0(%eax)
      48:	00 00                	add    %al,(%eax)
      4a:	03 01                	add    (%ecx),%eax
      4c:	08 d7                	or     %dl,%bh
      4e:	01 00                	add    %eax,(%eax)
      50:	00 03                	add    %al,(%ebx)
      52:	02 07                	add    (%edi),%al
      54:	79 02                	jns    58 <mbh-0x2fffa8>
      56:	00 00                	add    %al,(%eax)
      58:	02 a0 00 00 00 02    	add    0x2000000(%eax),%ah
      5e:	1c 20                	sbb    $0x20,%al
      60:	4a                   	dec    %edx
      61:	00 00                	add    %al,(%eax)
      63:	00 06                	add    %al,(%esi)
      65:	34 00                	xor    $0x0,%al
      67:	00 00                	add    %al,(%eax)
      69:	09 40 00             	or     %eax,0x0(%eax)
      6c:	00 00                	add    %al,(%eax)
      6e:	03 04 07             	add    (%edi,%eax,1),%eax
      71:	1b 02                	sbb    (%edx),%eax
      73:	00 00                	add    %al,(%eax)
      75:	03 08                	add    (%eax),%ecx
      77:	07                   	pop    %es
      78:	11 02                	adc    %eax,(%edx)
      7a:	00 00                	add    %al,(%eax)
      7c:	03 01                	add    (%ecx),%eax
      7e:	06                   	push   %es
      7f:	d9 01                	flds   (%ecx)
      81:	00 00                	add    %al,(%eax)
      83:	03 02                	add    (%edx),%eax
      85:	05 a9 00 00 00       	add    $0xa9,%eax
      8a:	11 04 05 69 6e 74 00 	adc    %eax,0x746e69(,%eax,1)
      91:	03 08                	add    (%eax),%ecx
      93:	05 66 01 00 00       	add    $0x166,%eax
      98:	03 01                	add    (%ecx),%eax
      9a:	06                   	push   %es
      9b:	e0 01                	loopne 9e <mbh-0x2fff62>
      9d:	00 00                	add    %al,(%eax)
      9f:	06                   	push   %es
      a0:	74 00                	je     a2 <mbh-0x2fff5e>
      a2:	00 00                	add    %al,(%eax)
      a4:	02 b3 00 00 00 02    	add    0x2000000(%ebx),%dh
      aa:	25 20 8c 00 00       	and    $0x8c20,%eax
      af:	00 03                	add    %al,(%ebx)
      b1:	04 07                	add    $0x7,%al
      b3:	16                   	push   %ss
      b4:	02 00                	add    (%eax),%al
      b6:	00 02                	add    %al,(%edx)
      b8:	e8 03 00 00 03       	call   30000c0 <__kernel_end__+0x2cfab20>
      bd:	60                   	pusha
      be:	21 26                	and    %esp,(%esi)
      c0:	00 00                	add    %al,(%eax)
      c2:	00 02                	add    %al,(%edx)
      c4:	0d 01 00 00 03       	or     $0x3000001,%eax
      c9:	61                   	popa
      ca:	21 2d 00 00 00 02    	and    %ebp,0x2000000
      d0:	96                   	xchg   %eax,%esi
      d1:	00 00                	add    %al,(%eax)
      d3:	00 03                	add    %al,(%ebx)
      d5:	62 21                	bound  %esp,(%ecx)
      d7:	4a                   	dec    %edx
      d8:	00 00                	add    %al,(%eax)
      da:	00 02                	add    %al,(%edx)
      dc:	8c 02                	mov    %es,(%edx)
      de:	00 00                	add    %al,(%eax)
      e0:	03 63 21             	add    0x21(%ebx),%esp
      e3:	51                   	push   %ecx
      e4:	00 00                	add    %al,(%eax)
      e6:	00 05 c1 03 00 00    	add    %al,0x3c1
      ec:	10 03                	adc    %al,(%ebx)
      ee:	7f 08                	jg     f8 <mbh-0x2fff08>
      f0:	01 01                	add    %eax,(%ecx)
      f2:	00 00                	add    %al,(%eax)
      f4:	01 3a                	add    %edi,(%edx)
      f6:	03 00                	add    (%eax),%eax
      f8:	00 81 16 ab 00 00    	add    %al,0xab16(%ecx)
      fe:	00 00                	add    %al,(%eax)
     100:	01 20                	add    %esp,(%eax)
     102:	01 00                	add    %eax,(%eax)
     104:	00 82 16 ab 00 00    	add    %al,0xab16(%edx)
     10a:	00 04 01             	add    %al,(%ecx,%eax,1)
     10d:	f4                   	hlt
     10e:	05 00 00 83 16       	add    $0x16830000,%eax
     113:	ab                   	stos   %eax,%es:(%edi)
     114:	00 00                	add    %al,(%eax)
     116:	00 08                	add    %cl,(%eax)
     118:	01 d7                	add    %edx,%edi
     11a:	05 00 00 84 16       	add    $0x16840000,%eax
     11f:	ab                   	stos   %eax,%es:(%edi)
     120:	00 00                	add    %al,(%eax)
     122:	00 0c 00             	add    %cl,(%eax,%eax,1)
     125:	02 0a                	add    (%edx),%cl
     127:	03 00                	add    (%eax),%eax
     129:	00 03                	add    %al,(%ebx)
     12b:	86 2c c3             	xchg   %ch,(%ebx,%eax,8)
     12e:	00 00                	add    %al,(%eax)
     130:	00 05 c4 02 00 00    	add    %al,0x2c4
     136:	10 03                	adc    %al,(%ebx)
     138:	89 08                	mov    %ecx,(%eax)
     13a:	4c                   	dec    %esp
     13b:	01 00                	add    %eax,(%eax)
     13d:	00 07                	add    %al,(%edi)
     13f:	6e                   	outsb  %ds:(%esi),(%dx)
     140:	75 6d                	jne    1af <mbh-0x2ffe51>
     142:	00 03                	add    %al,(%ebx)
     144:	8b 16                	mov    (%esi),%edx
     146:	ab                   	stos   %eax,%es:(%edi)
     147:	00 00                	add    %al,(%eax)
     149:	00 00                	add    %al,(%eax)
     14b:	01 57 03             	add    %edx,0x3(%edi)
     14e:	00 00                	add    %al,(%eax)
     150:	8c 16                	mov    %ss,(%esi)
     152:	ab                   	stos   %eax,%es:(%edi)
     153:	00 00                	add    %al,(%eax)
     155:	00 04 01             	add    %al,(%ecx,%eax,1)
     158:	f4                   	hlt
     159:	05 00 00 8d 16       	add    $0x168d0000,%eax
     15e:	ab                   	stos   %eax,%es:(%edi)
     15f:	00 00                	add    %al,(%eax)
     161:	00 08                	add    %cl,(%eax)
     163:	01 56 01             	add    %edx,0x1(%esi)
     166:	00 00                	add    %al,(%eax)
     168:	8e 16                	mov    (%esi),%ss
     16a:	ab                   	stos   %eax,%es:(%edi)
     16b:	00 00                	add    %al,(%eax)
     16d:	00 0c 00             	add    %cl,(%eax,%eax,1)
     170:	02 31                	add    (%ecx),%dh
     172:	01 00                	add    %eax,(%eax)
     174:	00 03                	add    %al,(%ebx)
     176:	90                   	nop
     177:	33 0d 01 00 00 0a    	xor    0xa000001,%ecx
     17d:	10 a5 76 01 00 00    	adc    %ah,0x176(%ebp)
     183:	0b fa                	or     %edx,%edi
     185:	00 00                	add    %al,(%eax)
     187:	00 a7 23 01 01 00    	add    %ah,0x10123(%edi)
     18d:	00 0b                	add    %cl,(%ebx)
     18f:	f6 01 00             	testb  $0x0,(%ecx)
     192:	00 a8 2a 4c 01 00    	add    %ch,0x14c2a(%eax)
     198:	00 00                	add    %al,(%eax)
     19a:	0c 08                	or     $0x8,%al
     19c:	cf                   	iret
     19d:	96                   	xchg   %eax,%esi
     19e:	01 00                	add    %eax,(%eax)
     1a0:	00 01                	add    %al,(%ecx)
     1a2:	e0 05                	loopne 1a9 <mbh-0x2ffe57>
     1a4:	00 00                	add    %al,(%eax)
     1a6:	d1 1a                	rcrl   $1,(%edx)
     1a8:	ab                   	stos   %eax,%es:(%edi)
     1a9:	00 00                	add    %al,(%eax)
     1ab:	00 00                	add    %al,(%eax)
     1ad:	01 7a 01             	add    %edi,0x1(%edx)
     1b0:	00 00                	add    %al,(%eax)
     1b2:	d2 1a                	rcrb   %cl,(%edx)
     1b4:	9f                   	lahf
     1b5:	00 00                	add    %al,(%eax)
     1b7:	00 04 00             	add    %al,(%eax,%eax,1)
     1ba:	0c 06                	or     $0x6,%al
     1bc:	d4 e6                	aam    $0xe6
     1be:	01 00                	add    %eax,(%eax)
     1c0:	00 01                	add    %al,(%ecx)
     1c2:	ba 00 00 00 d6       	mov    $0xd6000000,%edx
     1c7:	19 93 00 00 00 00    	sbb    %edx,0x0(%ebx)
     1cd:	01 42 03             	add    %eax,0x3(%edx)
     1d0:	00 00                	add    %al,(%eax)
     1d2:	d7                   	xlat   %ds:(%ebx)
     1d3:	19 93 00 00 00 01    	sbb    %edx,0x1000000(%ebx)
     1d9:	01 46 02             	add    %eax,0x2(%esi)
     1dc:	00 00                	add    %al,(%eax)
     1de:	d8 19                	fcomps (%ecx)
     1e0:	93                   	xchg   %eax,%ebx
     1e1:	00 00                	add    %al,(%eax)
     1e3:	00 02                	add    %al,(%edx)
     1e5:	01 81 03 00 00 d9    	add    %eax,-0x26fffffd(%ecx)
     1eb:	19 93 00 00 00 03    	sbb    %edx,0x3000000(%ebx)
     1f1:	01 99 01 00 00 da    	add    %ebx,-0x25ffffff(%ecx)
     1f7:	19 93 00 00 00 04    	sbb    %edx,0x4000000(%ebx)
     1fd:	01 4e 00             	add    %ecx,0x0(%esi)
     200:	00 00                	add    %al,(%eax)
     202:	db 19                	fistpl (%ecx)
     204:	93                   	xchg   %eax,%ebx
     205:	00 00                	add    %al,(%eax)
     207:	00 05 00 0a 08 cd    	add    %al,0xcd080a00
     20d:	f8                   	clc
     20e:	01 00                	add    %eax,(%eax)
     210:	00 0d 76 01 00 00    	add    %cl,0x176
     216:	0d 96 01 00 00       	or     $0x196,%eax
     21b:	00 05 b5 02 00 00    	add    %al,0x2b5
     221:	78 03                	js     226 <mbh-0x2ffdda>
     223:	92                   	xchg   %eax,%edx
     224:	08 4f 03             	or     %cl,0x3(%edi)
     227:	00 00                	add    %al,(%eax)
     229:	01 4a 0b             	add    %ecx,0xb(%edx)
     22c:	00 00                	add    %al,(%eax)
     22e:	95                   	xchg   %eax,%ebp
     22f:	16                   	push   %ss
     230:	ab                   	stos   %eax,%es:(%edi)
     231:	00 00                	add    %al,(%eax)
     233:	00 00                	add    %al,(%eax)
     235:	01 fe                	add    %edi,%esi
     237:	01 00                	add    %eax,(%eax)
     239:	00 98 16 ab 00 00    	add    %bl,0xab16(%eax)
     23f:	00 04 01             	add    %al,(%ecx,%eax,1)
     242:	6a 03                	push   $0x3
     244:	00 00                	add    %al,(%eax)
     246:	99                   	cltd
     247:	16                   	push   %ss
     248:	ab                   	stos   %eax,%es:(%edi)
     249:	00 00                	add    %al,(%eax)
     24b:	00 08                	add    %cl,(%eax)
     24d:	01 a9 02 00 00 9c    	add    %ebp,-0x63fffffe(%ecx)
     253:	16                   	push   %ss
     254:	ab                   	stos   %eax,%es:(%edi)
     255:	00 00                	add    %al,(%eax)
     257:	00 0c 01             	add    %cl,(%ecx,%eax,1)
     25a:	ec                   	in     (%dx),%al
     25b:	00 00                	add    %al,(%eax)
     25d:	00 9f 16 ab 00 00    	add    %bl,0xab16(%edi)
     263:	00 10                	add    %dl,(%eax)
     265:	01 dd                	add    %ebx,%ebp
     267:	03 00                	add    (%eax),%eax
     269:	00 a2 16 ab 00 00    	add    %ah,0xab16(%edx)
     26f:	00 14 01             	add    %dl,(%ecx,%eax,1)
     272:	03 01                	add    (%ecx),%eax
     274:	00 00                	add    %al,(%eax)
     276:	a3 16 ab 00 00       	mov    %eax,0xab16
     27b:	00 18                	add    %bl,(%eax)
     27d:	07                   	pop    %es
     27e:	75 00                	jne    280 <mbh-0x2ffd80>
     280:	03 a9 05 58 01 00    	add    0x15805(%ecx),%ebp
     286:	00 1c 01             	add    %bl,(%ecx,%eax,1)
     289:	3a 02                	cmp    (%edx),%al
     28b:	00 00                	add    %al,(%eax)
     28d:	ac                   	lods   %ds:(%esi),%al
     28e:	16                   	push   %ss
     28f:	ab                   	stos   %eax,%es:(%edi)
     290:	00 00                	add    %al,(%eax)
     292:	00 2c 01             	add    %ch,(%ecx,%eax,1)
     295:	69 00 00 00 ad 16    	imul   $0x16ad0000,(%eax),%eax
     29b:	ab                   	stos   %eax,%es:(%edi)
     29c:	00 00                	add    %al,(%eax)
     29e:	00 30                	add    %dh,(%eax)
     2a0:	01 5c 03 00          	add    %ebx,0x0(%ebx,%eax,1)
     2a4:	00 b0 16 ab 00 00    	add    %dh,0xab16(%eax)
     2aa:	00 34 01             	add    %dh,(%ecx,%eax,1)
     2ad:	e0 00                	loopne 2af <mbh-0x2ffd51>
     2af:	00 00                	add    %al,(%eax)
     2b1:	b1 16                	mov    $0x16,%cl
     2b3:	ab                   	stos   %eax,%es:(%edi)
     2b4:	00 00                	add    %al,(%eax)
     2b6:	00 38                	add    %bh,(%eax)
     2b8:	01 74 03 00          	add    %esi,0x0(%ebx,%eax,1)
     2bc:	00 b4 16 ab 00 00 00 	add    %dh,0xab(%esi,%edx,1)
     2c3:	3c 01                	cmp    $0x1,%al
     2c5:	fa                   	cli
     2c6:	03 00                	add    (%eax),%eax
     2c8:	00 b7 16 ab 00 00    	add    %dh,0xab16(%edi)
     2ce:	00 40 01             	add    %al,0x1(%eax)
     2d1:	5c                   	pop    %esp
     2d2:	01 00                	add    %eax,(%eax)
     2d4:	00 ba 16 ab 00 00    	add    %bh,0xab16(%edx)
     2da:	00 44 01 e5          	add    %al,-0x1b(%ecx,%eax,1)
     2de:	01 00                	add    %eax,(%eax)
     2e0:	00 bd 16 ab 00 00    	add    %bh,0xab16(%ebp)
     2e6:	00 48 01             	add    %cl,0x1(%eax)
     2e9:	c9                   	leave
     2ea:	01 00                	add    %eax,(%eax)
     2ec:	00 be 16 ab 00 00    	add    %bh,0xab16(%esi)
     2f2:	00 4c 01 08          	add    %cl,0x8(%ecx,%eax,1)
     2f6:	02 00                	add    (%eax),%al
     2f8:	00 bf 16 9f 00 00    	add    %bh,0x9f16(%edi)
     2fe:	00 50 01             	add    %dl,0x1(%eax)
     301:	0b 04 00             	or     (%eax,%eax,1),%eax
     304:	00 c0                	add    %al,%al
     306:	16                   	push   %ss
     307:	9f                   	lahf
     308:	00 00                	add    %al,(%eax)
     30a:	00 52 01             	add    %dl,0x1(%edx)
     30d:	84 00                	test   %al,(%eax)
     30f:	00 00                	add    %al,(%eax)
     311:	c1 16 9f             	rcll   $0x9f,(%esi)
     314:	00 00                	add    %al,(%eax)
     316:	00 54 01 28          	add    %dl,0x28(%ecx,%eax,1)
     31a:	03 00                	add    (%eax),%eax
     31c:	00 c2                	add    %al,%dl
     31e:	16                   	push   %ss
     31f:	9f                   	lahf
     320:	00 00                	add    %al,(%eax)
     322:	00 56 01             	add    %dl,0x1(%esi)
     325:	73 00                	jae    327 <mbh-0x2ffcd9>
     327:	00 00                	add    %al,(%eax)
     329:	c4 16                	les    (%esi),%edx
     32b:	b7 00                	mov    $0x0,%bh
     32d:	00 00                	add    %al,(%eax)
     32f:	58                   	pop    %eax
     330:	01 e7                	add    %esp,%edi
     332:	02 00                	add    (%eax),%al
     334:	00 c5                	add    %al,%ch
     336:	16                   	push   %ss
     337:	ab                   	stos   %eax,%es:(%edi)
     338:	00 00                	add    %al,(%eax)
     33a:	00 60 01             	add    %ah,0x1(%eax)
     33d:	28 02                	sub    %al,(%edx)
     33f:	00 00                	add    %al,(%eax)
     341:	c6                   	(bad)
     342:	16                   	push   %ss
     343:	ab                   	stos   %eax,%es:(%edi)
     344:	00 00                	add    %al,(%eax)
     346:	00 64 01 ae          	add    %ah,-0x52(%ecx,%eax,1)
     34a:	03 00                	add    (%eax),%eax
     34c:	00 c7                	add    %al,%bh
     34e:	16                   	push   %ss
     34f:	ab                   	stos   %eax,%es:(%edi)
     350:	00 00                	add    %al,(%eax)
     352:	00 68 01             	add    %ch,0x1(%eax)
     355:	b9 01 00 00 c8       	mov    $0xc8000001,%ecx
     35a:	15 93 00 00 00       	adc    $0x93,%eax
     35f:	6c                   	insb   (%dx),%es:(%edi)
     360:	01 f9                	add    %edi,%ecx
     362:	02 00                	add    (%eax),%al
     364:	00 cc                	add    %cl,%ah
     366:	15 93 00 00 00       	adc    $0x93,%eax
     36b:	6d                   	insl   (%dx),%es:(%edi)
     36c:	12 e6                	adc    %dh,%ah
     36e:	01 00                	add    %eax,(%eax)
     370:	00 70 00             	add    %dh,0x0(%eax)
     373:	02 9d 03 00 00 03    	add    0x3000003(%ebp),%bl
     379:	df 1f                	fistps (%edi)
     37b:	f8                   	clc
     37c:	01 00                	add    %eax,(%eax)
     37e:	00 02                	add    %al,(%edx)
     380:	74 01                	je     383 <mbh-0x2ffc7d>
     382:	00 00                	add    %al,(%eax)
     384:	04 08                	add    $0x8,%al
     386:	21 4f 03             	and    %ecx,0x3(%edi)
     389:	00 00                	add    %al,(%eax)
     38b:	05 67 02 00 00       	add    $0x267,%eax
     390:	04 05                	add    $0x5,%al
     392:	08 10                	or     %dl,(%eax)
     394:	82 03 00             	addb   $0x0,(%ebx)
     397:	00 07                	add    %al,(%edi)
     399:	6d                   	insl   (%dx),%es:(%edi)
     39a:	62 69 00             	bound  %ebp,0x0(%ecx)
     39d:	05 0a 0b 82 03       	add    $0x3820b0a,%eax
     3a2:	00 00                	add    %al,(%eax)
     3a4:	00 00                	add    %al,(%eax)
     3a6:	08 5b 03             	or     %bl,0x3(%ebx)
     3a9:	00 00                	add    %al,(%eax)
     3ab:	02 a7 03 00 00 05    	add    0x5000003(%edi),%ah
     3b1:	0c 1b                	or     $0x1b,%al
     3b3:	67 03 00             	add    (%bx,%si),%eax
     3b6:	00 13                	add    %dl,(%ebx)
     3b8:	45                   	inc    %ebp
     3b9:	00 00                	add    %al,(%eax)
     3bb:	00 a3 03 00 00 14    	add    %ah,0x14000003(%ebx)
     3c1:	4a                   	dec    %edx
     3c2:	00 00                	add    %al,(%eax)
     3c4:	00 02                	add    %al,(%edx)
     3c6:	00 06                	add    %al,(%esi)
     3c8:	93                   	xchg   %eax,%ebx
     3c9:	03 00                	add    (%eax),%eax
     3cb:	00 09                	add    %cl,(%ecx)
     3cd:	a3 03 00 00 15       	mov    %eax,0x15000003
     3d2:	6d                   	insl   (%dx),%es:(%edi)
     3d3:	62 68 00             	bound  %ebp,0x0(%eax)
     3d6:	01 09                	add    %ecx,(%ecx)
     3d8:	21 a8 03 00 00 04    	and    %ebp,0x4000003(%eax)
     3de:	05 03 00 00 30       	add    $0x30000003,%eax
     3e3:	00 16                	add    %dl,(%esi)
     3e5:	d9 00                	flds   (%eax)
     3e7:	00 00                	add    %al,(%eax)
     3e9:	01 0f                	add    %ecx,(%edi)
     3eb:	0f 87 03 00 00 10    	ja     100003f4 <__kernel_end__+0xfcfae54>
     3f1:	05 03 80 49 30       	add    $0x30498003,%eax
     3f6:	00 17                	add    %dl,(%edi)
     3f8:	db 00                	fildl  (%eax)
     3fa:	00 00                	add    %al,(%eax)
     3fc:	01 10                	add    %edx,(%eax)
     3fe:	10 e5                	adc    %ah,%ch
     400:	03 00                	add    (%eax),%eax
     402:	00 05 03 00 49 30    	add    %al,0x30490003
     408:	00 08                	add    %cl,(%eax)
     40a:	87 03                	xchg   %eax,(%ebx)
     40c:	00 00                	add    %al,(%eax)
     40e:	18 f4                	sbb    %dh,%ah
     410:	00 00                	add    %al,(%eax)
     412:	00 09                	add    %cl,(%ecx)
     414:	0c 0a                	or     $0xa,%al
     416:	fd                   	std
     417:	03 00                	add    (%eax),%eax
     419:	00 0e                	add    %cl,(%esi)
     41b:	fd                   	std
     41c:	03 00                	add    (%eax),%eax
     41e:	00 04 00             	add    %al,(%eax,%eax,1)
     421:	08 7b 00             	or     %bh,0x0(%ebx)
     424:	00 00                	add    %al,(%eax)
     426:	19 74 70 00          	sbb    %esi,0x0(%eax,%esi,2)
     42a:	0a 08                	or     (%eax),%cl
     42c:	0d 0f 04 00 00       	or     $0x40f,%eax
     431:	04 00                	add    $0x0,%al
     433:	1a b0 06 00 00 09    	sbb    0x9000006(%eax),%dh
     439:	0d 0a 80 00 00       	or     $0x800a,%eax
     43e:	00 26                	add    %ah,(%esi)
     440:	04 00                	add    $0x0,%al
     442:	00 0e                	add    %cl,(%esi)
     444:	fd                   	std
     445:	03 00                	add    (%eax),%eax
     447:	00 04 00             	add    %al,(%eax,%eax,1)
     44a:	1b 9f 02 00 00 06    	sbb    0x6000002(%edi),%ebx
     450:	76 06                	jbe    458 <mbh-0x2ffba8>
     452:	34 04                	xor    $0x4,%al
     454:	00 00                	add    %al,(%eax)
     456:	04 00                	add    $0x0,%al
     458:	0f 44 00             	cmove  (%eax),%eax
     45b:	00 00                	add    %al,(%eax)
     45d:	07                   	pop    %es
     45e:	43                   	inc    %ebx
     45f:	01 09                	add    %ecx,(%ecx)
     461:	43                   	inc    %ebx
     462:	04 00                	add    $0x0,%al
     464:	00 04 00             	add    %al,(%eax,%eax,1)
     467:	0f 28 01             	movaps (%ecx),%xmm0
     46a:	00 00                	add    %al,(%eax)
     46c:	08 01                	or     %al,(%ecx)
     46e:	01 06                	add    %eax,(%esi)
     470:	52                   	push   %edx
     471:	04 00                	add    $0x0,%al
     473:	00 04 00             	add    %al,(%eax,%eax,1)
     476:	1c 73                	sbb    $0x73,%al
     478:	02 00                	add    (%eax),%al
     47a:	00 01                	add    %al,(%ecx)
     47c:	12 22                	adc    (%edx),%ah
     47e:	23 30                	and    (%eax),%esi
     480:	30 00                	xor    %al,(%eax)
     482:	4a                   	dec    %edx
     483:	00 00                	add    %al,(%eax)
     485:	00 01                	add    %al,(%ecx)
     487:	9c                   	pushf
     488:	1d 6d 62 69 00       	sbb    $0x69626d,%eax
     48d:	01 12                	add    %edx,(%edx)
     48f:	2f                   	das
     490:	82 03 00             	addb   $0x0,(%ebx)
     493:	00 02                	add    %al,(%edx)
     495:	91                   	xchg   %eax,%ecx
     496:	6c                   	insb   (%dx),%es:(%edi)
     497:	00 00                	add    %al,(%eax)
     499:	b7 0a                	mov    $0xa,%bh
     49b:	00 00                	add    %al,(%eax)
     49d:	05 00 01 04 c5       	add    $0xc5040100,%eax
     4a2:	01 00                	add    %eax,(%eax)
     4a4:	00 19                	add    %bl,(%ecx)
     4a6:	1d 04 00 00 1d       	sbb    $0x1d000004,%eax
     4ab:	9f                   	lahf
     4ac:	00 00                	add    %al,(%eax)
     4ae:	00 00                	add    %al,(%eax)
     4b0:	00 00                	add    %al,(%eax)
     4b2:	00 6d 30             	add    %ch,0x30(%ebp)
     4b5:	30 00                	xor    %al,(%eax)
     4b7:	32 08                	xor    (%eax),%cl
     4b9:	00 00                	add    %al,(%eax)
     4bb:	dd 00                	fldl   (%eax)
     4bd:	00 00                	add    %al,(%eax)
     4bf:	02 f2                	add    %dl,%dh
     4c1:	03 00                	add    (%eax),%eax
     4c3:	00 03                	add    %al,(%ebx)
     4c5:	1a 20                	sbb    (%eax),%ah
     4c7:	32 00                	xor    (%eax),%al
     4c9:	00 00                	add    %al,(%eax)
     4cb:	0a 01                	or     (%ecx),%al
     4cd:	08 d7                	or     %dl,%bh
     4cf:	01 00                	add    %eax,(%eax)
     4d1:	00 02                	add    %al,(%edx)
     4d3:	17                   	pop    %ss
     4d4:	01 00                	add    %eax,(%eax)
     4d6:	00 03                	add    %al,(%ebx)
     4d8:	1b 20                	sbb    (%eax),%esp
     4da:	45                   	inc    %ebp
     4db:	00 00                	add    %al,(%eax)
     4dd:	00 0a                	add    %cl,(%edx)
     4df:	02 07                	add    (%edi),%al
     4e1:	79 02                	jns    4e5 <mbh-0x2ffb1b>
     4e3:	00 00                	add    %al,(%eax)
     4e5:	02 a0 00 00 00 03    	add    0x3000000(%eax),%ah
     4eb:	1c 20                	sbb    $0x20,%al
     4ed:	58                   	pop    %eax
     4ee:	00 00                	add    %al,(%eax)
     4f0:	00 0a                	add    %cl,(%edx)
     4f2:	04 07                	add    $0x7,%al
     4f4:	1b 02                	sbb    (%edx),%eax
     4f6:	00 00                	add    %al,(%eax)
     4f8:	02 96 02 00 00 03    	add    0x3000002(%esi),%dl
     4fe:	1d 20 6b 00 00       	sbb    $0x6b20,%eax
     503:	00 0a                	add    %cl,(%edx)
     505:	08 07                	or     %al,(%edi)
     507:	11 02                	adc    %eax,(%edx)
     509:	00 00                	add    %al,(%eax)
     50b:	02 07                	add    (%edi),%al
     50d:	08 00                	or     %al,(%eax)
     50f:	00 03                	add    %al,(%ebx)
     511:	1f                   	pop    %ds
     512:	20 7e 00             	and    %bh,0x0(%esi)
     515:	00 00                	add    %al,(%eax)
     517:	0a 01                	or     (%ecx),%al
     519:	06                   	push   %es
     51a:	d9 01                	flds   (%ecx)
     51c:	00 00                	add    %al,(%eax)
     51e:	02 54 07 00          	add    0x0(%edi,%eax,1),%dl
     522:	00 03                	add    %al,(%ebx)
     524:	20 20                	and    %ah,(%eax)
     526:	91                   	xchg   %eax,%ecx
     527:	00 00                	add    %al,(%eax)
     529:	00 0a                	add    %cl,(%edx)
     52b:	02 05 a9 00 00 00    	add    0xa9,%al
     531:	02 09                	add    (%ecx),%cl
     533:	06                   	push   %es
     534:	00 00                	add    %al,(%eax)
     536:	03 21                	add    (%ecx),%esp
     538:	20 a4 00 00 00 1a 04 	and    %ah,0x41a0000(%eax,%eax,1)
     53f:	05 69 6e 74 00       	add    $0x746e69,%eax
     544:	02 f4                	add    %ah,%dh
     546:	06                   	push   %es
     547:	00 00                	add    %al,(%eax)
     549:	03 22                	add    (%edx),%esp
     54b:	20 b7 00 00 00 0a    	and    %dh,0xa000000(%edi)
     551:	08 05 66 01 00 00    	or     %al,0x166
     557:	02 12                	add    (%edx),%dl
     559:	06                   	push   %es
     55a:	00 00                	add    %al,(%eax)
     55c:	03 24 20             	add    (%eax,%eiz,1),%esp
     55f:	ca 00 00             	lret   $0x0
     562:	00 08                	add    %cl,(%eax)
     564:	cf                   	iret
     565:	00 00                	add    %al,(%eax)
     567:	00 0a                	add    %cl,(%edx)
     569:	01 06                	add    %eax,(%esi)
     56b:	e0 01                	loopne 56e <mbh-0x2ffa92>
     56d:	00 00                	add    %al,(%eax)
     56f:	1b cf                	sbb    %edi,%ecx
     571:	00 00                	add    %al,(%eax)
     573:	00 02                	add    %al,(%edx)
     575:	b3 00                	mov    $0x0,%bl
     577:	00 00                	add    %al,(%eax)
     579:	03 25 20 e7 00 00    	add    0xe720,%esp
     57f:	00 0a                	add    %cl,(%edx)
     581:	04 07                	add    $0x7,%al
     583:	16                   	push   %ss
     584:	02 00                	add    (%eax),%al
     586:	00 02                	add    %al,(%edx)
     588:	b4 07                	mov    $0x7,%ah
     58a:	00 00                	add    %al,(%eax)
     58c:	03 26                	add    (%esi),%esp
     58e:	20 e7                	and    %ah,%bh
     590:	00 00                	add    %al,(%eax)
     592:	00 1c 07             	add    %bl,(%edi,%eax,1)
     595:	04 58                	add    $0x58,%al
     597:	00 00                	add    %al,(%eax)
     599:	00 03                	add    %al,(%ebx)
     59b:	29 0e                	sub    %ecx,(%esi)
     59d:	15 01 00 00 17       	adc    $0x17000001,%eax
     5a2:	94                   	xchg   %eax,%esp
     5a3:	07                   	pop    %es
     5a4:	00 00                	add    %al,(%eax)
     5a6:	00 17                	add    %dl,(%edi)
     5a8:	1d 08 00 00 01       	sbb    $0x1000008,%eax
     5ad:	00 02                	add    %al,(%edx)
     5af:	58                   	pop    %eax
     5b0:	06                   	push   %es
     5b1:	00 00                	add    %al,(%eax)
     5b3:	03 29                	add    (%ecx),%ebp
     5b5:	20 fa                	and    %bh,%dl
     5b7:	00 00                	add    %al,(%eax)
     5b9:	00 0c 02             	add    %cl,(%edx,%eax,1)
     5bc:	4c                   	dec    %esp
     5bd:	04 42                	add    $0x42,%al
     5bf:	01 00                	add    %eax,(%eax)
     5c1:	00 03                	add    %al,(%ebx)
     5c3:	f9                   	stc
     5c4:	05 00 00 4e 0f       	add    $0xf4e0000,%eax
     5c9:	26 00 00             	add    %al,%es:(%eax)
     5cc:	00 00                	add    %al,(%eax)
     5ce:	03 fd                	add    %ebp,%edi
     5d0:	06                   	push   %es
     5d1:	00 00                	add    %al,(%eax)
     5d3:	4f                   	dec    %edi
     5d4:	0f 26 00             	mov    %eax,%tr0
     5d7:	00 00                	add    %al,(%eax)
     5d9:	01 00                	add    %eax,(%eax)
     5db:	12 31                	adc    (%ecx),%dh
     5dd:	06                   	push   %es
     5de:	00 00                	add    %al,(%eax)
     5e0:	02 45 74             	add    0x74(%ebp),%al
     5e3:	01 00                	add    %eax,(%eax)
     5e5:	00 06                	add    %al,(%esi)
     5e7:	72 61                	jb     64a <mbh-0x2ff9b6>
     5e9:	77 00                	ja     5eb <mbh-0x2ffa15>
     5eb:	47                   	inc    %edi
     5ec:	0d 39 00 00 00       	or     $0x39,%eax
     5f1:	09 3e                	or     %edi,(%esi)
     5f3:	07                   	pop    %es
     5f4:	00 00                	add    %al,(%eax)
     5f6:	48                   	dec    %eax
     5f7:	0d 85 00 00 00       	or     $0x85,%eax
     5fc:	09 b7 06 00 00 49    	or     %esi,0x49000006(%edi)
     602:	0d 74 01 00 00       	or     $0x174,%eax
     607:	0b 21                	or     (%ecx),%esp
     609:	01 00                	add    %eax,(%eax)
     60b:	00 00                	add    %al,(%eax)
     60d:	0e                   	push   %cs
     60e:	26 00 00             	add    %al,%es:(%eax)
     611:	00 84 01 00 00 10 58 	add    %al,0x58100000(%ecx,%eax,1)
     618:	00 00                	add    %al,(%eax)
     61a:	00 01                	add    %al,(%ecx)
     61c:	00 02                	add    %al,(%edx)
     61e:	5f                   	pop    %edi
     61f:	06                   	push   %es
     620:	00 00                	add    %al,(%eax)
     622:	03 53 1b             	add    0x1b(%ebx),%edx
     625:	42                   	inc    %edx
     626:	01 00                	add    %eax,(%eax)
     628:	00 0c 04             	add    %cl,(%esp,%eax,1)
     62b:	5f                   	pop    %edi
     62c:	04 b1                	add    $0xb1,%al
     62e:	01 00                	add    %eax,(%eax)
     630:	00 03                	add    %al,(%ebx)
     632:	03 07                	add    (%edi),%eax
     634:	00 00                	add    %al,(%eax)
     636:	61                   	popa
     637:	0f 84 01 00 00 00    	je     63e <mbh-0x2ff9c2>
     63d:	03 00                	add    (%eax),%eax
     63f:	08 00                	or     %al,(%eax)
     641:	00 62 0f             	add    %ah,0xf(%edx)
     644:	84 01                	test   %al,(%ecx)
     646:	00 00                	add    %al,(%eax)
     648:	02 00                	add    (%eax),%al
     64a:	0c 02                	or     $0x2,%al
     64c:	6b 0a d2             	imul   $0xffffffd2,(%edx),%ecx
     64f:	01 00                	add    %eax,(%eax)
     651:	00 03                	add    %al,(%ebx)
     653:	f9                   	stc
     654:	05 00 00 6d 15       	add    $0x156d0000,%eax
     659:	26 00 00             	add    %al,%es:(%eax)
     65c:	00 00                	add    %al,(%eax)
     65e:	03 fd                	add    %ebp,%edi
     660:	06                   	push   %es
     661:	00 00                	add    %al,(%eax)
     663:	6e                   	outsb  %ds:(%esi),(%dx)
     664:	15 26 00 00 00       	adc    $0x26,%eax
     669:	01 00                	add    %eax,(%eax)
     66b:	15 02 69 07 eb       	adc    $0xeb076902,%eax
     670:	01 00                	add    %eax,(%eax)
     672:	00 0b                	add    %cl,(%ebx)
     674:	b1 01                	mov    $0x1,%cl
     676:	00 00                	add    %al,(%eax)
     678:	09 04 07             	or     %eax,(%edi,%eax,1)
     67b:	00 00                	add    %al,(%eax)
     67d:	72 13                	jb     692 <mbh-0x2ff96e>
     67f:	39 00                	cmp    %eax,(%eax)
     681:	00 00                	add    %al,(%eax)
     683:	00 0c 04             	add    %cl,(%esp,%eax,1)
     686:	67 04 05             	addr16 add $0x5,%al
     689:	02 00                	add    (%eax),%al
     68b:	00 16                	add    %dl,(%esi)
     68d:	d2 01                	rolb   %cl,(%ecx)
     68f:	00 00                	add    %al,(%eax)
     691:	03 01                	add    (%ecx),%eax
     693:	08 00                	or     %al,(%eax)
     695:	00 76 10             	add    %dh,0x10(%esi)
     698:	39 00                	cmp    %eax,(%eax)
     69a:	00 00                	add    %al,(%eax)
     69c:	02 00                	add    (%eax),%al
     69e:	12 18                	adc    (%eax),%bl
     6a0:	07                   	pop    %es
     6a1:	00 00                	add    %al,(%eax)
     6a3:	04 58                	add    $0x58,%al
     6a5:	3c 02                	cmp    $0x2,%al
     6a7:	00 00                	add    %al,(%eax)
     6a9:	06                   	push   %es
     6aa:	72 61                	jb     70d <mbh-0x2ff8f3>
     6ac:	77 00                	ja     6ae <mbh-0x2ff952>
     6ae:	5a                   	pop    %edx
     6af:	0d 4c 00 00 00       	or     $0x4c,%eax
     6b4:	09 3e                	or     %edi,(%esi)
     6b6:	07                   	pop    %es
     6b7:	00 00                	add    %al,(%eax)
     6b9:	5b                   	pop    %ebx
     6ba:	0d 98 00 00 00       	or     $0x98,%eax
     6bf:	09 b7 06 00 00 5c    	or     %esi,0x5c000006(%edi)
     6c5:	0d 3c 02 00 00       	or     $0x23c,%eax
     6ca:	0b 90 01 00 00 0b    	or     0xb000001(%eax),%edx
     6d0:	eb 01                	jmp    6d3 <mbh-0x2ff92d>
     6d2:	00 00                	add    %al,(%eax)
     6d4:	00 0e                	add    %cl,(%esi)
     6d6:	26 00 00             	add    %al,%es:(%eax)
     6d9:	00 4c 02 00          	add    %cl,0x0(%edx,%eax,1)
     6dd:	00 10                	add    %dl,(%eax)
     6df:	58                   	pop    %eax
     6e0:	00 00                	add    %al,(%eax)
     6e2:	00 03                	add    %al,(%ebx)
     6e4:	00 02                	add    %al,(%edx)
     6e6:	82 07 00             	addb   $0x0,(%edi)
     6e9:	00 03                	add    %al,(%ebx)
     6eb:	7a 1b                	jp     708 <mbh-0x2ff8f8>
     6ed:	05 02 00 00 0c       	add    $0xc000002,%eax
     6f2:	08 86 04 79 02 00    	or     %al,0x27904(%esi)
     6f8:	00 03                	add    %al,(%ebx)
     6fa:	e5 06                	in     $0x6,%eax
     6fc:	00 00                	add    %al,(%eax)
     6fe:	88 0f                	mov    %cl,(%edi)
     700:	4c                   	dec    %esp
     701:	02 00                	add    (%eax),%al
     703:	00 00                	add    %al,(%eax)
     705:	03 38                	add    (%eax),%edi
     707:	07                   	pop    %es
     708:	00 00                	add    %al,(%eax)
     70a:	89 0f                	mov    %ecx,(%edi)
     70c:	4c                   	dec    %esp
     70d:	02 00                	add    (%eax),%al
     70f:	00 04 00             	add    %al,(%eax,%eax,1)
     712:	0c 02                	or     $0x2,%al
     714:	96                   	xchg   %eax,%esi
     715:	10 9a 02 00 00 03    	adc    %bl,0x3000002(%edx)
     71b:	f9                   	stc
     71c:	05 00 00 98 1b       	add    $0x1b980000,%eax
     721:	26 00 00             	add    %al,%es:(%eax)
     724:	00 00                	add    %al,(%eax)
     726:	03 fd                	add    %ebp,%edi
     728:	06                   	push   %es
     729:	00 00                	add    %al,(%eax)
     72b:	99                   	cltd
     72c:	1b 26                	sbb    (%esi),%esp
     72e:	00 00                	add    %al,(%eax)
     730:	00 01                	add    %al,(%ecx)
     732:	00 15 02 94 0d b3    	add    %dl,0xb30d9402
     738:	02 00                	add    (%eax),%al
     73a:	00 0b                	add    %cl,(%ebx)
     73c:	79 02                	jns    740 <mbh-0x2ff8c0>
     73e:	00 00                	add    %al,(%eax)
     740:	09 04 07             	or     %eax,(%edi,%eax,1)
     743:	00 00                	add    %al,(%eax)
     745:	9d                   	popf
     746:	19 39                	sbb    %edi,(%ecx)
     748:	00 00                	add    %al,(%eax)
     74a:	00 00                	add    %al,(%eax)
     74c:	0c 04                	or     $0x4,%al
     74e:	92                   	xchg   %eax,%edx
     74f:	0a cd                	or     %ch,%cl
     751:	02 00                	add    (%eax),%al
     753:	00 16                	add    %dl,(%esi)
     755:	9a 02 00 00 03 01 08 	lcall  $0x801,$0x3000002
     75c:	00 00                	add    %al,(%eax)
     75e:	a1 16 39 00 00       	mov    0x3916,%eax
     763:	00 02                	add    %al,(%edx)
     765:	00 15 04 90 07 e6    	add    %dl,0xe6079004
     76b:	02 00                	add    (%eax),%al
     76d:	00 0b                	add    %cl,(%ebx)
     76f:	b3 02                	mov    $0x2,%bl
     771:	00 00                	add    %al,(%eax)
     773:	06                   	push   %es
     774:	6c                   	insb   (%dx),%es:(%edi)
     775:	6f                   	outsl  %ds:(%esi),(%dx)
     776:	77 00                	ja     778 <mbh-0x2ff888>
     778:	a5                   	movsl  %ds:(%esi),%es:(%edi)
     779:	14 4c                	adc    $0x4c,%al
     77b:	00 00                	add    %al,(%eax)
     77d:	00 00                	add    %al,(%eax)
     77f:	0c 08                	or     $0x8,%al
     781:	8e 04 00             	mov    (%eax,%eax,1),%es
     784:	03 00                	add    (%eax),%eax
     786:	00 16                	add    %dl,(%esi)
     788:	cd 02                	int    $0x2
     78a:	00 00                	add    %al,(%eax)
     78c:	03 39                	add    (%ecx),%edi
     78e:	07                   	pop    %es
     78f:	00 00                	add    %al,(%eax)
     791:	a9 11 4c 00 00       	test   $0x4c11,%eax
     796:	00 04 00             	add    %al,(%eax,%eax,1)
     799:	12 80 06 00 00 08    	adc    0x8000006(%eax),%al
     79f:	7f 37                	jg     7d8 <mbh-0x2ff828>
     7a1:	03 00                	add    (%eax),%eax
     7a3:	00 06                	add    %al,(%esi)
     7a5:	72 61                	jb     808 <mbh-0x2ff7f8>
     7a7:	77 00                	ja     7a9 <mbh-0x2ff857>
     7a9:	81 0d 5f 00 00 00 09 	orl    $0x73e09,0x5f
     7b0:	3e 07 00 
     7b3:	00 82 0d ab 00 00    	add    %al,0xab0d(%edx)
     7b9:	00 09                	add    %cl,(%ecx)
     7bb:	b7 06                	mov    $0x6,%bh
     7bd:	00 00                	add    %al,(%eax)
     7bf:	83 0d 37 03 00 00 0b 	orl    $0xb,0x337
     7c6:	58                   	pop    %eax
     7c7:	02 00                	add    (%eax),%al
     7c9:	00 0b                	add    %cl,(%ebx)
     7cb:	e6 02                	out    %al,$0x2
     7cd:	00 00                	add    %al,(%eax)
     7cf:	00 0e                	add    %cl,(%esi)
     7d1:	26 00 00             	add    %al,%es:(%eax)
     7d4:	00 47 03             	add    %al,0x3(%edi)
     7d7:	00 00                	add    %al,(%eax)
     7d9:	10 58 00             	adc    %bl,0x0(%eax)
     7dc:	00 00                	add    %al,(%eax)
     7de:	07                   	pop    %es
     7df:	00 02                	add    %al,(%edx)
     7e1:	15 08 00 00 03       	adc    $0x3000008,%eax
     7e6:	ad                   	lods   %ds:(%esi),%eax
     7e7:	1b 00                	sbb    (%eax),%eax
     7e9:	03 00                	add    (%eax),%eax
     7eb:	00 13                	add    %dl,(%ebx)
     7ed:	0e                   	push   %cs
     7ee:	07                   	pop    %es
     7ef:	00 00                	add    %al,(%eax)
     7f1:	04 b9                	add    $0xb9,%al
     7f3:	77 03                	ja     7f8 <mbh-0x2ff808>
     7f5:	00 00                	add    %al,(%eax)
     7f7:	03 ce                	add    %esi,%ecx
     7f9:	07                   	pop    %es
     7fa:	00 00                	add    %al,(%eax)
     7fc:	bb 0d 39 00 00       	mov    $0x390d,%ebx
     801:	00 00                	add    %al,(%eax)
     803:	03 bc 06 00 00 bc 0d 	add    0xdbc0000(%esi,%eax,1),%edi
     80a:	39 00                	cmp    %eax,(%eax)
     80c:	00 00                	add    %al,(%eax)
     80e:	02 00                	add    (%eax),%al
     810:	02 f7                	add    %bh,%dh
     812:	07                   	pop    %es
     813:	00 00                	add    %al,(%eax)
     815:	03 be 1b 53 03 00    	add    0x3531b(%esi),%edi
     81b:	00 13                	add    %dl,(%ebx)
     81d:	8a 07                	mov    (%edi),%al
     81f:	00 00                	add    %al,(%eax)
     821:	06                   	push   %es
     822:	c0 a7 03 00 00 03 ce 	shlb   $0xce,0x3000003(%edi)
     829:	07                   	pop    %es
     82a:	00 00                	add    %al,(%eax)
     82c:	c2 0d 4c             	ret    $0x4c0d
     82f:	00 00                	add    %al,(%eax)
     831:	00 00                	add    %al,(%eax)
     833:	03 bc 06 00 00 c3 0d 	add    0xdc30000(%esi,%eax,1),%edi
     83a:	39 00                	cmp    %eax,(%eax)
     83c:	00 00                	add    %al,(%eax)
     83e:	04 00                	add    $0x0,%al
     840:	02 43 06             	add    0x6(%ebx),%al
     843:	00 00                	add    %al,(%eax)
     845:	03 c5                	add    %ebp,%eax
     847:	1b 83 03 00 00 13    	sbb    0x13000003(%ebx),%eax
     84d:	27                   	daa
     84e:	06                   	push   %es
     84f:	00 00                	add    %al,(%eax)
     851:	0a c7                	or     %bh,%al
     853:	d7                   	xlat   %ds:(%ebx)
     854:	03 00                	add    (%eax),%eax
     856:	00 03                	add    %al,(%ebx)
     858:	ce                   	into
     859:	07                   	pop    %es
     85a:	00 00                	add    %al,(%eax)
     85c:	c9                   	leave
     85d:	0d 5f 00 00 00       	or     $0x5f,%eax
     862:	00 03                	add    %al,(%ebx)
     864:	bc 06 00 00 ca       	mov    $0xca000006,%esp
     869:	0d 39 00 00 00       	or     $0x39,%eax
     86e:	08 00                	or     %al,(%eax)
     870:	02 79 07             	add    0x7(%ecx),%bh
     873:	00 00                	add    %al,(%eax)
     875:	03 cc                	add    %esp,%ecx
     877:	1b b3 03 00 00 12    	sbb    0x12000003(%ebx),%esi
     87d:	ab                   	stos   %eax,%es:(%edi)
     87e:	07                   	pop    %es
     87f:	00 00                	add    %al,(%eax)
     881:	08 d1                	or     %dl,%cl
     883:	61                   	popa
     884:	04 00                	add    $0x0,%al
     886:	00 09                	add    %cl,(%ecx)
     888:	4c                   	dec    %esp
     889:	06                   	push   %es
     88a:	00 00                	add    %al,(%eax)
     88c:	d3 0e                	rorl   %cl,(%esi)
     88e:	ee                   	out    %al,(%dx)
     88f:	00 00                	add    %al,(%eax)
     891:	00 09                	add    %cl,(%ecx)
     893:	f4                   	hlt
     894:	05 00 00 d5 0f       	add    $0xfd50000,%eax
     899:	61                   	popa
     89a:	04 00                	add    $0x0,%al
     89c:	00 06                	add    %al,(%esi)
     89e:	75 38                	jne    8d8 <mbh-0x2ff728>
     8a0:	00 d6                	add    %dl,%dh
     8a2:	0f 63 04 00          	packsswb (%eax,%eax,1),%mm0
     8a6:	00 06                	add    %al,(%esi)
     8a8:	75 31                	jne    8db <mbh-0x2ff725>
     8aa:	36 00 d7             	ss add %dl,%bh
     8ad:	0f 68 04 00          	punpckhbw (%eax,%eax,1),%mm0
     8b1:	00 06                	add    %al,(%esi)
     8b3:	75 33                	jne    8e8 <mbh-0x2ff718>
     8b5:	32 00                	xor    (%eax),%al
     8b7:	d8 0f                	fmuls  (%edi)
     8b9:	6d                   	insl   (%dx),%es:(%edi)
     8ba:	04 00                	add    $0x0,%al
     8bc:	00 06                	add    %al,(%esi)
     8be:	75 36                	jne    8f6 <mbh-0x2ff70a>
     8c0:	34 00                	xor    $0x0,%al
     8c2:	d9 0f                	(bad)  (%edi)
     8c4:	72 04                	jb     8ca <mbh-0x2ff736>
     8c6:	00 00                	add    %al,(%eax)
     8c8:	06                   	push   %es
     8c9:	73 74                	jae    93f <mbh-0x2ff6c1>
     8cb:	72 00                	jb     8cd <mbh-0x2ff733>
     8cd:	db 0e                	fisttpl (%esi)
     8cf:	be 00 00 00 06       	mov    $0x6000000,%esi
     8d4:	66 31 36             	xor    %si,(%esi)
     8d7:	00 dd                	add    %bl,%ch
     8d9:	0f 77                	emms
     8db:	04 00                	add    $0x0,%al
     8dd:	00 06                	add    %al,(%esi)
     8df:	66 33 32             	xor    (%edx),%si
     8e2:	00 de                	add    %bl,%dh
     8e4:	0f 7c                	(bad)
     8e6:	04 00                	add    $0x0,%al
     8e8:	00 06                	add    %al,(%esi)
     8ea:	66 36 34 00          	data16 ss xor $0x0,%al
     8ee:	df 0f                	fisttps (%edi)
     8f0:	81 04 00 00 0b 47 03 	addl   $0x3470b00,(%eax,%eax,1)
     8f7:	00 00                	add    %al,(%eax)
     8f9:	00 1d 04 08 26 00    	add    %bl,0x260804
     8ff:	00 00                	add    %al,(%eax)
     901:	08 39                	or     %bh,(%ecx)
     903:	00 00                	add    %al,(%eax)
     905:	00 08                	add    %cl,(%eax)
     907:	4c                   	dec    %esp
     908:	00 00                	add    %al,(%eax)
     90a:	00 08                	add    %cl,(%eax)
     90c:	5f                   	pop    %edi
     90d:	00 00                	add    %al,(%eax)
     90f:	00 08                	add    %cl,(%eax)
     911:	77 03                	ja     916 <mbh-0x2ff6ea>
     913:	00 00                	add    %al,(%eax)
     915:	08 a7 03 00 00 08    	or     %ah,0x8000003(%edi)
     91b:	d7                   	xlat   %ds:(%ebx)
     91c:	03 00                	add    (%eax),%eax
     91e:	00 02                	add    %al,(%edx)
     920:	0f 08                	invd
     922:	00 00                	add    %al,(%eax)
     924:	03 e3                	add    %ebx,%esp
     926:	1b e3                	sbb    %ebx,%esp
     928:	03 00                	add    (%eax),%eax
     92a:	00 13                	add    %dl,(%ebx)
     92c:	20 06                	and    %al,(%esi)
     92e:	00 00                	add    %al,(%eax)
     930:	0c e8                	or     $0xe8,%al
     932:	b6 04                	mov    $0x4,%dh
     934:	00 00                	add    %al,(%eax)
     936:	03 09                	add    (%ecx),%ecx
     938:	07                   	pop    %es
     939:	00 00                	add    %al,(%eax)
     93b:	ea 0b 86 04 00 00 00 	ljmp   $0x0,$0x4860b
     942:	1e                   	push   %ds
     943:	73 7a                	jae    9bf <mbh-0x2ff641>
     945:	00 03                	add    %al,(%ebx)
     947:	eb 0b                	jmp    954 <mbh-0x2ff6ac>
     949:	db 00                	fildl  (%eax)
     94b:	00 00                	add    %al,(%eax)
     94d:	08 00                	or     %al,(%eax)
     94f:	02 c4                	add    %ah,%al
     951:	06                   	push   %es
     952:	00 00                	add    %al,(%eax)
     954:	03 ed                	add    %ebp,%ebp
     956:	1b 92 04 00 00 02    	sbb    0x2000004(%edx),%edx
     95c:	78 06                	js     964 <mbh-0x2ff69c>
     95e:	00 00                	add    %al,(%eax)
     960:	04 0a                	add    $0xa,%al
     962:	22 ce                	and    %dh,%cl
     964:	04 00                	add    $0x0,%al
     966:	00 1f                	add    %bl,(%edi)
     968:	04 6e                	add    $0x6e,%al
     96a:	06                   	push   %es
     96b:	00 00                	add    %al,(%eax)
     96d:	cf                   	iret
     96e:	00 00                	add    %al,(%eax)
     970:	00 0e                	add    %cl,(%esi)
     972:	cf                   	iret
     973:	00 00                	add    %al,(%eax)
     975:	00 e9                	add    %ch,%cl
     977:	04 00                	add    $0x0,%al
     979:	00 20                	add    %ah,(%eax)
     97b:	58                   	pop    %eax
     97c:	00 00                	add    %al,(%eax)
     97e:	00 ff                	add    %bh,%bh
     980:	03 00                	add    (%eax),%eax
     982:	04 19                	add    $0x19,%al
     984:	06                   	push   %es
     985:	00 00                	add    %al,(%eax)
     987:	07                   	pop    %es
     988:	0d d8 04 00 00       	or     $0x4d8,%eax
     98d:	05 03 a0 49 30       	add    $0x3049a003,%eax
     992:	00 0e                	add    %cl,(%esi)
     994:	cf                   	iret
     995:	00 00                	add    %al,(%eax)
     997:	00 0a                	add    %cl,(%edx)
     999:	05 00 00 10 58       	add    $0x58100000,%eax
     99e:	00 00                	add    %al,(%eax)
     9a0:	00 0f                	add    %cl,(%edi)
     9a2:	00 04 6e             	add    %al,(%esi,%ebp,2)
     9a5:	07                   	pop    %es
     9a6:	00 00                	add    %al,(%eax)
     9a8:	81 0d fa 04 00 00 05 	orl    $0x49040305,0x4fa
     9af:	03 04 49 
     9b2:	30 00                	xor    %al,(%eax)
     9b4:	21 86 08 00 00 05    	and    %eax,0x5000008(%esi)
     9ba:	45                   	inc    %ebp
     9bb:	01 09                	add    %ecx,(%ecx)
     9bd:	db 00                	fildl  (%eax)
     9bf:	00 00                	add    %al,(%eax)
     9c1:	37                   	aaa
     9c2:	05 00 00 18 63       	add    $0x63180000,%eax
     9c7:	04 00                	add    $0x0,%al
     9c9:	00 18                	add    %bl,(%eax)
     9cb:	db 00                	fildl  (%eax)
     9cd:	00 00                	add    %al,(%eax)
     9cf:	00 22                	add    %ah,(%edx)
     9d1:	fe 05 00 00 05 46    	incb   0x46050000
     9d7:	01 09                	add    %ecx,(%ecx)
     9d9:	46                   	inc    %esi
     9da:	05 00 00 14 00       	add    $0x140000,%eax
     9df:	11 ab 06 00 00 a2    	adc    %ebp,-0x5dfffffa(%ebx)
     9e5:	db 00                	fildl  (%eax)
     9e7:	00 00                	add    %al,(%eax)
     9e9:	9c                   	pushf
     9ea:	34 30                	xor    $0x30,%al
     9ec:	00 03                	add    %al,(%ebx)
     9ee:	04 00                	add    $0x0,%al
     9f0:	00 01                	add    %al,(%ecx)
     9f2:	9c                   	pushf
     9f3:	d7                   	xlat   %ds:(%ebx)
     9f4:	06                   	push   %es
     9f5:	00 00                	add    %al,(%eax)
     9f7:	05 20 06 00 00       	add    $0x620,%eax
     9fc:	a2 1a ca 00 00       	mov    %al,0xca1a
     a01:	00 02                	add    %al,(%edx)
     a03:	91                   	xchg   %eax,%ecx
     a04:	00 01                	add    %al,(%ecx)
     a06:	6c                   	insb   (%dx),%es:(%edi)
     a07:	65 6e                	outsb  %gs:(%esi),(%dx)
     a09:	00 02                	add    %al,(%edx)
     a0b:	a2 29 db 00 00       	mov    %al,0xdb29
     a10:	00 02                	add    %al,(%edx)
     a12:	91                   	xchg   %eax,%ecx
     a13:	04 05                	add    $0x5,%al
     a15:	9a 07 00 00 a3 20 d7 	lcall  $0xd720,$0xa3000007
     a1c:	06                   	push   %es
     a1d:	00 00                	add    %al,(%eax)
     a1f:	02 91 08 05 bd 07    	add    0x7bd0508(%ecx),%dl
     a25:	00 00                	add    %al,(%eax)
     a27:	a3 30 c2 04 00       	mov    %eax,0x4c230
     a2c:	00 02                	add    %al,(%edx)
     a2e:	91                   	xchg   %eax,%ecx
     a2f:	0c 07                	or     $0x7,%al
     a31:	62 75 66             	bound  %esi,0x66(%ebp)
     a34:	00 a5 0d b6 04 00    	add    %ah,0x4b60d(%ebp)
     a3a:	00 03                	add    %al,(%ebx)
     a3c:	91                   	xchg   %eax,%ecx
     a3d:	8c 7f 04             	mov    %?,0x4(%edi)
     a40:	57                   	push   %edi
     a41:	03 00                	add    (%eax),%eax
     a43:	00 a6 0d db 00 00    	add    %ah,0xdb0d(%esi)
     a49:	00 02                	add    %al,(%edx)
     a4b:	91                   	xchg   %eax,%ecx
     a4c:	6c                   	insb   (%dx),%es:(%edi)
     a4d:	07                   	pop    %es
     a4e:	63 00                	arpl   %eax,(%eax)
     a50:	a7                   	cmpsl  %es:(%edi),%ds:(%esi)
     a51:	0d cf 00 00 00       	or     $0xcf,%eax
     a56:	02 91 4f 04 67 06    	add    0x667044f(%ecx),%dl
     a5c:	00 00                	add    %al,(%eax)
     a5e:	a8 0d                	test   $0xd,%al
     a60:	15 01 00 00 02       	adc    $0x2000001,%eax
     a65:	91                   	xchg   %eax,%ecx
     a66:	68 07 6c 6e 67       	push   $0x676e6c07
     a6b:	00 a8 15 15 01 00    	add    %ch,0x11515(%eax)
     a71:	00 02                	add    %al,(%edx)
     a73:	91                   	xchg   %eax,%ecx
     a74:	64 0d 2d 35 30 00    	fs or  $0x30352d,%eax
     a7a:	20 00                	and    %al,(%eax)
     a7c:	00 00                	add    %al,(%eax)
     a7e:	f9                   	stc
     a7f:	05 00 00 04 cd       	add    $0xcd040000,%eax
     a84:	06                   	push   %es
     a85:	00 00                	add    %al,(%eax)
     a87:	c6                   	(bad)
     a88:	13 ca                	adc    %edx,%ecx
     a8a:	00 00                	add    %al,(%eax)
     a8c:	00 03                	add    %al,(%ebx)
     a8e:	91                   	xchg   %eax,%ecx
     a8f:	98                   	cwtl
     a90:	7f 00                	jg     a92 <mbh-0x2ff56e>
     a92:	0d 58 35 30 00       	or     $0x303558,%eax
     a97:	20 00                	and    %al,(%eax)
     a99:	00 00                	add    %al,(%eax)
     a9b:	16                   	push   %ss
     a9c:	06                   	push   %es
     a9d:	00 00                	add    %al,(%eax)
     a9f:	04 cd                	add    $0xcd,%al
     aa1:	06                   	push   %es
     aa2:	00 00                	add    %al,(%eax)
     aa4:	c9                   	leave
     aa5:	11 a4 00 00 00 03 91 	adc    %esp,-0x6efd0000(%eax,%eax,1)
     aac:	9c                   	pushf
     aad:	7f 00                	jg     aaf <mbh-0x2ff551>
     aaf:	0d 83 35 30 00       	or     $0x303583,%eax
     ab4:	2f                   	das
     ab5:	00 00                	add    %al,(%eax)
     ab7:	00 33                	add    %dh,(%ebx)
     ab9:	06                   	push   %es
     aba:	00 00                	add    %al,(%eax)
     abc:	04 cd                	add    $0xcd,%al
     abe:	06                   	push   %es
     abf:	00 00                	add    %al,(%eax)
     ac1:	cc                   	int3
     ac2:	16                   	push   %ss
     ac3:	5f                   	pop    %edi
     ac4:	00 00                	add    %al,(%eax)
     ac6:	00 03                	add    %al,(%ebx)
     ac8:	91                   	xchg   %eax,%ecx
     ac9:	a0 7f 00 0d bd       	mov    0xbd0d007f,%al
     ace:	35 30 00 2e 00       	xor    $0x2e0030,%eax
     ad3:	00 00                	add    %al,(%eax)
     ad5:	50                   	push   %eax
     ad6:	06                   	push   %es
     ad7:	00 00                	add    %al,(%eax)
     ad9:	04 cd                	add    $0xcd,%al
     adb:	06                   	push   %es
     adc:	00 00                	add    %al,(%eax)
     ade:	cf                   	iret
     adf:	16                   	push   %ss
     ae0:	5f                   	pop    %edi
     ae1:	00 00                	add    %al,(%eax)
     ae3:	00 03                	add    %al,(%ebx)
     ae5:	91                   	xchg   %eax,%ecx
     ae6:	a8 7f                	test   $0x7f,%al
     ae8:	00 0d 00 36 30 00    	add    %cl,0x303600
     aee:	7b 00                	jnp    af0 <mbh-0x2ff510>
     af0:	00 00                	add    %al,(%eax)
     af2:	6c                   	insb   (%dx),%es:(%edi)
     af3:	06                   	push   %es
     af4:	00 00                	add    %al,(%eax)
     af6:	04 cd                	add    $0xcd,%al
     af8:	06                   	push   %es
     af9:	00 00                	add    %al,(%eax)
     afb:	d4 16                	aam    $0x16
     afd:	ab                   	stos   %eax,%es:(%edi)
     afe:	00 00                	add    %al,(%eax)
     b00:	00 02                	add    %al,(%edx)
     b02:	91                   	xchg   %eax,%ecx
     b03:	58                   	pop    %eax
     b04:	00 23                	add    %ah,(%ebx)
     b06:	0c 00                	or     $0x0,%al
     b08:	00 00                	add    %al,(%eax)
     b0a:	84 06                	test   %al,(%esi)
     b0c:	00 00                	add    %al,(%eax)
     b0e:	04 cd                	add    $0xcd,%al
     b10:	06                   	push   %es
     b11:	00 00                	add    %al,(%eax)
     b13:	e2 16                	loop   b2b <mbh-0x2ff4d5>
     b15:	5f                   	pop    %edi
     b16:	00 00                	add    %al,(%eax)
     b18:	00 02                	add    %al,(%edx)
     b1a:	91                   	xchg   %eax,%ecx
     b1b:	50                   	push   %eax
     b1c:	00 0d 46 37 30 00    	add    %cl,0x303746
     b22:	29 00                	sub    %eax,(%eax)
     b24:	00 00                	add    %al,(%eax)
     b26:	a1 06 00 00 04       	mov    0x4000006,%eax
     b2b:	cd 06                	int    $0x6
     b2d:	00 00                	add    %al,(%eax)
     b2f:	f4                   	hlt
     b30:	16                   	push   %ss
     b31:	ab                   	stos   %eax,%es:(%edi)
     b32:	00 00                	add    %al,(%eax)
     b34:	00 03                	add    %al,(%ebx)
     b36:	91                   	xchg   %eax,%ecx
     b37:	b0 7f                	mov    $0x7f,%al
     b39:	00 0d 7a 37 30 00    	add    %cl,0x30377a
     b3f:	2e 00 00             	add    %al,%cs:(%eax)
     b42:	00 be 06 00 00 04    	add    %bh,0x4000006(%esi)
     b48:	cd 06                	int    $0x6
     b4a:	00 00                	add    %al,(%eax)
     b4c:	f7 16                	notl   (%esi)
     b4e:	5f                   	pop    %edi
     b4f:	00 00                	add    %al,(%eax)
     b51:	00 03                	add    %al,(%ebx)
     b53:	91                   	xchg   %eax,%ecx
     b54:	b8 7f 00 24 b3       	mov    $0xb324007f,%eax
     b59:	37                   	aaa
     b5a:	30 00                	xor    %al,(%eax)
     b5c:	46                   	inc    %esi
     b5d:	00 00                	add    %al,(%eax)
     b5f:	00 04 cd 06 00 00 fc 	add    %al,-0x3fffffa(,%ecx,8)
     b66:	16                   	push   %ss
     b67:	5f                   	pop    %edi
     b68:	00 00                	add    %al,(%eax)
     b6a:	00 02                	add    %al,(%edx)
     b6c:	91                   	xchg   %eax,%ecx
     b6d:	40                   	inc    %eax
     b6e:	00 00                	add    %al,(%eax)
     b70:	08 d6                	or     %dl,%dh
     b72:	00 00                	add    %al,(%eax)
     b74:	00 0f                	add    %cl,(%edi)
     b76:	5d                   	pop    %ebp
     b77:	07                   	pop    %es
     b78:	00 00                	add    %al,(%eax)
     b7a:	9c                   	pushf
     b7b:	6d                   	insl   (%dx),%es:(%edi)
     b7c:	34 30                	xor    $0x30,%al
     b7e:	00 2f                	add    %ch,(%edi)
     b80:	00 00                	add    %al,(%eax)
     b82:	00 01                	add    %al,(%ecx)
     b84:	9c                   	pushf
     b85:	2b 07                	sub    (%edi),%eax
     b87:	00 00                	add    %al,(%eax)
     b89:	01 62 75             	add    %esp,0x75(%edx)
     b8c:	66 00 02             	data16 add %al,(%edx)
     b8f:	9c                   	pushf
     b90:	2f                   	das
     b91:	2b 07                	sub    (%edi),%eax
     b93:	00 00                	add    %al,(%eax)
     b95:	02 91 00 01 6c 65    	add    0x656c0100(%ecx),%dl
     b9b:	6e                   	outsb  %ds:(%esi),(%dx)
     b9c:	00 02                	add    %al,(%edx)
     b9e:	9c                   	pushf
     b9f:	3b db                	cmp    %ebx,%ebx
     ba1:	00 00                	add    %al,(%eax)
     ba3:	00 02                	add    %al,(%edx)
     ba5:	91                   	xchg   %eax,%ecx
     ba6:	04 05                	add    $0x5,%al
     ba8:	cd 06                	int    $0x6
     baa:	00 00                	add    %al,(%eax)
     bac:	9d                   	popf
     bad:	2e 5f                	cs pop %edi
     baf:	00 00                	add    %al,(%eax)
     bb1:	00 02                	add    %al,(%edx)
     bb3:	91                   	xchg   %eax,%ecx
     bb4:	70 05                	jo     bbb <mbh-0x2ff445>
     bb6:	c4 07                	les    (%edi),%eax
     bb8:	00 00                	add    %al,(%eax)
     bba:	9d                   	popf
     bbb:	3c db                	cmp    $0xdb,%al
     bbd:	00 00                	add    %al,(%eax)
     bbf:	00 02                	add    %al,(%edx)
     bc1:	91                   	xchg   %eax,%ecx
     bc2:	10 00                	adc    %al,(%eax)
     bc4:	08 b6 04 00 00 11    	or     %dh,0x11000004(%esi)
     bca:	2a 07                	sub    (%edi),%al
     bcc:	00 00                	add    %al,(%eax)
     bce:	84 db                	test   %bl,%bl
     bd0:	00 00                	add    %al,(%eax)
     bd2:	00 b3 33 30 00 ba    	add    %dh,-0x45ffcfcd(%ebx)
     bd8:	00 00                	add    %al,(%eax)
     bda:	00 01                	add    %al,(%ecx)
     bdc:	9c                   	pushf
     bdd:	ac                   	lods   %ds:(%esi),%al
     bde:	07                   	pop    %es
     bdf:	00 00                	add    %al,(%eax)
     be1:	01 62 75             	add    %esp,0x75(%edx)
     be4:	66 00 02             	data16 add %al,(%edx)
     be7:	84 20                	test   %ah,(%eax)
     be9:	2b 07                	sub    (%edi),%eax
     beb:	00 00                	add    %al,(%eax)
     bed:	02 91 00 01 6c 65    	add    0x656c0100(%ecx),%dl
     bf3:	6e                   	outsb  %ds:(%esi),(%dx)
     bf4:	00 02                	add    %al,(%edx)
     bf6:	84 2c db             	test   %ch,(%ebx,%ebx,8)
     bf9:	00 00                	add    %al,(%eax)
     bfb:	00 02                	add    %al,(%edx)
     bfd:	91                   	xchg   %eax,%ecx
     bfe:	04 05                	add    $0x5,%al
     c00:	cd 06                	int    $0x6
     c02:	00 00                	add    %al,(%eax)
     c04:	85 1f                	test   %ebx,(%edi)
     c06:	5f                   	pop    %edi
     c07:	00 00                	add    %al,(%eax)
     c09:	00 02                	add    %al,(%edx)
     c0b:	91                   	xchg   %eax,%ecx
     c0c:	50                   	push   %eax
     c0d:	05 c4 07 00 00       	add    $0x7c4,%eax
     c12:	85 2d db 00 00 00    	test   %ebp,0xdb
     c18:	02 91 10 07 72 65    	add    0x65720710(%ecx),%dl
     c1e:	70 00                	jo     c20 <mbh-0x2ff3e0>
     c20:	87 0b                	xchg   %ecx,(%ebx)
     c22:	fa                   	cli
     c23:	04 00                	add    $0x0,%al
     c25:	00 02                	add    %al,(%edx)
     c27:	91                   	xchg   %eax,%ecx
     c28:	60                   	pusha
     c29:	07                   	pop    %es
     c2a:	73 7a                	jae    ca6 <mbh-0x2ff35a>
     c2c:	00 88 0b db 00 00    	add    %cl,0xdb0b(%eax)
     c32:	00 02                	add    %al,(%edx)
     c34:	91                   	xchg   %eax,%ecx
     c35:	70 07                	jo     c3e <mbh-0x2ff3c2>
     c37:	72 73                	jb     cac <mbh-0x2ff354>
     c39:	7a 00                	jp     c3b <mbh-0x2ff3c5>
     c3b:	88 0f                	mov    %cl,(%edi)
     c3d:	db 00                	fildl  (%eax)
     c3f:	00 00                	add    %al,(%eax)
     c41:	02 91 74 00 0f 99    	add    -0x66f0ff8c(%ecx),%dl
     c47:	06                   	push   %es
     c48:	00 00                	add    %al,(%eax)
     c4a:	6b f5 32             	imul   $0x32,%ebp,%esi
     c4d:	30 00                	xor    %al,(%eax)
     c4f:	be 00 00 00 01       	mov    $0x1000000,%esi
     c54:	9c                   	pushf
     c55:	0a 08                	or     (%eax),%cl
     c57:	00 00                	add    %al,(%eax)
     c59:	01 62 75             	add    %esp,0x75(%edx)
     c5c:	66 00 02             	data16 add %al,(%edx)
     c5f:	6b 30 2b             	imul   $0x2b,(%eax),%esi
     c62:	07                   	pop    %es
     c63:	00 00                	add    %al,(%eax)
     c65:	02 91 00 01 6c 65    	add    0x656c0100(%ecx),%dl
     c6b:	6e                   	outsb  %ds:(%esi),(%dx)
     c6c:	00 02                	add    %al,(%edx)
     c6e:	6b 3c db 00          	imul   $0x0,(%ebx,%ebx,8),%edi
     c72:	00 00                	add    %al,(%eax)
     c74:	02 91 04 05 cd 06    	add    0x6cd0504(%ecx),%dl
     c7a:	00 00                	add    %al,(%eax)
     c7c:	6b 4a 5f 00          	imul   $0x0,0x5f(%edx),%ecx
     c80:	00 00                	add    %al,(%eax)
     c82:	03 91 b8 7f 07 72    	add    0x72077fb8(%ecx),%edx
     c88:	65 70 00             	gs jo  c8b <mbh-0x2ff375>
     c8b:	6d                   	insl   (%dx),%es:(%edi)
     c8c:	0d 0a 08 00 00       	or     $0x80a,%eax
     c91:	02 91 58 07 64 65    	add    0x65640758(%ecx),%dl
     c97:	63 00                	arpl   %eax,(%eax)
     c99:	6e                   	outsb  %ds:(%esi),(%dx)
     c9a:	0d b6 04 00 00       	or     $0x4b6,%eax
     c9f:	02 91 4c 00 0e cf    	add    -0x30f1ffb4(%ecx),%dl
     ca5:	00 00                	add    %al,(%eax)
     ca7:	00 1a                	add    %bl,(%edx)
     ca9:	08 00                	or     %al,(%eax)
     cab:	00 10                	add    %dl,(%eax)
     cad:	58                   	pop    %eax
     cae:	00 00                	add    %al,(%eax)
     cb0:	00 17                	add    %dl,(%edi)
     cb2:	00 0f                	add    %cl,(%edi)
     cb4:	d3 06                	roll   %cl,(%esi)
     cb6:	00 00                	add    %al,(%eax)
     cb8:	50                   	push   %eax
     cb9:	17                   	pop    %ss
     cba:	32 30                	xor    (%eax),%dh
     cbc:	00 de                	add    %bl,%dh
     cbe:	00 00                	add    %al,(%eax)
     cc0:	00 01                	add    %al,(%ecx)
     cc2:	9c                   	pushf
     cc3:	78 08                	js     ccd <mbh-0x2ff333>
     cc5:	00 00                	add    %al,(%eax)
     cc7:	01 62 75             	add    %esp,0x75(%edx)
     cca:	66 00 02             	data16 add %al,(%edx)
     ccd:	50                   	push   %eax
     cce:	30 2b                	xor    %ch,(%ebx)
     cd0:	07                   	pop    %es
     cd1:	00 00                	add    %al,(%eax)
     cd3:	02 91 00 01 6c 65    	add    0x656c0100(%ecx),%dl
     cd9:	6e                   	outsb  %ds:(%esi),(%dx)
     cda:	00 02                	add    %al,(%edx)
     cdc:	50                   	push   %eax
     cdd:	3c db                	cmp    $0xdb,%al
     cdf:	00 00                	add    %al,(%eax)
     ce1:	00 02                	add    %al,(%edx)
     ce3:	91                   	xchg   %eax,%ecx
     ce4:	04 05                	add    $0x5,%al
     ce6:	cd 06                	int    $0x6
     ce8:	00 00                	add    %al,(%eax)
     cea:	50                   	push   %eax
     ceb:	4a                   	dec    %edx
     cec:	ab                   	stos   %eax,%es:(%edi)
     ced:	00 00                	add    %al,(%eax)
     cef:	00 03                	add    %al,(%ebx)
     cf1:	91                   	xchg   %eax,%ecx
     cf2:	b8 7f 07 72 65       	mov    $0x6572077f,%eax
     cf7:	70 00                	jo     cf9 <mbh-0x2ff307>
     cf9:	52                   	push   %edx
     cfa:	0d 0a 08 00 00       	or     $0x80a,%eax
     cff:	02 91 58 07 64 65    	add    0x65640758(%ecx),%dl
     d05:	63 00                	arpl   %eax,(%eax)
     d07:	53                   	push   %ebx
     d08:	0d b6 04 00 00       	or     $0x4b6,%eax
     d0d:	02 91 4c 00 0f d5    	add    -0x2af0ffb4(%ecx),%dl
     d13:	07                   	pop    %es
     d14:	00 00                	add    %al,(%eax)
     d16:	44                   	inc    %esp
     d17:	a8 31                	test   $0x31,%al
     d19:	30 00                	xor    %al,(%eax)
     d1b:	6f                   	outsl  %ds:(%esi),(%dx)
     d1c:	00 00                	add    %al,(%eax)
     d1e:	00 01                	add    %al,(%ecx)
     d20:	9c                   	pushf
     d21:	e0 08                	loopne d2b <mbh-0x2ff2d5>
     d23:	00 00                	add    %al,(%eax)
     d25:	01 62 75             	add    %esp,0x75(%edx)
     d28:	66 00 02             	data16 add %al,(%edx)
     d2b:	44                   	inc    %esp
     d2c:	2f                   	das
     d2d:	2b 07                	sub    (%edi),%eax
     d2f:	00 00                	add    %al,(%eax)
     d31:	02 91 00 01 6c 65    	add    0x656c0100(%ecx),%dl
     d37:	6e                   	outsb  %ds:(%esi),(%dx)
     d38:	00 02                	add    %al,(%edx)
     d3a:	44                   	inc    %esp
     d3b:	3b db                	cmp    %ebx,%ebx
     d3d:	00 00                	add    %al,(%eax)
     d3f:	00 02                	add    %al,(%edx)
     d41:	91                   	xchg   %eax,%ecx
     d42:	04 05                	add    $0x5,%al
     d44:	cd 06                	int    $0x6
     d46:	00 00                	add    %al,(%eax)
     d48:	45                   	inc    %ebp
     d49:	2e 5f                	cs pop %edi
     d4b:	00 00                	add    %al,(%eax)
     d4d:	00 02                	add    %al,(%edx)
     d4f:	91                   	xchg   %eax,%ecx
     d50:	60                   	pusha
     d51:	01 6e 00             	add    %ebp,0x0(%esi)
     d54:	02 45 3e             	add    0x3e(%ebp),%al
     d57:	4c                   	dec    %esp
     d58:	00 00                	add    %al,(%eax)
     d5a:	00 02                	add    %al,(%edx)
     d5c:	91                   	xchg   %eax,%ecx
     d5d:	10 07                	adc    %al,(%edi)
     d5f:	69 00 47 0d 4c 00    	imul   $0x4c0d47,(%eax),%eax
     d65:	00 00                	add    %al,(%eax)
     d67:	02 91 74 07 62 69    	add    0x69620774(%ecx),%dl
     d6d:	74 00                	je     d6f <mbh-0x2ff291>
     d6f:	47                   	inc    %edi
     d70:	10 4c 00 00          	adc    %cl,0x0(%eax,%eax,1)
     d74:	00 02                	add    %al,(%edx)
     d76:	91                   	xchg   %eax,%ecx
     d77:	70 00                	jo     d79 <mbh-0x2ff287>
     d79:	0f e6                	(bad)
     d7b:	07                   	pop    %es
     d7c:	00 00                	add    %al,(%eax)
     d7e:	3f                   	aas
     d7f:	8d 31                	lea    (%ecx),%esi
     d81:	30 00                	xor    %al,(%eax)
     d83:	1b 00                	sbb    (%eax),%eax
     d85:	00 00                	add    %al,(%eax)
     d87:	01 9c 20 09 00 00 01 	add    %ebx,0x1000009(%eax,%eiz,1)
     d8e:	62 75 66             	bound  %esi,0x66(%ebp)
     d91:	00 02                	add    %al,(%edx)
     d93:	3f                   	aas
     d94:	2f                   	das
     d95:	2b 07                	sub    (%edi),%eax
     d97:	00 00                	add    %al,(%eax)
     d99:	02 91 00 01 6c 65    	add    0x656c0100(%ecx),%dl
     d9f:	6e                   	outsb  %ds:(%esi),(%dx)
     da0:	00 02                	add    %al,(%edx)
     da2:	3f                   	aas
     da3:	3b db                	cmp    %ebx,%ebx
     da5:	00 00                	add    %al,(%eax)
     da7:	00 02                	add    %al,(%edx)
     da9:	91                   	xchg   %eax,%ecx
     daa:	04 01                	add    $0x1,%al
     dac:	63 00                	arpl   %eax,(%eax)
     dae:	02 3f                	add    (%edi),%bh
     db0:	44                   	inc    %esp
     db1:	a4                   	movsb  %ds:(%esi),%es:(%edi)
     db2:	00 00                	add    %al,(%eax)
     db4:	00 02                	add    %al,(%edx)
     db6:	91                   	xchg   %eax,%ecx
     db7:	08 00                	or     %al,(%eax)
     db9:	0f 43 07             	cmovae (%edi),%eax
     dbc:	00 00                	add    %al,(%eax)
     dbe:	39 5c 31 30          	cmp    %ebx,0x30(%ecx,%esi,1)
     dc2:	00 31                	add    %dh,(%ecx)
     dc4:	00 00                	add    %al,(%eax)
     dc6:	00 01                	add    %al,(%ecx)
     dc8:	9c                   	pushf
     dc9:	60                   	pusha
     dca:	09 00                	or     %eax,(%eax)
     dcc:	00 01                	add    %al,(%ecx)
     dce:	62 75 66             	bound  %esi,0x66(%ebp)
     dd1:	00 02                	add    %al,(%edx)
     dd3:	39 2f                	cmp    %ebp,(%edi)
     dd5:	2b 07                	sub    (%edi),%eax
     dd7:	00 00                	add    %al,(%eax)
     dd9:	02 91 00 01 6c 65    	add    0x656c0100(%ecx),%dl
     ddf:	6e                   	outsb  %ds:(%esi),(%dx)
     de0:	00 02                	add    %al,(%edx)
     de2:	39 3b                	cmp    %edi,(%ebx)
     de4:	db 00                	fildl  (%eax)
     de6:	00 00                	add    %al,(%eax)
     de8:	02 91 04 01 73 00    	add    0x730104(%ecx),%dl
     dee:	02 39                	add    (%ecx),%bh
     df0:	46                   	inc    %esi
     df1:	ca 00 00             	lret   $0x0
     df4:	00 02                	add    %al,(%edx)
     df6:	91                   	xchg   %eax,%ecx
     df7:	08 00                	or     %al,(%eax)
     df9:	11 a1 07 00 00 30    	adc    %esp,0x30000007(%ecx)
     dff:	db 00                	fildl  (%eax)
     e01:	00 00                	add    %al,(%eax)
     e03:	1f                   	pop    %ds
     e04:	31 30                	xor    %esi,(%eax)
     e06:	00 3d 00 00 00 01    	add    %bh,0x1000000
     e0c:	9c                   	pushf
     e0d:	a3 09 00 00 05       	mov    %eax,0x5000009
     e12:	9a 07 00 00 30 1e d7 	lcall  $0xd71e,$0x30000007
     e19:	06                   	push   %es
     e1a:	00 00                	add    %al,(%eax)
     e1c:	02 91 00 05 bd 07    	add    0x7bd0500(%ecx),%dl
     e22:	00 00                	add    %al,(%eax)
     e24:	30 2e                	xor    %ch,(%esi)
     e26:	c2 04 00             	ret    $0x4
     e29:	00 02                	add    %al,(%edx)
     e2b:	91                   	xchg   %eax,%ecx
     e2c:	04 04                	add    $0x4,%al
     e2e:	92                   	xchg   %eax,%edx
     e2f:	06                   	push   %es
     e30:	00 00                	add    %al,(%eax)
     e32:	32 0b                	xor    (%ebx),%cl
     e34:	db 00                	fildl  (%eax)
     e36:	00 00                	add    %al,(%eax)
     e38:	02 91 6c 00 11 ae    	add    -0x51eeff94(%ecx),%dl
     e3e:	06                   	push   %es
     e3f:	00 00                	add    %al,(%eax)
     e41:	24 db                	and    $0xdb,%al
     e43:	00 00                	add    %al,(%eax)
     e45:	00 f6                	add    %dh,%dh
     e47:	30 30                	xor    %dh,(%eax)
     e49:	00 29                	add    %ch,(%ecx)
     e4b:	00 00                	add    %al,(%eax)
     e4d:	00 01                	add    %al,(%ecx)
     e4f:	9c                   	pushf
     e50:	04 0a                	add    $0xa,%al
     e52:	00 00                	add    %al,(%eax)
     e54:	05 53 06 00 00       	add    $0x653,%eax
     e59:	24 17                	and    $0x17,%al
     e5b:	ca 00 00             	lret   $0x0
     e5e:	00 02                	add    %al,(%edx)
     e60:	91                   	xchg   %eax,%ecx
     e61:	00 01                	add    %al,(%ecx)
     e63:	6c                   	insb   (%dx),%es:(%edi)
     e64:	65 6e                	outsb  %gs:(%esi),(%dx)
     e66:	00 02                	add    %al,(%edx)
     e68:	24 24                	and    $0x24,%al
     e6a:	db 00                	fildl  (%eax)
     e6c:	00 00                	add    %al,(%eax)
     e6e:	02 91 04 05 9a 07    	add    0x79a0504(%ecx),%dl
     e74:	00 00                	add    %al,(%eax)
     e76:	24 35                	and    $0x35,%al
     e78:	d7                   	xlat   %ds:(%ebx)
     e79:	06                   	push   %es
     e7a:	00 00                	add    %al,(%eax)
     e7c:	02 91 08 14 04 bd    	add    -0x42fbebf8(%ecx),%dl
     e82:	07                   	pop    %es
     e83:	00 00                	add    %al,(%eax)
     e85:	26 0c c2             	es or  $0xc2,%al
     e88:	04 00                	add    $0x0,%al
     e8a:	00 02                	add    %al,(%edx)
     e8c:	91                   	xchg   %eax,%ecx
     e8d:	68 04 92 06 00       	push   $0x69204
     e92:	00 27                	add    %ah,(%edi)
     e94:	0c db                	or     $0xdb,%al
     e96:	00 00                	add    %al,(%eax)
     e98:	00 02                	add    %al,(%edx)
     e9a:	91                   	xchg   %eax,%ecx
     e9b:	6c                   	insb   (%dx),%es:(%edi)
     e9c:	00 11                	add    %dl,(%ecx)
     e9e:	b0 06                	mov    $0x6,%al
     ea0:	00 00                	add    %al,(%eax)
     ea2:	18 db                	sbb    %bl,%bl
     ea4:	00 00                	add    %al,(%eax)
     ea6:	00 d0                	add    %dl,%al
     ea8:	30 30                	xor    %dh,(%eax)
     eaa:	00 26                	add    %ah,(%esi)
     eac:	00 00                	add    %al,(%eax)
     eae:	00 01                	add    %al,(%ecx)
     eb0:	9c                   	pushf
     eb1:	48                   	dec    %eax
     eb2:	0a 00                	or     (%eax),%al
     eb4:	00 05 9a 07 00 00    	add    %al,0x79a
     eba:	18 1b                	sbb    %bl,(%ebx)
     ebc:	d7                   	xlat   %ds:(%ebx)
     ebd:	06                   	push   %es
     ebe:	00 00                	add    %al,(%eax)
     ec0:	02 91 00 14 04 bd    	add    -0x42fbec00(%ecx),%dl
     ec6:	07                   	pop    %es
     ec7:	00 00                	add    %al,(%eax)
     ec9:	1a 0c c2             	sbb    (%edx,%eax,8),%cl
     ecc:	04 00                	add    $0x0,%al
     ece:	00 02                	add    %al,(%edx)
     ed0:	91                   	xchg   %eax,%ecx
     ed1:	68 04 92 06 00       	push   $0x69204
     ed6:	00 1b                	add    %bl,(%ebx)
     ed8:	0c db                	or     $0xdb,%al
     eda:	00 00                	add    %al,(%eax)
     edc:	00 02                	add    %al,(%edx)
     ede:	91                   	xchg   %eax,%ecx
     edf:	6c                   	insb   (%dx),%es:(%edi)
     ee0:	00 25 f4 00 00 00    	add    %ah,0xf4
     ee6:	02 09                	add    (%ecx),%cl
     ee8:	06                   	push   %es
     ee9:	a8 30                	test   $0x30,%al
     eeb:	30 00                	xor    %al,(%eax)
     eed:	28 00                	sub    %al,(%eax)
     eef:	00 00                	add    %al,(%eax)
     ef1:	01 9c 7c 0a 00 00 05 	add    %ebx,0x500000a(%esp,%edi,2)
     ef8:	9a 07 00 00 09 18 d7 	lcall  $0xd718,$0x9000007
     eff:	06                   	push   %es
     f00:	00 00                	add    %al,(%eax)
     f02:	02 91 00 14 04 bd    	add    -0x42fbec00(%ecx),%dl
     f08:	07                   	pop    %es
     f09:	00 00                	add    %al,(%eax)
     f0b:	0b 0c c2             	or     (%edx,%eax,8),%ecx
     f0e:	04 00                	add    $0x0,%al
     f10:	00 02                	add    %al,(%edx)
     f12:	91                   	xchg   %eax,%ecx
     f13:	6c                   	insb   (%dx),%es:(%edi)
     f14:	00 26                	add    %ah,(%esi)
     f16:	ea 06 00 00 01 7c 14 	ljmp   $0x147c,$0x1000006
     f1d:	6d                   	insl   (%dx),%es:(%edi)
     f1e:	30 30                	xor    %dh,(%eax)
     f20:	00 3b                	add    %bh,(%ebx)
     f22:	00 00                	add    %al,(%eax)
     f24:	00 01                	add    %al,(%ecx)
     f26:	9c                   	pushf
     f27:	01 62 75             	add    %esp,0x75(%edx)
     f2a:	66 00 01             	data16 add %al,(%ecx)
     f2d:	7c 28                	jl     f57 <mbh-0x2ff0a9>
     f2f:	2b 07                	sub    (%edi),%eax
     f31:	00 00                	add    %al,(%eax)
     f33:	02 91 00 01 6c 65    	add    0x656c0100(%ecx),%dl
     f39:	6e                   	outsb  %ds:(%esi),(%dx)
     f3a:	00 01                	add    %al,(%ecx)
     f3c:	7c 34                	jl     f72 <mbh-0x2ff08e>
     f3e:	db 00                	fildl  (%eax)
     f40:	00 00                	add    %al,(%eax)
     f42:	02 91 04 01 63 00    	add    0x630104(%ecx),%dl
     f48:	01 7c 3e cf          	add    %edi,-0x31(%esi,%edi,1)
     f4c:	00 00                	add    %al,(%eax)
     f4e:	00 02                	add    %al,(%edx)
     f50:	91                   	xchg   %eax,%ecx
     f51:	70 00                	jo     f53 <mbh-0x2ff0ad>
     f53:	00 10                	add    %dl,(%eax)
     f55:	09 00                	or     %eax,(%eax)
     f57:	00 05 00 01 04 f8    	add    %al,0xf8040100
     f5d:	03 00                	add    (%eax),%eax
     f5f:	00 18                	add    %bl,(%eax)
     f61:	1d 04 00 00 1d       	sbb    $0x1d000004,%eax
     f66:	bf 00 00 00 00       	mov    $0x0,%edi
     f6b:	00 00                	add    %al,(%eax)
     f6d:	00 9f 38 30 00 a5    	add    %bl,-0x5affcfc8(%edi)
     f73:	02 00                	add    (%eax),%al
     f75:	00 65 04             	add    %ah,0x4(%ebp)
     f78:	00 00                	add    %al,(%eax)
     f7a:	01 f2                	add    %esi,%edx
     f7c:	03 00                	add    (%eax),%eax
     f7e:	00 02                	add    %al,(%edx)
     f80:	1a 20                	sbb    (%eax),%ah
     f82:	32 00                	xor    (%eax),%al
     f84:	00 00                	add    %al,(%eax)
     f86:	0a 01                	or     (%ecx),%al
     f88:	08 d7                	or     %dl,%bh
     f8a:	01 00                	add    %eax,(%eax)
     f8c:	00 01                	add    %al,(%ecx)
     f8e:	17                   	pop    %ss
     f8f:	01 00                	add    %eax,(%eax)
     f91:	00 02                	add    %al,(%edx)
     f93:	1b 20                	sbb    (%eax),%esp
     f95:	45                   	inc    %ebp
     f96:	00 00                	add    %al,(%eax)
     f98:	00 0a                	add    %cl,(%edx)
     f9a:	02 07                	add    (%edi),%al
     f9c:	79 02                	jns    fa0 <mbh-0x2ff060>
     f9e:	00 00                	add    %al,(%eax)
     fa0:	01 a0 00 00 00 02    	add    %esp,0x2000000(%eax)
     fa6:	1c 20                	sbb    $0x20,%al
     fa8:	58                   	pop    %eax
     fa9:	00 00                	add    %al,(%eax)
     fab:	00 0a                	add    %cl,(%edx)
     fad:	04 07                	add    $0x7,%al
     faf:	1b 02                	sbb    (%edx),%eax
     fb1:	00 00                	add    %al,(%eax)
     fb3:	01 96 02 00 00 02    	add    %edx,0x2000002(%esi)
     fb9:	1d 20 6b 00 00       	sbb    $0x6b20,%eax
     fbe:	00 0a                	add    %cl,(%edx)
     fc0:	08 07                	or     %al,(%edi)
     fc2:	11 02                	adc    %eax,(%edx)
     fc4:	00 00                	add    %al,(%eax)
     fc6:	0a 01                	or     (%ecx),%al
     fc8:	06                   	push   %es
     fc9:	d9 01                	flds   (%ecx)
     fcb:	00 00                	add    %al,(%eax)
     fcd:	01 54 07 00          	add    %edx,0x0(%edi,%eax,1)
     fd1:	00 02                	add    %al,(%edx)
     fd3:	20 20                	and    %ah,(%eax)
     fd5:	85 00                	test   %eax,(%eax)
     fd7:	00 00                	add    %al,(%eax)
     fd9:	0a 02                	or     (%edx),%al
     fdb:	05 a9 00 00 00       	add    $0xa9,%eax
     fe0:	01 09                	add    %ecx,(%ecx)
     fe2:	06                   	push   %es
     fe3:	00 00                	add    %al,(%eax)
     fe5:	02 21                	add    (%ecx),%ah
     fe7:	20 98 00 00 00 19    	and    %bl,0x19000000(%eax)
     fed:	04 05                	add    $0x5,%al
     fef:	69 6e 74 00 01 f4 06 	imul   $0x6f40100,0x74(%esi),%ebp
     ff6:	00 00                	add    %al,(%eax)
     ff8:	02 22                	add    (%edx),%ah
     ffa:	20 ab 00 00 00 0a    	and    %ch,0xa000000(%ebx)
    1000:	08 05 66 01 00 00    	or     %al,0x166
    1006:	01 12                	add    %edx,(%edx)
    1008:	06                   	push   %es
    1009:	00 00                	add    %al,(%eax)
    100b:	02 24 20             	add    (%eax,%eiz,1),%ah
    100e:	be 00 00 00 0b       	mov    $0xb000000,%esi
    1013:	c3                   	ret
    1014:	00 00                	add    %al,(%eax)
    1016:	00 0a                	add    %cl,(%edx)
    1018:	01 06                	add    %eax,(%esi)
    101a:	e0 01                	loopne 101d <mbh-0x2fefe3>
    101c:	00 00                	add    %al,(%eax)
    101e:	01 b3 00 00 00 02    	add    %esi,0x2000000(%ebx)
    1024:	25 20 d6 00 00       	and    $0xd620,%eax
    1029:	00 0a                	add    %cl,(%edx)
    102b:	04 07                	add    $0x7,%al
    102d:	16                   	push   %ss
    102e:	02 00                	add    (%eax),%al
    1030:	00 01                	add    %al,(%ecx)
    1032:	b4 07                	mov    $0x7,%ah
    1034:	00 00                	add    %al,(%eax)
    1036:	02 26                	add    (%esi),%ah
    1038:	20 d6                	and    %dl,%dh
    103a:	00 00                	add    %al,(%eax)
    103c:	00 07                	add    %al,(%edi)
    103e:	02 02                	add    (%edx),%al
    1040:	4c                   	dec    %esp
    1041:	04 0b                	add    $0xb,%al
    1043:	01 00                	add    %eax,(%eax)
    1045:	00 02                	add    %al,(%edx)
    1047:	f9                   	stc
    1048:	05 00 00 4e 0f       	add    $0xf4e0000,%eax
    104d:	26 00 00             	add    %al,%es:(%eax)
    1050:	00 00                	add    %al,(%eax)
    1052:	02 fd                	add    %ch,%bh
    1054:	06                   	push   %es
    1055:	00 00                	add    %al,(%eax)
    1057:	4f                   	dec    %edi
    1058:	0f 26 00             	mov    %eax,%tr0
    105b:	00 00                	add    %al,(%eax)
    105d:	01 00                	add    %eax,(%eax)
    105f:	0c 31                	or     $0x31,%al
    1061:	06                   	push   %es
    1062:	00 00                	add    %al,(%eax)
    1064:	02 02                	add    (%edx),%al
    1066:	45                   	inc    %ebp
    1067:	3f                   	aas
    1068:	01 00                	add    %eax,(%eax)
    106a:	00 03                	add    %al,(%ebx)
    106c:	72 61                	jb     10cf <mbh-0x2fef31>
    106e:	77 00                	ja     1070 <mbh-0x2fef90>
    1070:	02 47 0d             	add    0xd(%edi),%al
    1073:	39 00                	cmp    %eax,(%eax)
    1075:	00 00                	add    %al,(%eax)
    1077:	09 3e                	or     %edi,(%esi)
    1079:	07                   	pop    %es
    107a:	00 00                	add    %al,(%eax)
    107c:	48                   	dec    %eax
    107d:	0d 79 00 00 00       	or     $0x79,%eax
    1082:	09 b7 06 00 00 49    	or     %esi,0x49000006(%edi)
    1088:	0d 3f 01 00 00       	or     $0x13f,%eax
    108d:	04 e9                	add    $0xe9,%al
    108f:	00 00                	add    %al,(%eax)
    1091:	00 00                	add    %al,(%eax)
    1093:	11 26                	adc    %esp,(%esi)
    1095:	00 00                	add    %al,(%eax)
    1097:	00 4f 01             	add    %cl,0x1(%edi)
    109a:	00 00                	add    %al,(%eax)
    109c:	12 58 00             	adc    0x0(%eax),%bl
    109f:	00 00                	add    %al,(%eax)
    10a1:	01 00                	add    %eax,(%eax)
    10a3:	01 5f 06             	add    %ebx,0x6(%edi)
    10a6:	00 00                	add    %al,(%eax)
    10a8:	02 53 1b             	add    0x1b(%ebx),%dl
    10ab:	0b 01                	or     (%ecx),%eax
    10ad:	00 00                	add    %al,(%eax)
    10af:	07                   	pop    %es
    10b0:	04 02                	add    $0x2,%al
    10b2:	5f                   	pop    %edi
    10b3:	04 7d                	add    $0x7d,%al
    10b5:	01 00                	add    %eax,(%eax)
    10b7:	00 02                	add    %al,(%edx)
    10b9:	03 07                	add    (%edi),%eax
    10bb:	00 00                	add    %al,(%eax)
    10bd:	61                   	popa
    10be:	0f 4f 01             	cmovg  (%ecx),%eax
    10c1:	00 00                	add    %al,(%eax)
    10c3:	00 02                	add    %al,(%edx)
    10c5:	00 08                	add    %cl,(%eax)
    10c7:	00 00                	add    %al,(%eax)
    10c9:	62 0f                	bound  %ecx,(%edi)
    10cb:	4f                   	dec    %edi
    10cc:	01 00                	add    %eax,(%eax)
    10ce:	00 02                	add    %al,(%edx)
    10d0:	00 07                	add    %al,(%edi)
    10d2:	02 02                	add    (%edx),%al
    10d4:	6b 0a 9f             	imul   $0xffffff9f,(%edx),%ecx
    10d7:	01 00                	add    %eax,(%eax)
    10d9:	00 02                	add    %al,(%edx)
    10db:	f9                   	stc
    10dc:	05 00 00 6d 15       	add    $0x156d0000,%eax
    10e1:	26 00 00             	add    %al,%es:(%eax)
    10e4:	00 00                	add    %al,(%eax)
    10e6:	02 fd                	add    %ch,%bh
    10e8:	06                   	push   %es
    10e9:	00 00                	add    %al,(%eax)
    10eb:	6e                   	outsb  %ds:(%esi),(%dx)
    10ec:	15 26 00 00 00       	adc    $0x26,%eax
    10f1:	01 00                	add    %eax,(%eax)
    10f3:	13 02                	adc    (%edx),%eax
    10f5:	69 07 b8 01 00 00    	imul   $0x1b8,(%edi),%eax
    10fb:	04 7d                	add    $0x7d,%al
    10fd:	01 00                	add    %eax,(%eax)
    10ff:	00 09                	add    %cl,(%ecx)
    1101:	04 07                	add    $0x7,%al
    1103:	00 00                	add    %al,(%eax)
    1105:	72 13                	jb     111a <mbh-0x2feee6>
    1107:	39 00                	cmp    %eax,(%eax)
    1109:	00 00                	add    %al,(%eax)
    110b:	00 07                	add    %al,(%edi)
    110d:	04 02                	add    $0x2,%al
    110f:	67 04 d3             	addr16 add $0xd3,%al
    1112:	01 00                	add    %eax,(%eax)
    1114:	00 14 9f             	add    %dl,(%edi,%ebx,4)
    1117:	01 00                	add    %eax,(%eax)
    1119:	00 02                	add    %al,(%edx)
    111b:	01 08                	add    %ecx,(%eax)
    111d:	00 00                	add    %al,(%eax)
    111f:	76 10                	jbe    1131 <mbh-0x2feecf>
    1121:	39 00                	cmp    %eax,(%eax)
    1123:	00 00                	add    %al,(%eax)
    1125:	02 00                	add    (%eax),%al
    1127:	0c 18                	or     $0x18,%al
    1129:	07                   	pop    %es
    112a:	00 00                	add    %al,(%eax)
    112c:	04 02                	add    $0x2,%al
    112e:	58                   	pop    %eax
    112f:	0c 02                	or     $0x2,%al
    1131:	00 00                	add    %al,(%eax)
    1133:	03 72 61             	add    0x61(%edx),%esi
    1136:	77 00                	ja     1138 <mbh-0x2feec8>
    1138:	02 5a 0d             	add    0xd(%edx),%bl
    113b:	4c                   	dec    %esp
    113c:	00 00                	add    %al,(%eax)
    113e:	00 09                	add    %cl,(%ecx)
    1140:	3e 07                	ds pop %es
    1142:	00 00                	add    %al,(%eax)
    1144:	5b                   	pop    %ebx
    1145:	0d 8c 00 00 00       	or     $0x8c,%eax
    114a:	09 b7 06 00 00 5c    	or     %esi,0x5c000006(%edi)
    1150:	0d 0c 02 00 00       	or     $0x20c,%eax
    1155:	04 5b                	add    $0x5b,%al
    1157:	01 00                	add    %eax,(%eax)
    1159:	00 04 b8             	add    %al,(%eax,%edi,4)
    115c:	01 00                	add    %eax,(%eax)
    115e:	00 00                	add    %al,(%eax)
    1160:	11 26                	adc    %esp,(%esi)
    1162:	00 00                	add    %al,(%eax)
    1164:	00 1c 02             	add    %bl,(%edx,%eax,1)
    1167:	00 00                	add    %al,(%eax)
    1169:	12 58 00             	adc    0x0(%eax),%bl
    116c:	00 00                	add    %al,(%eax)
    116e:	03 00                	add    (%eax),%eax
    1170:	01 82 07 00 00 02    	add    %eax,0x2000007(%edx)
    1176:	7a 1b                	jp     1193 <mbh-0x2fee6d>
    1178:	d3 01                	roll   %cl,(%ecx)
    117a:	00 00                	add    %al,(%eax)
    117c:	07                   	pop    %es
    117d:	08 02                	or     %al,(%edx)
    117f:	86 04 4a             	xchg   %al,(%edx,%ecx,2)
    1182:	02 00                	add    (%eax),%al
    1184:	00 02                	add    %al,(%edx)
    1186:	e5 06                	in     $0x6,%eax
    1188:	00 00                	add    %al,(%eax)
    118a:	88 0f                	mov    %cl,(%edi)
    118c:	1c 02                	sbb    $0x2,%al
    118e:	00 00                	add    %al,(%eax)
    1190:	00 02                	add    %al,(%edx)
    1192:	38 07                	cmp    %al,(%edi)
    1194:	00 00                	add    %al,(%eax)
    1196:	89 0f                	mov    %ecx,(%edi)
    1198:	1c 02                	sbb    $0x2,%al
    119a:	00 00                	add    %al,(%eax)
    119c:	04 00                	add    $0x0,%al
    119e:	07                   	pop    %es
    119f:	02 02                	add    (%edx),%al
    11a1:	96                   	xchg   %eax,%esi
    11a2:	10 6c 02 00          	adc    %ch,0x0(%edx,%eax,1)
    11a6:	00 02                	add    %al,(%edx)
    11a8:	f9                   	stc
    11a9:	05 00 00 98 1b       	add    $0x1b980000,%eax
    11ae:	26 00 00             	add    %al,%es:(%eax)
    11b1:	00 00                	add    %al,(%eax)
    11b3:	02 fd                	add    %ch,%bh
    11b5:	06                   	push   %es
    11b6:	00 00                	add    %al,(%eax)
    11b8:	99                   	cltd
    11b9:	1b 26                	sbb    (%esi),%esp
    11bb:	00 00                	add    %al,(%eax)
    11bd:	00 01                	add    %al,(%ecx)
    11bf:	00 13                	add    %dl,(%ebx)
    11c1:	02 94 0d 85 02 00 00 	add    0x285(%ebp,%ecx,1),%dl
    11c8:	04 4a                	add    $0x4a,%al
    11ca:	02 00                	add    (%eax),%al
    11cc:	00 09                	add    %cl,(%ecx)
    11ce:	04 07                	add    $0x7,%al
    11d0:	00 00                	add    %al,(%eax)
    11d2:	9d                   	popf
    11d3:	19 39                	sbb    %edi,(%ecx)
    11d5:	00 00                	add    %al,(%eax)
    11d7:	00 00                	add    %al,(%eax)
    11d9:	07                   	pop    %es
    11da:	04 02                	add    $0x2,%al
    11dc:	92                   	xchg   %eax,%edx
    11dd:	0a a0 02 00 00 14    	or     0x14000002(%eax),%ah
    11e3:	6c                   	insb   (%dx),%es:(%edi)
    11e4:	02 00                	add    (%eax),%al
    11e6:	00 02                	add    %al,(%edx)
    11e8:	01 08                	add    %ecx,(%eax)
    11ea:	00 00                	add    %al,(%eax)
    11ec:	a1 16 39 00 00       	mov    0x3916,%eax
    11f1:	00 02                	add    %al,(%edx)
    11f3:	00 13                	add    %dl,(%ebx)
    11f5:	04 90                	add    $0x90,%al
    11f7:	07                   	pop    %es
    11f8:	ba 02 00 00 04       	mov    $0x4000002,%edx
    11fd:	85 02                	test   %eax,(%edx)
    11ff:	00 00                	add    %al,(%eax)
    1201:	03 6c 6f 77          	add    0x77(%edi,%ebp,2),%ebp
    1205:	00 02                	add    %al,(%edx)
    1207:	a5                   	movsl  %ds:(%esi),%es:(%edi)
    1208:	14 4c                	adc    $0x4c,%al
    120a:	00 00                	add    %al,(%eax)
    120c:	00 00                	add    %al,(%eax)
    120e:	07                   	pop    %es
    120f:	08 02                	or     %al,(%edx)
    1211:	8e 04 d5 02 00 00 14 	mov    0x14000002(,%edx,8),%es
    1218:	a0 02 00 00 02       	mov    0x2000002,%al
    121d:	39 07                	cmp    %eax,(%edi)
    121f:	00 00                	add    %al,(%eax)
    1221:	a9 11 4c 00 00       	test   $0x4c11,%eax
    1226:	00 04 00             	add    %al,(%eax,%eax,1)
    1229:	0c 80                	or     $0x80,%al
    122b:	06                   	push   %es
    122c:	00 00                	add    %al,(%eax)
    122e:	08 02                	or     %al,(%edx)
    1230:	7f 0e                	jg     1240 <mbh-0x2fedc0>
    1232:	03 00                	add    (%eax),%eax
    1234:	00 03                	add    %al,(%ebx)
    1236:	72 61                	jb     1299 <mbh-0x2fed67>
    1238:	77 00                	ja     123a <mbh-0x2fedc6>
    123a:	02 81 0d 5f 00 00    	add    0x5f0d(%ecx),%al
    1240:	00 09                	add    %cl,(%ecx)
    1242:	3e 07                	ds pop %es
    1244:	00 00                	add    %al,(%eax)
    1246:	82 0d 9f 00 00 00 09 	orb    $0x9,0x9f
    124d:	b7 06                	mov    $0x6,%bh
    124f:	00 00                	add    %al,(%eax)
    1251:	83 0d 0e 03 00 00 04 	orl    $0x4,0x30e
    1258:	28 02                	sub    %al,(%edx)
    125a:	00 00                	add    %al,(%eax)
    125c:	04 ba                	add    $0xba,%al
    125e:	02 00                	add    (%eax),%al
    1260:	00 00                	add    %al,(%eax)
    1262:	11 26                	adc    %esp,(%esi)
    1264:	00 00                	add    %al,(%eax)
    1266:	00 1e                	add    %bl,(%esi)
    1268:	03 00                	add    (%eax),%eax
    126a:	00 12                	add    %dl,(%edx)
    126c:	58                   	pop    %eax
    126d:	00 00                	add    %al,(%eax)
    126f:	00 07                	add    %al,(%edi)
    1271:	00 01                	add    %al,(%ecx)
    1273:	15 08 00 00 02       	adc    $0x2000008,%eax
    1278:	ad                   	lods   %ds:(%esi),%eax
    1279:	1b d5                	sbb    %ebp,%edx
    127b:	02 00                	add    (%eax),%al
    127d:	00 0f                	add    %cl,(%edi)
    127f:	0e                   	push   %cs
    1280:	07                   	pop    %es
    1281:	00 00                	add    %al,(%eax)
    1283:	04 b9                	add    $0xb9,%al
    1285:	4e                   	dec    %esi
    1286:	03 00                	add    (%eax),%eax
    1288:	00 02                	add    %al,(%edx)
    128a:	ce                   	into
    128b:	07                   	pop    %es
    128c:	00 00                	add    %al,(%eax)
    128e:	bb 0d 39 00 00       	mov    $0x390d,%ebx
    1293:	00 00                	add    %al,(%eax)
    1295:	02 bc 06 00 00 bc 0d 	add    0xdbc0000(%esi,%eax,1),%bh
    129c:	39 00                	cmp    %eax,(%eax)
    129e:	00 00                	add    %al,(%eax)
    12a0:	02 00                	add    (%eax),%al
    12a2:	01 f7                	add    %esi,%edi
    12a4:	07                   	pop    %es
    12a5:	00 00                	add    %al,(%eax)
    12a7:	02 be 1b 2a 03 00    	add    0x32a1b(%esi),%bh
    12ad:	00 0f                	add    %cl,(%edi)
    12af:	8a 07                	mov    (%edi),%al
    12b1:	00 00                	add    %al,(%eax)
    12b3:	06                   	push   %es
    12b4:	c0 7e 03 00          	sarb   $0x0,0x3(%esi)
    12b8:	00 02                	add    %al,(%edx)
    12ba:	ce                   	into
    12bb:	07                   	pop    %es
    12bc:	00 00                	add    %al,(%eax)
    12be:	c2 0d 4c             	ret    $0x4c0d
    12c1:	00 00                	add    %al,(%eax)
    12c3:	00 00                	add    %al,(%eax)
    12c5:	02 bc 06 00 00 c3 0d 	add    0xdc30000(%esi,%eax,1),%bh
    12cc:	39 00                	cmp    %eax,(%eax)
    12ce:	00 00                	add    %al,(%eax)
    12d0:	04 00                	add    $0x0,%al
    12d2:	01 43 06             	add    %eax,0x6(%ebx)
    12d5:	00 00                	add    %al,(%eax)
    12d7:	02 c5                	add    %ch,%al
    12d9:	1b 5a 03             	sbb    0x3(%edx),%ebx
    12dc:	00 00                	add    %al,(%eax)
    12de:	0f 27                	(bad)
    12e0:	06                   	push   %es
    12e1:	00 00                	add    %al,(%eax)
    12e3:	0a c7                	or     %bh,%al
    12e5:	ae                   	scas   %es:(%edi),%al
    12e6:	03 00                	add    (%eax),%eax
    12e8:	00 02                	add    %al,(%edx)
    12ea:	ce                   	into
    12eb:	07                   	pop    %es
    12ec:	00 00                	add    %al,(%eax)
    12ee:	c9                   	leave
    12ef:	0d 5f 00 00 00       	or     $0x5f,%eax
    12f4:	00 02                	add    %al,(%edx)
    12f6:	bc 06 00 00 ca       	mov    $0xca000006,%esp
    12fb:	0d 39 00 00 00       	or     $0x39,%eax
    1300:	08 00                	or     %al,(%eax)
    1302:	01 79 07             	add    %edi,0x7(%ecx)
    1305:	00 00                	add    %al,(%eax)
    1307:	02 cc                	add    %ah,%cl
    1309:	1b 8a 03 00 00 0c    	sbb    0xc000003(%edx),%ecx
    130f:	ab                   	stos   %eax,%es:(%edi)
    1310:	07                   	pop    %es
    1311:	00 00                	add    %al,(%eax)
    1313:	08 02                	or     %al,(%edx)
    1315:	d1 41 04             	roll   $1,0x4(%ecx)
    1318:	00 00                	add    %al,(%eax)
    131a:	09 4c 06 00          	or     %ecx,0x0(%esi,%eax,1)
    131e:	00 d3                	add    %dl,%bl
    1320:	0e                   	push   %cs
    1321:	dd 00                	fldl   (%eax)
    1323:	00 00                	add    %al,(%eax)
    1325:	09 f4                	or     %esi,%esp
    1327:	05 00 00 d5 0f       	add    $0xfd50000,%eax
    132c:	41                   	inc    %ecx
    132d:	04 00                	add    $0x0,%al
    132f:	00 03                	add    %al,(%ebx)
    1331:	75 38                	jne    136b <mbh-0x2fec95>
    1333:	00 02                	add    %al,(%edx)
    1335:	d6                   	(bad)
    1336:	0f 43 04 00          	cmovae (%eax,%eax,1),%eax
    133a:	00 03                	add    %al,(%ebx)
    133c:	75 31                	jne    136f <mbh-0x2fec91>
    133e:	36 00 02             	add    %al,%ss:(%edx)
    1341:	d7                   	xlat   %ds:(%ebx)
    1342:	0f 48 04 00          	cmovs  (%eax,%eax,1),%eax
    1346:	00 03                	add    %al,(%ebx)
    1348:	75 33                	jne    137d <mbh-0x2fec83>
    134a:	32 00                	xor    (%eax),%al
    134c:	02 d8                	add    %al,%bl
    134e:	0f 4d 04 00          	cmovge (%eax,%eax,1),%eax
    1352:	00 03                	add    %al,(%ebx)
    1354:	75 36                	jne    138c <mbh-0x2fec74>
    1356:	34 00                	xor    $0x0,%al
    1358:	02 d9                	add    %cl,%bl
    135a:	0f 52 04 00          	rsqrtps (%eax,%eax,1),%xmm0
    135e:	00 03                	add    %al,(%ebx)
    1360:	73 74                	jae    13d6 <mbh-0x2fec2a>
    1362:	72 00                	jb     1364 <mbh-0x2fec9c>
    1364:	02 db                	add    %bl,%bl
    1366:	0e                   	push   %cs
    1367:	b2 00                	mov    $0x0,%dl
    1369:	00 00                	add    %al,(%eax)
    136b:	03 66 31             	add    0x31(%esi),%esp
    136e:	36 00 02             	add    %al,%ss:(%edx)
    1371:	dd 0f                	fisttpll (%edi)
    1373:	57                   	push   %edi
    1374:	04 00                	add    $0x0,%al
    1376:	00 03                	add    %al,(%ebx)
    1378:	66 33 32             	xor    (%edx),%si
    137b:	00 02                	add    %al,(%edx)
    137d:	de 0f                	fimuls (%edi)
    137f:	5c                   	pop    %esp
    1380:	04 00                	add    $0x0,%al
    1382:	00 03                	add    %al,(%ebx)
    1384:	66 36 34 00          	data16 ss xor $0x0,%al
    1388:	02 df                	add    %bh,%bl
    138a:	0f 61 04 00          	punpcklwd (%eax,%eax,1),%mm0
    138e:	00 04 1e             	add    %al,(%esi,%ebx,1)
    1391:	03 00                	add    (%eax),%eax
    1393:	00 00                	add    %al,(%eax)
    1395:	1a 04 0b             	sbb    (%ebx,%ecx,1),%al
    1398:	26 00 00             	add    %al,%es:(%eax)
    139b:	00 0b                	add    %cl,(%ebx)
    139d:	39 00                	cmp    %eax,(%eax)
    139f:	00 00                	add    %al,(%eax)
    13a1:	0b 4c 00 00          	or     0x0(%eax,%eax,1),%ecx
    13a5:	00 0b                	add    %cl,(%ebx)
    13a7:	5f                   	pop    %edi
    13a8:	00 00                	add    %al,(%eax)
    13aa:	00 0b                	add    %cl,(%ebx)
    13ac:	4e                   	dec    %esi
    13ad:	03 00                	add    (%eax),%eax
    13af:	00 0b                	add    %cl,(%ebx)
    13b1:	7e 03                	jle    13b6 <mbh-0x2fec4a>
    13b3:	00 00                	add    %al,(%eax)
    13b5:	0b ae 03 00 00 01    	or     0x1000003(%esi),%ebp
    13bb:	0f 08                	invd
    13bd:	00 00                	add    %al,(%eax)
    13bf:	02 e3                	add    %bl,%ah
    13c1:	1b ba 03 00 00 0f    	sbb    0xf000003(%edx),%edi
    13c7:	20 06                	and    %al,(%esi)
    13c9:	00 00                	add    %al,(%eax)
    13cb:	0c e8                	or     $0xe8,%al
    13cd:	96                   	xchg   %eax,%esi
    13ce:	04 00                	add    $0x0,%al
    13d0:	00 02                	add    %al,(%edx)
    13d2:	09 07                	or     %eax,(%edi)
    13d4:	00 00                	add    %al,(%eax)
    13d6:	ea 0b 66 04 00 00 00 	ljmp   $0x0,$0x4660b
    13dd:	1b 73 7a             	sbb    0x7a(%ebx),%esi
    13e0:	00 02                	add    %al,(%edx)
    13e2:	eb 0b                	jmp    13ef <mbh-0x2fec11>
    13e4:	ca 00 00             	lret   $0x0
    13e7:	00 08                	add    %cl,(%eax)
    13e9:	00 01                	add    %al,(%ecx)
    13eb:	c4 06                	les    (%esi),%eax
    13ed:	00 00                	add    %al,(%eax)
    13ef:	02 ed                	add    %ch,%ch
    13f1:	1b 72 04             	sbb    0x4(%edx),%esi
    13f4:	00 00                	add    %al,(%eax)
    13f6:	07                   	pop    %es
    13f7:	01 03                	add    %eax,(%ebx)
    13f9:	2f                   	das
    13fa:	04 eb                	add    $0xeb,%al
    13fc:	04 00                	add    $0x0,%al
    13fe:	00 05 21 09 00 00    	add    %al,0x921
    1404:	31 11                	xor    %edx,(%ecx)
    1406:	26 00 00             	add    %al,%es:(%eax)
    1409:	00 04 00             	add    %al,(%eax,%eax,1)
    140c:	08 63 74             	or     %ah,0x74(%ebx)
    140f:	6c                   	insb   (%dx),%es:(%edi)
    1410:	00 3c 11             	add    %bh,(%ecx,%edx,1)
    1413:	26 00 00             	add    %al,%es:(%eax)
    1416:	00 04 08             	add    %al,(%eax,%ecx,1)
    1419:	73 70                	jae    148b <mbh-0x2feb75>
    141b:	63 00                	arpl   %eax,(%eax)
    141d:	3d 11 26 00 00       	cmp    $0x2611,%eax
    1422:	00 05 05 3b 09 00    	add    %al,0x93b05
    1428:	00 3e                	add    %bh,(%esi)
    142a:	11 26                	adc    %esp,(%esi)
    142c:	00 00                	add    %al,(%eax)
    142e:	00 01                	add    %al,(%ecx)
    1430:	06                   	push   %es
    1431:	05 dc 08 00 00       	add    $0x8dc,%eax
    1436:	3f                   	aas
    1437:	11 26                	adc    %esp,(%esi)
    1439:	00 00                	add    %al,(%eax)
    143b:	00 01                	add    %al,(%ecx)
    143d:	07                   	pop    %es
    143e:	00 0c bd 08 00 00 01 	add    %cl,0x1000008(,%edi,4)
    1445:	03 2d 09 05 00 00    	add    0x509,%ebp
    144b:	04 a2                	add    $0xa2,%al
    144d:	04 00                	add    $0x0,%al
    144f:	00 03                	add    %al,(%ebx)
    1451:	72 61                	jb     14b4 <mbh-0x2feb4c>
    1453:	77 00                	ja     1455 <mbh-0x2febab>
    1455:	03 43 0c             	add    0xc(%ebx),%eax
    1458:	26 00 00             	add    %al,%es:(%eax)
    145b:	00 00                	add    %al,(%eax)
    145d:	01 e2                	add    %esp,%edx
    145f:	08 00                	or     %al,(%eax)
    1461:	00 03                	add    %al,(%ebx)
    1463:	45                   	inc    %ebp
    1464:	1b eb                	sbb    %ebx,%ebp
    1466:	04 00                	add    $0x0,%al
    1468:	00 07                	add    %al,(%edi)
    146a:	01 03                	add    %eax,(%ebx)
    146c:	56                   	push   %esi
    146d:	04 83                	add    $0x83,%al
    146f:	05 00 00 05 4d       	add    $0x4d050000,%eax
    1474:	08 00                	or     %al,(%eax)
    1476:	00 58 11             	add    %bl,0x11(%eax)
    1479:	26 00 00             	add    %al,%es:(%eax)
    147c:	00 01                	add    %al,(%ecx)
    147e:	00 05 36 08 00 00    	add    %al,0x836
    1484:	59                   	pop    %ecx
    1485:	11 26                	adc    %esp,(%esi)
    1487:	00 00                	add    %al,(%eax)
    1489:	00 01                	add    %al,(%ecx)
    148b:	01 08                	add    %ecx,(%eax)
    148d:	6c                   	insb   (%dx),%es:(%edi)
    148e:	73 72                	jae    1502 <mbh-0x2feafe>
    1490:	00 5a 11             	add    %bl,0x11(%edx)
    1493:	26 00 00             	add    %al,%es:(%eax)
    1496:	00 02                	add    %al,(%edx)
    1498:	08 6d 73             	or     %ch,0x73(%ebp)
    149b:	72 00                	jb     149d <mbh-0x2feb63>
    149d:	5b                   	pop    %ebx
    149e:	11 26                	adc    %esp,(%esi)
    14a0:	00 00                	add    %al,(%eax)
    14a2:	00 03                	add    %al,(%ebx)
    14a4:	05 d1 08 00 00       	add    $0x8d1,%eax
    14a9:	5c                   	pop    %esp
    14aa:	11 26                	adc    %esp,(%esi)
    14ac:	00 00                	add    %al,(%eax)
    14ae:	00 01                	add    %al,(%ecx)
    14b0:	04 05                	add    $0x5,%al
    14b2:	3b 08                	cmp    (%eax),%ecx
    14b4:	00 00                	add    %al,(%eax)
    14b6:	5d                   	pop    %ebp
    14b7:	11 26                	adc    %esp,(%esi)
    14b9:	00 00                	add    %al,(%eax)
    14bb:	00 01                	add    %al,(%ecx)
    14bd:	05 08 72 74 73       	add    $0x73747208,%eax
    14c2:	00 5e 11             	add    %bl,0x11(%esi)
    14c5:	26 00 00             	add    %al,%es:(%eax)
    14c8:	00 06                	add    %al,(%esi)
    14ca:	08 63 74             	or     %ah,0x74(%ebx)
    14cd:	73 00                	jae    14cf <mbh-0x2feb31>
    14cf:	5f                   	pop    %edi
    14d0:	11 26                	adc    %esp,(%esi)
    14d2:	00 00                	add    %al,(%eax)
    14d4:	00 07                	add    %al,(%edi)
    14d6:	00 0c 5d 08 00 00 01 	add    %cl,0x1000008(,%ebx,2)
    14dd:	03 54 a1 05          	add    0x5(%ecx,%eiz,4),%edx
    14e1:	00 00                	add    %al,(%eax)
    14e3:	04 15                	add    $0x15,%al
    14e5:	05 00 00 03 72       	add    $0x72030000,%eax
    14ea:	61                   	popa
    14eb:	77 00                	ja     14ed <mbh-0x2feb13>
    14ed:	03 63 0c             	add    0xc(%ebx),%esp
    14f0:	26 00 00             	add    %al,%es:(%eax)
    14f3:	00 00                	add    %al,(%eax)
    14f5:	01 2a                	add    %ebp,(%edx)
    14f7:	09 00                	or     %eax,(%eax)
    14f9:	00 03                	add    %al,(%ebx)
    14fb:	65 1b 83 05 00 00 07 	sbb    %gs:0x7000005(%ebx),%eax
    1502:	01 03                	add    %eax,(%ebx)
    1504:	a8 04                	test   $0x4,%al
    1506:	00 06                	add    %al,(%esi)
    1508:	00 00                	add    %al,(%eax)
    150a:	05 f3 08 00 00       	add    $0x8f3,%eax
    150f:	aa                   	stos   %al,%es:(%edi)
    1510:	11 26                	adc    %esp,(%esi)
    1512:	00 00                	add    %al,(%eax)
    1514:	00 01                	add    %al,(%ecx)
    1516:	00 08                	add    %cl,(%eax)
    1518:	72 78                	jb     1592 <mbh-0x2fea6e>
    151a:	00 ab 11 26 00 00    	add    %ch,0x2611(%ebx)
    1520:	00 01                	add    %al,(%ecx)
    1522:	08 74 78 00          	or     %dh,0x0(%eax,%edi,2)
    1526:	ac                   	lods   %ds:(%esi),%al
    1527:	11 26                	adc    %esp,(%esi)
    1529:	00 00                	add    %al,(%eax)
    152b:	00 02                	add    %al,(%edx)
    152d:	08 64 6d 61          	or     %ah,0x61(%ebp,%ebp,2)
    1531:	00 ad 11 26 00 00    	add    %ch,0x2611(%ebp)
    1537:	00 03                	add    %al,(%ebx)
    1539:	05 56 09 00 00       	add    $0x956,%eax
    153e:	ae                   	scas   %es:(%edi),%al
    153f:	11 26                	adc    %esp,(%esi)
    1541:	00 00                	add    %al,(%eax)
    1543:	00 02                	add    %al,(%edx)
    1545:	04 05                	add    $0x5,%al
    1547:	52                   	push   %edx
    1548:	08 00                	or     %al,(%eax)
    154a:	00 af 11 26 00 00    	add    %ch,0x2611(%edi)
    1550:	00 02                	add    %al,(%edx)
    1552:	06                   	push   %es
    1553:	00 0c 91             	add    %cl,(%ecx,%edx,4)
    1556:	08 00                	or     %al,(%eax)
    1558:	00 01                	add    %al,(%ecx)
    155a:	03 a6 1e 06 00 00    	add    0x61e(%esi),%esp
    1560:	04 ad                	add    $0xad,%al
    1562:	05 00 00 03 72       	add    $0x72030000,%eax
    1567:	61                   	popa
    1568:	77 00                	ja     156a <mbh-0x2fea96>
    156a:	03 b3 0c 26 00 00    	add    0x260c(%ebx),%esi
    1570:	00 00                	add    %al,(%eax)
    1572:	01 a5 08 00 00 03    	add    %esp,0x3000008(%ebp)
    1578:	b5 1b                	mov    $0x1b,%ch
    157a:	00 06                	add    %al,(%esi)
    157c:	00 00                	add    %al,(%eax)
    157e:	07                   	pop    %es
    157f:	01 03                	add    %eax,(%ebx)
    1581:	bd 04 73 06 00       	mov    $0x67304,%ebp
    1586:	00 05 4d 09 00 00    	add    %al,0x94d
    158c:	bf 10 26 00 00       	mov    $0x2610,%edi
    1591:	00 02                	add    %al,(%edx)
    1593:	00 05 d7 08 00 00    	add    %al,0x8d7
    1599:	c0 10 26             	rclb   $0x26,(%eax)
    159c:	00 00                	add    %al,(%eax)
    159e:	00 01                	add    %al,(%ecx)
    15a0:	02 05 b6 08 00 00    	add    0x8b6,%al
    15a6:	c1 10 26             	rcll   $0x26,(%eax)
    15a9:	00 00                	add    %al,(%eax)
    15ab:	00 03                	add    %al,(%ebx)
    15ad:	03 08                	add    (%eax),%ecx
    15af:	62 72 6b             	bound  %esi,0x6b(%edx)
    15b2:	00 c6                	add    %al,%dh
    15b4:	10 26                	adc    %ah,(%esi)
    15b6:	00 00                	add    %al,(%eax)
    15b8:	00 06                	add    %al,(%esi)
    15ba:	08 64 6c 61          	or     %ah,0x61(%esp,%ebp,2)
    15be:	00 c7                	add    %al,%bh
    15c0:	10 26                	adc    %ah,(%esi)
    15c2:	00 00                	add    %al,(%eax)
    15c4:	00 07                	add    %al,(%edi)
    15c6:	00 0c 22             	add    %cl,(%edx,%eiz,1)
    15c9:	08 00                	or     %al,(%eax)
    15cb:	00 01                	add    %al,(%ecx)
    15cd:	03 bb 91 06 00 00    	add    0x691(%ebx),%edi
    15d3:	04 2a                	add    $0x2a,%al
    15d5:	06                   	push   %es
    15d6:	00 00                	add    %al,(%eax)
    15d8:	03 72 61             	add    0x61(%edx),%esi
    15db:	77 00                	ja     15dd <mbh-0x2fea23>
    15dd:	03 cb                	add    %ebx,%ecx
    15df:	0c 26                	or     $0x26,%al
    15e1:	00 00                	add    %al,(%eax)
    15e3:	00 00                	add    %al,(%eax)
    15e5:	01 10                	add    %edx,(%eax)
    15e7:	09 00                	or     %eax,(%eax)
    15e9:	00 03                	add    %al,(%ebx)
    15eb:	cd 1b                	int    $0x1b
    15ed:	73 06                	jae    15f5 <mbh-0x2fea0b>
    15ef:	00 00                	add    %al,(%eax)
    15f1:	1c fe                	sbb    $0xfe,%al
    15f3:	05 00 00 01 72       	add    $0x72010000,%eax
    15f8:	06                   	push   %es
    15f9:	03 3b                	add    (%ebx),%edi
    15fb:	30 00                	xor    %al,(%eax)
    15fd:	41                   	inc    %ecx
    15fe:	00 00                	add    %al,(%eax)
    1600:	00 01                	add    %al,(%ecx)
    1602:	9c                   	pushf
    1603:	d8 06                	fadds  (%esi)
    1605:	00 00                	add    %al,(%eax)
    1607:	06                   	push   %es
    1608:	73 00                	jae    160a <mbh-0x2fe9f6>
    160a:	74 0b                	je     1617 <mbh-0x2fe9e9>
    160c:	ca 00 00             	lret   $0x0
    160f:	00 02                	add    %al,(%edx)
    1611:	91                   	xchg   %eax,%ecx
    1612:	74 10                	je     1624 <mbh-0x2fe9dc>
    1614:	12 3b                	adc    (%ebx),%bh
    1616:	30 00                	xor    %al,(%eax)
    1618:	0f 00 00             	sldt   (%eax)
    161b:	00 06                	add    %al,(%esi)
    161d:	5f                   	pop    %edi
    161e:	64 5f                	fs pop %edi
    1620:	00 77 0a             	add    %dh,0xa(%edi)
    1623:	26 00 00             	add    %al,%es:(%eax)
    1626:	00 02                	add    %al,(%edx)
    1628:	91                   	xchg   %eax,%ecx
    1629:	73 00                	jae    162b <mbh-0x2fe9d5>
    162b:	00 16                	add    %dl,(%esi)
    162d:	86 08                	xchg   %cl,(%eax)
    162f:	00 00                	add    %al,(%eax)
    1631:	67 ca 00 00          	addr16 lret $0x0
    1635:	00 d7                	add    %dl,%bh
    1637:	3a 30                	cmp    (%eax),%dh
    1639:	00 2c 00             	add    %ch,(%eax,%eax,1)
    163c:	00 00                	add    %al,(%eax)
    163e:	01 9c 19 07 00 00 0d 	add    %ebx,0xd000007(%ecx,%ebx,1)
    1645:	09 07                	or     %eax,(%edi)
    1647:	00 00                	add    %al,(%eax)
    1649:	67 1c 43             	addr16 sbb $0x43,%al
    164c:	04 00                	add    $0x0,%al
    164e:	00 02                	add    %al,(%edx)
    1650:	91                   	xchg   %eax,%ecx
    1651:	00 0e                	add    %cl,(%esi)
    1653:	6e                   	outsb  %ds:(%esi),(%dx)
    1654:	00 67 29             	add    %ah,0x29(%edi)
    1657:	ca 00 00             	lret   $0x0
    165a:	00 02                	add    %al,(%edx)
    165c:	91                   	xchg   %eax,%ecx
    165d:	04 06                	add    $0x6,%al
    165f:	62 75 66             	bound  %esi,0x66(%ebp)
    1662:	00 69 0d             	add    %ch,0xd(%ecx)
    1665:	96                   	xchg   %eax,%esi
    1666:	04 00                	add    $0x0,%al
    1668:	00 02                	add    %al,(%edx)
    166a:	91                   	xchg   %eax,%ecx
    166b:	6c                   	insb   (%dx),%es:(%edi)
    166c:	00 16                	add    %dl,(%esi)
    166e:	43                   	inc    %ebx
    166f:	09 00                	or     %eax,(%eax)
    1671:	00 5c ca 00          	add    %bl,0x0(%edx,%ecx,8)
    1675:	00 00                	add    %al,(%eax)
    1677:	ab                   	stos   %eax,%es:(%edi)
    1678:	3a 30                	cmp    (%eax),%dh
    167a:	00 2c 00             	add    %ch,(%eax,%eax,1)
    167d:	00 00                	add    %al,(%eax)
    167f:	01 9c 5a 07 00 00 0d 	add    %ebx,0xd000007(%edx,%ebx,2)
    1686:	09 07                	or     %eax,(%edi)
    1688:	00 00                	add    %al,(%eax)
    168a:	5c                   	pop    %esp
    168b:	1b 43 04             	sbb    0x4(%ebx),%eax
    168e:	00 00                	add    %al,(%eax)
    1690:	02 91 00 0e 6e 00    	add    0x6e0e00(%ecx),%dl
    1696:	5c                   	pop    %esp
    1697:	28 ca                	sub    %cl,%dl
    1699:	00 00                	add    %al,(%eax)
    169b:	00 02                	add    %al,(%edx)
    169d:	91                   	xchg   %eax,%ecx
    169e:	04 06                	add    $0x6,%al
    16a0:	62 75 66             	bound  %esi,0x66(%ebp)
    16a3:	00 5e 0d             	add    %bl,0xd(%esi)
    16a6:	96                   	xchg   %eax,%esi
    16a7:	04 00                	add    $0x0,%al
    16a9:	00 02                	add    %al,(%edx)
    16ab:	91                   	xchg   %eax,%ecx
    16ac:	6c                   	insb   (%dx),%es:(%edi)
    16ad:	00 15 84 08 00 00    	add    %dl,0x884
    16b3:	50                   	push   %eax
    16b4:	14 4e                	adc    $0x4e,%al
    16b6:	3a 30                	cmp    (%eax),%dh
    16b8:	00 5d 00             	add    %bl,0x0(%ebp)
    16bb:	00 00                	add    %al,(%eax)
    16bd:	01 9c b2 07 00 00 0d 	add    %ebx,0xd000007(%edx,%esi,4)
    16c4:	0b 09                	or     (%ecx),%ecx
    16c6:	00 00                	add    %al,(%eax)
    16c8:	50                   	push   %eax
    16c9:	2a 39                	sub    (%ecx),%bh
    16cb:	00 00                	add    %al,(%eax)
    16cd:	00 02                	add    %al,(%edx)
    16cf:	91                   	xchg   %eax,%ecx
    16d0:	64 0e                	fs push %cs
    16d2:	62 75 66             	bound  %esi,0x66(%ebp)
    16d5:	00 50 3a             	add    %dl,0x3a(%eax)
    16d8:	b2 07                	mov    $0x7,%dl
    16da:	00 00                	add    %al,(%eax)
    16dc:	02 91 04 0e 6d 61    	add    0x616d0e04(%ecx),%dl
    16e2:	78 00                	js     16e4 <mbh-0x2fe91c>
    16e4:	50                   	push   %eax
    16e5:	46                   	inc    %esi
    16e6:	ca 00 00             	lret   $0x0
    16e9:	00 02                	add    %al,(%edx)
    16eb:	91                   	xchg   %eax,%ecx
    16ec:	08 10                	or     %dl,(%eax)
    16ee:	5d                   	pop    %ebp
    16ef:	3a 30                	cmp    (%eax),%dh
    16f1:	00 11                	add    %dl,(%ecx)
    16f3:	00 00                	add    %al,(%eax)
    16f5:	00 06                	add    %al,(%esi)
    16f7:	5f                   	pop    %edi
    16f8:	64 5f                	fs pop %edi
    16fa:	00 54 0a 26          	add    %dl,0x26(%edx,%ecx,1)
    16fe:	00 00                	add    %al,(%eax)
    1700:	00 02                	add    %al,(%edx)
    1702:	91                   	xchg   %eax,%ecx
    1703:	77 00                	ja     1705 <mbh-0x2fe8fb>
    1705:	00 0b                	add    %cl,(%ebx)
    1707:	96                   	xchg   %eax,%esi
    1708:	04 00                	add    $0x0,%al
    170a:	00 15 41 09 00 00    	add    %dl,0x941
    1710:	47                   	inc    %edi
    1711:	14 ea                	adc    $0xea,%al
    1713:	39 30                	cmp    %esi,(%eax)
    1715:	00 64 00 00          	add    %ah,0x0(%eax,%eax,1)
    1719:	00 01                	add    %al,(%ecx)
    171b:	9c                   	pushf
    171c:	2b 08                	sub    (%eax),%ecx
    171e:	00 00                	add    %al,(%eax)
    1720:	0d 0b 09 00 00       	or     $0x90b,%eax
    1725:	47                   	inc    %edi
    1726:	29 39                	sub    %edi,(%ecx)
    1728:	00 00                	add    %al,(%eax)
    172a:	00 02                	add    %al,(%edx)
    172c:	91                   	xchg   %eax,%ecx
    172d:	64 0e                	fs push %cs
    172f:	62 75 66             	bound  %esi,0x66(%ebp)
    1732:	00 47 39             	add    %al,0x39(%edi)
    1735:	b2 07                	mov    $0x7,%dl
    1737:	00 00                	add    %al,(%eax)
    1739:	02 91 04 0e 6d 61    	add    0x616d0e04(%ecx),%dl
    173f:	78 00                	js     1741 <mbh-0x2fe8bf>
    1741:	47                   	inc    %edi
    1742:	45                   	inc    %ebp
    1743:	ca 00 00             	lret   $0x0
    1746:	00 02                	add    %al,(%edx)
    1748:	91                   	xchg   %eax,%ecx
    1749:	08 17                	or     %dl,(%edi)
    174b:	f9                   	stc
    174c:	39 30                	cmp    %esi,(%eax)
    174e:	00 0e                	add    %cl,(%esi)
    1750:	00 00                	add    %al,(%eax)
    1752:	00 12                	add    %dl,(%edx)
    1754:	08 00                	or     %al,(%eax)
    1756:	00 06                	add    %al,(%esi)
    1758:	5f                   	pop    %edi
    1759:	64 5f                	fs pop %edi
    175b:	00 4b 1f             	add    %cl,0x1f(%ebx)
    175e:	26 00 00             	add    %al,%es:(%eax)
    1761:	00 02                	add    %al,(%edx)
    1763:	91                   	xchg   %eax,%ecx
    1764:	76 00                	jbe    1766 <mbh-0x2fe89a>
    1766:	10 25 3a 30 00 11    	adc    %ah,0x1100303a
    176c:	00 00                	add    %al,(%eax)
    176e:	00 06                	add    %al,(%esi)
    1770:	5f                   	pop    %edi
    1771:	64 5f                	fs pop %edi
    1773:	00 49 0a             	add    %cl,0xa(%ecx)
    1776:	26 00 00             	add    %al,%es:(%eax)
    1779:	00 02                	add    %al,(%edx)
    177b:	91                   	xchg   %eax,%ecx
    177c:	77 00                	ja     177e <mbh-0x2fe882>
    177e:	00 1d 44 00 00 00    	add    %bl,0x44
    1784:	01 41 06             	add    %eax,0x6(%ecx)
    1787:	ca 39 30             	lret   $0x3039
    178a:	00 20                	add    %ah,(%eax)
    178c:	00 00                	add    %al,(%eax)
    178e:	00 01                	add    %al,(%ecx)
    1790:	9c                   	pushf
    1791:	1e                   	push   %ds
    1792:	71 08                	jno    179c <mbh-0x2fe864>
    1794:	00 00                	add    %al,(%eax)
    1796:	01 20                	add    %esp,(%eax)
    1798:	0d 5f 39 30 00       	or     $0x30395f,%eax
    179d:	6b 00 00             	imul   $0x0,(%eax),%eax
    17a0:	00 01                	add    %al,(%ecx)
    17a2:	9c                   	pushf
    17a3:	7e 08                	jle    17ad <mbh-0x2fe853>
    17a5:	00 00                	add    %al,(%eax)
    17a7:	0d 0b 09 00 00       	or     $0x90b,%eax
    17ac:	20 29                	and    %ch,(%ecx)
    17ae:	39 00                	cmp    %eax,(%eax)
    17b0:	00 00                	add    %al,(%eax)
    17b2:	02 91 64 06 69 65    	add    0x65690664(%ecx),%dl
    17b8:	72 00                	jb     17ba <mbh-0x2fe846>
    17ba:	22 16                	and    (%esi),%dl
    17bc:	a1 05 00 00 02       	mov    0x2000005,%eax
    17c1:	91                   	xchg   %eax,%ecx
    17c2:	77 06                	ja     17ca <mbh-0x2fe836>
    17c4:	6c                   	insb   (%dx),%es:(%edi)
    17c5:	63 72 00             	arpl   %esi,0x0(%edx)
    17c8:	23 16                	and    (%esi),%edx
    17ca:	91                   	xchg   %eax,%ecx
    17cb:	06                   	push   %es
    17cc:	00 00                	add    %al,(%eax)
    17ce:	02 91 76 00 15 fa    	add    -0x5eaff8a(%ecx),%dl
    17d4:	08 00                	or     %al,(%eax)
    17d6:	00 0a                	add    %cl,(%edx)
    17d8:	0d d7 38 30 00       	or     $0x3038d7,%eax
    17dd:	88 00                	mov    %al,(%eax)
    17df:	00 00                	add    %al,(%eax)
    17e1:	01 9c be 08 00 00 0d 	add    %ebx,0xd000008(%esi,%edi,4)
    17e8:	0b 09                	or     (%ecx),%ecx
    17ea:	00 00                	add    %al,(%eax)
    17ec:	0a 27                	or     (%edi),%ah
    17ee:	39 00                	cmp    %eax,(%eax)
    17f0:	00 00                	add    %al,(%eax)
    17f2:	02 91 64 06 66 63    	add    0x63660664(%ecx),%dl
    17f8:	72 00                	jb     17fa <mbh-0x2fe806>
    17fa:	0c 16                	or     $0x16,%al
    17fc:	1e                   	push   %ds
    17fd:	06                   	push   %es
    17fe:	00 00                	add    %al,(%eax)
    1800:	02 91 77 06 65 66    	add    0x66650677(%ecx),%dl
    1806:	72 00                	jb     1808 <mbh-0x2fe7f8>
    1808:	0d 16 09 05 00       	or     $0x50916,%eax
    180d:	00 02                	add    %al,(%edx)
    180f:	91                   	xchg   %eax,%ecx
    1810:	76 00                	jbe    1812 <mbh-0x2fe7ee>
    1812:	1f                   	pop    %ds
    1813:	40                   	inc    %eax
    1814:	08 00                	or     %al,(%eax)
    1816:	00 01                	add    %al,(%ecx)
    1818:	04 0d                	add    $0xd,%al
    181a:	9f                   	lahf
    181b:	38 30                	cmp    %dh,(%eax)
    181d:	00 38                	add    %bh,(%eax)
    181f:	00 00                	add    %al,(%eax)
    1821:	00 01                	add    %al,(%ecx)
    1823:	9c                   	pushf
    1824:	0d 0b 09 00 00       	or     $0x90b,%eax
    1829:	04 28                	add    $0x28,%al
    182b:	39 00                	cmp    %eax,(%eax)
    182d:	00 00                	add    %al,(%eax)
    182f:	02 91 64 17 ae 38    	add    0x38ae1764(%ecx),%dl
    1835:	30 00                	xor    %al,(%eax)
    1837:	0a 00                	or     (%eax),%al
    1839:	00 00                	add    %al,(%eax)
    183b:	fa                   	cli
    183c:	08 00                	or     %al,(%eax)
    183e:	00 06                	add    %al,(%esi)
    1840:	5f                   	pop    %edi
    1841:	64 5f                	fs pop %edi
    1843:	00 07                	add    %al,(%edi)
    1845:	07                   	pop    %es
    1846:	26 00 00             	add    %al,%es:(%eax)
    1849:	00 02                	add    %al,(%edx)
    184b:	91                   	xchg   %eax,%ecx
    184c:	76 00                	jbe    184e <mbh-0x2fe7b2>
    184e:	10 b8 38 30 00 11    	adc    %bh,0x11003038(%eax)
    1854:	00 00                	add    %al,(%eax)
    1856:	00 06                	add    %al,(%esi)
    1858:	5f                   	pop    %edi
    1859:	64 5f                	fs pop %edi
    185b:	00 06                	add    %al,(%esi)
    185d:	0a 26                	or     (%esi),%ah
    185f:	00 00                	add    %al,(%eax)
    1861:	00 02                	add    %al,(%edx)
    1863:	91                   	xchg   %eax,%ecx
    1864:	77 00                	ja     1866 <mbh-0x2fe79a>
    1866:	00 00                	add    %al,(%eax)
    1868:	bc 02 00 00 05       	mov    $0x5000002,%esp
    186d:	00 01                	add    %al,(%ecx)
    186f:	04 f7                	add    $0xf7,%al
    1871:	05 00 00 0b 1d       	add    $0x1d0b0000,%eax
    1876:	04 00                	add    $0x0,%al
    1878:	00 1d d5 00 00 00    	add    %bl,0xd5
    187e:	00 00                	add    %al,(%eax)
    1880:	00 00                	add    %al,(%eax)
    1882:	44                   	inc    %esp
    1883:	3b 30                	cmp    (%eax),%esi
    1885:	00 88 00 00 00 99    	add    %cl,-0x67000000(%eax)
    188b:	05 00 00 03 f2       	add    $0xf2030000,%eax
    1890:	03 00                	add    (%eax),%eax
    1892:	00 03                	add    %al,(%ebx)
    1894:	1a 20                	sbb    (%eax),%ah
    1896:	32 00                	xor    (%eax),%al
    1898:	00 00                	add    %al,(%eax)
    189a:	02 01                	add    (%ecx),%al
    189c:	08 d7                	or     %dl,%bh
    189e:	01 00                	add    %eax,(%eax)
    18a0:	00 02                	add    %al,(%edx)
    18a2:	02 07                	add    (%edi),%al
    18a4:	79 02                	jns    18a8 <mbh-0x2fe758>
    18a6:	00 00                	add    %al,(%eax)
    18a8:	02 04 07             	add    (%edi,%eax,1),%al
    18ab:	1b 02                	sbb    (%edx),%eax
    18ad:	00 00                	add    %al,(%eax)
    18af:	02 08                	add    (%eax),%cl
    18b1:	07                   	pop    %es
    18b2:	11 02                	adc    %eax,(%edx)
    18b4:	00 00                	add    %al,(%eax)
    18b6:	02 01                	add    (%ecx),%al
    18b8:	06                   	push   %es
    18b9:	d9 01                	flds   (%ecx)
    18bb:	00 00                	add    %al,(%eax)
    18bd:	02 02                	add    (%edx),%al
    18bf:	05 a9 00 00 00       	add    $0xa9,%eax
    18c4:	0c 04                	or     $0x4,%al
    18c6:	05 69 6e 74 00       	add    $0x746e69,%eax
    18cb:	02 08                	add    (%eax),%cl
    18cd:	05 66 01 00 00       	add    $0x166,%eax
    18d2:	02 01                	add    (%ecx),%al
    18d4:	06                   	push   %es
    18d5:	e0 01                	loopne 18d8 <mbh-0x2fe728>
    18d7:	00 00                	add    %al,(%eax)
    18d9:	02 04 07             	add    (%edi,%eax,1),%al
    18dc:	16                   	push   %ss
    18dd:	02 00                	add    (%eax),%al
    18df:	00 04 46             	add    %al,(%esi,%eax,2)
    18e2:	cc                   	int3
    18e3:	00 00                	add    %al,(%eax)
    18e5:	00 01                	add    %al,(%ecx)
    18e7:	da 09                	fimull (%ecx)
    18e9:	00 00                	add    %al,(%eax)
    18eb:	48                   	dec    %eax
    18ec:	11 26                	adc    %esp,(%esi)
    18ee:	00 00                	add    %al,(%eax)
    18f0:	00 01                	add    %al,(%ecx)
    18f2:	00 01                	add    %al,(%ecx)
    18f4:	c9                   	leave
    18f5:	09 00                	or     %eax,(%eax)
    18f7:	00 49 11             	add    %cl,0x11(%ecx)
    18fa:	26 00 00             	add    %al,%es:(%eax)
    18fd:	00 01                	add    %al,(%ecx)
    18ff:	01 01                	add    %eax,(%ecx)
    1901:	55                   	push   %ebp
    1902:	0a 00                	or     (%eax),%al
    1904:	00 4a 11             	add    %cl,0x11(%edx)
    1907:	26 00 00             	add    %al,%es:(%eax)
    190a:	00 01                	add    %al,(%ecx)
    190c:	02 01                	add    (%ecx),%al
    190e:	25 0a 00 00 4b       	and    $0x4b00000a,%eax
    1913:	11 26                	adc    %esp,(%esi)
    1915:	00 00                	add    %al,(%eax)
    1917:	00 01                	add    %al,(%ecx)
    1919:	03 05 6f 6e 65 00    	add    0x656e6f,%eax
    191f:	4c                   	dec    %esp
    1920:	26 00 00             	add    %al,%es:(%eax)
    1923:	00 01                	add    %al,(%ecx)
    1925:	04 01                	add    $0x1,%al
    1927:	50                   	push   %eax
    1928:	0a 00                	or     (%eax),%al
    192a:	00 4d 11             	add    %cl,0x11(%ebp)
    192d:	26 00 00             	add    %al,%es:(%eax)
    1930:	00 03                	add    %al,(%ebx)
    1932:	05 00 06 6c 09       	add    $0x96c0600,%eax
    1937:	00 00                	add    %al,(%eax)
    1939:	44                   	inc    %esp
    193a:	e7 00                	out    %eax,$0x0
    193c:	00 00                	add    %al,(%eax)
    193e:	09 78 00             	or     %edi,0x0(%eax)
    1941:	00 00                	add    %al,(%eax)
    1943:	07                   	pop    %es
    1944:	72 61                	jb     19a7 <mbh-0x2fe659>
    1946:	77 00                	ja     1948 <mbh-0x2fe6b8>
    1948:	51                   	push   %ecx
    1949:	0c 26                	or     $0x26,%al
    194b:	00 00                	add    %al,(%eax)
    194d:	00 00                	add    %al,(%eax)
    194f:	03 61 09             	add    0x9(%ecx),%esp
    1952:	00 00                	add    %al,(%eax)
    1954:	02 53 1b             	add    0x1b(%ebx),%dl
    1957:	cc                   	int3
    1958:	00 00                	add    %al,(%eax)
    195a:	00 04 6c             	add    %al,(%esp,%ebp,2)
    195d:	14 01                	adc    $0x1,%al
    195f:	00 00                	add    %al,(%eax)
    1961:	01 61 0a             	add    %esp,0xa(%ecx)
    1964:	00 00                	add    %al,(%eax)
    1966:	6e                   	outsb  %ds:(%esi),(%dx)
    1967:	10 26                	adc    %ah,(%esi)
    1969:	00 00                	add    %al,(%eax)
    196b:	00 03                	add    %al,(%ebx)
    196d:	00 01                	add    %al,(%ecx)
    196f:	e6 09                	out    %al,$0x9
    1971:	00 00                	add    %al,(%eax)
    1973:	6f                   	outsl  %ds:(%esi),(%dx)
    1974:	10 26                	adc    %ah,(%esi)
    1976:	00 00                	add    %al,(%eax)
    1978:	00 05 03 00 06 84    	add    %al,0x84060003
    197e:	09 00                	or     %eax,(%eax)
    1980:	00 6a 2f             	add    %ch,0x2f(%edx)
    1983:	01 00                	add    %eax,(%eax)
    1985:	00 09                	add    %cl,(%ecx)
    1987:	f3 00 00             	repz add %al,(%eax)
    198a:	00 07                	add    %al,(%edi)
    198c:	72 61                	jb     19ef <mbh-0x2fe611>
    198e:	77 00                	ja     1990 <mbh-0x2fe670>
    1990:	73 0c                	jae    199e <mbh-0x2fe662>
    1992:	26 00 00             	add    %al,%es:(%eax)
    1995:	00 00                	add    %al,(%eax)
    1997:	03 40 0a             	add    0xa(%eax),%eax
    199a:	00 00                	add    %al,(%eax)
    199c:	02 75 1b             	add    0x1b(%ebp),%dh
    199f:	14 01                	adc    $0x1,%al
    19a1:	00 00                	add    %al,(%eax)
    19a3:	04 7e                	add    $0x7e,%al
    19a5:	aa                   	stos   %al,%es:(%edi)
    19a6:	01 00                	add    %eax,(%eax)
    19a8:	00 01                	add    %al,(%ecx)
    19aa:	9c                   	pushf
    19ab:	09 00                	or     %eax,(%eax)
    19ad:	00 80 11 26 00 00    	add    %al,0x2611(%eax)
    19b3:	00 01                	add    %al,(%ecx)
    19b5:	00 01                	add    %al,(%ecx)
    19b7:	a1 09 00 00 81       	mov    0x81000009,%eax
    19bc:	11 26                	adc    %esp,(%esi)
    19be:	00 00                	add    %al,(%eax)
    19c0:	00 01                	add    %al,(%ecx)
    19c2:	01 01                	add    %eax,(%ecx)
    19c4:	a6                   	cmpsb  %es:(%edi),%ds:(%esi)
    19c5:	09 00                	or     %eax,(%eax)
    19c7:	00 82 11 26 00 00    	add    %al,0x2611(%edx)
    19cd:	00 01                	add    %al,(%ecx)
    19cf:	02 01                	add    (%ecx),%al
    19d1:	ab                   	stos   %eax,%es:(%edi)
    19d2:	09 00                	or     %eax,(%eax)
    19d4:	00 83 11 26 00 00    	add    %al,0x2611(%ebx)
    19da:	00 01                	add    %al,(%ecx)
    19dc:	03 01                	add    (%ecx),%eax
    19de:	b0 09                	mov    $0x9,%al
    19e0:	00 00                	add    %al,(%eax)
    19e2:	84 11                	test   %dl,(%ecx)
    19e4:	26 00 00             	add    %al,%es:(%eax)
    19e7:	00 01                	add    %al,(%ecx)
    19e9:	04 01                	add    $0x1,%al
    19eb:	b5 09                	mov    $0x9,%ch
    19ed:	00 00                	add    %al,(%eax)
    19ef:	85 11                	test   %edx,(%ecx)
    19f1:	26 00 00             	add    %al,%es:(%eax)
    19f4:	00 01                	add    %al,(%ecx)
    19f6:	05 01 ba 09 00       	add    $0x9ba01,%eax
    19fb:	00 86 11 26 00 00    	add    %al,0x2611(%esi)
    1a01:	00 01                	add    %al,(%ecx)
    1a03:	06                   	push   %es
    1a04:	01 bf 09 00 00 87    	add    %edi,-0x78fffff7(%edi)
    1a0a:	11 26                	adc    %esp,(%esi)
    1a0c:	00 00                	add    %al,(%eax)
    1a0e:	00 01                	add    %al,(%ecx)
    1a10:	07                   	pop    %es
    1a11:	00 04 8a             	add    %al,(%edx,%ecx,4)
    1a14:	c9                   	leave
    1a15:	01 00                	add    %eax,(%eax)
    1a17:	00 05 69 64 00 8c    	add    %al,0x8c006469
    1a1d:	26 00 00             	add    %al,%es:(%eax)
    1a20:	00 03                	add    %al,(%ebx)
    1a22:	00 01                	add    %al,(%ecx)
    1a24:	61                   	popa
    1a25:	0a 00                	or     (%eax),%al
    1a27:	00 8d 11 26 00 00    	add    %cl,0x2611(%ebp)
    1a2d:	00 05 03 00 06 f5    	add    %al,0xf5060003
    1a33:	09 00                	or     %eax,(%eax)
    1a35:	00 7c f3 01          	add    %bh,0x1(%ebx,%esi,8)
    1a39:	00 00                	add    %al,(%eax)
    1a3b:	0a df                	or     %bh,%bl
    1a3d:	09 00                	or     %eax,(%eax)
    1a3f:	00 88 3b 01 00 00    	add    %cl,0x13b(%eax)
    1a45:	0a ef                	or     %bh,%ch
    1a47:	09 00                	or     %eax,(%eax)
    1a49:	00 8e aa 01 00 00    	add    %cl,0x1aa(%esi)
    1a4f:	07                   	pop    %es
    1a50:	72 61                	jb     1ab3 <mbh-0x2fe54d>
    1a52:	77 00                	ja     1a54 <mbh-0x2fe5ac>
    1a54:	90                   	nop
    1a55:	11 26                	adc    %esp,(%esi)
    1a57:	00 00                	add    %al,(%eax)
    1a59:	00 00                	add    %al,(%eax)
    1a5b:	03 35 0a 00 00 02    	add    0x200000a,%esi
    1a61:	92                   	xchg   %eax,%edx
    1a62:	1b c9                	sbb    %ecx,%ecx
    1a64:	01 00                	add    %eax,(%eax)
    1a66:	00 04 99             	add    %al,(%ecx,%ebx,4)
    1a69:	51                   	push   %ecx
    1a6a:	02 00                	add    (%eax),%al
    1a6c:	00 05 78 38 36 00    	add    %al,0x363878
    1a72:	9b                   	fwait
    1a73:	26 00 00             	add    %al,%es:(%eax)
    1a76:	00 01                	add    %al,(%ecx)
    1a78:	00 01                	add    %al,(%ecx)
    1a7a:	c4 09                	les    (%ecx),%ecx
    1a7c:	00 00                	add    %al,(%eax)
    1a7e:	9c                   	pushf
    1a7f:	11 26                	adc    %esp,(%esi)
    1a81:	00 00                	add    %al,(%eax)
    1a83:	00 01                	add    %al,(%ecx)
    1a85:	01 05 6d 73 00 9d    	add    %eax,0x9d00736d
    1a8b:	26 00 00             	add    %al,%es:(%eax)
    1a8e:	00 01                	add    %al,(%ecx)
    1a90:	02 01                	add    (%ecx),%al
    1a92:	53                   	push   %ebx
    1a93:	06                   	push   %es
    1a94:	00 00                	add    %al,(%eax)
    1a96:	9e                   	sahf
    1a97:	11 26                	adc    %esp,(%esi)
    1a99:	00 00                	add    %al,(%eax)
    1a9b:	00 01                	add    %al,(%ecx)
    1a9d:	03 01                	add    (%ecx),%eax
    1a9f:	5c                   	pop    %esp
    1aa0:	0a 00                	or     (%eax),%al
    1aa2:	00 9f 11 26 00 00    	add    %bl,0x2611(%edi)
    1aa8:	00 01                	add    %al,(%ecx)
    1aaa:	04 01                	add    $0x1,%al
    1aac:	61                   	popa
    1aad:	0a 00                	or     (%eax),%al
    1aaf:	00 a0 11 26 00 00    	add    %ah,0x2611(%eax)
    1ab5:	00 03                	add    %al,(%ebx)
    1ab7:	05 00 06 0d 0a       	add    $0xa0d0600,%eax
    1abc:	00 00                	add    %al,(%eax)
    1abe:	97                   	xchg   %eax,%edi
    1abf:	6c                   	insb   (%dx),%es:(%edi)
    1ac0:	02 00                	add    (%eax),%al
    1ac2:	00 09                	add    %cl,(%ecx)
    1ac4:	ff 01                	incl   (%ecx)
    1ac6:	00 00                	add    %al,(%eax)
    1ac8:	07                   	pop    %es
    1ac9:	72 61                	jb     1b2c <mbh-0x2fe4d4>
    1acb:	77 00                	ja     1acd <mbh-0x2fe533>
    1acd:	a4                   	movsb  %ds:(%esi),%es:(%edi)
    1ace:	0c 26                	or     $0x26,%al
    1ad0:	00 00                	add    %al,(%eax)
    1ad2:	00 00                	add    %al,(%eax)
    1ad4:	03 2a                	add    (%edx),%ebp
    1ad6:	0a 00                	or     (%eax),%al
    1ad8:	00 02                	add    %al,(%edx)
    1ada:	a6                   	cmpsb  %es:(%edi),%ds:(%esi)
    1adb:	1b 51 02             	sbb    0x2(%ecx),%edx
    1ade:	00 00                	add    %al,(%eax)
    1ae0:	0d 28 01 00 00       	or     $0x128,%eax
    1ae5:	01 04 06             	add    %eax,(%esi,%eax,1)
    1ae8:	44                   	inc    %esp
    1ae9:	3b 30                	cmp    (%eax),%esi
    1aeb:	00 88 00 00 00 01    	add    %cl,0x1000000(%eax)
    1af1:	9c                   	pushf
    1af2:	08 4b 0a             	or     %cl,0xa(%ebx)
    1af5:	00 00                	add    %al,(%eax)
    1af7:	06                   	push   %es
    1af8:	e7 00                	out    %eax,$0x0
    1afa:	00 00                	add    %al,(%eax)
    1afc:	02 91 77 08 d0 09    	add    0x9d00877(%ecx),%dl
    1b02:	00 00                	add    %al,(%eax)
    1b04:	07                   	pop    %es
    1b05:	2f                   	das
    1b06:	01 00                	add    %eax,(%eax)
    1b08:	00 02                	add    %al,(%edx)
    1b0a:	91                   	xchg   %eax,%ecx
    1b0b:	76 08                	jbe    1b15 <mbh-0x2fe4eb>
    1b0d:	d5 09                	aad    $0x9
    1b0f:	00 00                	add    %al,(%eax)
    1b11:	08 f3                	or     %dh,%bl
    1b13:	01 00                	add    %eax,(%eax)
    1b15:	00 02                	add    %al,(%edx)
    1b17:	91                   	xchg   %eax,%ecx
    1b18:	75 08                	jne    1b22 <mbh-0x2fe4de>
    1b1a:	da 09                	fimull (%ecx)
    1b1c:	00 00                	add    %al,(%eax)
    1b1e:	09 6c 02 00          	or     %ebp,0x0(%edx,%eax,1)
    1b22:	00 02                	add    %al,(%edx)
    1b24:	91                   	xchg   %eax,%ecx
    1b25:	74 00                	je     1b27 <mbh-0x2fe4d9>
    1b27:	00 e4                	add    %ah,%ah
    1b29:	08 00                	or     %al,(%eax)
    1b2b:	00 05 00 01 04 d1    	add    %al,0xd1040100
    1b31:	06                   	push   %es
    1b32:	00 00                	add    %al,(%eax)
    1b34:	16                   	push   %ss
    1b35:	1d 04 00 00 1d       	sbb    $0x1d000004,%eax
    1b3a:	ea 00 00 00 00 00 00 	ljmp   $0x0,$0x0
    1b41:	00 cc                	add    %cl,%ah
    1b43:	3b 30                	cmp    (%eax),%esi
    1b45:	00 ad 01 00 00 23    	add    %ch,0x23000001(%ebp)
    1b4b:	06                   	push   %es
    1b4c:	00 00                	add    %al,(%eax)
    1b4e:	02 f2                	add    %dl,%dh
    1b50:	03 00                	add    (%eax),%eax
    1b52:	00 02                	add    %al,(%edx)
    1b54:	1a 20                	sbb    (%eax),%ah
    1b56:	32 00                	xor    (%eax),%al
    1b58:	00 00                	add    %al,(%eax)
    1b5a:	08 01                	or     %al,(%ecx)
    1b5c:	08 d7                	or     %dl,%bh
    1b5e:	01 00                	add    %eax,(%eax)
    1b60:	00 02                	add    %al,(%edx)
    1b62:	17                   	pop    %ss
    1b63:	01 00                	add    %eax,(%eax)
    1b65:	00 02                	add    %al,(%edx)
    1b67:	1b 20                	sbb    (%eax),%esp
    1b69:	45                   	inc    %ebp
    1b6a:	00 00                	add    %al,(%eax)
    1b6c:	00 08                	add    %cl,(%eax)
    1b6e:	02 07                	add    (%edi),%al
    1b70:	79 02                	jns    1b74 <mbh-0x2fe48c>
    1b72:	00 00                	add    %al,(%eax)
    1b74:	02 a0 00 00 00 02    	add    0x2000000(%eax),%ah
    1b7a:	1c 20                	sbb    $0x20,%al
    1b7c:	58                   	pop    %eax
    1b7d:	00 00                	add    %al,(%eax)
    1b7f:	00 08                	add    %cl,(%eax)
    1b81:	04 07                	add    $0x7,%al
    1b83:	1b 02                	sbb    (%edx),%eax
    1b85:	00 00                	add    %al,(%eax)
    1b87:	02 96 02 00 00 02    	add    0x2000002(%esi),%dl
    1b8d:	1d 20 6b 00 00       	sbb    $0x6b20,%eax
    1b92:	00 08                	add    %cl,(%eax)
    1b94:	08 07                	or     %al,(%edi)
    1b96:	11 02                	adc    %eax,(%edx)
    1b98:	00 00                	add    %al,(%eax)
    1b9a:	08 01                	or     %al,(%ecx)
    1b9c:	06                   	push   %es
    1b9d:	d9 01                	flds   (%ecx)
    1b9f:	00 00                	add    %al,(%eax)
    1ba1:	02 54 07 00          	add    0x0(%edi,%eax,1),%dl
    1ba5:	00 02                	add    %al,(%edx)
    1ba7:	20 20                	and    %ah,(%eax)
    1ba9:	85 00                	test   %eax,(%eax)
    1bab:	00 00                	add    %al,(%eax)
    1bad:	08 02                	or     %al,(%edx)
    1baf:	05 a9 00 00 00       	add    $0xa9,%eax
    1bb4:	02 09                	add    (%ecx),%cl
    1bb6:	06                   	push   %es
    1bb7:	00 00                	add    %al,(%eax)
    1bb9:	02 21                	add    (%ecx),%ah
    1bbb:	20 98 00 00 00 17    	and    %bl,0x17000000(%eax)
    1bc1:	04 05                	add    $0x5,%al
    1bc3:	69 6e 74 00 02 f4 06 	imul   $0x6f40200,0x74(%esi),%ebp
    1bca:	00 00                	add    %al,(%eax)
    1bcc:	02 22                	add    (%edx),%ah
    1bce:	20 ab 00 00 00 08    	and    %ch,0x8000000(%ebx)
    1bd4:	08 05 66 01 00 00    	or     %al,0x166
    1bda:	08 01                	or     %al,(%ecx)
    1bdc:	06                   	push   %es
    1bdd:	e0 01                	loopne 1be0 <mbh-0x2fe420>
    1bdf:	00 00                	add    %al,(%eax)
    1be1:	18 b2 00 00 00 02    	sbb    %dh,0x2000000(%edx)
    1be7:	b3 00                	mov    $0x0,%bl
    1be9:	00 00                	add    %al,(%eax)
    1beb:	02 25 20 ca 00 00    	add    0xca20,%ah
    1bf1:	00 08                	add    %cl,(%eax)
    1bf3:	04 07                	add    $0x7,%al
    1bf5:	16                   	push   %ss
    1bf6:	02 00                	add    (%eax),%al
    1bf8:	00 02                	add    %al,(%edx)
    1bfa:	b4 07                	mov    $0x7,%ah
    1bfc:	00 00                	add    %al,(%eax)
    1bfe:	02 26                	add    (%esi),%ah
    1c00:	20 ca                	and    %cl,%dl
    1c02:	00 00                	add    %al,(%eax)
    1c04:	00 06                	add    %al,(%esi)
    1c06:	02 02                	add    (%edx),%al
    1c08:	4c                   	dec    %esp
    1c09:	04 01                	add    $0x1,%al
    1c0b:	01 00                	add    %eax,(%eax)
    1c0d:	00 04 f9             	add    %al,(%ecx,%edi,8)
    1c10:	05 00 00 02 4e       	add    $0x4e020000,%eax
    1c15:	0f 26 00             	mov    %eax,%tr0
    1c18:	00 00                	add    %al,(%eax)
    1c1a:	00 04 fd 06 00 00 02 	add    %al,0x2000006(,%edi,8)
    1c21:	4f                   	dec    %edi
    1c22:	0f 26 00             	mov    %eax,%tr0
    1c25:	00 00                	add    %al,(%eax)
    1c27:	01 00                	add    %eax,(%eax)
    1c29:	09 31                	or     %esi,(%ecx)
    1c2b:	06                   	push   %es
    1c2c:	00 00                	add    %al,(%eax)
    1c2e:	02 02                	add    (%edx),%al
    1c30:	45                   	inc    %ebp
    1c31:	37                   	aaa
    1c32:	01 00                	add    %eax,(%eax)
    1c34:	00 0a                	add    %cl,(%edx)
    1c36:	72 61                	jb     1c99 <mbh-0x2fe367>
    1c38:	77 00                	ja     1c3a <mbh-0x2fe3c6>
    1c3a:	02 47 0d             	add    0xd(%edi),%al
    1c3d:	39 00                	cmp    %eax,(%eax)
    1c3f:	00 00                	add    %al,(%eax)
    1c41:	07                   	pop    %es
    1c42:	3e 07                	ds pop %es
    1c44:	00 00                	add    %al,(%eax)
    1c46:	02 48 0d             	add    0xd(%eax),%cl
    1c49:	79 00                	jns    1c4b <mbh-0x2fe3b5>
    1c4b:	00 00                	add    %al,(%eax)
    1c4d:	07                   	pop    %es
    1c4e:	b7 06                	mov    $0x6,%bh
    1c50:	00 00                	add    %al,(%eax)
    1c52:	02 49 0d             	add    0xd(%ecx),%cl
    1c55:	37                   	aaa
    1c56:	01 00                	add    %eax,(%eax)
    1c58:	00 03                	add    %al,(%ebx)
    1c5a:	dd 00                	fldl   (%eax)
    1c5c:	00 00                	add    %al,(%eax)
    1c5e:	00 0c 26             	add    %cl,(%esi,%eiz,1)
    1c61:	00 00                	add    %al,(%eax)
    1c63:	00 47 01             	add    %al,0x1(%edi)
    1c66:	00 00                	add    %al,(%eax)
    1c68:	0d 58 00 00 00       	or     $0x58,%eax
    1c6d:	01 00                	add    %eax,(%eax)
    1c6f:	02 5f 06             	add    0x6(%edi),%bl
    1c72:	00 00                	add    %al,(%eax)
    1c74:	02 53 1b             	add    0x1b(%ebx),%dl
    1c77:	01 01                	add    %eax,(%ecx)
    1c79:	00 00                	add    %al,(%eax)
    1c7b:	06                   	push   %es
    1c7c:	04 02                	add    $0x2,%al
    1c7e:	5f                   	pop    %edi
    1c7f:	04 77                	add    $0x77,%al
    1c81:	01 00                	add    %eax,(%eax)
    1c83:	00 04 03             	add    %al,(%ebx,%eax,1)
    1c86:	07                   	pop    %es
    1c87:	00 00                	add    %al,(%eax)
    1c89:	02 61 0f             	add    0xf(%ecx),%ah
    1c8c:	47                   	inc    %edi
    1c8d:	01 00                	add    %eax,(%eax)
    1c8f:	00 00                	add    %al,(%eax)
    1c91:	04 00                	add    $0x0,%al
    1c93:	08 00                	or     %al,(%eax)
    1c95:	00 02                	add    %al,(%edx)
    1c97:	62 0f                	bound  %ecx,(%edi)
    1c99:	47                   	inc    %edi
    1c9a:	01 00                	add    %eax,(%eax)
    1c9c:	00 02                	add    %al,(%edx)
    1c9e:	00 06                	add    %al,(%esi)
    1ca0:	02 02                	add    (%edx),%al
    1ca2:	6b 0a 9b             	imul   $0xffffff9b,(%edx),%ecx
    1ca5:	01 00                	add    %eax,(%eax)
    1ca7:	00 04 f9             	add    %al,(%ecx,%edi,8)
    1caa:	05 00 00 02 6d       	add    $0x6d020000,%eax
    1caf:	15 26 00 00 00       	adc    $0x26,%eax
    1cb4:	00 04 fd 06 00 00 02 	add    %al,0x2000006(,%edi,8)
    1cbb:	6e                   	outsb  %ds:(%esi),(%dx)
    1cbc:	15 26 00 00 00       	adc    $0x26,%eax
    1cc1:	01 00                	add    %eax,(%eax)
    1cc3:	0f 02 02             	lar    (%edx),%eax
    1cc6:	69 07 b6 01 00 00    	imul   $0x1b6,(%edi),%eax
    1ccc:	03 77 01             	add    0x1(%edi),%esi
    1ccf:	00 00                	add    %al,(%eax)
    1cd1:	07                   	pop    %es
    1cd2:	04 07                	add    $0x7,%al
    1cd4:	00 00                	add    %al,(%eax)
    1cd6:	02 72 13             	add    0x13(%edx),%dh
    1cd9:	39 00                	cmp    %eax,(%eax)
    1cdb:	00 00                	add    %al,(%eax)
    1cdd:	00 06                	add    %al,(%esi)
    1cdf:	04 02                	add    $0x2,%al
    1ce1:	67 04 d3             	addr16 add $0xd3,%al
    1ce4:	01 00                	add    %eax,(%eax)
    1ce6:	00 0e                	add    %cl,(%esi)
    1ce8:	9b                   	fwait
    1ce9:	01 00                	add    %eax,(%eax)
    1ceb:	00 00                	add    %al,(%eax)
    1ced:	04 01                	add    $0x1,%al
    1cef:	08 00                	or     %al,(%eax)
    1cf1:	00 02                	add    %al,(%edx)
    1cf3:	76 10                	jbe    1d05 <mbh-0x2fe2fb>
    1cf5:	39 00                	cmp    %eax,(%eax)
    1cf7:	00 00                	add    %al,(%eax)
    1cf9:	02 00                	add    (%eax),%al
    1cfb:	09 18                	or     %ebx,(%eax)
    1cfd:	07                   	pop    %es
    1cfe:	00 00                	add    %al,(%eax)
    1d00:	04 02                	add    $0x2,%al
    1d02:	58                   	pop    %eax
    1d03:	0e                   	push   %cs
    1d04:	02 00                	add    (%eax),%al
    1d06:	00 0a                	add    %cl,(%edx)
    1d08:	72 61                	jb     1d6b <mbh-0x2fe295>
    1d0a:	77 00                	ja     1d0c <mbh-0x2fe2f4>
    1d0c:	02 5a 0d             	add    0xd(%edx),%bl
    1d0f:	4c                   	dec    %esp
    1d10:	00 00                	add    %al,(%eax)
    1d12:	00 07                	add    %al,(%edi)
    1d14:	3e 07                	ds pop %es
    1d16:	00 00                	add    %al,(%eax)
    1d18:	02 5b 0d             	add    0xd(%ebx),%bl
    1d1b:	8c 00                	mov    %es,(%eax)
    1d1d:	00 00                	add    %al,(%eax)
    1d1f:	07                   	pop    %es
    1d20:	b7 06                	mov    $0x6,%bh
    1d22:	00 00                	add    %al,(%eax)
    1d24:	02 5c 0d 0e          	add    0xe(%ebp,%ecx,1),%bl
    1d28:	02 00                	add    (%eax),%al
    1d2a:	00 03                	add    %al,(%ebx)
    1d2c:	53                   	push   %ebx
    1d2d:	01 00                	add    %eax,(%eax)
    1d2f:	00 03                	add    %al,(%ebx)
    1d31:	b6 01                	mov    $0x1,%dh
    1d33:	00 00                	add    %al,(%eax)
    1d35:	00 0c 26             	add    %cl,(%esi,%eiz,1)
    1d38:	00 00                	add    %al,(%eax)
    1d3a:	00 1e                	add    %bl,(%esi)
    1d3c:	02 00                	add    (%eax),%al
    1d3e:	00 0d 58 00 00 00    	add    %cl,0x58
    1d44:	03 00                	add    (%eax),%eax
    1d46:	02 82 07 00 00 02    	add    0x2000007(%edx),%al
    1d4c:	7a 1b                	jp     1d69 <mbh-0x2fe297>
    1d4e:	d3 01                	roll   %cl,(%ecx)
    1d50:	00 00                	add    %al,(%eax)
    1d52:	06                   	push   %es
    1d53:	08 02                	or     %al,(%edx)
    1d55:	86 04 4e             	xchg   %al,(%esi,%ecx,2)
    1d58:	02 00                	add    (%eax),%al
    1d5a:	00 04 e5 06 00 00 02 	add    %al,0x2000006(,%eiz,8)
    1d61:	88 0f                	mov    %cl,(%edi)
    1d63:	1e                   	push   %ds
    1d64:	02 00                	add    (%eax),%al
    1d66:	00 00                	add    %al,(%eax)
    1d68:	04 38                	add    $0x38,%al
    1d6a:	07                   	pop    %es
    1d6b:	00 00                	add    %al,(%eax)
    1d6d:	02 89 0f 1e 02 00    	add    0x21e0f(%ecx),%cl
    1d73:	00 04 00             	add    %al,(%eax,%eax,1)
    1d76:	06                   	push   %es
    1d77:	02 02                	add    (%edx),%al
    1d79:	96                   	xchg   %eax,%esi
    1d7a:	10 72 02             	adc    %dh,0x2(%edx)
    1d7d:	00 00                	add    %al,(%eax)
    1d7f:	04 f9                	add    $0xf9,%al
    1d81:	05 00 00 02 98       	add    $0x98020000,%eax
    1d86:	1b 26                	sbb    (%esi),%esp
    1d88:	00 00                	add    %al,(%eax)
    1d8a:	00 00                	add    %al,(%eax)
    1d8c:	04 fd                	add    $0xfd,%al
    1d8e:	06                   	push   %es
    1d8f:	00 00                	add    %al,(%eax)
    1d91:	02 99 1b 26 00 00    	add    0x261b(%ecx),%bl
    1d97:	00 01                	add    %al,(%ecx)
    1d99:	00 0f                	add    %cl,(%edi)
    1d9b:	02 02                	add    (%edx),%al
    1d9d:	94                   	xchg   %eax,%esp
    1d9e:	0d 8d 02 00 00       	or     $0x28d,%eax
    1da3:	03 4e 02             	add    0x2(%esi),%ecx
    1da6:	00 00                	add    %al,(%eax)
    1da8:	07                   	pop    %es
    1da9:	04 07                	add    $0x7,%al
    1dab:	00 00                	add    %al,(%eax)
    1dad:	02 9d 19 39 00 00    	add    0x3919(%ebp),%bl
    1db3:	00 00                	add    %al,(%eax)
    1db5:	06                   	push   %es
    1db6:	04 02                	add    $0x2,%al
    1db8:	92                   	xchg   %eax,%edx
    1db9:	0a aa 02 00 00 0e    	or     0xe000002(%edx),%ch
    1dbf:	72 02                	jb     1dc3 <mbh-0x2fe23d>
    1dc1:	00 00                	add    %al,(%eax)
    1dc3:	00 04 01             	add    %al,(%ecx,%eax,1)
    1dc6:	08 00                	or     %al,(%eax)
    1dc8:	00 02                	add    %al,(%edx)
    1dca:	a1 16 39 00 00       	mov    0x3916,%eax
    1dcf:	00 02                	add    %al,(%edx)
    1dd1:	00 0f                	add    %cl,(%edi)
    1dd3:	04 02                	add    $0x2,%al
    1dd5:	90                   	nop
    1dd6:	07                   	pop    %es
    1dd7:	c5 02                	lds    (%edx),%eax
    1dd9:	00 00                	add    %al,(%eax)
    1ddb:	03 8d 02 00 00 0a    	add    0xa000002(%ebp),%ecx
    1de1:	6c                   	insb   (%dx),%es:(%edi)
    1de2:	6f                   	outsl  %ds:(%esi),(%dx)
    1de3:	77 00                	ja     1de5 <mbh-0x2fe21b>
    1de5:	02 a5 14 4c 00 00    	add    0x4c14(%ebp),%ah
    1deb:	00 00                	add    %al,(%eax)
    1ded:	06                   	push   %es
    1dee:	08 02                	or     %al,(%edx)
    1df0:	8e 04 e2             	mov    (%edx,%eiz,8),%es
    1df3:	02 00                	add    (%eax),%al
    1df5:	00 0e                	add    %cl,(%esi)
    1df7:	aa                   	stos   %al,%es:(%edi)
    1df8:	02 00                	add    (%eax),%al
    1dfa:	00 00                	add    %al,(%eax)
    1dfc:	04 39                	add    $0x39,%al
    1dfe:	07                   	pop    %es
    1dff:	00 00                	add    %al,(%eax)
    1e01:	02 a9 11 4c 00 00    	add    0x4c11(%ecx),%ch
    1e07:	00 04 00             	add    %al,(%eax,%eax,1)
    1e0a:	09 80 06 00 00 08    	or     %eax,0x8000006(%eax)
    1e10:	02 7f 1d             	add    0x1d(%edi),%bh
    1e13:	03 00                	add    (%eax),%eax
    1e15:	00 0a                	add    %cl,(%edx)
    1e17:	72 61                	jb     1e7a <mbh-0x2fe186>
    1e19:	77 00                	ja     1e1b <mbh-0x2fe1e5>
    1e1b:	02 81 0d 5f 00 00    	add    0x5f0d(%ecx),%al
    1e21:	00 07                	add    %al,(%edi)
    1e23:	3e 07                	ds pop %es
    1e25:	00 00                	add    %al,(%eax)
    1e27:	02 82 0d 9f 00 00    	add    0x9f0d(%edx),%al
    1e2d:	00 07                	add    %al,(%edi)
    1e2f:	b7 06                	mov    $0x6,%bh
    1e31:	00 00                	add    %al,(%eax)
    1e33:	02 83 0d 1d 03 00    	add    0x31d0d(%ebx),%al
    1e39:	00 03                	add    %al,(%ebx)
    1e3b:	2a 02                	sub    (%edx),%al
    1e3d:	00 00                	add    %al,(%eax)
    1e3f:	03 c5                	add    %ebp,%eax
    1e41:	02 00                	add    (%eax),%al
    1e43:	00 00                	add    %al,(%eax)
    1e45:	0c 26                	or     $0x26,%al
    1e47:	00 00                	add    %al,(%eax)
    1e49:	00 2d 03 00 00 0d    	add    %ch,0xd000003
    1e4f:	58                   	pop    %eax
    1e50:	00 00                	add    %al,(%eax)
    1e52:	00 07                	add    %al,(%edi)
    1e54:	00 02                	add    %al,(%edx)
    1e56:	15 08 00 00 02       	adc    $0x2000008,%eax
    1e5b:	ad                   	lods   %ds:(%esi),%eax
    1e5c:	1b e2                	sbb    %edx,%esp
    1e5e:	02 00                	add    (%eax),%al
    1e60:	00 10                	add    %dl,(%eax)
    1e62:	dd 0b                	fisttpll (%ebx)
    1e64:	00 00                	add    %al,(%eax)
    1e66:	04 03                	add    $0x3,%al
    1e68:	26 67 04 00          	es addr16 add $0x0,%al
    1e6c:	00 01                	add    %al,(%ecx)
    1e6e:	63 66 00             	arpl   %esp,0x0(%esi)
    1e71:	03 28                	add    (%eax),%ebp
    1e73:	0f 4c 00             	cmovl  (%eax),%eax
    1e76:	00 00                	add    %al,(%eax)
    1e78:	01 00                	add    %eax,(%eax)
    1e7a:	01 72 31             	add    %esi,0x31(%edx)
    1e7d:	00 03                	add    %al,(%ebx)
    1e7f:	29 0f                	sub    %ecx,(%edi)
    1e81:	4c                   	dec    %esp
    1e82:	00 00                	add    %al,(%eax)
    1e84:	00 01                	add    %al,(%ecx)
    1e86:	01 01                	add    %eax,(%ecx)
    1e88:	70 66                	jo     1ef0 <mbh-0x2fe110>
    1e8a:	00 03                	add    %al,(%ebx)
    1e8c:	2a 0f                	sub    (%edi),%cl
    1e8e:	4c                   	dec    %esp
    1e8f:	00 00                	add    %al,(%eax)
    1e91:	00 01                	add    %al,(%ecx)
    1e93:	02 01                	add    (%ecx),%al
    1e95:	72 32                	jb     1ec9 <mbh-0x2fe137>
    1e97:	00 03                	add    %al,(%ebx)
    1e99:	2b 0f                	sub    (%edi),%ecx
    1e9b:	4c                   	dec    %esp
    1e9c:	00 00                	add    %al,(%eax)
    1e9e:	00 01                	add    %al,(%ecx)
    1ea0:	03 01                	add    (%ecx),%eax
    1ea2:	61                   	popa
    1ea3:	66 00 03             	data16 add %al,(%ebx)
    1ea6:	2c 0f                	sub    $0xf,%al
    1ea8:	4c                   	dec    %esp
    1ea9:	00 00                	add    %al,(%eax)
    1eab:	00 01                	add    %al,(%ecx)
    1ead:	04 01                	add    $0x1,%al
    1eaf:	72 33                	jb     1ee4 <mbh-0x2fe11c>
    1eb1:	00 03                	add    %al,(%ebx)
    1eb3:	2d 0f 4c 00 00       	sub    $0x4c0f,%eax
    1eb8:	00 01                	add    %al,(%ecx)
    1eba:	05 01 7a 66 00       	add    $0x667a01,%eax
    1ebf:	03 2e                	add    (%esi),%ebp
    1ec1:	0f 4c 00             	cmovl  (%eax),%eax
    1ec4:	00 00                	add    %al,(%eax)
    1ec6:	01 06                	add    %eax,(%esi)
    1ec8:	01 73 66             	add    %esi,0x66(%ebx)
    1ecb:	00 03                	add    %al,(%ebx)
    1ecd:	2f                   	das
    1ece:	0f 4c 00             	cmovl  (%eax),%eax
    1ed1:	00 00                	add    %al,(%eax)
    1ed3:	01 07                	add    %eax,(%edi)
    1ed5:	01 74 66 00          	add    %esi,0x0(%esi,%eiz,2)
    1ed9:	03 31                	add    (%ecx),%esi
    1edb:	0f 4c 00             	cmovl  (%eax),%eax
    1ede:	00 00                	add    %al,(%eax)
    1ee0:	01 08                	add    %ecx,(%eax)
    1ee2:	01 69 74             	add    %ebp,0x74(%ecx)
    1ee5:	00 03                	add    %al,(%ebx)
    1ee7:	32 0f                	xor    (%edi),%cl
    1ee9:	4c                   	dec    %esp
    1eea:	00 00                	add    %al,(%eax)
    1eec:	00 01                	add    %al,(%ecx)
    1eee:	09 01                	or     %eax,(%ecx)
    1ef0:	64 66 00 03          	data16 add %al,%fs:(%ebx)
    1ef4:	33 0f                	xor    (%edi),%ecx
    1ef6:	4c                   	dec    %esp
    1ef7:	00 00                	add    %al,(%eax)
    1ef9:	00 01                	add    %al,(%ecx)
    1efb:	0a 01                	or     (%ecx),%al
    1efd:	6f                   	outsl  %ds:(%esi),(%dx)
    1efe:	66 00 03             	data16 add %al,(%ebx)
    1f01:	34 0f                	xor    $0xf,%al
    1f03:	4c                   	dec    %esp
    1f04:	00 00                	add    %al,(%eax)
    1f06:	00 01                	add    %al,(%ecx)
    1f08:	0b 0b                	or     (%ebx),%ecx
    1f0a:	0e                   	push   %cs
    1f0b:	0c 00                	or     $0x0,%al
    1f0d:	00 03                	add    %al,(%ebx)
    1f0f:	35 0f 4c 00 00       	xor    $0x4c0f,%eax
    1f14:	00 02                	add    %al,(%edx)
    1f16:	0c 01                	or     $0x1,%al
    1f18:	6e                   	outsb  %ds:(%esi),(%dx)
    1f19:	74 00                	je     1f1b <mbh-0x2fe0e5>
    1f1b:	03 36                	add    (%esi),%esi
    1f1d:	0f 4c 00             	cmovl  (%eax),%eax
    1f20:	00 00                	add    %al,(%eax)
    1f22:	01 0e                	add    %ecx,(%esi)
    1f24:	01 72 34             	add    %esi,0x34(%edx)
    1f27:	00 03                	add    %al,(%ebx)
    1f29:	37                   	aaa
    1f2a:	0f 4c 00             	cmovl  (%eax),%eax
    1f2d:	00 00                	add    %al,(%eax)
    1f2f:	01 0f                	add    %ecx,(%edi)
    1f31:	01 72 66             	add    %esi,0x66(%edx)
    1f34:	00 03                	add    %al,(%ebx)
    1f36:	39 0f                	cmp    %ecx,(%edi)
    1f38:	4c                   	dec    %esp
    1f39:	00 00                	add    %al,(%eax)
    1f3b:	00 01                	add    %al,(%ecx)
    1f3d:	10 01                	adc    %al,(%ecx)
    1f3f:	76 6d                	jbe    1fae <mbh-0x2fe052>
    1f41:	00 03                	add    %al,(%ebx)
    1f43:	3a 0f                	cmp    (%edi),%cl
    1f45:	4c                   	dec    %esp
    1f46:	00 00                	add    %al,(%eax)
    1f48:	00 01                	add    %al,(%ecx)
    1f4a:	11 01                	adc    %eax,(%ecx)
    1f4c:	61                   	popa
    1f4d:	63 00                	arpl   %eax,(%eax)
    1f4f:	03 3b                	add    (%ebx),%edi
    1f51:	0f 4c 00             	cmovl  (%eax),%eax
    1f54:	00 00                	add    %al,(%eax)
    1f56:	01 12                	add    %edx,(%edx)
    1f58:	01 76 69             	add    %esi,0x69(%esi)
    1f5b:	74 00                	je     1f5d <mbh-0x2fe0a3>
    1f5d:	03 3c 0f             	add    (%edi,%ecx,1),%edi
    1f60:	4c                   	dec    %esp
    1f61:	00 00                	add    %al,(%eax)
    1f63:	00 01                	add    %al,(%ecx)
    1f65:	13 01                	adc    (%ecx),%eax
    1f67:	76 69                	jbe    1fd2 <mbh-0x2fe02e>
    1f69:	70 00                	jo     1f6b <mbh-0x2fe095>
    1f6b:	03 3e                	add    (%esi),%edi
    1f6d:	0f 4c 00             	cmovl  (%eax),%eax
    1f70:	00 00                	add    %al,(%eax)
    1f72:	01 14 01             	add    %edx,(%ecx,%eax,1)
    1f75:	69 64 00 03 3f 0f 4c 	imul   $0x4c0f3f,0x3(%eax,%eax,1),%esp
    1f7c:	00 
    1f7d:	00 00                	add    %al,(%eax)
    1f7f:	01 15 01 72 35 00    	add    %edx,0x357201
    1f85:	03 40 0f             	add    0xf(%eax),%eax
    1f88:	4c                   	dec    %esp
    1f89:	00 00                	add    %al,(%eax)
    1f8b:	00 0a                	add    %cl,(%edx)
    1f8d:	16                   	push   %ss
    1f8e:	00 02                	add    %al,(%edx)
    1f90:	7d 0b                	jge    1f9d <mbh-0x2fe063>
    1f92:	00 00                	add    %al,(%eax)
    1f94:	03 42 1b             	add    0x1b(%edx),%eax
    1f97:	39 03                	cmp    %eax,(%ebx)
    1f99:	00 00                	add    %al,(%eax)
    1f9b:	09 c9                	or     %ecx,%ecx
    1f9d:	0b 00                	or     (%eax),%eax
    1f9f:	00 04 03             	add    %al,(%ebx,%eax,1)
    1fa2:	44                   	inc    %esp
    1fa3:	8a 04 00             	mov    (%eax,%eax,1),%al
    1fa6:	00 03                	add    %al,(%ebx)
    1fa8:	67 04 00             	addr16 add $0x0,%al
    1fab:	00 03                	add    %al,(%ebx)
    1fad:	1e                   	push   %ds
    1fae:	02 00                	add    (%eax),%al
    1fb0:	00 00                	add    %al,(%eax)
    1fb2:	02 8d 0a 00 00 03    	add    0x300000a(%ebp),%cl
    1fb8:	49                   	dec    %ecx
    1fb9:	1b 73 04             	sbb    0x4(%ebx),%esi
    1fbc:	00 00                	add    %al,(%eax)
    1fbe:	0c 1e                	or     $0x1e,%al
    1fc0:	02 00                	add    (%eax),%al
    1fc2:	00 a6 04 00 00 0d    	add    %ah,0xd000004(%esi)
    1fc8:	58                   	pop    %eax
    1fc9:	00 00                	add    %al,(%eax)
    1fcb:	00 07                	add    %al,(%edi)
    1fcd:	00 06                	add    %al,(%esi)
    1fcf:	20 03                	and    %al,(%ebx)
    1fd1:	70 04                	jo     1fd7 <mbh-0x2fe029>
    1fd3:	18 05 00 00 05 65    	sbb    %al,0x65050000
    1fd9:	64 69 00 03 72 11 1e 	imul   $0x1e117203,%fs:(%eax),%eax
    1fe0:	02 00                	add    (%eax),%al
    1fe2:	00 00                	add    %al,(%eax)
    1fe4:	05 65 73 69 00       	add    $0x697365,%eax
    1fe9:	03 73 11             	add    0x11(%ebx),%esi
    1fec:	1e                   	push   %ds
    1fed:	02 00                	add    (%eax),%al
    1fef:	00 04 05 65 62 70 00 	add    %al,0x706265(,%eax,1)
    1ff6:	03 74 11 1e          	add    0x1e(%ecx,%edx,1),%esi
    1ffa:	02 00                	add    (%eax),%al
    1ffc:	00 08                	add    %cl,(%eax)
    1ffe:	05 65 73 70 00       	add    $0x707365,%eax
    2003:	03 75 11             	add    0x11(%ebp),%esi
    2006:	1e                   	push   %ds
    2007:	02 00                	add    (%eax),%al
    2009:	00 0c 05 65 62 78 00 	add    %cl,0x786265(,%eax,1)
    2010:	03 76 11             	add    0x11(%esi),%esi
    2013:	1e                   	push   %ds
    2014:	02 00                	add    (%eax),%al
    2016:	00 10                	add    %dl,(%eax)
    2018:	05 65 64 78 00       	add    $0x786465,%eax
    201d:	03 77 11             	add    0x11(%edi),%esi
    2020:	1e                   	push   %ds
    2021:	02 00                	add    (%eax),%al
    2023:	00 14 05 65 63 78 00 	add    %dl,0x786365(,%eax,1)
    202a:	03 78 11             	add    0x11(%eax),%edi
    202d:	1e                   	push   %ds
    202e:	02 00                	add    (%eax),%al
    2030:	00 18                	add    %bl,(%eax)
    2032:	05 65 61 78 00       	add    $0x786165,%eax
    2037:	03 79 11             	add    0x11(%ecx),%edi
    203a:	1e                   	push   %ds
    203b:	02 00                	add    (%eax),%al
    203d:	00 1c 00             	add    %bl,(%eax,%eax,1)
    2040:	09 b3 0a 00 00 20    	or     %esi,0x2000000a(%ebx)
    2046:	03 6e 36             	add    0x36(%esi),%ebp
    2049:	05 00 00 03 a6       	add    $0xa6030000,%eax
    204e:	04 00                	add    $0x0,%al
    2050:	00 0a                	add    %cl,(%edx)
    2052:	72 61                	jb     20b5 <mbh-0x2fdf4b>
    2054:	77 00                	ja     2056 <mbh-0x2fdfaa>
    2056:	03 7d 11             	add    0x11(%ebp),%edi
    2059:	96                   	xchg   %eax,%esi
    205a:	04 00                	add    $0x0,%al
    205c:	00 00                	add    %al,(%eax)
    205e:	02 5f 0b             	add    0xb(%edi),%bl
    2061:	00 00                	add    %al,(%eax)
    2063:	03 7f 1b             	add    0x1b(%edi),%edi
    2066:	18 05 00 00 06 04    	sbb    %al,0x4060000
    206c:	04 44                	add    $0x44,%al
    206e:	04 8f                	add    $0x8f,%al
    2070:	05 00 00 01 65       	add    $0x65010000,%eax
    2075:	78 74                	js     20eb <mbh-0x2fdf15>
    2077:	00 04 46             	add    %al,(%esi,%eax,2)
    207a:	12 4c 00 00          	adc    0x0(%eax,%eax,1),%cl
    207e:	00 01                	add    %al,(%ecx)
    2080:	00 01                	add    %al,(%ecx)
    2082:	69 64 74 00 04 47 12 	imul   $0x4c124704,0x0(%esp,%esi,2),%esp
    2089:	4c 
    208a:	00 00                	add    %al,(%eax)
    208c:	00 01                	add    %al,(%ecx)
    208e:	01 01                	add    %eax,(%ecx)
    2090:	74 69                	je     20fb <mbh-0x2fdf05>
    2092:	00 04 48             	add    %al,(%eax,%ecx,2)
    2095:	12 4c 00 00          	adc    0x0(%eax,%eax,1),%cl
    2099:	00 01                	add    %al,(%ecx)
    209b:	02 01                	add    (%ecx),%al
    209d:	69 64 78 00 04 49 12 	imul   $0x4c124904,0x0(%eax,%edi,2),%esp
    20a4:	4c 
    20a5:	00 00                	add    %al,(%eax)
    20a7:	00 0d 03 01 72 00    	add    %cl,0x720103
    20ad:	04 4a                	add    $0x4a,%al
    20af:	12 4c 00 00          	adc    0x0(%eax,%eax,1),%cl
    20b3:	00 10                	add    %dl,(%eax)
    20b5:	10 00                	adc    %al,(%eax)
    20b7:	09 69 0b             	or     %ebp,0xb(%ecx)
    20ba:	00 00                	add    %al,(%eax)
    20bc:	04 04                	add    $0x4,%al
    20be:	42                   	inc    %edx
    20bf:	a6                   	cmpsb  %es:(%edi),%ds:(%esi)
    20c0:	05 00 00 03 42       	add    $0x42030000,%eax
    20c5:	05 00 00 03 1e       	add    $0x1e030000,%eax
    20ca:	02 00                	add    (%eax),%al
    20cc:	00 00                	add    %al,(%eax)
    20ce:	02 91 0b 00 00 04    	add    0x400000b(%ecx),%dl
    20d4:	50                   	push   %eax
    20d5:	1b 8f 05 00 00 06    	sbb    0x6000005(%edi),%ecx
    20db:	04 04                	add    $0x4,%al
    20dd:	57                   	push   %edi
    20de:	04 09                	add    $0x9,%al
    20e0:	06                   	push   %es
    20e1:	00 00                	add    %al,(%eax)
    20e3:	01 70 00             	add    %esi,0x0(%eax)
    20e6:	04 59                	add    $0x59,%al
    20e8:	15 4c 00 00 00       	adc    $0x4c,%eax
    20ed:	01 00                	add    %eax,(%eax)
    20ef:	01 77 72             	add    %esi,0x72(%edi)
    20f2:	00 04 5a             	add    %al,(%edx,%ebx,2)
    20f5:	15 4c 00 00 00       	adc    $0x4c,%eax
    20fa:	01 01                	add    %eax,(%ecx)
    20fc:	01 75 73             	add    %esi,0x73(%ebp)
    20ff:	00 04 5b             	add    %al,(%ebx,%ebx,2)
    2102:	15 4c 00 00 00       	adc    $0x4c,%eax
    2107:	01 02                	add    %eax,(%edx)
    2109:	01 72 73             	add    %esi,0x73(%edx)
    210c:	76 00                	jbe    210e <mbh-0x2fdef2>
    210e:	04 5c                	add    $0x5c,%al
    2110:	15 4c 00 00 00       	adc    $0x4c,%eax
    2115:	01 03                	add    %eax,(%ebx)
    2117:	01 69 64             	add    %ebp,0x64(%ecx)
    211a:	00 04 5d 15 4c 00 00 	add    %al,0x4c15(,%ebx,2)
    2121:	00 01                	add    %al,(%ecx)
    2123:	04 01                	add    $0x1,%al
    2125:	72 00                	jb     2127 <mbh-0x2fded9>
    2127:	04 5e                	add    $0x5e,%al
    2129:	15 4c 00 00 00       	adc    $0x4c,%eax
    212e:	1b 05 00 09 77 0a    	sbb    0xa770900,%eax
    2134:	00 00                	add    %al,(%eax)
    2136:	04 04                	add    $0x4,%al
    2138:	55                   	push   %ebp
    2139:	20 06                	and    %al,(%esi)
    213b:	00 00                	add    %al,(%eax)
    213d:	03 b2 05 00 00 03    	add    0x3000005(%edx),%esi
    2143:	1e                   	push   %ds
    2144:	02 00                	add    (%eax),%al
    2146:	00 00                	add    %al,(%eax)
    2148:	02 9a 0a 00 00 04    	add    0x400000a(%edx),%bl
    214e:	64 1b 09             	sbb    %fs:(%ecx),%ecx
    2151:	06                   	push   %es
    2152:	00 00                	add    %al,(%eax)
    2154:	09 ea                	or     %ebp,%edx
    2156:	0a 00                	or     (%eax),%al
    2158:	00 04 04             	add    %al,(%esp,%eax,1)
    215b:	69 54 06 00 00 03 1e 	imul   $0x21e0300,0x0(%esi,%eax,1),%edx
    2162:	02 
    2163:	00 00                	add    %al,(%eax)
    2165:	0a 73 6c             	or     0x6c(%ebx),%dh
    2168:	00 04 6d 0d a6 05 00 	add    %al,0x5a60d(,%ebp,2)
    216f:	00 0a                	add    %cl,(%edx)
    2171:	70 66                	jo     21d9 <mbh-0x2fde27>
    2173:	00 04 6e             	add    %al,(%esi,%ebp,2)
    2176:	0d 20 06 00 00       	or     $0x620,%eax
    217b:	00 02                	add    %al,(%edx)
    217d:	a3 0a 00 00 04       	mov    %eax,0x400000a
    2182:	70 1b                	jo     219f <mbh-0x2fde61>
    2184:	2c 06                	sub    $0x6,%al
    2186:	00 00                	add    %al,(%eax)
    2188:	10 02                	adc    %al,(%edx)
    218a:	0c 00                	or     $0x0,%al
    218c:	00 1c 05 29 c5 06 00 	add    %bl,0x6c529(,%eax,1)
    2193:	00 05 6e 72 00 05    	add    %al,0x500726e
    2199:	2b 14 1e             	sub    (%esi,%ebx,1),%edx
    219c:	02 00                	add    (%eax),%al
    219e:	00 00                	add    %al,(%eax)
    21a0:	05 65 72 72 00       	add    $0x727265,%eax
    21a5:	05 2c 14 54 06       	add    $0x654142c,%eax
    21aa:	00 00                	add    %al,(%eax)
    21ac:	04 05                	add    $0x5,%al
    21ae:	65 69 70 00 05 2d 14 	imul   $0x1e142d05,%gs:0x0(%eax),%esi
    21b5:	1e 
    21b6:	02 00                	add    (%eax),%al
    21b8:	00 08                	add    %cl,(%eax)
    21ba:	05 63 73 00 05       	add    $0x5007363,%eax
    21bf:	2e 14 1e             	cs adc $0x1e,%al
    21c2:	02 00                	add    (%eax),%al
    21c4:	00 0c 04             	add    %cl,(%esp,%eax,1)
    21c7:	49                   	dec    %ecx
    21c8:	0b 00                	or     (%eax),%eax
    21ca:	00 05 2f 14 8a 04    	add    %al,0x48a142f
    21d0:	00 00                	add    %al,(%eax)
    21d2:	10 05 65 73 70 00    	adc    %al,0x707365
    21d8:	05 32 14 1e 02       	add    $0x21e1432,%eax
    21dd:	00 00                	add    %al,(%eax)
    21df:	14 05                	adc    $0x5,%al
    21e1:	73 73                	jae    2256 <mbh-0x2fddaa>
    21e3:	00 05 33 14 1e 02    	add    %al,0x21e1433
    21e9:	00 00                	add    %al,(%eax)
    21eb:	18 00                	sbb    %al,(%eax)
    21ed:	02 3a                	add    (%edx),%bh
    21ef:	0b 00                	or     (%eax),%eax
    21f1:	00 05 35 1b 60 06    	add    %al,0x6601b35
    21f7:	00 00                	add    %al,(%eax)
    21f9:	10 b7 0b 00 00 3c    	adc    %dh,0x3c00000b(%edi)
    21ff:	05 38 f1 06 00       	add    $0x6f138,%eax
    2204:	00 05 67 70 72 00    	add    %al,0x727067
    220a:	05 3a 0e 36 05       	add    $0x5360e3a,%eax
    220f:	00 00                	add    %al,(%eax)
    2211:	00 0e                	add    %cl,(%esi)
    2213:	c5 06                	lds    (%esi),%eax
    2215:	00 00                	add    %al,(%eax)
    2217:	20 00                	and    %al,(%eax)
    2219:	02 30                	add    (%eax),%dh
    221b:	0b 00                	or     (%eax),%eax
    221d:	00 05 3d 1b d1 06    	add    %al,0x6d11b3d
    2223:	00 00                	add    %al,(%eax)
    2225:	11 f1                	adc    %esi,%ecx
    2227:	06                   	push   %es
    2228:	00 00                	add    %al,(%eax)
    222a:	06                   	push   %es
    222b:	08 05 46 04 88 07    	or     %al,0x7880446
    2231:	00 00                	add    %al,(%eax)
    2233:	0b 9a 0b 00 00 05    	or     0x500000b(%edx),%ebx
    2239:	48                   	dec    %eax
    223a:	11 5f 00             	adc    %ebx,0x0(%edi)
    223d:	00 00                	add    %al,(%eax)
    223f:	10 00                	adc    %al,(%eax)
    2241:	0b 1d 0c 00 00 05    	or     0x500000c,%ebx
    2247:	49                   	dec    %ecx
    2248:	11 5f 00             	adc    %ebx,0x0(%edi)
    224b:	00 00                	add    %al,(%eax)
    224d:	10 10                	adc    %dl,(%eax)
    224f:	01 69 73             	add    %ebp,0x73(%ecx)
    2252:	74 00                	je     2254 <mbh-0x2fddac>
    2254:	05 4a 11 5f 00       	add    $0x5f114a,%eax
    2259:	00 00                	add    %al,(%eax)
    225b:	03 20                	add    (%eax),%esp
    225d:	0b 26                	or     (%esi),%esp
    225f:	0c 00                	or     $0x0,%al
    2261:	00 05 4b 11 5f 00    	add    %al,0x5f114b
    2267:	00 00                	add    %al,(%eax)
    2269:	05 23 0b 05 03       	add    $0x3050b23,%eax
    226e:	00 00                	add    %al,(%eax)
    2270:	05 4c 11 5f 00       	add    $0x5f114c,%eax
    2275:	00 00                	add    %al,(%eax)
    2277:	04 28                	add    $0x28,%al
    2279:	0b 2d 0c 00 00 05    	or     0x500000c,%ebp
    227f:	4d                   	dec    %ebp
    2280:	11 5f 00             	adc    %ebx,0x0(%edi)
    2283:	00 00                	add    %al,(%eax)
    2285:	01 2c 01             	add    %ebp,(%ecx,%eax,1)
    2288:	64 70 6c             	fs jo  22f7 <mbh-0x2fdd09>
    228b:	00 05 4e 11 5f 00    	add    %al,0x5f114e
    2291:	00 00                	add    %al,(%eax)
    2293:	02 2d 01 70 00 05    	add    0x5007001,%ch
    2299:	4f                   	dec    %edi
    229a:	11 5f 00             	adc    %ebx,0x0(%edi)
    229d:	00 00                	add    %al,(%eax)
    229f:	01 2f                	add    %ebp,(%edi)
    22a1:	0b a3 0b 00 00 05    	or     0x500000b(%ebx),%esp
    22a7:	50                   	push   %eax
    22a8:	11 5f 00             	adc    %ebx,0x0(%edi)
    22ab:	00 00                	add    %al,(%eax)
    22ad:	10 30                	adc    %dh,(%eax)
    22af:	00 09                	add    %cl,(%ecx)
    22b1:	d5 0a                	aad    $0xa
    22b3:	00 00                	add    %al,(%eax)
    22b5:	08 05 44 9f 07 00    	or     %al,0x79f44
    22bb:	00 03                	add    %al,(%ebx)
    22bd:	02 07                	add    (%edi),%al
    22bf:	00 00                	add    %al,(%eax)
    22c1:	03 2d 03 00 00 00    	add    0x3,%ebp
    22c7:	02 ac 0b 00 00 05 56 	add    0x56050000(%ebx,%ecx,1),%ch
    22ce:	1b 88 07 00 00 0f    	sbb    0xf000007(%eax),%ecx
    22d4:	04 05                	add    $0x5,%al
    22d6:	5e                   	pop    %esi
    22d7:	04 cd                	add    $0xcd,%al
    22d9:	07                   	pop    %es
    22da:	00 00                	add    %al,(%eax)
    22dc:	07                   	pop    %es
    22dd:	f4                   	hlt
    22de:	05 00 00 05 60       	add    $0x60050000,%eax
    22e3:	14 d1                	adc    $0xd1,%al
    22e5:	00 00                	add    %al,(%eax)
    22e7:	00 07                	add    %al,(%edi)
    22e9:	44                   	inc    %esp
    22ea:	0b 00                	or     (%eax),%eax
    22ec:	00 05 61 15 cd 07    	add    %al,0x7cd1561
    22f2:	00 00                	add    %al,(%eax)
    22f4:	00 11                	add    %dl,(%ecx)
    22f6:	9f                   	lahf
    22f7:	07                   	pop    %es
    22f8:	00 00                	add    %al,(%eax)
    22fa:	10 0c 0b             	adc    %cl,(%ebx,%ecx,1)
    22fd:	00 00                	add    %al,(%eax)
    22ff:	06                   	push   %es
    2300:	05 5b f2 07 00       	add    $0x7f25b,%eax
    2305:	00 04 06             	add    %al,(%esi,%eax,1)
    2308:	0b 00                	or     (%eax),%eax
    230a:	00 05 5d 14 39 00    	add    %al,0x39145d
    2310:	00 00                	add    %al,(%eax)
    2312:	00 0e                	add    %cl,(%esi)
    2314:	ab                   	stos   %eax,%es:(%edi)
    2315:	07                   	pop    %es
    2316:	00 00                	add    %al,(%eax)
    2318:	02 00                	add    (%eax),%al
    231a:	02 66 0a             	add    0xa(%esi),%ah
    231d:	00 00                	add    %al,(%eax)
    231f:	05 64 1b d2 07       	add    $0x7d21b64,%eax
    2324:	00 00                	add    %al,(%eax)
    2326:	0c 9f                	or     $0x9f,%al
    2328:	07                   	pop    %es
    2329:	00 00                	add    %al,(%eax)
    232b:	0e                   	push   %cs
    232c:	08 00                	or     %al,(%eax)
    232e:	00 0d 58 00 00 00    	add    %cl,0x58
    2334:	ff 00                	incl   (%eax)
    2336:	12 49 44             	adc    0x44(%ecx),%cl
    2339:	54                   	push   %esp
    233a:	00 08                	add    %cl,(%eax)
    233c:	13 fe                	adc    %esi,%edi
    233e:	07                   	pop    %es
    233f:	00 00                	add    %al,(%eax)
    2341:	05 03 a0 4d 30       	add    $0x304da003,%eax
    2346:	00 19                	add    %bl,(%ecx)
    2348:	13 0c 00             	adc    (%eax,%eax,1),%ecx
    234b:	00 04 77             	add    %al,(%edi,%esi,2)
    234e:	06                   	push   %es
    234f:	31 08                	xor    %ecx,(%eax)
    2351:	00 00                	add    %al,(%eax)
    2353:	14 31                	adc    $0x31,%al
    2355:	08 00                	or     %al,(%eax)
    2357:	00 00                	add    %al,(%eax)
    2359:	11 d1                	adc    %edx,%ecx
    235b:	06                   	push   %es
    235c:	00 00                	add    %al,(%eax)
    235e:	1a b0 06 00 00 06    	sbb    0x6000006(%eax),%dh
    2364:	0d 0a be 00 00       	or     $0xbe0a,%eax
    2369:	00 4d 08             	add    %cl,0x8(%ebp)
    236c:	00 00                	add    %al,(%eax)
    236e:	14 4d                	adc    $0x4d,%al
    2370:	08 00                	or     %al,(%eax)
    2372:	00 15 00 11 b9 00    	add    %dl,0xb91100
    2378:	00 00                	add    %al,(%eax)
    237a:	1b 50 0b             	sbb    0xb(%eax),%edx
    237d:	00 00                	add    %al,(%eax)
    237f:	01 07                	add    %eax,(%edi)
    2381:	0d 60 08 00 00       	or     $0x860,%eax
    2386:	15 00 1c f8 0b       	adc    $0xbf81c00,%eax
    238b:	00 00                	add    %al,(%eax)
    238d:	01 1b                	add    %ebx,(%ebx)
    238f:	15 93 3c 30 00       	adc    $0x303c93,%eax
    2394:	e6 00                	out    %al,$0x0
    2396:	00 00                	add    %al,(%eax)
    2398:	01 9c 94 08 00 00 1d 	add    %ebx,0x1d000008(%esp,%edx,4)
    239f:	63 74 78 00          	arpl   %esi,0x0(%eax,%edi,2)
    23a3:	01 1b                	add    %ebx,(%ebx)
    23a5:	2a fd                	sub    %ch,%bh
    23a7:	06                   	push   %es
    23a8:	00 00                	add    %al,(%eax)
    23aa:	02 91 4c 13 70 0a    	add    0xa70134c(%ecx),%dl
    23b0:	00 00                	add    %al,(%eax)
    23b2:	39 0c 26             	cmp    %ecx,(%esi,%eiz,1)
    23b5:	00 00                	add    %al,(%eax)
    23b7:	00 02                	add    %al,(%edx)
    23b9:	91                   	xchg   %eax,%ecx
    23ba:	5f                   	pop    %edi
    23bb:	00 1e                	add    %bl,(%esi)
    23bd:	9f                   	lahf
    23be:	02 00                	add    (%eax),%al
    23c0:	00 01                	add    %al,(%ecx)
    23c2:	0a 06                	or     (%esi),%al
    23c4:	cc                   	int3
    23c5:	3b 30                	cmp    (%eax),%esi
    23c7:	00 c7                	add    %al,%bh
    23c9:	00 00                	add    %al,(%eax)
    23cb:	00 01                	add    %al,(%ecx)
    23cd:	9c                   	pushf
    23ce:	13 01                	adc    (%ecx),%eax
    23d0:	0b 00                	or     (%eax),%eax
    23d2:	00 0c 0e             	add    %cl,(%esi,%ecx,1)
    23d5:	f2 07                	repnz pop %es
    23d7:	00 00                	add    %al,(%eax)
    23d9:	02 91 6a 12 69 73    	add    0x7369126a(%ecx),%dl
    23df:	72 00                	jb     23e1 <mbh-0x2fdc1f>
    23e1:	0d 0e d1 00 00       	or     $0xd10e,%eax
    23e6:	00 02                	add    %al,(%edx)
    23e8:	91                   	xchg   %eax,%ecx
    23e9:	74 12                	je     23fd <mbh-0x2fdc03>
    23eb:	69 00 0e 0e be 00    	imul   $0xbe0e0e,(%eax),%eax
    23f1:	00 00                	add    %al,(%eax)
    23f3:	02 91 70 1f e5 3b    	add    0x3be51f70(%ecx),%dl
    23f9:	30 00                	xor    %al,(%eax)
    23fb:	85 00                	test   %eax,(%eax)
    23fd:	00 00                	add    %al,(%eax)
    23ff:	13 f4                	adc    %esp,%esi
    2401:	05 00 00 14 07       	add    $0x7140000,%eax
    2406:	1e                   	push   %ds
    2407:	02 00                	add    (%eax),%al
    2409:	00 02                	add    %al,(%edx)
    240b:	91                   	xchg   %eax,%ecx
    240c:	66 00 00             	data16 add %al,(%eax)
    240f:	00 1f                	add    %bl,(%edi)
    2411:	00 00                	add    %al,(%eax)
    2413:	00 05 00 01 04 a0    	add    %al,0xa0040100
    2419:	08 00                	or     %al,(%eax)
    241b:	00 01                	add    %al,(%ecx)
    241d:	d3 06                	roll   %cl,(%esi)
    241f:	00 00                	add    %al,(%eax)
    2421:	23 00                	and    (%eax),%eax
    2423:	00 00                	add    %al,(%eax)
    2425:	34 0c                	xor    $0xc,%al
    2427:	00 00                	add    %al,(%eax)
    2429:	17                   	pop    %ss
    242a:	00 00                	add    %al,(%eax)
    242c:	00 38                	add    %bh,(%eax)
    242e:	00 00                	add    %al,(%eax)
    2430:	00 01                	add    %al,(%ecx)
    2432:	80 a7 06 00 00 05 00 	andb   $0x0,0x5000006(%edi)
    2439:	01 04 b2             	add    %eax,(%edx,%esi,4)
    243c:	08 00                	or     %al,(%eax)
    243e:	00 15 1d 04 00 00    	add    %dl,0x41d
    2444:	1d 13 01 00 00       	sbb    $0x113,%eax
    2449:	00 00                	add    %al,(%eax)
    244b:	00 00                	add    %al,(%eax)
    244d:	93                   	xchg   %eax,%ebx
    244e:	3d 30 00 7c 01       	cmp    $0x17c0030,%eax
    2453:	00 00                	add    %al,(%eax)
    2455:	12 0a                	adc    (%edx),%cl
    2457:	00 00                	add    %al,(%eax)
    2459:	02 f2                	add    %dl,%dh
    245b:	03 00                	add    (%eax),%eax
    245d:	00 02                	add    %al,(%edx)
    245f:	1a 20                	sbb    (%eax),%ah
    2461:	32 00                	xor    (%eax),%al
    2463:	00 00                	add    %al,(%eax)
    2465:	05 01 08 d7 01       	add    $0x1d70801,%eax
    246a:	00 00                	add    %al,(%eax)
    246c:	02 17                	add    (%edi),%dl
    246e:	01 00                	add    %eax,(%eax)
    2470:	00 02                	add    %al,(%edx)
    2472:	1b 20                	sbb    (%eax),%esp
    2474:	45                   	inc    %ebp
    2475:	00 00                	add    %al,(%eax)
    2477:	00 05 02 07 79 02    	add    %al,0x2790702
    247d:	00 00                	add    %al,(%eax)
    247f:	02 a0 00 00 00 02    	add    0x2000000(%eax),%ah
    2485:	1c 20                	sbb    $0x20,%al
    2487:	58                   	pop    %eax
    2488:	00 00                	add    %al,(%eax)
    248a:	00 05 04 07 1b 02    	add    %al,0x21b0704
    2490:	00 00                	add    %al,(%eax)
    2492:	05 08 07 11 02       	add    $0x2110708,%eax
    2497:	00 00                	add    %al,(%eax)
    2499:	05 01 06 d9 01       	add    $0x1d90601,%eax
    249e:	00 00                	add    %al,(%eax)
    24a0:	02 54 07 00          	add    0x0(%edi,%eax,1),%dl
    24a4:	00 02                	add    %al,(%edx)
    24a6:	20 20                	and    %ah,(%eax)
    24a8:	79 00                	jns    24aa <mbh-0x2fdb56>
    24aa:	00 00                	add    %al,(%eax)
    24ac:	05 02 05 a9 00       	add    $0xa90502,%eax
    24b1:	00 00                	add    %al,(%eax)
    24b3:	02 09                	add    (%ecx),%cl
    24b5:	06                   	push   %es
    24b6:	00 00                	add    %al,(%eax)
    24b8:	02 21                	add    (%ecx),%ah
    24ba:	20 8c 00 00 00 16 04 	and    %cl,0x4160000(%eax,%eax,1)
    24c1:	05 69 6e 74 00       	add    $0x746e69,%eax
    24c6:	05 08 05 66 01       	add    $0x1660508,%eax
    24cb:	00 00                	add    %al,(%eax)
    24cd:	0d 9f 00 00 00       	or     $0x9f,%eax
    24d2:	05 01 06 e0 01       	add    $0x1e00601,%eax
    24d7:	00 00                	add    %al,(%eax)
    24d9:	17                   	pop    %ss
    24da:	9f                   	lahf
    24db:	00 00                	add    %al,(%eax)
    24dd:	00 02                	add    %al,(%edx)
    24df:	b3 00                	mov    $0x0,%bl
    24e1:	00 00                	add    %al,(%eax)
    24e3:	02 25 20 b7 00 00    	add    0xb720,%ah
    24e9:	00 05 04 07 16 02    	add    %al,0x2160704
    24ef:	00 00                	add    %al,(%eax)
    24f1:	02 b4 07 00 00 02 26 	add    0x26020000(%edi,%eax,1),%dh
    24f8:	20 b7 00 00 00 07    	and    %dh,0x7000000(%edi)
    24fe:	02 02                	add    (%edx),%al
    2500:	4c                   	dec    %esp
    2501:	04 ee                	add    $0xee,%al
    2503:	00 00                	add    %al,(%eax)
    2505:	00 06                	add    %al,(%esi)
    2507:	f9                   	stc
    2508:	05 00 00 02 4e       	add    $0x4e020000,%eax
    250d:	0f 26 00             	mov    %eax,%tr0
    2510:	00 00                	add    %al,(%eax)
    2512:	00 06                	add    %al,(%esi)
    2514:	fd                   	std
    2515:	06                   	push   %es
    2516:	00 00                	add    %al,(%eax)
    2518:	02 4f 0f             	add    0xf(%edi),%cl
    251b:	26 00 00             	add    %al,%es:(%eax)
    251e:	00 01                	add    %al,(%ecx)
    2520:	00 08                	add    %cl,(%eax)
    2522:	31 06                	xor    %eax,(%esi)
    2524:	00 00                	add    %al,(%eax)
    2526:	02 02                	add    (%edx),%al
    2528:	45                   	inc    %ebp
    2529:	22 01                	and    (%ecx),%al
    252b:	00 00                	add    %al,(%eax)
    252d:	09 72 61             	or     %esi,0x61(%edx)
    2530:	77 00                	ja     2532 <mbh-0x2fdace>
    2532:	02 47 0d             	add    0xd(%edi),%al
    2535:	39 00                	cmp    %eax,(%eax)
    2537:	00 00                	add    %al,(%eax)
    2539:	0a 3e                	or     (%esi),%bh
    253b:	07                   	pop    %es
    253c:	00 00                	add    %al,(%eax)
    253e:	48                   	dec    %eax
    253f:	0d 6d 00 00 00       	or     $0x6d,%eax
    2544:	0a b7 06 00 00 49    	or     0x49000006(%edi),%dh
    254a:	0d 22 01 00 00       	or     $0x122,%eax
    254f:	04 ca                	add    $0xca,%al
    2551:	00 00                	add    %al,(%eax)
    2553:	00 00                	add    %al,(%eax)
    2555:	0b 26                	or     (%esi),%esp
    2557:	00 00                	add    %al,(%eax)
    2559:	00 32                	add    %dh,(%edx)
    255b:	01 00                	add    %eax,(%eax)
    255d:	00 0c 58             	add    %cl,(%eax,%ebx,2)
    2560:	00 00                	add    %al,(%eax)
    2562:	00 01                	add    %al,(%ecx)
    2564:	00 02                	add    %al,(%edx)
    2566:	5f                   	pop    %edi
    2567:	06                   	push   %es
    2568:	00 00                	add    %al,(%eax)
    256a:	02 53 1b             	add    0x1b(%ebx),%dl
    256d:	ee                   	out    %al,(%dx)
    256e:	00 00                	add    %al,(%eax)
    2570:	00 07                	add    %al,(%edi)
    2572:	04 02                	add    $0x2,%al
    2574:	5f                   	pop    %edi
    2575:	04 62                	add    $0x62,%al
    2577:	01 00                	add    %eax,(%eax)
    2579:	00 06                	add    %al,(%esi)
    257b:	03 07                	add    (%edi),%eax
    257d:	00 00                	add    %al,(%eax)
    257f:	02 61 0f             	add    0xf(%ecx),%ah
    2582:	32 01                	xor    (%ecx),%al
    2584:	00 00                	add    %al,(%eax)
    2586:	00 06                	add    %al,(%esi)
    2588:	00 08                	add    %cl,(%eax)
    258a:	00 00                	add    %al,(%eax)
    258c:	02 62 0f             	add    0xf(%edx),%ah
    258f:	32 01                	xor    (%ecx),%al
    2591:	00 00                	add    %al,(%eax)
    2593:	02 00                	add    (%eax),%al
    2595:	07                   	pop    %es
    2596:	02 02                	add    (%edx),%al
    2598:	6b 0a 86             	imul   $0xffffff86,(%edx),%ecx
    259b:	01 00                	add    %eax,(%eax)
    259d:	00 06                	add    %al,(%esi)
    259f:	f9                   	stc
    25a0:	05 00 00 02 6d       	add    $0x6d020000,%eax
    25a5:	15 26 00 00 00       	adc    $0x26,%eax
    25aa:	00 06                	add    %al,(%esi)
    25ac:	fd                   	std
    25ad:	06                   	push   %es
    25ae:	00 00                	add    %al,(%eax)
    25b0:	02 6e 15             	add    0x15(%esi),%ch
    25b3:	26 00 00             	add    %al,%es:(%eax)
    25b6:	00 01                	add    %al,(%ecx)
    25b8:	00 18                	add    %bl,(%eax)
    25ba:	02 02                	add    (%edx),%al
    25bc:	69 07 a0 01 00 00    	imul   $0x1a0,(%edi),%eax
    25c2:	04 62                	add    $0x62,%al
    25c4:	01 00                	add    %eax,(%eax)
    25c6:	00 0a                	add    %cl,(%edx)
    25c8:	04 07                	add    $0x7,%al
    25ca:	00 00                	add    %al,(%eax)
    25cc:	72 13                	jb     25e1 <mbh-0x2fda1f>
    25ce:	39 00                	cmp    %eax,(%eax)
    25d0:	00 00                	add    %al,(%eax)
    25d2:	00 07                	add    %al,(%edi)
    25d4:	04 02                	add    $0x2,%al
    25d6:	67 04 bd             	addr16 add $0xbd,%al
    25d9:	01 00                	add    %eax,(%eax)
    25db:	00 11                	add    %dl,(%ecx)
    25dd:	86 01                	xchg   %al,(%ecx)
    25df:	00 00                	add    %al,(%eax)
    25e1:	00 06                	add    %al,(%esi)
    25e3:	01 08                	add    %ecx,(%eax)
    25e5:	00 00                	add    %al,(%eax)
    25e7:	02 76 10             	add    0x10(%esi),%dh
    25ea:	39 00                	cmp    %eax,(%eax)
    25ec:	00 00                	add    %al,(%eax)
    25ee:	02 00                	add    (%eax),%al
    25f0:	08 18                	or     %bl,(%eax)
    25f2:	07                   	pop    %es
    25f3:	00 00                	add    %al,(%eax)
    25f5:	04 02                	add    $0x2,%al
    25f7:	58                   	pop    %eax
    25f8:	f6 01 00             	testb  $0x0,(%ecx)
    25fb:	00 09                	add    %cl,(%ecx)
    25fd:	72 61                	jb     2660 <mbh-0x2fd9a0>
    25ff:	77 00                	ja     2601 <mbh-0x2fd9ff>
    2601:	02 5a 0d             	add    0xd(%edx),%bl
    2604:	4c                   	dec    %esp
    2605:	00 00                	add    %al,(%eax)
    2607:	00 0a                	add    %cl,(%edx)
    2609:	3e 07                	ds pop %es
    260b:	00 00                	add    %al,(%eax)
    260d:	5b                   	pop    %ebx
    260e:	0d 80 00 00 00       	or     $0x80,%eax
    2613:	0a b7 06 00 00 5c    	or     0x5c000006(%edi),%dh
    2619:	0d f6 01 00 00       	or     $0x1f6,%eax
    261e:	04 3e                	add    $0x3e,%al
    2620:	01 00                	add    %eax,(%eax)
    2622:	00 04 a0             	add    %al,(%eax,%eiz,4)
    2625:	01 00                	add    %eax,(%eax)
    2627:	00 00                	add    %al,(%eax)
    2629:	0b 26                	or     (%esi),%esp
    262b:	00 00                	add    %al,(%eax)
    262d:	00 06                	add    %al,(%esi)
    262f:	02 00                	add    (%eax),%al
    2631:	00 0c 58             	add    %cl,(%eax,%ebx,2)
    2634:	00 00                	add    %al,(%eax)
    2636:	00 03                	add    %al,(%ebx)
    2638:	00 02                	add    %al,(%edx)
    263a:	82 07 00             	addb   $0x0,(%edi)
    263d:	00 02                	add    %al,(%edx)
    263f:	7a 1b                	jp     265c <mbh-0x2fd9a4>
    2641:	bd 01 00 00 0e       	mov    $0xe000001,%ebp
    2646:	dd 0b                	fisttpll (%ebx)
    2648:	00 00                	add    %al,(%eax)
    264a:	04 03                	add    $0x3,%al
    264c:	26 40                	es inc %eax
    264e:	03 00                	add    (%eax),%eax
    2650:	00 01                	add    %al,(%ecx)
    2652:	63 66 00             	arpl   %esp,0x0(%esi)
    2655:	03 28                	add    (%eax),%ebp
    2657:	0f 4c 00             	cmovl  (%eax),%eax
    265a:	00 00                	add    %al,(%eax)
    265c:	01 00                	add    %eax,(%eax)
    265e:	01 72 31             	add    %esi,0x31(%edx)
    2661:	00 03                	add    %al,(%ebx)
    2663:	29 0f                	sub    %ecx,(%edi)
    2665:	4c                   	dec    %esp
    2666:	00 00                	add    %al,(%eax)
    2668:	00 01                	add    %al,(%ecx)
    266a:	01 01                	add    %eax,(%ecx)
    266c:	70 66                	jo     26d4 <mbh-0x2fd92c>
    266e:	00 03                	add    %al,(%ebx)
    2670:	2a 0f                	sub    (%edi),%cl
    2672:	4c                   	dec    %esp
    2673:	00 00                	add    %al,(%eax)
    2675:	00 01                	add    %al,(%ecx)
    2677:	02 01                	add    (%ecx),%al
    2679:	72 32                	jb     26ad <mbh-0x2fd953>
    267b:	00 03                	add    %al,(%ebx)
    267d:	2b 0f                	sub    (%edi),%ecx
    267f:	4c                   	dec    %esp
    2680:	00 00                	add    %al,(%eax)
    2682:	00 01                	add    %al,(%ecx)
    2684:	03 01                	add    (%ecx),%eax
    2686:	61                   	popa
    2687:	66 00 03             	data16 add %al,(%ebx)
    268a:	2c 0f                	sub    $0xf,%al
    268c:	4c                   	dec    %esp
    268d:	00 00                	add    %al,(%eax)
    268f:	00 01                	add    %al,(%ecx)
    2691:	04 01                	add    $0x1,%al
    2693:	72 33                	jb     26c8 <mbh-0x2fd938>
    2695:	00 03                	add    %al,(%ebx)
    2697:	2d 0f 4c 00 00       	sub    $0x4c0f,%eax
    269c:	00 01                	add    %al,(%ecx)
    269e:	05 01 7a 66 00       	add    $0x667a01,%eax
    26a3:	03 2e                	add    (%esi),%ebp
    26a5:	0f 4c 00             	cmovl  (%eax),%eax
    26a8:	00 00                	add    %al,(%eax)
    26aa:	01 06                	add    %eax,(%esi)
    26ac:	01 73 66             	add    %esi,0x66(%ebx)
    26af:	00 03                	add    %al,(%ebx)
    26b1:	2f                   	das
    26b2:	0f 4c 00             	cmovl  (%eax),%eax
    26b5:	00 00                	add    %al,(%eax)
    26b7:	01 07                	add    %eax,(%edi)
    26b9:	01 74 66 00          	add    %esi,0x0(%esi,%eiz,2)
    26bd:	03 31                	add    (%ecx),%esi
    26bf:	0f 4c 00             	cmovl  (%eax),%eax
    26c2:	00 00                	add    %al,(%eax)
    26c4:	01 08                	add    %ecx,(%eax)
    26c6:	01 69 74             	add    %ebp,0x74(%ecx)
    26c9:	00 03                	add    %al,(%ebx)
    26cb:	32 0f                	xor    (%edi),%cl
    26cd:	4c                   	dec    %esp
    26ce:	00 00                	add    %al,(%eax)
    26d0:	00 01                	add    %al,(%ecx)
    26d2:	09 01                	or     %eax,(%ecx)
    26d4:	64 66 00 03          	data16 add %al,%fs:(%ebx)
    26d8:	33 0f                	xor    (%edi),%ecx
    26da:	4c                   	dec    %esp
    26db:	00 00                	add    %al,(%eax)
    26dd:	00 01                	add    %al,(%ecx)
    26df:	0a 01                	or     (%ecx),%al
    26e1:	6f                   	outsl  %ds:(%esi),(%dx)
    26e2:	66 00 03             	data16 add %al,(%ebx)
    26e5:	34 0f                	xor    $0xf,%al
    26e7:	4c                   	dec    %esp
    26e8:	00 00                	add    %al,(%eax)
    26ea:	00 01                	add    %al,(%ecx)
    26ec:	0b 19                	or     (%ecx),%ebx
    26ee:	0e                   	push   %cs
    26ef:	0c 00                	or     $0x0,%al
    26f1:	00 03                	add    %al,(%ebx)
    26f3:	35 0f 4c 00 00       	xor    $0x4c0f,%eax
    26f8:	00 02                	add    %al,(%edx)
    26fa:	0c 01                	or     $0x1,%al
    26fc:	6e                   	outsb  %ds:(%esi),(%dx)
    26fd:	74 00                	je     26ff <mbh-0x2fd901>
    26ff:	03 36                	add    (%esi),%esi
    2701:	0f 4c 00             	cmovl  (%eax),%eax
    2704:	00 00                	add    %al,(%eax)
    2706:	01 0e                	add    %ecx,(%esi)
    2708:	01 72 34             	add    %esi,0x34(%edx)
    270b:	00 03                	add    %al,(%ebx)
    270d:	37                   	aaa
    270e:	0f 4c 00             	cmovl  (%eax),%eax
    2711:	00 00                	add    %al,(%eax)
    2713:	01 0f                	add    %ecx,(%edi)
    2715:	01 72 66             	add    %esi,0x66(%edx)
    2718:	00 03                	add    %al,(%ebx)
    271a:	39 0f                	cmp    %ecx,(%edi)
    271c:	4c                   	dec    %esp
    271d:	00 00                	add    %al,(%eax)
    271f:	00 01                	add    %al,(%ecx)
    2721:	10 01                	adc    %al,(%ecx)
    2723:	76 6d                	jbe    2792 <mbh-0x2fd86e>
    2725:	00 03                	add    %al,(%ebx)
    2727:	3a 0f                	cmp    (%edi),%cl
    2729:	4c                   	dec    %esp
    272a:	00 00                	add    %al,(%eax)
    272c:	00 01                	add    %al,(%ecx)
    272e:	11 01                	adc    %eax,(%ecx)
    2730:	61                   	popa
    2731:	63 00                	arpl   %eax,(%eax)
    2733:	03 3b                	add    (%ebx),%edi
    2735:	0f 4c 00             	cmovl  (%eax),%eax
    2738:	00 00                	add    %al,(%eax)
    273a:	01 12                	add    %edx,(%edx)
    273c:	01 76 69             	add    %esi,0x69(%esi)
    273f:	74 00                	je     2741 <mbh-0x2fd8bf>
    2741:	03 3c 0f             	add    (%edi,%ecx,1),%edi
    2744:	4c                   	dec    %esp
    2745:	00 00                	add    %al,(%eax)
    2747:	00 01                	add    %al,(%ecx)
    2749:	13 01                	adc    (%ecx),%eax
    274b:	76 69                	jbe    27b6 <mbh-0x2fd84a>
    274d:	70 00                	jo     274f <mbh-0x2fd8b1>
    274f:	03 3e                	add    (%esi),%edi
    2751:	0f 4c 00             	cmovl  (%eax),%eax
    2754:	00 00                	add    %al,(%eax)
    2756:	01 14 01             	add    %edx,(%ecx,%eax,1)
    2759:	69 64 00 03 3f 0f 4c 	imul   $0x4c0f3f,0x3(%eax,%eax,1),%esp
    2760:	00 
    2761:	00 00                	add    %al,(%eax)
    2763:	01 15 01 72 35 00    	add    %edx,0x357201
    2769:	03 40 0f             	add    0xf(%eax),%eax
    276c:	4c                   	dec    %esp
    276d:	00 00                	add    %al,(%eax)
    276f:	00 0a                	add    %cl,(%edx)
    2771:	16                   	push   %ss
    2772:	00 02                	add    %al,(%edx)
    2774:	7d 0b                	jge    2781 <mbh-0x2fd87f>
    2776:	00 00                	add    %al,(%eax)
    2778:	03 42 1b             	add    0x1b(%edx),%eax
    277b:	12 02                	adc    (%edx),%al
    277d:	00 00                	add    %al,(%eax)
    277f:	08 c9                	or     %cl,%cl
    2781:	0b 00                	or     (%eax),%eax
    2783:	00 04 03             	add    %al,(%ebx,%eax,1)
    2786:	44                   	inc    %esp
    2787:	63 03                	arpl   %eax,(%ebx)
    2789:	00 00                	add    %al,(%eax)
    278b:	04 40                	add    $0x40,%al
    278d:	03 00                	add    (%eax),%eax
    278f:	00 04 06             	add    %al,(%esi,%eax,1)
    2792:	02 00                	add    (%eax),%al
    2794:	00 00                	add    %al,(%eax)
    2796:	02 8d 0a 00 00 03    	add    0x300000a(%ebp),%cl
    279c:	49                   	dec    %ecx
    279d:	1b 4c 03 00          	sbb    0x0(%ebx,%eax,1),%ecx
    27a1:	00 0b                	add    %cl,(%ebx)
    27a3:	06                   	push   %es
    27a4:	02 00                	add    (%eax),%al
    27a6:	00 7f 03             	add    %bh,0x3(%edi)
    27a9:	00 00                	add    %al,(%eax)
    27ab:	0c 58                	or     $0x58,%al
    27ad:	00 00                	add    %al,(%eax)
    27af:	00 07                	add    %al,(%edi)
    27b1:	00 07                	add    %al,(%edi)
    27b3:	20 03                	and    %al,(%ebx)
    27b5:	70 04                	jo     27bb <mbh-0x2fd845>
    27b7:	f1                   	int1
    27b8:	03 00                	add    (%eax),%eax
    27ba:	00 03                	add    %al,(%ebx)
    27bc:	65 64 69 00 03 72 11 	gs imul $0x6117203,%fs:(%eax),%eax
    27c3:	06 
    27c4:	02 00                	add    (%eax),%al
    27c6:	00 00                	add    %al,(%eax)
    27c8:	03 65 73             	add    0x73(%ebp),%esp
    27cb:	69 00 03 73 11 06    	imul   $0x6117303,(%eax),%eax
    27d1:	02 00                	add    (%eax),%al
    27d3:	00 04 03             	add    %al,(%ebx,%eax,1)
    27d6:	65 62 70 00          	bound  %esi,%gs:0x0(%eax)
    27da:	03 74 11 06          	add    0x6(%ecx,%edx,1),%esi
    27de:	02 00                	add    (%eax),%al
    27e0:	00 08                	add    %cl,(%eax)
    27e2:	03 65 73             	add    0x73(%ebp),%esp
    27e5:	70 00                	jo     27e7 <mbh-0x2fd819>
    27e7:	03 75 11             	add    0x11(%ebp),%esi
    27ea:	06                   	push   %es
    27eb:	02 00                	add    (%eax),%al
    27ed:	00 0c 03             	add    %cl,(%ebx,%eax,1)
    27f0:	65 62 78 00          	bound  %edi,%gs:0x0(%eax)
    27f4:	03 76 11             	add    0x11(%esi),%esi
    27f7:	06                   	push   %es
    27f8:	02 00                	add    (%eax),%al
    27fa:	00 10                	add    %dl,(%eax)
    27fc:	03 65 64             	add    0x64(%ebp),%esp
    27ff:	78 00                	js     2801 <mbh-0x2fd7ff>
    2801:	03 77 11             	add    0x11(%edi),%esi
    2804:	06                   	push   %es
    2805:	02 00                	add    (%eax),%al
    2807:	00 14 03             	add    %dl,(%ebx,%eax,1)
    280a:	65 63 78 00          	arpl   %edi,%gs:0x0(%eax)
    280e:	03 78 11             	add    0x11(%eax),%edi
    2811:	06                   	push   %es
    2812:	02 00                	add    (%eax),%al
    2814:	00 18                	add    %bl,(%eax)
    2816:	03 65 61             	add    0x61(%ebp),%esp
    2819:	78 00                	js     281b <mbh-0x2fd7e5>
    281b:	03 79 11             	add    0x11(%ecx),%edi
    281e:	06                   	push   %es
    281f:	02 00                	add    (%eax),%al
    2821:	00 1c 00             	add    %bl,(%eax,%eax,1)
    2824:	08 b3 0a 00 00 20    	or     %dh,0x2000000a(%ebx)
    282a:	03 6e 0f             	add    0xf(%esi),%ebp
    282d:	04 00                	add    $0x0,%al
    282f:	00 04 7f             	add    %al,(%edi,%edi,2)
    2832:	03 00                	add    (%eax),%eax
    2834:	00 09                	add    %cl,(%ecx)
    2836:	72 61                	jb     2899 <mbh-0x2fd767>
    2838:	77 00                	ja     283a <mbh-0x2fd7c6>
    283a:	03 7d 11             	add    0x11(%ebp),%edi
    283d:	6f                   	outsl  %ds:(%esi),(%dx)
    283e:	03 00                	add    (%eax),%eax
    2840:	00 00                	add    %al,(%eax)
    2842:	02 5f 0b             	add    0xb(%edi),%bl
    2845:	00 00                	add    %al,(%eax)
    2847:	03 7f 1b             	add    0x1b(%edi),%edi
    284a:	f1                   	int1
    284b:	03 00                	add    (%eax),%eax
    284d:	00 07                	add    %al,(%edi)
    284f:	04 04                	add    $0x4,%al
    2851:	44                   	inc    %esp
    2852:	04 68                	add    $0x68,%al
    2854:	04 00                	add    $0x0,%al
    2856:	00 01                	add    %al,(%ecx)
    2858:	65 78 74             	gs js  28cf <mbh-0x2fd731>
    285b:	00 04 46             	add    %al,(%esi,%eax,2)
    285e:	12 4c 00 00          	adc    0x0(%eax,%eax,1),%cl
    2862:	00 01                	add    %al,(%ecx)
    2864:	00 01                	add    %al,(%ecx)
    2866:	69 64 74 00 04 47 12 	imul   $0x4c124704,0x0(%esp,%esi,2),%esp
    286d:	4c 
    286e:	00 00                	add    %al,(%eax)
    2870:	00 01                	add    %al,(%ecx)
    2872:	01 01                	add    %eax,(%ecx)
    2874:	74 69                	je     28df <mbh-0x2fd721>
    2876:	00 04 48             	add    %al,(%eax,%ecx,2)
    2879:	12 4c 00 00          	adc    0x0(%eax,%eax,1),%cl
    287d:	00 01                	add    %al,(%ecx)
    287f:	02 01                	add    (%ecx),%al
    2881:	69 64 78 00 04 49 12 	imul   $0x4c124904,0x0(%eax,%edi,2),%esp
    2888:	4c 
    2889:	00 00                	add    %al,(%eax)
    288b:	00 0d 03 01 72 00    	add    %cl,0x720103
    2891:	04 4a                	add    $0x4a,%al
    2893:	12 4c 00 00          	adc    0x0(%eax,%eax,1),%cl
    2897:	00 10                	add    %dl,(%eax)
    2899:	10 00                	adc    %al,(%eax)
    289b:	08 69 0b             	or     %ch,0xb(%ecx)
    289e:	00 00                	add    %al,(%eax)
    28a0:	04 04                	add    $0x4,%al
    28a2:	42                   	inc    %edx
    28a3:	7f 04                	jg     28a9 <mbh-0x2fd757>
    28a5:	00 00                	add    %al,(%eax)
    28a7:	04 1b                	add    $0x1b,%al
    28a9:	04 00                	add    $0x0,%al
    28ab:	00 04 06             	add    %al,(%esi,%eax,1)
    28ae:	02 00                	add    (%eax),%al
    28b0:	00 00                	add    %al,(%eax)
    28b2:	02 91 0b 00 00 04    	add    0x400000b(%ecx),%dl
    28b8:	50                   	push   %eax
    28b9:	1b 68 04             	sbb    0x4(%eax),%ebp
    28bc:	00 00                	add    %al,(%eax)
    28be:	07                   	pop    %es
    28bf:	04 04                	add    $0x4,%al
    28c1:	57                   	push   %edi
    28c2:	04 e2                	add    $0xe2,%al
    28c4:	04 00                	add    $0x0,%al
    28c6:	00 01                	add    %al,(%ecx)
    28c8:	70 00                	jo     28ca <mbh-0x2fd736>
    28ca:	04 59                	add    $0x59,%al
    28cc:	15 4c 00 00 00       	adc    $0x4c,%eax
    28d1:	01 00                	add    %eax,(%eax)
    28d3:	01 77 72             	add    %esi,0x72(%edi)
    28d6:	00 04 5a             	add    %al,(%edx,%ebx,2)
    28d9:	15 4c 00 00 00       	adc    $0x4c,%eax
    28de:	01 01                	add    %eax,(%ecx)
    28e0:	01 75 73             	add    %esi,0x73(%ebp)
    28e3:	00 04 5b             	add    %al,(%ebx,%ebx,2)
    28e6:	15 4c 00 00 00       	adc    $0x4c,%eax
    28eb:	01 02                	add    %eax,(%edx)
    28ed:	01 72 73             	add    %esi,0x73(%edx)
    28f0:	76 00                	jbe    28f2 <mbh-0x2fd70e>
    28f2:	04 5c                	add    $0x5c,%al
    28f4:	15 4c 00 00 00       	adc    $0x4c,%eax
    28f9:	01 03                	add    %eax,(%ebx)
    28fb:	01 69 64             	add    %ebp,0x64(%ecx)
    28fe:	00 04 5d 15 4c 00 00 	add    %al,0x4c15(,%ebx,2)
    2905:	00 01                	add    %al,(%ecx)
    2907:	04 01                	add    $0x1,%al
    2909:	72 00                	jb     290b <mbh-0x2fd6f5>
    290b:	04 5e                	add    $0x5e,%al
    290d:	15 4c 00 00 00       	adc    $0x4c,%eax
    2912:	1b 05 00 08 77 0a    	sbb    0xa770800,%eax
    2918:	00 00                	add    %al,(%eax)
    291a:	04 04                	add    $0x4,%al
    291c:	55                   	push   %ebp
    291d:	f9                   	stc
    291e:	04 00                	add    $0x0,%al
    2920:	00 04 8b             	add    %al,(%ebx,%ecx,4)
    2923:	04 00                	add    $0x0,%al
    2925:	00 04 06             	add    %al,(%esi,%eax,1)
    2928:	02 00                	add    (%eax),%al
    292a:	00 00                	add    %al,(%eax)
    292c:	02 9a 0a 00 00 04    	add    0x400000a(%edx),%bl
    2932:	64 1b e2             	fs sbb %edx,%esp
    2935:	04 00                	add    $0x0,%al
    2937:	00 08                	add    %cl,(%eax)
    2939:	ea 0a 00 00 04 04 69 	ljmp   $0x6904,$0x400000a
    2940:	2d 05 00 00 04       	sub    $0x4000005,%eax
    2945:	06                   	push   %es
    2946:	02 00                	add    (%eax),%al
    2948:	00 09                	add    %cl,(%ecx)
    294a:	73 6c                	jae    29b8 <mbh-0x2fd648>
    294c:	00 04 6d 0d 7f 04 00 	add    %al,0x47f0d(,%ebp,2)
    2953:	00 09                	add    %cl,(%ecx)
    2955:	70 66                	jo     29bd <mbh-0x2fd643>
    2957:	00 04 6e             	add    %al,(%esi,%ebp,2)
    295a:	0d f9 04 00 00       	or     $0x4f9,%eax
    295f:	00 02                	add    %al,(%edx)
    2961:	a3 0a 00 00 04       	mov    %eax,0x400000a
    2966:	70 1b                	jo     2983 <mbh-0x2fd67d>
    2968:	05 05 00 00 0e       	add    $0xe000005,%eax
    296d:	02 0c 00             	add    (%eax,%eax,1),%cl
    2970:	00 1c 05 29 9e 05 00 	add    %bl,0x59e29(,%eax,1)
    2977:	00 03                	add    %al,(%ebx)
    2979:	6e                   	outsb  %ds:(%esi),(%dx)
    297a:	72 00                	jb     297c <mbh-0x2fd684>
    297c:	05 2b 14 06 02       	add    $0x206142b,%eax
    2981:	00 00                	add    %al,(%eax)
    2983:	00 03                	add    %al,(%ebx)
    2985:	65 72 72             	gs jb  29fa <mbh-0x2fd606>
    2988:	00 05 2c 14 2d 05    	add    %al,0x52d142c
    298e:	00 00                	add    %al,(%eax)
    2990:	04 03                	add    $0x3,%al
    2992:	65 69 70 00 05 2d 14 	imul   $0x6142d05,%gs:0x0(%eax),%esi
    2999:	06 
    299a:	02 00                	add    (%eax),%al
    299c:	00 08                	add    %cl,(%eax)
    299e:	03 63 73             	add    0x73(%ebx),%esp
    29a1:	00 05 2e 14 06 02    	add    %al,0x206142e
    29a7:	00 00                	add    %al,(%eax)
    29a9:	0c 06                	or     $0x6,%al
    29ab:	49                   	dec    %ecx
    29ac:	0b 00                	or     (%eax),%eax
    29ae:	00 05 2f 14 63 03    	add    %al,0x363142f
    29b4:	00 00                	add    %al,(%eax)
    29b6:	10 03                	adc    %al,(%ebx)
    29b8:	65 73 70             	gs jae 2a2b <mbh-0x2fd5d5>
    29bb:	00 05 32 14 06 02    	add    %al,0x2061432
    29c1:	00 00                	add    %al,(%eax)
    29c3:	14 03                	adc    $0x3,%al
    29c5:	73 73                	jae    2a3a <mbh-0x2fd5c6>
    29c7:	00 05 33 14 06 02    	add    %al,0x2061433
    29cd:	00 00                	add    %al,(%eax)
    29cf:	18 00                	sbb    %al,(%eax)
    29d1:	02 3a                	add    (%edx),%bh
    29d3:	0b 00                	or     (%eax),%eax
    29d5:	00 05 35 1b 39 05    	add    %al,0x5391b35
    29db:	00 00                	add    %al,(%eax)
    29dd:	0e                   	push   %cs
    29de:	b7 0b                	mov    $0xb,%bh
    29e0:	00 00                	add    %al,(%eax)
    29e2:	3c 05                	cmp    $0x5,%al
    29e4:	38 ca                	cmp    %cl,%dl
    29e6:	05 00 00 03 67       	add    $0x67030000,%eax
    29eb:	70 72                	jo     2a5f <mbh-0x2fd5a1>
    29ed:	00 05 3a 0e 0f 04    	add    %al,0x40f0e3a
    29f3:	00 00                	add    %al,(%eax)
    29f5:	00 11                	add    %dl,(%ecx)
    29f7:	9e                   	sahf
    29f8:	05 00 00 20 00       	add    $0x200000,%eax
    29fd:	02 30                	add    (%eax),%dh
    29ff:	0b 00                	or     (%eax),%eax
    2a01:	00 05 3d 1b aa 05    	add    %al,0x5aa1b3d
    2a07:	00 00                	add    %al,(%eax)
    2a09:	0d ca 05 00 00       	or     $0x5ca,%eax
    2a0e:	0b 9a 00 00 00 eb    	or     -0x15000000(%edx),%ebx
    2a14:	05 00 00 0c 58       	add    $0x580c0000,%eax
    2a19:	00 00                	add    %al,(%eax)
    2a1b:	00 13                	add    %dl,(%ebx)
    2a1d:	00 1a                	add    %bl,(%edx)
    2a1f:	49                   	dec    %ecx
    2a20:	0c 00                	or     $0x0,%al
    2a22:	00 01                	add    %al,(%ecx)
    2a24:	09 0e                	or     %ecx,(%esi)
    2a26:	db 05 00 00 05 03    	fildl  0x3050000
    2a2c:	20 49 30             	and    %cl,0x30(%ecx)
    2a2f:	00 12                	add    %dl,(%edx)
    2a31:	f4                   	hlt
    2a32:	00 00                	add    %al,(%eax)
    2a34:	00 06                	add    %al,(%esi)
    2a36:	0c 0a                	or     $0xa,%al
    2a38:	10 06                	adc    %al,(%esi)
    2a3a:	00 00                	add    %al,(%eax)
    2a3c:	0f 10 06             	movups (%esi),%xmm0
    2a3f:	00 00                	add    %al,(%eax)
    2a41:	13 00                	adc    (%eax),%eax
    2a43:	0d a6 00 00 00       	or     $0xa6,%eax
    2a48:	12 59 0c             	adc    0xc(%ecx),%bl
    2a4b:	00 00                	add    %al,(%eax)
    2a4d:	07                   	pop    %es
    2a4e:	09 06                	or     %eax,(%esi)
    2a50:	27                   	daa
    2a51:	06                   	push   %es
    2a52:	00 00                	add    %al,(%eax)
    2a54:	0f be 00             	movsbl (%eax),%eax
    2a57:	00 00                	add    %al,(%eax)
    2a59:	00 1b                	add    %bl,(%ebx)
    2a5b:	b0 06                	mov    $0x6,%al
    2a5d:	00 00                	add    %al,(%eax)
    2a5f:	06                   	push   %es
    2a60:	0d 0a ab 00 00       	or     $0xab0a,%eax
    2a65:	00 3e                	add    %bh,(%esi)
    2a67:	06                   	push   %es
    2a68:	00 00                	add    %al,(%eax)
    2a6a:	0f 10 06             	movups (%esi),%xmm0
    2a6d:	00 00                	add    %al,(%eax)
    2a6f:	13 00                	adc    (%eax),%eax
    2a71:	1c 13                	sbb    $0x13,%al
    2a73:	0c 00                	or     $0x0,%al
    2a75:	00 01                	add    %al,(%ecx)
    2a77:	20 15 93 3d 30 00    	and    %dl,0x303d93
    2a7d:	7c 01                	jl     2a80 <mbh-0x2fd580>
    2a7f:	00 00                	add    %al,(%eax)
    2a81:	01 9c 1d 63 74 78 00 	add    %ebx,0x787463(%ebp,%ebx,1)
    2a88:	01 20                	add    %esp,(%eax)
    2a8a:	2a d6                	sub    %dh,%dl
    2a8c:	05 00 00 02 91       	add    $0x91020000,%eax
    2a91:	5c                   	pop    %esp
    2a92:	14 fc                	adc    $0xfc,%al
    2a94:	3d 30 00 09 00       	cmp    $0x90030,%eax
    2a99:	00 00                	add    %al,(%eax)
    2a9b:	79 06                	jns    2aa3 <mbh-0x2fd55d>
    2a9d:	00 00                	add    %al,(%eax)
    2a9f:	10 78 00             	adc    %bh,0x0(%eax)
    2aa2:	2c 07                	sub    $0x7,%al
    2aa4:	4c                   	dec    %esp
    2aa5:	00 00                	add    %al,(%eax)
    2aa7:	00 02                	add    %al,(%edx)
    2aa9:	91                   	xchg   %eax,%ecx
    2aaa:	6c                   	insb   (%dx),%es:(%edi)
    2aab:	00 14 b2             	add    %dl,(%edx,%esi,4)
    2aae:	3e 30 00             	xor    %al,%ds:(%eax)
    2ab1:	09 00                	or     %eax,(%eax)
    2ab3:	00 00                	add    %al,(%eax)
    2ab5:	93                   	xchg   %eax,%ebx
    2ab6:	06                   	push   %es
    2ab7:	00 00                	add    %al,(%eax)
    2ab9:	10 78 00             	adc    %bh,0x0(%eax)
    2abc:	3d 04 4c 00 00       	cmp    $0x4c04,%eax
    2ac1:	00 02                	add    %al,(%edx)
    2ac3:	91                   	xchg   %eax,%ecx
    2ac4:	68 00 1e cc 3e       	push   $0x3ecc1e00
    2ac9:	30 00                	xor    %al,(%eax)
    2acb:	09 00                	or     %eax,(%eax)
    2acd:	00 00                	add    %al,(%eax)
    2acf:	10 78 00             	adc    %bh,0x0(%eax)
    2ad2:	3e 04 4c             	ds add $0x4c,%al
    2ad5:	00 00                	add    %al,(%eax)
    2ad7:	00 02                	add    %al,(%edx)
    2ad9:	91                   	xchg   %eax,%ecx
    2ada:	64 00 00             	add    %al,%fs:(%eax)
    2add:	00 ef                	add    %ch,%bh
    2adf:	00 00                	add    %al,(%eax)
    2ae1:	00 05 00 01 04 60    	add    %al,0x60040100
    2ae7:	0a 00                	or     (%eax),%al
    2ae9:	00 05 1d 04 00 00    	add    %al,0x41d
    2aef:	1d 31 01 00 00       	sbb    $0x131,%eax
    2af4:	00 00                	add    %al,(%eax)
    2af6:	00 00                	add    %al,(%eax)
    2af8:	0f 3f                	(bad)
    2afa:	30 00                	xor    %al,(%eax)
    2afc:	56                   	push   %esi
    2afd:	00 00                	add    %al,(%eax)
    2aff:	00 a7 0a 00 00 01    	add    %ah,0x100000a(%edi)
    2b05:	01 08                	add    %ecx,(%eax)
    2b07:	d7                   	xlat   %ds:(%ebx)
    2b08:	01 00                	add    %eax,(%eax)
    2b0a:	00 01                	add    %al,(%ecx)
    2b0c:	02 07                	add    (%edi),%al
    2b0e:	79 02                	jns    2b12 <mbh-0x2fd4ee>
    2b10:	00 00                	add    %al,(%eax)
    2b12:	01 04 07             	add    %eax,(%edi,%eax,1)
    2b15:	1b 02                	sbb    (%edx),%eax
    2b17:	00 00                	add    %al,(%eax)
    2b19:	01 08                	add    %ecx,(%eax)
    2b1b:	07                   	pop    %es
    2b1c:	11 02                	adc    %eax,(%edx)
    2b1e:	00 00                	add    %al,(%eax)
    2b20:	01 01                	add    %eax,(%ecx)
    2b22:	06                   	push   %es
    2b23:	d9 01                	flds   (%ecx)
    2b25:	00 00                	add    %al,(%eax)
    2b27:	01 02                	add    %eax,(%edx)
    2b29:	05 a9 00 00 00       	add    $0xa9,%eax
    2b2e:	06                   	push   %es
    2b2f:	04 05                	add    $0x5,%al
    2b31:	69 6e 74 00 01 08 05 	imul   $0x5080100,0x74(%esi),%ebp
    2b38:	66 01 00             	add    %ax,(%eax)
    2b3b:	00 01                	add    %al,(%ecx)
    2b3d:	01 06                	add    %eax,(%esi)
    2b3f:	e0 01                	loopne 2b42 <mbh-0x2fd4be>
    2b41:	00 00                	add    %al,(%eax)
    2b43:	07                   	pop    %es
    2b44:	5e                   	pop    %esi
    2b45:	00 00                	add    %al,(%eax)
    2b47:	00 02                	add    %al,(%edx)
    2b49:	b3 00                	mov    $0x0,%bl
    2b4b:	00 00                	add    %al,(%eax)
    2b4d:	25 74 00 00 00       	and    $0x74,%eax
    2b52:	01 04 07             	add    %eax,(%edi,%eax,1)
    2b55:	16                   	push   %ss
    2b56:	02 00                	add    (%eax),%al
    2b58:	00 02                	add    %al,(%edx)
    2b5a:	b4 07                	mov    $0x7,%ah
    2b5c:	00 00                	add    %al,(%eax)
    2b5e:	26 74 00             	es je  2b61 <mbh-0x2fd49f>
    2b61:	00 00                	add    %al,(%eax)
    2b63:	08 65 0c             	or     %ah,0xc(%ebp)
    2b66:	00 00                	add    %al,(%eax)
    2b68:	01 06                	add    %eax,(%esi)
    2b6a:	11 7b 00             	adc    %edi,0x0(%ebx)
    2b6d:	00 00                	add    %al,(%eax)
    2b6f:	09 b0 06 00 00 03    	or     %esi,0x3000006(%eax)
    2b75:	0d 0a 6a 00 00       	or     $0x6a0a,%eax
    2b7a:	00 a8 00 00 00 0a    	add    %ch,0xa000000(%eax)
    2b80:	a8 00                	test   $0x0,%al
    2b82:	00 00                	add    %al,(%eax)
    2b84:	0b 00                	or     (%eax),%eax
    2b86:	03 65 00             	add    0x0(%ebp),%esp
    2b89:	00 00                	add    %al,(%eax)
    2b8b:	0c 59                	or     $0x59,%al
    2b8d:	0c 00                	or     $0x0,%al
    2b8f:	00 01                	add    %al,(%ecx)
    2b91:	08 06                	or     %al,(%esi)
    2b93:	0f 3f                	(bad)
    2b95:	30 00                	xor    %al,(%eax)
    2b97:	56                   	push   %esi
    2b98:	00 00                	add    %al,(%eax)
    2b9a:	00 01                	add    %al,(%ecx)
    2b9c:	9c                   	pushf
    2b9d:	ed                   	in     (%dx),%eax
    2b9e:	00 00                	add    %al,(%eax)
    2ba0:	00 0d 76 0c 00 00    	add    %cl,0xc76
    2ba6:	01 08                	add    %ecx,(%eax)
    2ba8:	1b 7b 00             	sbb    0x0(%ebx),%edi
    2bab:	00 00                	add    %al,(%eax)
    2bad:	02 91 00 04 65 62    	add    0x62650400(%ecx),%dl
    2bb3:	70 00                	jo     2bb5 <mbh-0x2fd44b>
    2bb5:	0e                   	push   %cs
    2bb6:	ed                   	in     (%dx),%eax
    2bb7:	00 00                	add    %al,(%eax)
    2bb9:	00 02                	add    %al,(%edx)
    2bbb:	91                   	xchg   %eax,%ecx
    2bbc:	6c                   	insb   (%dx),%es:(%edi)
    2bbd:	04 65                	add    $0x65,%al
    2bbf:	69 70 00 14 ed 00 00 	imul   $0xed14,0x0(%eax),%esi
    2bc6:	00 02                	add    %al,(%edx)
    2bc8:	91                   	xchg   %eax,%ecx
    2bc9:	68 00 03 7b 00       	push   $0x7b0300
    2bce:	00 00                	add    %al,(%eax)
    2bd0:	00 a9 04 00 00 05    	add    %ch,0x5000004(%ecx)
    2bd6:	00 01                	add    %al,(%ecx)
    2bd8:	04 21                	add    $0x21,%al
    2bda:	0b 00                	or     (%eax),%eax
    2bdc:	00 11                	add    %dl,(%ecx)
    2bde:	1d 04 00 00 1d       	sbb    $0x1d000004,%eax
    2be3:	48                   	dec    %eax
    2be4:	01 00                	add    %eax,(%eax)
    2be6:	00 00                	add    %al,(%eax)
    2be8:	00 00                	add    %al,(%eax)
    2bea:	00 65 3f             	add    %ah,0x3f(%ebp)
    2bed:	30 00                	xor    %al,(%eax)
    2bef:	e4 00                	in     $0x0,%al
    2bf1:	00 00                	add    %al,(%eax)
    2bf3:	27                   	daa
    2bf4:	0b 00                	or     (%eax),%eax
    2bf6:	00 01                	add    %al,(%ecx)
    2bf8:	f2 03 00             	repnz add (%eax),%eax
    2bfb:	00 02                	add    %al,(%edx)
    2bfd:	1a 20                	sbb    (%eax),%ah
    2bff:	32 00                	xor    (%eax),%al
    2c01:	00 00                	add    %al,(%eax)
    2c03:	05 01 08 d7 01       	add    $0x1d70801,%eax
    2c08:	00 00                	add    %al,(%eax)
    2c0a:	01 17                	add    %edx,(%edi)
    2c0c:	01 00                	add    %eax,(%eax)
    2c0e:	00 02                	add    %al,(%edx)
    2c10:	1b 20                	sbb    (%eax),%esp
    2c12:	45                   	inc    %ebp
    2c13:	00 00                	add    %al,(%eax)
    2c15:	00 05 02 07 79 02    	add    %al,0x2790702
    2c1b:	00 00                	add    %al,(%eax)
    2c1d:	01 a0 00 00 00 02    	add    %esp,0x2000000(%eax)
    2c23:	1c 20                	sbb    $0x20,%al
    2c25:	58                   	pop    %eax
    2c26:	00 00                	add    %al,(%eax)
    2c28:	00 05 04 07 1b 02    	add    %al,0x21b0704
    2c2e:	00 00                	add    %al,(%eax)
    2c30:	01 96 02 00 00 02    	add    %edx,0x2000002(%esi)
    2c36:	1d 20 6b 00 00       	sbb    $0x6b20,%eax
    2c3b:	00 05 08 07 11 02    	add    %al,0x2110708
    2c41:	00 00                	add    %al,(%eax)
    2c43:	05 01 06 d9 01       	add    $0x1d90601,%eax
    2c48:	00 00                	add    %al,(%eax)
    2c4a:	01 54 07 00          	add    %edx,0x0(%edi,%eax,1)
    2c4e:	00 02                	add    %al,(%edx)
    2c50:	20 20                	and    %ah,(%eax)
    2c52:	85 00                	test   %eax,(%eax)
    2c54:	00 00                	add    %al,(%eax)
    2c56:	05 02 05 a9 00       	add    $0xa90502,%eax
    2c5b:	00 00                	add    %al,(%eax)
    2c5d:	01 09                	add    %ecx,(%ecx)
    2c5f:	06                   	push   %es
    2c60:	00 00                	add    %al,(%eax)
    2c62:	02 21                	add    (%ecx),%ah
    2c64:	20 98 00 00 00 12    	and    %bl,0x12000000(%eax)
    2c6a:	04 05                	add    $0x5,%al
    2c6c:	69 6e 74 00 01 f4 06 	imul   $0x6f40100,0x74(%esi),%ebp
    2c73:	00 00                	add    %al,(%eax)
    2c75:	02 22                	add    (%edx),%ah
    2c77:	20 ab 00 00 00 05    	and    %ch,0x5000000(%ebx)
    2c7d:	08 05 66 01 00 00    	or     %al,0x166
    2c83:	05 01 06 e0 01       	add    $0x1e00601,%eax
    2c88:	00 00                	add    %al,(%eax)
    2c8a:	13 b2 00 00 00 01    	adc    0x1000000(%edx),%esi
    2c90:	b3 00                	mov    $0x0,%bl
    2c92:	00 00                	add    %al,(%eax)
    2c94:	02 25 20 ca 00 00    	add    0xca20,%ah
    2c9a:	00 05 04 07 16 02    	add    %al,0x2160704
    2ca0:	00 00                	add    %al,(%eax)
    2ca2:	01 b4 07 00 00 02 26 	add    %esi,0x26020000(%edi,%eax,1)
    2ca9:	20 ca                	and    %cl,%dl
    2cab:	00 00                	add    %al,(%eax)
    2cad:	00 06                	add    %al,(%esi)
    2caf:	02 02                	add    (%edx),%al
    2cb1:	4c                   	dec    %esp
    2cb2:	04 01                	add    $0x1,%al
    2cb4:	01 00                	add    %eax,(%eax)
    2cb6:	00 02                	add    %al,(%edx)
    2cb8:	f9                   	stc
    2cb9:	05 00 00 02 4e       	add    $0x4e020000,%eax
    2cbe:	0f 26 00             	mov    %eax,%tr0
    2cc1:	00 00                	add    %al,(%eax)
    2cc3:	00 02                	add    %al,(%edx)
    2cc5:	fd                   	std
    2cc6:	06                   	push   %es
    2cc7:	00 00                	add    %al,(%eax)
    2cc9:	02 4f 0f             	add    0xf(%edi),%cl
    2ccc:	26 00 00             	add    %al,%es:(%eax)
    2ccf:	00 01                	add    %al,(%ecx)
    2cd1:	00 08                	add    %cl,(%eax)
    2cd3:	31 06                	xor    %eax,(%esi)
    2cd5:	00 00                	add    %al,(%eax)
    2cd7:	02 02                	add    (%edx),%al
    2cd9:	45                   	inc    %ebp
    2cda:	36 01 00             	add    %eax,%ss:(%eax)
    2cdd:	00 09                	add    %cl,(%ecx)
    2cdf:	72 61                	jb     2d42 <mbh-0x2fd2be>
    2ce1:	77 00                	ja     2ce3 <mbh-0x2fd31d>
    2ce3:	47                   	inc    %edi
    2ce4:	0d 39 00 00 00       	or     $0x39,%eax
    2ce9:	03 3e                	add    (%esi),%edi
    2ceb:	07                   	pop    %es
    2cec:	00 00                	add    %al,(%eax)
    2cee:	02 48 0d             	add    0xd(%eax),%cl
    2cf1:	79 00                	jns    2cf3 <mbh-0x2fd30d>
    2cf3:	00 00                	add    %al,(%eax)
    2cf5:	03 b7 06 00 00 02    	add    0x2000006(%edi),%esi
    2cfb:	49                   	dec    %ecx
    2cfc:	0d 36 01 00 00       	or     $0x136,%eax
    2d01:	04 dd                	add    $0xdd,%al
    2d03:	00 00                	add    %al,(%eax)
    2d05:	00 00                	add    %al,(%eax)
    2d07:	0c 26                	or     $0x26,%al
    2d09:	00 00                	add    %al,(%eax)
    2d0b:	00 46 01             	add    %al,0x1(%esi)
    2d0e:	00 00                	add    %al,(%eax)
    2d10:	0d 58 00 00 00       	or     $0x58,%eax
    2d15:	01 00                	add    %eax,(%eax)
    2d17:	01 5f 06             	add    %ebx,0x6(%edi)
    2d1a:	00 00                	add    %al,(%eax)
    2d1c:	02 53 1b             	add    0x1b(%ebx),%dl
    2d1f:	01 01                	add    %eax,(%ecx)
    2d21:	00 00                	add    %al,(%eax)
    2d23:	06                   	push   %es
    2d24:	04 02                	add    $0x2,%al
    2d26:	5f                   	pop    %edi
    2d27:	04 76                	add    $0x76,%al
    2d29:	01 00                	add    %eax,(%eax)
    2d2b:	00 02                	add    %al,(%edx)
    2d2d:	03 07                	add    (%edi),%eax
    2d2f:	00 00                	add    %al,(%eax)
    2d31:	02 61 0f             	add    0xf(%ecx),%ah
    2d34:	46                   	inc    %esi
    2d35:	01 00                	add    %eax,(%eax)
    2d37:	00 00                	add    %al,(%eax)
    2d39:	02 00                	add    (%eax),%al
    2d3b:	08 00                	or     %al,(%eax)
    2d3d:	00 02                	add    %al,(%edx)
    2d3f:	62 0f                	bound  %ecx,(%edi)
    2d41:	46                   	inc    %esi
    2d42:	01 00                	add    %eax,(%eax)
    2d44:	00 02                	add    %al,(%edx)
    2d46:	00 06                	add    %al,(%esi)
    2d48:	02 02                	add    (%edx),%al
    2d4a:	6b 0a 9a             	imul   $0xffffff9a,(%edx),%ecx
    2d4d:	01 00                	add    %eax,(%eax)
    2d4f:	00 02                	add    %al,(%edx)
    2d51:	f9                   	stc
    2d52:	05 00 00 02 6d       	add    $0x6d020000,%eax
    2d57:	15 26 00 00 00       	adc    $0x26,%eax
    2d5c:	00 02                	add    %al,(%edx)
    2d5e:	fd                   	std
    2d5f:	06                   	push   %es
    2d60:	00 00                	add    %al,(%eax)
    2d62:	02 6e 15             	add    0x15(%esi),%ch
    2d65:	26 00 00             	add    %al,%es:(%eax)
    2d68:	00 01                	add    %al,(%ecx)
    2d6a:	00 0a                	add    %cl,(%edx)
    2d6c:	02 02                	add    (%edx),%al
    2d6e:	69 07 b5 01 00 00    	imul   $0x1b5,(%edi),%eax
    2d74:	04 76                	add    $0x76,%al
    2d76:	01 00                	add    %eax,(%eax)
    2d78:	00 03                	add    %al,(%ebx)
    2d7a:	04 07                	add    $0x7,%al
    2d7c:	00 00                	add    %al,(%eax)
    2d7e:	02 72 13             	add    0x13(%edx),%dh
    2d81:	39 00                	cmp    %eax,(%eax)
    2d83:	00 00                	add    %al,(%eax)
    2d85:	00 06                	add    %al,(%esi)
    2d87:	04 02                	add    $0x2,%al
    2d89:	67 04 d2             	addr16 add $0xd2,%al
    2d8c:	01 00                	add    %eax,(%eax)
    2d8e:	00 0b                	add    %cl,(%ebx)
    2d90:	9a 01 00 00 00 02 01 	lcall  $0x102,$0x1
    2d97:	08 00                	or     %al,(%eax)
    2d99:	00 02                	add    %al,(%edx)
    2d9b:	76 10                	jbe    2dad <mbh-0x2fd253>
    2d9d:	39 00                	cmp    %eax,(%eax)
    2d9f:	00 00                	add    %al,(%eax)
    2da1:	02 00                	add    (%eax),%al
    2da3:	08 18                	or     %bl,(%eax)
    2da5:	07                   	pop    %es
    2da6:	00 00                	add    %al,(%eax)
    2da8:	04 02                	add    $0x2,%al
    2daa:	58                   	pop    %eax
    2dab:	0c 02                	or     $0x2,%al
    2dad:	00 00                	add    %al,(%eax)
    2daf:	09 72 61             	or     %esi,0x61(%edx)
    2db2:	77 00                	ja     2db4 <mbh-0x2fd24c>
    2db4:	5a                   	pop    %edx
    2db5:	0d 4c 00 00 00       	or     $0x4c,%eax
    2dba:	03 3e                	add    (%esi),%edi
    2dbc:	07                   	pop    %es
    2dbd:	00 00                	add    %al,(%eax)
    2dbf:	02 5b 0d             	add    0xd(%ebx),%bl
    2dc2:	8c 00                	mov    %es,(%eax)
    2dc4:	00 00                	add    %al,(%eax)
    2dc6:	03 b7 06 00 00 02    	add    0x2000006(%edi),%esi
    2dcc:	5c                   	pop    %esp
    2dcd:	0d 0c 02 00 00       	or     $0x20c,%eax
    2dd2:	04 52                	add    $0x52,%al
    2dd4:	01 00                	add    %eax,(%eax)
    2dd6:	00 04 b5 01 00 00 00 	add    %al,0x1(,%esi,4)
    2ddd:	0c 26                	or     $0x26,%al
    2ddf:	00 00                	add    %al,(%eax)
    2de1:	00 1c 02             	add    %bl,(%edx,%eax,1)
    2de4:	00 00                	add    %al,(%eax)
    2de6:	0d 58 00 00 00       	or     $0x58,%eax
    2deb:	03 00                	add    (%eax),%eax
    2ded:	01 82 07 00 00 02    	add    %eax,0x2000007(%edx)
    2df3:	7a 1b                	jp     2e10 <mbh-0x2fd1f0>
    2df5:	d2 01                	rolb   %cl,(%ecx)
    2df7:	00 00                	add    %al,(%eax)
    2df9:	06                   	push   %es
    2dfa:	08 02                	or     %al,(%edx)
    2dfc:	86 04 4c             	xchg   %al,(%esp,%ecx,2)
    2dff:	02 00                	add    (%eax),%al
    2e01:	00 02                	add    %al,(%edx)
    2e03:	e5 06                	in     $0x6,%eax
    2e05:	00 00                	add    %al,(%eax)
    2e07:	02 88 0f 1c 02 00    	add    0x21c0f(%eax),%cl
    2e0d:	00 00                	add    %al,(%eax)
    2e0f:	02 38                	add    (%eax),%bh
    2e11:	07                   	pop    %es
    2e12:	00 00                	add    %al,(%eax)
    2e14:	02 89 0f 1c 02 00    	add    0x21c0f(%ecx),%cl
    2e1a:	00 04 00             	add    %al,(%eax,%eax,1)
    2e1d:	06                   	push   %es
    2e1e:	02 02                	add    (%edx),%al
    2e20:	96                   	xchg   %eax,%esi
    2e21:	10 70 02             	adc    %dh,0x2(%eax)
    2e24:	00 00                	add    %al,(%eax)
    2e26:	02 f9                	add    %cl,%bh
    2e28:	05 00 00 02 98       	add    $0x98020000,%eax
    2e2d:	1b 26                	sbb    (%esi),%esp
    2e2f:	00 00                	add    %al,(%eax)
    2e31:	00 00                	add    %al,(%eax)
    2e33:	02 fd                	add    %ch,%bh
    2e35:	06                   	push   %es
    2e36:	00 00                	add    %al,(%eax)
    2e38:	02 99 1b 26 00 00    	add    0x261b(%ecx),%bl
    2e3e:	00 01                	add    %al,(%ecx)
    2e40:	00 0a                	add    %cl,(%edx)
    2e42:	02 02                	add    (%edx),%al
    2e44:	94                   	xchg   %eax,%esp
    2e45:	0d 8b 02 00 00       	or     $0x28b,%eax
    2e4a:	04 4c                	add    $0x4c,%al
    2e4c:	02 00                	add    (%eax),%al
    2e4e:	00 03                	add    %al,(%ebx)
    2e50:	04 07                	add    $0x7,%al
    2e52:	00 00                	add    %al,(%eax)
    2e54:	02 9d 19 39 00 00    	add    0x3919(%ebp),%bl
    2e5a:	00 00                	add    %al,(%eax)
    2e5c:	06                   	push   %es
    2e5d:	04 02                	add    $0x2,%al
    2e5f:	92                   	xchg   %eax,%edx
    2e60:	0a a8 02 00 00 0b    	or     0xb000002(%eax),%ch
    2e66:	70 02                	jo     2e6a <mbh-0x2fd196>
    2e68:	00 00                	add    %al,(%eax)
    2e6a:	00 02                	add    %al,(%edx)
    2e6c:	01 08                	add    %ecx,(%eax)
    2e6e:	00 00                	add    %al,(%eax)
    2e70:	02 a1 16 39 00 00    	add    0x3916(%ecx),%ah
    2e76:	00 02                	add    %al,(%edx)
    2e78:	00 0a                	add    %cl,(%edx)
    2e7a:	04 02                	add    $0x2,%al
    2e7c:	90                   	nop
    2e7d:	07                   	pop    %es
    2e7e:	c2 02 00             	ret    $0x2
    2e81:	00 04 8b             	add    %al,(%ebx,%ecx,4)
    2e84:	02 00                	add    (%eax),%al
    2e86:	00 09                	add    %cl,(%ecx)
    2e88:	6c                   	insb   (%dx),%es:(%edi)
    2e89:	6f                   	outsl  %ds:(%esi),(%dx)
    2e8a:	77 00                	ja     2e8c <mbh-0x2fd174>
    2e8c:	a5                   	movsl  %ds:(%esi),%es:(%edi)
    2e8d:	14 4c                	adc    $0x4c,%al
    2e8f:	00 00                	add    %al,(%eax)
    2e91:	00 00                	add    %al,(%eax)
    2e93:	06                   	push   %es
    2e94:	08 02                	or     %al,(%edx)
    2e96:	8e 04 df             	mov    (%edi,%ebx,8),%es
    2e99:	02 00                	add    (%eax),%al
    2e9b:	00 0b                	add    %cl,(%ebx)
    2e9d:	a8 02                	test   $0x2,%al
    2e9f:	00 00                	add    %al,(%eax)
    2ea1:	00 02                	add    %al,(%edx)
    2ea3:	39 07                	cmp    %eax,(%edi)
    2ea5:	00 00                	add    %al,(%eax)
    2ea7:	02 a9 11 4c 00 00    	add    0x4c11(%ecx),%ch
    2ead:	00 04 00             	add    %al,(%eax,%eax,1)
    2eb0:	08 80 06 00 00 08    	or     %al,0x8000006(%eax)
    2eb6:	02 7f 19             	add    0x19(%edi),%bh
    2eb9:	03 00                	add    (%eax),%eax
    2ebb:	00 09                	add    %cl,(%ecx)
    2ebd:	72 61                	jb     2f20 <mbh-0x2fd0e0>
    2ebf:	77 00                	ja     2ec1 <mbh-0x2fd13f>
    2ec1:	81 0d 5f 00 00 00 03 	orl    $0x73e03,0x5f
    2ec8:	3e 07 00 
    2ecb:	00 02                	add    %al,(%edx)
    2ecd:	82 0d 9f 00 00 00 03 	orb    $0x3,0x9f
    2ed4:	b7 06                	mov    $0x6,%bh
    2ed6:	00 00                	add    %al,(%eax)
    2ed8:	02 83 0d 19 03 00    	add    0x3190d(%ebx),%al
    2ede:	00 04 28             	add    %al,(%eax,%ebp,1)
    2ee1:	02 00                	add    (%eax),%al
    2ee3:	00 04 c2             	add    %al,(%edx,%eax,8)
    2ee6:	02 00                	add    (%eax),%al
    2ee8:	00 00                	add    %al,(%eax)
    2eea:	0c 26                	or     $0x26,%al
    2eec:	00 00                	add    %al,(%eax)
    2eee:	00 29                	add    %ch,(%ecx)
    2ef0:	03 00                	add    (%eax),%eax
    2ef2:	00 0d 58 00 00 00    	add    %cl,0x58
    2ef8:	07                   	pop    %es
    2ef9:	00 01                	add    %al,(%ecx)
    2efb:	15 08 00 00 02       	adc    $0x2000008,%eax
    2f00:	ad                   	lods   %ds:(%esi),%eax
    2f01:	1b df                	sbb    %edi,%ebx
    2f03:	02 00                	add    (%eax),%al
    2f05:	00 06                	add    %al,(%esi)
    2f07:	08 03                	or     %al,(%ebx)
    2f09:	46                   	inc    %esi
    2f0a:	04 a9                	add    $0xa9,%al
    2f0c:	03 00                	add    (%eax),%eax
    2f0e:	00 07                	add    %al,(%edi)
    2f10:	9a 0b 00 00 48 5f 00 	lcall  $0x5f,$0x4800000b
    2f17:	00 00                	add    %al,(%eax)
    2f19:	10 00                	adc    %al,(%eax)
    2f1b:	07                   	pop    %es
    2f1c:	1d 0c 00 00 49       	sbb    $0x4900000c,%eax
    2f21:	5f                   	pop    %edi
    2f22:	00 00                	add    %al,(%eax)
    2f24:	00 10                	add    %dl,(%eax)
    2f26:	10 0e                	adc    %cl,(%esi)
    2f28:	69 73 74 00 4a 5f 00 	imul   $0x5f4a00,0x74(%ebx),%esi
    2f2f:	00 00                	add    %al,(%eax)
    2f31:	03 20                	add    (%eax),%esp
    2f33:	07                   	pop    %es
    2f34:	26 0c 00             	es or  $0x0,%al
    2f37:	00 4b 5f             	add    %cl,0x5f(%ebx)
    2f3a:	00 00                	add    %al,(%eax)
    2f3c:	00 05 23 07 05 03    	add    %al,0x3050723
    2f42:	00 00                	add    %al,(%eax)
    2f44:	4c                   	dec    %esp
    2f45:	5f                   	pop    %edi
    2f46:	00 00                	add    %al,(%eax)
    2f48:	00 04 28             	add    %al,(%eax,%ebp,1)
    2f4b:	07                   	pop    %es
    2f4c:	2d 0c 00 00 4d       	sub    $0x4d00000c,%eax
    2f51:	5f                   	pop    %edi
    2f52:	00 00                	add    %al,(%eax)
    2f54:	00 01                	add    %al,(%ecx)
    2f56:	2c 0e                	sub    $0xe,%al
    2f58:	64 70 6c             	fs jo  2fc7 <mbh-0x2fd039>
    2f5b:	00 4e 5f             	add    %cl,0x5f(%esi)
    2f5e:	00 00                	add    %al,(%eax)
    2f60:	00 02                	add    %al,(%edx)
    2f62:	2d 0e 70 00 4f       	sub    $0x4f00700e,%eax
    2f67:	5f                   	pop    %edi
    2f68:	00 00                	add    %al,(%eax)
    2f6a:	00 01                	add    %al,(%ecx)
    2f6c:	2f                   	das
    2f6d:	07                   	pop    %es
    2f6e:	a3 0b 00 00 50       	mov    %eax,0x5000000b
    2f73:	5f                   	pop    %edi
    2f74:	00 00                	add    %al,(%eax)
    2f76:	00 10                	add    %dl,(%eax)
    2f78:	30 00                	xor    %al,(%eax)
    2f7a:	08 d5                	or     %dl,%ch
    2f7c:	0a 00                	or     (%eax),%al
    2f7e:	00 08                	add    %cl,(%eax)
    2f80:	03 44 c0 03          	add    0x3(%eax,%eax,8),%eax
    2f84:	00 00                	add    %al,(%eax)
    2f86:	04 35                	add    $0x35,%al
    2f88:	03 00                	add    (%eax),%eax
    2f8a:	00 04 29             	add    %al,(%ecx,%ebp,1)
    2f8d:	03 00                	add    (%eax),%eax
    2f8f:	00 00                	add    %al,(%eax)
    2f91:	01 ac 0b 00 00 03 56 	add    %ebp,0x56030000(%ebx,%ecx,1)
    2f98:	1b a9 03 00 00 0a    	sbb    0xa000003(%ecx),%ebp
    2f9e:	04 03                	add    $0x3,%al
    2fa0:	5e                   	pop    %esi
    2fa1:	04 ee                	add    $0xee,%al
    2fa3:	03 00                	add    (%eax),%eax
    2fa5:	00 03                	add    %al,(%ebx)
    2fa7:	f4                   	hlt
    2fa8:	05 00 00 03 60       	add    $0x60030000,%eax
    2fad:	14 d1                	adc    $0xd1,%al
    2faf:	00 00                	add    %al,(%eax)
    2fb1:	00 03                	add    %al,(%ebx)
    2fb3:	44                   	inc    %esp
    2fb4:	0b 00                	or     (%eax),%eax
    2fb6:	00 03                	add    %al,(%ebx)
    2fb8:	61                   	popa
    2fb9:	15 ee 03 00 00       	adc    $0x3ee,%eax
    2fbe:	00 0f                	add    %cl,(%edi)
    2fc0:	c0 03 00             	rolb   $0x0,(%ebx)
    2fc3:	00 14 0c             	add    %dl,(%esp,%ecx,1)
    2fc6:	0b 00                	or     (%eax),%eax
    2fc8:	00 06                	add    %al,(%esi)
    2fca:	03 5b 10             	add    0x10(%ebx),%ebx
    2fcd:	14 04                	adc    $0x4,%al
    2fcf:	00 00                	add    %al,(%eax)
    2fd1:	02 06                	add    (%esi),%al
    2fd3:	0b 00                	or     (%eax),%eax
    2fd5:	00 03                	add    %al,(%ebx)
    2fd7:	5d                   	pop    %ebp
    2fd8:	14 39                	adc    $0x39,%al
    2fda:	00 00                	add    %al,(%eax)
    2fdc:	00 00                	add    %al,(%eax)
    2fde:	0b cc                	or     %esp,%ecx
    2fe0:	03 00                	add    (%eax),%eax
    2fe2:	00 02                	add    %al,(%edx)
    2fe4:	00 01                	add    %al,(%ecx)
    2fe6:	66 0a 00             	data16 or (%eax),%al
    2fe9:	00 03                	add    %al,(%ebx)
    2feb:	64 1b f3             	fs sbb %ebx,%esi
    2fee:	03 00                	add    (%eax),%eax
    2ff0:	00 15 b0 06 00 00    	add    %dl,0x6b0
    2ff6:	04 0d                	add    $0xd,%al
    2ff8:	0a be 00 00 00 37    	or     0x37000000(%esi),%bh
    2ffe:	04 00                	add    $0x0,%al
    3000:	00 16                	add    %dl,(%esi)
    3002:	37                   	aaa
    3003:	04 00                	add    $0x0,%al
    3005:	00 17                	add    %dl,(%edi)
    3007:	00 0f                	add    %cl,(%edi)
    3009:	b9 00 00 00 18       	mov    $0x18000000,%ecx
    300e:	74 70                	je     3080 <mbh-0x2fcf80>
    3010:	00 01                	add    %al,(%ecx)
    3012:	19 06                	sbb    %eax,(%esi)
    3014:	91                   	xchg   %eax,%ecx
    3015:	3f                   	aas
    3016:	30 00                	xor    %al,(%eax)
    3018:	b8 00 00 00 01       	mov    $0x1000000,%eax
    301d:	9c                   	pushf
    301e:	78 04                	js     3024 <mbh-0x2fcfdc>
    3020:	00 00                	add    %al,(%eax)
    3022:	10 01                	adc    %al,(%ecx)
    3024:	0b 00                	or     (%eax),%eax
    3026:	00 1a                	add    %bl,(%edx)
    3028:	0c 14                	or     $0x14,%al
    302a:	04 00                	add    $0x0,%al
    302c:	00 02                	add    %al,(%edx)
    302e:	91                   	xchg   %eax,%ecx
    302f:	6a 19                	push   $0x19
    3031:	b0 3f                	mov    $0x3f,%al
    3033:	30 00                	xor    %al,(%eax)
    3035:	8e 00                	mov    (%eax),%es
    3037:	00 00                	add    %al,(%eax)
    3039:	10 f4                	adc    %dh,%ah
    303b:	05 00 00 1d 02       	add    $0x21d0000,%eax
    3040:	1c 02                	sbb    $0x2,%al
    3042:	00 00                	add    %al,(%eax)
    3044:	02 91 66 00 00 1a    	add    0x1a000066(%ecx),%dl
    304a:	7b 0c                	jnp    3058 <mbh-0x2fcfa8>
    304c:	00 00                	add    %al,(%eax)
    304e:	01 15 06 8a 3f 30    	add    %edx,0x303f8a06
    3054:	00 07                	add    %al,(%edi)
    3056:	00 00                	add    %al,(%eax)
    3058:	00 01                	add    %al,(%ecx)
    305a:	9c                   	pushf
    305b:	1b 86 0c 00 00 01    	sbb    0x100000c(%esi),%eax
    3061:	07                   	pop    %es
    3062:	06                   	push   %es
    3063:	65 3f                	gs aas
    3065:	30 00                	xor    %al,(%eax)
    3067:	25 00 00 00 01       	and    $0x1000000,%eax
    306c:	9c                   	pushf
    306d:	1c 76                	sbb    $0x76,%al
    306f:	61                   	popa
    3070:	6c                   	insb   (%dx),%es:(%edi)
    3071:	00 01                	add    %al,(%ecx)
    3073:	08 0d 4c 00 00 00    	or     %cl,0x4c
    3079:	02                   	.byte 0x2
    307a:	91                   	xchg   %eax,%ecx
    307b:	6c                   	insb   (%dx),%es:(%edi)
	...

Déassemblage de la section .debug_abbrev :

00000000 <.debug_abbrev>:
   0:	01 11                	add    %edx,(%ecx)
   2:	00 10                	add    %dl,(%eax)
   4:	17                   	pop    %ss
   5:	11 01                	adc    %eax,(%ecx)
   7:	12 0f                	adc    (%edi),%cl
   9:	03 0e                	add    (%esi),%ecx
   b:	1b 0e                	sbb    (%esi),%ecx
   d:	25 0e 13 05 00       	and    $0x5130e,%eax
  12:	00 00                	add    %al,(%eax)
  14:	01 0d 00 03 0e 3a    	add    %ecx,0x3a0e0300
  1a:	21 03                	and    %eax,(%ebx)
  1c:	3b 0b                	cmp    (%ebx),%ecx
  1e:	39 0b                	cmp    %ecx,(%ebx)
  20:	49                   	dec    %ecx
  21:	13 38                	adc    (%eax),%edi
  23:	0b 00                	or     (%eax),%eax
  25:	00 02                	add    %al,(%edx)
  27:	16                   	push   %ss
  28:	00 03                	add    %al,(%ebx)
  2a:	0e                   	push   %cs
  2b:	3a 0b                	cmp    (%ebx),%cl
  2d:	3b 0b                	cmp    (%ebx),%ecx
  2f:	39 0b                	cmp    %ecx,(%ebx)
  31:	49                   	dec    %ecx
  32:	13 00                	adc    (%eax),%eax
  34:	00 03                	add    %al,(%ebx)
  36:	24 00                	and    $0x0,%al
  38:	0b 0b                	or     (%ebx),%ecx
  3a:	3e 0b 03             	or     %ds:(%ebx),%eax
  3d:	0e                   	push   %cs
  3e:	00 00                	add    %al,(%eax)
  40:	04 18                	add    $0x18,%al
  42:	00 00                	add    %al,(%eax)
  44:	00 05 13 01 03 0e    	add    %al,0xe030113
  4a:	0b 0b                	or     (%ebx),%ecx
  4c:	3a 0b                	cmp    (%ebx),%cl
  4e:	3b 0b                	cmp    (%ebx),%ecx
  50:	39 0b                	cmp    %ecx,(%ebx)
  52:	01 13                	add    %edx,(%ebx)
  54:	00 00                	add    %al,(%eax)
  56:	06                   	push   %es
  57:	26 00 49 13          	add    %cl,%es:0x13(%ecx)
  5b:	00 00                	add    %al,(%eax)
  5d:	07                   	pop    %es
  5e:	0d 00 03 08 3a       	or     $0x3a080300,%eax
  63:	0b 3b                	or     (%ebx),%edi
  65:	0b 39                	or     (%ecx),%edi
  67:	0b 49 13             	or     0x13(%ecx),%ecx
  6a:	38 0b                	cmp    %cl,(%ebx)
  6c:	00 00                	add    %al,(%eax)
  6e:	08 0f                	or     %cl,(%edi)
  70:	00 0b                	add    %cl,(%ebx)
  72:	21 04 49             	and    %eax,(%ecx,%ecx,2)
  75:	13 00                	adc    (%eax),%eax
  77:	00 09                	add    %cl,(%ecx)
  79:	35 00 49 13 00       	xor    $0x134900,%eax
  7e:	00 0a                	add    %cl,(%edx)
  80:	17                   	pop    %ss
  81:	01 0b                	add    %ecx,(%ebx)
  83:	0b 3a                	or     (%edx),%edi
  85:	21 03                	and    %eax,(%ebx)
  87:	3b 0b                	cmp    (%ebx),%ecx
  89:	39 21                	cmp    %esp,(%ecx)
  8b:	03 01                	add    (%ecx),%eax
  8d:	13 00                	adc    (%eax),%eax
  8f:	00 0b                	add    %cl,(%ebx)
  91:	0d 00 03 0e 3a       	or     $0x3a0e0300,%eax
  96:	21 03                	and    %eax,(%ebx)
  98:	3b 0b                	cmp    (%ebx),%ecx
  9a:	39 0b                	cmp    %ecx,(%ebx)
  9c:	49                   	dec    %ecx
  9d:	13 00                	adc    (%eax),%eax
  9f:	00 0c 13             	add    %cl,(%ebx,%edx,1)
  a2:	01 0b                	add    %ecx,(%ebx)
  a4:	0b 3a                	or     (%edx),%edi
  a6:	21 03                	and    %eax,(%ebx)
  a8:	3b 0b                	cmp    (%ebx),%ecx
  aa:	39 21                	cmp    %esp,(%ecx)
  ac:	05 01 13 00 00       	add    $0x1301,%eax
  b1:	0d 0d 00 49 13       	or     $0x1349000d,%eax
  b6:	00 00                	add    %al,(%eax)
  b8:	0e                   	push   %cs
  b9:	05 00 49 13 00       	add    $0x134900,%eax
  be:	00 0f                	add    %cl,(%edi)
  c0:	2e 01 3f             	add    %edi,%cs:(%edi)
  c3:	19 03                	sbb    %eax,(%ebx)
  c5:	0e                   	push   %cs
  c6:	3a 0b                	cmp    (%ebx),%cl
  c8:	3b 05 39 0b 3c 19    	cmp    0x193c0b39,%eax
  ce:	01 13                	add    %edx,(%ebx)
  d0:	00 00                	add    %al,(%eax)
  d2:	10 11                	adc    %dl,(%ecx)
  d4:	01 25 0e 13 0b 03    	add    %esp,0x30b130e
  da:	1f                   	pop    %ds
  db:	1b 1f                	sbb    (%edi),%ebx
  dd:	11 01                	adc    %eax,(%ecx)
  df:	12 06                	adc    (%esi),%al
  e1:	10 17                	adc    %dl,(%edi)
  e3:	00 00                	add    %al,(%eax)
  e5:	11 24 00             	adc    %esp,(%eax,%eax,1)
  e8:	0b 0b                	or     (%ebx),%ecx
  ea:	3e 0b 03             	or     %ds:(%ebx),%eax
  ed:	08 00                	or     %al,(%eax)
  ef:	00 12                	add    %dl,(%edx)
  f1:	0d 00 49 13 38       	or     $0x38134900,%eax
  f6:	0b 00                	or     (%eax),%eax
  f8:	00 13                	add    %dl,(%ebx)
  fa:	01 01                	add    %eax,(%ecx)
  fc:	49                   	dec    %ecx
  fd:	13 01                	adc    (%ecx),%eax
  ff:	13 00                	adc    (%eax),%eax
 101:	00 14 21             	add    %dl,(%ecx,%eiz,1)
 104:	00 49 13             	add    %cl,0x13(%ecx)
 107:	2f                   	das
 108:	0b 00                	or     (%eax),%eax
 10a:	00 15 34 00 03 08    	add    %dl,0x8030034
 110:	3a 0b                	cmp    (%ebx),%cl
 112:	3b 0b                	cmp    (%ebx),%ecx
 114:	39 0b                	cmp    %ecx,(%ebx)
 116:	49                   	dec    %ecx
 117:	13 3f                	adc    (%edi),%edi
 119:	19 88 01 0b 02 18    	sbb    %ecx,0x18020b01(%eax)
 11f:	00 00                	add    %al,(%eax)
 121:	16                   	push   %ss
 122:	34 00                	xor    $0x0,%al
 124:	03 0e                	add    (%esi),%ecx
 126:	3a 0b                	cmp    (%ebx),%cl
 128:	3b 0b                	cmp    (%ebx),%ecx
 12a:	39 0b                	cmp    %ecx,(%ebx)
 12c:	49                   	dec    %ecx
 12d:	13 88 01 0b 02 18    	adc    0x18020b01(%eax),%ecx
 133:	00 00                	add    %al,(%eax)
 135:	17                   	pop    %ss
 136:	34 00                	xor    $0x0,%al
 138:	03 0e                	add    (%esi),%ecx
 13a:	3a 0b                	cmp    (%ebx),%cl
 13c:	3b 0b                	cmp    (%ebx),%ecx
 13e:	39 0b                	cmp    %ecx,(%ebx)
 140:	49                   	dec    %ecx
 141:	13 3f                	adc    (%edi),%edi
 143:	19 02                	sbb    %eax,(%edx)
 145:	18 00                	sbb    %al,(%eax)
 147:	00 18                	add    %bl,(%eax)
 149:	2e 01 3f             	add    %edi,%cs:(%edi)
 14c:	19 03                	sbb    %eax,(%ebx)
 14e:	0e                   	push   %cs
 14f:	3a 0b                	cmp    (%ebx),%cl
 151:	3b 0b                	cmp    (%ebx),%ecx
 153:	39 0b                	cmp    %ecx,(%ebx)
 155:	27                   	daa
 156:	19 3c 19             	sbb    %edi,(%ecx,%ebx,1)
 159:	01 13                	add    %edx,(%ebx)
 15b:	00 00                	add    %al,(%eax)
 15d:	19 2e                	sbb    %ebp,(%esi)
 15f:	01 3f                	add    %edi,(%edi)
 161:	19 03                	sbb    %eax,(%ebx)
 163:	08 3a                	or     %bh,(%edx)
 165:	0b 3b                	or     (%ebx),%edi
 167:	0b 39                	or     (%ecx),%edi
 169:	0b 3c 19             	or     (%ecx,%ebx,1),%edi
 16c:	01 13                	add    %edx,(%ebx)
 16e:	00 00                	add    %al,(%eax)
 170:	1a 2e                	sbb    (%esi),%ch
 172:	01 3f                	add    %edi,(%edi)
 174:	19 03                	sbb    %eax,(%ebx)
 176:	0e                   	push   %cs
 177:	3a 0b                	cmp    (%ebx),%cl
 179:	3b 0b                	cmp    (%ebx),%ecx
 17b:	39 0b                	cmp    %ecx,(%ebx)
 17d:	27                   	daa
 17e:	19 49 13             	sbb    %ecx,0x13(%ecx)
 181:	3c 19                	cmp    $0x19,%al
 183:	01 13                	add    %edx,(%ebx)
 185:	00 00                	add    %al,(%eax)
 187:	1b 2e                	sbb    (%esi),%ebp
 189:	01 3f                	add    %edi,(%edi)
 18b:	19 03                	sbb    %eax,(%ebx)
 18d:	0e                   	push   %cs
 18e:	3a 0b                	cmp    (%ebx),%cl
 190:	3b 0b                	cmp    (%ebx),%ecx
 192:	39 0b                	cmp    %ecx,(%ebx)
 194:	3c 19                	cmp    $0x19,%al
 196:	01 13                	add    %edx,(%ebx)
 198:	00 00                	add    %al,(%eax)
 19a:	1c 2e                	sbb    $0x2e,%al
 19c:	01 3f                	add    %edi,(%edi)
 19e:	19 03                	sbb    %eax,(%ebx)
 1a0:	0e                   	push   %cs
 1a1:	3a 0b                	cmp    (%ebx),%cl
 1a3:	3b 0b                	cmp    (%ebx),%ecx
 1a5:	39 0b                	cmp    %ecx,(%ebx)
 1a7:	27                   	daa
 1a8:	19 11                	sbb    %edx,(%ecx)
 1aa:	01 12                	add    %edx,(%edx)
 1ac:	06                   	push   %es
 1ad:	40                   	inc    %eax
 1ae:	18 7c 19 00          	sbb    %bh,0x0(%ecx,%ebx,1)
 1b2:	00 1d 05 00 03 08    	add    %bl,0x8030005
 1b8:	3a 0b                	cmp    (%ebx),%cl
 1ba:	3b 0b                	cmp    (%ebx),%ecx
 1bc:	39 0b                	cmp    %ecx,(%ebx)
 1be:	49                   	dec    %ecx
 1bf:	13 02                	adc    (%edx),%eax
 1c1:	18 00                	sbb    %al,(%eax)
 1c3:	00 00                	add    %al,(%eax)
 1c5:	01 05 00 03 08 3a    	add    %eax,0x3a080300
 1cb:	0b 3b                	or     (%ebx),%edi
 1cd:	0b 39                	or     (%ecx),%edi
 1cf:	0b 49 13             	or     0x13(%ecx),%ecx
 1d2:	02 18                	add    (%eax),%bl
 1d4:	00 00                	add    %al,(%eax)
 1d6:	02 16                	add    (%esi),%dl
 1d8:	00 03                	add    %al,(%ebx)
 1da:	0e                   	push   %cs
 1db:	3a 0b                	cmp    (%ebx),%cl
 1dd:	3b 0b                	cmp    (%ebx),%ecx
 1df:	39 0b                	cmp    %ecx,(%ebx)
 1e1:	49                   	dec    %ecx
 1e2:	13 00                	adc    (%eax),%eax
 1e4:	00 03                	add    %al,(%ebx)
 1e6:	0d 00 03 0e 3a       	or     $0x3a0e0300,%eax
 1eb:	21 03                	and    %eax,(%ebx)
 1ed:	3b 0b                	cmp    (%ebx),%ecx
 1ef:	39 0b                	cmp    %ecx,(%ebx)
 1f1:	49                   	dec    %ecx
 1f2:	13 38                	adc    (%eax),%edi
 1f4:	0b 00                	or     (%eax),%eax
 1f6:	00 04 34             	add    %al,(%esp,%esi,1)
 1f9:	00 03                	add    %al,(%ebx)
 1fb:	0e                   	push   %cs
 1fc:	3a 21                	cmp    (%ecx),%ah
 1fe:	02 3b                	add    (%ebx),%bh
 200:	0b 39                	or     (%ecx),%edi
 202:	0b 49 13             	or     0x13(%ecx),%ecx
 205:	02 18                	add    (%eax),%bl
 207:	00 00                	add    %al,(%eax)
 209:	05 05 00 03 0e       	add    $0xe030005,%eax
 20e:	3a 21                	cmp    (%ecx),%ah
 210:	02 3b                	add    (%ebx),%bh
 212:	0b 39                	or     (%ecx),%edi
 214:	0b 49 13             	or     0x13(%ecx),%ecx
 217:	02 18                	add    (%eax),%bl
 219:	00 00                	add    %al,(%eax)
 21b:	06                   	push   %es
 21c:	0d 00 03 08 3a       	or     $0x3a080300,%eax
 221:	21 03                	and    %eax,(%ebx)
 223:	3b 0b                	cmp    (%ebx),%ecx
 225:	39 0b                	cmp    %ecx,(%ebx)
 227:	49                   	dec    %ecx
 228:	13 00                	adc    (%eax),%eax
 22a:	00 07                	add    %al,(%edi)
 22c:	34 00                	xor    $0x0,%al
 22e:	03 08                	add    (%eax),%ecx
 230:	3a 21                	cmp    (%ecx),%ah
 232:	02 3b                	add    (%ebx),%bh
 234:	0b 39                	or     (%ecx),%edi
 236:	0b 49 13             	or     0x13(%ecx),%ecx
 239:	02 18                	add    (%eax),%bl
 23b:	00 00                	add    %al,(%eax)
 23d:	08 0f                	or     %cl,(%edi)
 23f:	00 0b                	add    %cl,(%ebx)
 241:	21 04 49             	and    %eax,(%ecx,%ecx,2)
 244:	13 00                	adc    (%eax),%eax
 246:	00 09                	add    %cl,(%ecx)
 248:	0d 00 03 0e 3a       	or     $0x3a0e0300,%eax
 24d:	21 03                	and    %eax,(%ebx)
 24f:	3b 0b                	cmp    (%ebx),%ecx
 251:	39 0b                	cmp    %ecx,(%ebx)
 253:	49                   	dec    %ecx
 254:	13 00                	adc    (%eax),%eax
 256:	00 0a                	add    %cl,(%edx)
 258:	24 00                	and    $0x0,%al
 25a:	0b 0b                	or     (%ebx),%ecx
 25c:	3e 0b 03             	or     %ds:(%ebx),%eax
 25f:	0e                   	push   %cs
 260:	00 00                	add    %al,(%eax)
 262:	0b 0d 00 49 13 00    	or     0x134900,%ecx
 268:	00 0c 13             	add    %cl,(%ebx,%edx,1)
 26b:	01 0b                	add    %ecx,(%ebx)
 26d:	0b 3a                	or     (%edx),%edi
 26f:	21 03                	and    %eax,(%ebx)
 271:	3b 0b                	cmp    (%ebx),%ecx
 273:	39 0b                	cmp    %ecx,(%ebx)
 275:	01 13                	add    %edx,(%ebx)
 277:	00 00                	add    %al,(%eax)
 279:	0d 0b 01 11 01       	or     $0x111010b,%eax
 27e:	12 06                	adc    (%esi),%al
 280:	01 13                	add    %edx,(%ebx)
 282:	00 00                	add    %al,(%eax)
 284:	0e                   	push   %cs
 285:	01 01                	add    %eax,(%ecx)
 287:	49                   	dec    %ecx
 288:	13 01                	adc    (%ecx),%eax
 28a:	13 00                	adc    (%eax),%eax
 28c:	00 0f                	add    %cl,(%edi)
 28e:	2e 01 03             	add    %eax,%cs:(%ebx)
 291:	0e                   	push   %cs
 292:	3a 21                	cmp    (%ecx),%ah
 294:	02 3b                	add    (%ebx),%bh
 296:	0b 39                	or     (%ecx),%edi
 298:	21 14 27             	and    %edx,(%edi,%eiz,1)
 29b:	19 11                	sbb    %edx,(%ecx)
 29d:	01 12                	add    %edx,(%edx)
 29f:	06                   	push   %es
 2a0:	40                   	inc    %eax
 2a1:	18 7c 19 01          	sbb    %bh,0x1(%ecx,%ebx,1)
 2a5:	13 00                	adc    (%eax),%eax
 2a7:	00 10                	add    %dl,(%eax)
 2a9:	21 00                	and    %eax,(%eax)
 2ab:	49                   	dec    %ecx
 2ac:	13 2f                	adc    (%edi),%ebp
 2ae:	0b 00                	or     (%eax),%eax
 2b0:	00 11                	add    %dl,(%ecx)
 2b2:	2e 01 3f             	add    %edi,%cs:(%edi)
 2b5:	19 03                	sbb    %eax,(%ebx)
 2b7:	0e                   	push   %cs
 2b8:	3a 21                	cmp    (%ecx),%ah
 2ba:	02 3b                	add    (%ebx),%bh
 2bc:	0b 39                	or     (%ecx),%edi
 2be:	21 08                	and    %ecx,(%eax)
 2c0:	27                   	daa
 2c1:	19 49 13             	sbb    %ecx,0x13(%ecx)
 2c4:	11 01                	adc    %eax,(%ecx)
 2c6:	12 06                	adc    (%esi),%al
 2c8:	40                   	inc    %eax
 2c9:	18 7c 19 01          	sbb    %bh,0x1(%ecx,%ebx,1)
 2cd:	13 00                	adc    (%eax),%eax
 2cf:	00 12                	add    %dl,(%edx)
 2d1:	17                   	pop    %ss
 2d2:	01 03                	add    %eax,(%ebx)
 2d4:	0e                   	push   %cs
 2d5:	0b 0b                	or     (%ebx),%ecx
 2d7:	3a 21                	cmp    (%ecx),%ah
 2d9:	03 3b                	add    (%ebx),%edi
 2db:	0b 39                	or     (%ecx),%edi
 2dd:	21 0f                	and    %ecx,(%edi)
 2df:	01 13                	add    %edx,(%ebx)
 2e1:	00 00                	add    %al,(%eax)
 2e3:	13 13                	adc    (%ebx),%edx
 2e5:	01 03                	add    %eax,(%ebx)
 2e7:	0e                   	push   %cs
 2e8:	0b 0b                	or     (%ebx),%ecx
 2ea:	3a 21                	cmp    (%ecx),%ah
 2ec:	03 3b                	add    (%ebx),%edi
 2ee:	0b 39                	or     (%ecx),%edi
 2f0:	21 10                	and    %edx,(%eax)
 2f2:	01 13                	add    %edx,(%ebx)
 2f4:	00 00                	add    %al,(%eax)
 2f6:	14 18                	adc    $0x18,%al
 2f8:	00 00                	add    %al,(%eax)
 2fa:	00 15 17 01 0b 0b    	add    %dl,0xb0b0117
 300:	3a 21                	cmp    (%ecx),%ah
 302:	03 3b                	add    (%ebx),%edi
 304:	0b 39                	or     (%ecx),%edi
 306:	0b 01                	or     (%ecx),%eax
 308:	13 00                	adc    (%eax),%eax
 30a:	00 16                	add    %dl,(%esi)
 30c:	0d 00 49 13 38       	or     $0x38134900,%eax
 311:	21 00                	and    %eax,(%eax)
 313:	00 00                	add    %al,(%eax)
 315:	17                   	pop    %ss
 316:	28 00                	sub    %al,(%eax)
 318:	03 0e                	add    (%esi),%ecx
 31a:	1c 0b                	sbb    $0xb,%al
 31c:	00 00                	add    %al,(%eax)
 31e:	18 05 00 49 13 00    	sbb    %al,0x134900
 324:	00 19                	add    %bl,(%ecx)
 326:	11 01                	adc    %eax,(%ecx)
 328:	25 0e 13 0b 03       	and    $0x30b130e,%eax
 32d:	1f                   	pop    %ds
 32e:	1b 1f                	sbb    (%edi),%ebx
 330:	11 01                	adc    %eax,(%ecx)
 332:	12 06                	adc    (%esi),%al
 334:	10 17                	adc    %dl,(%edi)
 336:	00 00                	add    %al,(%eax)
 338:	1a 24 00             	sbb    (%eax,%eax,1),%ah
 33b:	0b 0b                	or     (%ebx),%ecx
 33d:	3e 0b 03             	or     %ds:(%ebx),%eax
 340:	08 00                	or     %al,(%eax)
 342:	00 1b                	add    %bl,(%ebx)
 344:	26 00 49 13          	add    %cl,%es:0x13(%ecx)
 348:	00 00                	add    %al,(%eax)
 34a:	1c 04                	sbb    $0x4,%al
 34c:	01 3e                	add    %edi,(%esi)
 34e:	0b 0b                	or     (%ebx),%ecx
 350:	0b 49 13             	or     0x13(%ecx),%ecx
 353:	3a 0b                	cmp    (%ebx),%cl
 355:	3b 0b                	cmp    (%ebx),%ecx
 357:	39 0b                	cmp    %ecx,(%ebx)
 359:	01 13                	add    %edx,(%ebx)
 35b:	00 00                	add    %al,(%eax)
 35d:	1d 0f 00 0b 0b       	sbb    $0xb0b000f,%eax
 362:	00 00                	add    %al,(%eax)
 364:	1e                   	push   %ds
 365:	0d 00 03 08 3a       	or     $0x3a080300,%eax
 36a:	0b 3b                	or     (%ebx),%edi
 36c:	0b 39                	or     (%ecx),%edi
 36e:	0b 49 13             	or     0x13(%ecx),%ecx
 371:	38 0b                	cmp    %cl,(%ebx)
 373:	00 00                	add    %al,(%eax)
 375:	1f                   	pop    %ds
 376:	0f 00 0b             	str    (%ebx)
 379:	0b 03                	or     (%ebx),%eax
 37b:	0e                   	push   %cs
 37c:	49                   	dec    %ecx
 37d:	13 00                	adc    (%eax),%eax
 37f:	00 20                	add    %ah,(%eax)
 381:	21 00                	and    %eax,(%eax)
 383:	49                   	dec    %ecx
 384:	13 2f                	adc    (%edi),%ebp
 386:	05 00 00 21 2e       	add    $0x2e210000,%eax
 38b:	01 3f                	add    %edi,(%edi)
 38d:	19 03                	sbb    %eax,(%ebx)
 38f:	0e                   	push   %cs
 390:	3a 0b                	cmp    (%ebx),%cl
 392:	3b 05 39 0b 27 19    	cmp    0x19270b39,%eax
 398:	49                   	dec    %ecx
 399:	13 3c 19             	adc    (%ecx,%ebx,1),%edi
 39c:	01 13                	add    %edx,(%ebx)
 39e:	00 00                	add    %al,(%eax)
 3a0:	22 2e                	and    (%esi),%ch
 3a2:	01 3f                	add    %edi,(%edi)
 3a4:	19 03                	sbb    %eax,(%ebx)
 3a6:	0e                   	push   %cs
 3a7:	3a 0b                	cmp    (%ebx),%cl
 3a9:	3b 05 39 0b 3c 19    	cmp    0x193c0b39,%eax
 3af:	01 13                	add    %edx,(%ebx)
 3b1:	00 00                	add    %al,(%eax)
 3b3:	23 0b                	and    (%ebx),%ecx
 3b5:	01 55 17             	add    %edx,0x17(%ebp)
 3b8:	01 13                	add    %edx,(%ebx)
 3ba:	00 00                	add    %al,(%eax)
 3bc:	24 0b                	and    $0xb,%al
 3be:	01 11                	add    %edx,(%ecx)
 3c0:	01 12                	add    %edx,(%edx)
 3c2:	06                   	push   %es
 3c3:	00 00                	add    %al,(%eax)
 3c5:	25 2e 01 3f 19       	and    $0x193f012e,%eax
 3ca:	03 0e                	add    (%esi),%ecx
 3cc:	3a 0b                	cmp    (%ebx),%cl
 3ce:	3b 0b                	cmp    (%ebx),%ecx
 3d0:	39 0b                	cmp    %ecx,(%ebx)
 3d2:	27                   	daa
 3d3:	19 11                	sbb    %edx,(%ecx)
 3d5:	01 12                	add    %edx,(%edx)
 3d7:	06                   	push   %es
 3d8:	40                   	inc    %eax
 3d9:	18 7c 19 01          	sbb    %bh,0x1(%ecx,%ebx,1)
 3dd:	13 00                	adc    (%eax),%eax
 3df:	00 26                	add    %ah,(%esi)
 3e1:	2e 01 03             	add    %eax,%cs:(%ebx)
 3e4:	0e                   	push   %cs
 3e5:	3a 0b                	cmp    (%ebx),%cl
 3e7:	3b 0b                	cmp    (%ebx),%ecx
 3e9:	39 0b                	cmp    %ecx,(%ebx)
 3eb:	27                   	daa
 3ec:	19 11                	sbb    %edx,(%ecx)
 3ee:	01 12                	add    %edx,(%edx)
 3f0:	06                   	push   %es
 3f1:	40                   	inc    %eax
 3f2:	18 7a 19             	sbb    %bh,0x19(%edx)
 3f5:	00 00                	add    %al,(%eax)
 3f7:	00 01                	add    %al,(%ecx)
 3f9:	16                   	push   %ss
 3fa:	00 03                	add    %al,(%ebx)
 3fc:	0e                   	push   %cs
 3fd:	3a 0b                	cmp    (%ebx),%cl
 3ff:	3b 0b                	cmp    (%ebx),%ecx
 401:	39 0b                	cmp    %ecx,(%ebx)
 403:	49                   	dec    %ecx
 404:	13 00                	adc    (%eax),%eax
 406:	00 02                	add    %al,(%edx)
 408:	0d 00 03 0e 3a       	or     $0x3a0e0300,%eax
 40d:	21 02                	and    %eax,(%edx)
 40f:	3b 0b                	cmp    (%ebx),%ecx
 411:	39 0b                	cmp    %ecx,(%ebx)
 413:	49                   	dec    %ecx
 414:	13 38                	adc    (%eax),%edi
 416:	0b 00                	or     (%eax),%eax
 418:	00 03                	add    %al,(%ebx)
 41a:	0d 00 03 08 3a       	or     $0x3a080300,%eax
 41f:	0b 3b                	or     (%ebx),%edi
 421:	0b 39                	or     (%ecx),%edi
 423:	0b 49 13             	or     0x13(%ecx),%ecx
 426:	00 00                	add    %al,(%eax)
 428:	04 0d                	add    $0xd,%al
 42a:	00 49 13             	add    %cl,0x13(%ecx)
 42d:	00 00                	add    %al,(%eax)
 42f:	05 0d 00 03 0e       	add    $0xe03000d,%eax
 434:	3a 21                	cmp    (%ecx),%ah
 436:	03 3b                	add    (%ebx),%edi
 438:	0b 39                	or     (%ecx),%edi
 43a:	0b 49 13             	or     0x13(%ecx),%ecx
 43d:	0d 0b 6b 0b 00       	or     $0xb6b0b,%eax
 442:	00 06                	add    %al,(%esi)
 444:	34 00                	xor    $0x0,%al
 446:	03 08                	add    (%eax),%ecx
 448:	3a 21                	cmp    (%ecx),%ah
 44a:	01 3b                	add    %edi,(%ebx)
 44c:	0b 39                	or     (%ecx),%edi
 44e:	0b 49 13             	or     0x13(%ecx),%ecx
 451:	02 18                	add    (%eax),%bl
 453:	00 00                	add    %al,(%eax)
 455:	07                   	pop    %es
 456:	13 01                	adc    (%ecx),%eax
 458:	0b 0b                	or     (%ebx),%ecx
 45a:	3a 0b                	cmp    (%ebx),%cl
 45c:	3b 0b                	cmp    (%ebx),%ecx
 45e:	39 0b                	cmp    %ecx,(%ebx)
 460:	01 13                	add    %edx,(%ebx)
 462:	00 00                	add    %al,(%eax)
 464:	08 0d 00 03 08 3a    	or     %cl,0x3a080300
 46a:	21 03                	and    %eax,(%ebx)
 46c:	3b 0b                	cmp    (%ebx),%ecx
 46e:	39 0b                	cmp    %ecx,(%ebx)
 470:	49                   	dec    %ecx
 471:	13 0d 21 01 6b 0b    	adc    0xb6b0121,%ecx
 477:	00 00                	add    %al,(%eax)
 479:	09 0d 00 03 0e 3a    	or     %ecx,0x3a0e0300
 47f:	21 02                	and    %eax,(%edx)
 481:	3b 0b                	cmp    (%ebx),%ecx
 483:	39 0b                	cmp    %ecx,(%ebx)
 485:	49                   	dec    %ecx
 486:	13 00                	adc    (%eax),%eax
 488:	00 0a                	add    %cl,(%edx)
 48a:	24 00                	and    $0x0,%al
 48c:	0b 0b                	or     (%ebx),%ecx
 48e:	3e 0b 03             	or     %ds:(%ebx),%eax
 491:	0e                   	push   %cs
 492:	00 00                	add    %al,(%eax)
 494:	0b 0f                	or     (%edi),%ecx
 496:	00 0b                	add    %cl,(%ebx)
 498:	21 04 49             	and    %eax,(%ecx,%ecx,2)
 49b:	13 00                	adc    (%eax),%eax
 49d:	00 0c 17             	add    %cl,(%edi,%edx,1)
 4a0:	01 03                	add    %eax,(%ebx)
 4a2:	0e                   	push   %cs
 4a3:	0b 0b                	or     (%ebx),%ecx
 4a5:	3a 0b                	cmp    (%ebx),%cl
 4a7:	3b 0b                	cmp    (%ebx),%ecx
 4a9:	39 21                	cmp    %esp,(%ecx)
 4ab:	0f 01 13             	lgdtl  (%ebx)
 4ae:	00 00                	add    %al,(%eax)
 4b0:	0d 05 00 03 0e       	or     $0xe030005,%eax
 4b5:	3a 21                	cmp    (%ecx),%ah
 4b7:	01 3b                	add    %edi,(%ebx)
 4b9:	0b 39                	or     (%ecx),%edi
 4bb:	0b 49 13             	or     0x13(%ecx),%ecx
 4be:	02 18                	add    (%eax),%bl
 4c0:	00 00                	add    %al,(%eax)
 4c2:	0e                   	push   %cs
 4c3:	05 00 03 08 3a       	add    $0x3a080300,%eax
 4c8:	21 01                	and    %eax,(%ecx)
 4ca:	3b 0b                	cmp    (%ebx),%ecx
 4cc:	39 0b                	cmp    %ecx,(%ebx)
 4ce:	49                   	dec    %ecx
 4cf:	13 02                	adc    (%edx),%eax
 4d1:	18 00                	sbb    %al,(%eax)
 4d3:	00 0f                	add    %cl,(%edi)
 4d5:	13 01                	adc    (%ecx),%eax
 4d7:	03 0e                	add    (%esi),%ecx
 4d9:	0b 0b                	or     (%ebx),%ecx
 4db:	3a 21                	cmp    (%ecx),%ah
 4dd:	02 3b                	add    (%ebx),%bh
 4df:	0b 39                	or     (%ecx),%edi
 4e1:	21 10                	and    %edx,(%eax)
 4e3:	01 13                	add    %edx,(%ebx)
 4e5:	00 00                	add    %al,(%eax)
 4e7:	10 0b                	adc    %cl,(%ebx)
 4e9:	01 11                	add    %edx,(%ecx)
 4eb:	01 12                	add    %edx,(%edx)
 4ed:	06                   	push   %es
 4ee:	00 00                	add    %al,(%eax)
 4f0:	11 01                	adc    %eax,(%ecx)
 4f2:	01 49 13             	add    %ecx,0x13(%ecx)
 4f5:	01 13                	add    %edx,(%ebx)
 4f7:	00 00                	add    %al,(%eax)
 4f9:	12 21                	adc    (%ecx),%ah
 4fb:	00 49 13             	add    %cl,0x13(%ecx)
 4fe:	2f                   	das
 4ff:	0b 00                	or     (%eax),%eax
 501:	00 13                	add    %dl,(%ebx)
 503:	17                   	pop    %ss
 504:	01 0b                	add    %ecx,(%ebx)
 506:	0b 3a                	or     (%edx),%edi
 508:	21 02                	and    %eax,(%edx)
 50a:	3b 0b                	cmp    (%ebx),%ecx
 50c:	39 0b                	cmp    %ecx,(%ebx)
 50e:	01 13                	add    %edx,(%ebx)
 510:	00 00                	add    %al,(%eax)
 512:	14 0d                	adc    $0xd,%al
 514:	00 49 13             	add    %cl,0x13(%ecx)
 517:	38 21                	cmp    %ah,(%ecx)
 519:	00 00                	add    %al,(%eax)
 51b:	00 15 2e 01 03 0e    	add    %dl,0xe03012e
 521:	3a 21                	cmp    (%ecx),%ah
 523:	01 3b                	add    %edi,(%ebx)
 525:	0b 39                	or     (%ecx),%edi
 527:	0b 27                	or     (%edi),%esp
 529:	19 11                	sbb    %edx,(%ecx)
 52b:	01 12                	add    %edx,(%edx)
 52d:	06                   	push   %es
 52e:	40                   	inc    %eax
 52f:	18 7a 19             	sbb    %bh,0x19(%edx)
 532:	01 13                	add    %edx,(%ebx)
 534:	00 00                	add    %al,(%eax)
 536:	16                   	push   %ss
 537:	2e 01 3f             	add    %edi,%cs:(%edi)
 53a:	19 03                	sbb    %eax,(%ebx)
 53c:	0e                   	push   %cs
 53d:	3a 21                	cmp    (%ecx),%ah
 53f:	01 3b                	add    %edi,(%ebx)
 541:	0b 39                	or     (%ecx),%edi
 543:	21 08                	and    %ecx,(%eax)
 545:	27                   	daa
 546:	19 49 13             	sbb    %ecx,0x13(%ecx)
 549:	11 01                	adc    %eax,(%ecx)
 54b:	12 06                	adc    (%esi),%al
 54d:	40                   	inc    %eax
 54e:	18 7c 19 01          	sbb    %bh,0x1(%ecx,%ebx,1)
 552:	13 00                	adc    (%eax),%eax
 554:	00 17                	add    %dl,(%edi)
 556:	0b 01                	or     (%ecx),%eax
 558:	11 01                	adc    %eax,(%ecx)
 55a:	12 06                	adc    (%esi),%al
 55c:	01 13                	add    %edx,(%ebx)
 55e:	00 00                	add    %al,(%eax)
 560:	18 11                	sbb    %dl,(%ecx)
 562:	01 25 0e 13 0b 03    	add    %esp,0x30b130e
 568:	1f                   	pop    %ds
 569:	1b 1f                	sbb    (%edi),%ebx
 56b:	11 01                	adc    %eax,(%ecx)
 56d:	12 06                	adc    (%esi),%al
 56f:	10 17                	adc    %dl,(%edi)
 571:	00 00                	add    %al,(%eax)
 573:	19 24 00             	sbb    %esp,(%eax,%eax,1)
 576:	0b 0b                	or     (%ebx),%ecx
 578:	3e 0b 03             	or     %ds:(%ebx),%eax
 57b:	08 00                	or     %al,(%eax)
 57d:	00 1a                	add    %bl,(%edx)
 57f:	0f 00 0b             	str    (%ebx)
 582:	0b 00                	or     (%eax),%eax
 584:	00 1b                	add    %bl,(%ebx)
 586:	0d 00 03 08 3a       	or     $0x3a080300,%eax
 58b:	0b 3b                	or     (%ebx),%edi
 58d:	0b 39                	or     (%ecx),%edi
 58f:	0b 49 13             	or     0x13(%ecx),%ecx
 592:	38 0b                	cmp    %cl,(%ebx)
 594:	00 00                	add    %al,(%eax)
 596:	1c 2e                	sbb    $0x2e,%al
 598:	01 3f                	add    %edi,(%edi)
 59a:	19 03                	sbb    %eax,(%ebx)
 59c:	0e                   	push   %cs
 59d:	3a 0b                	cmp    (%ebx),%cl
 59f:	3b 0b                	cmp    (%ebx),%ecx
 5a1:	39 0b                	cmp    %ecx,(%ebx)
 5a3:	11 01                	adc    %eax,(%ecx)
 5a5:	12 06                	adc    (%esi),%al
 5a7:	40                   	inc    %eax
 5a8:	18 7a 19             	sbb    %bh,0x19(%edx)
 5ab:	01 13                	add    %edx,(%ebx)
 5ad:	00 00                	add    %al,(%eax)
 5af:	1d 2e 00 3f 19       	sbb    $0x193f002e,%eax
 5b4:	03 0e                	add    (%esi),%ecx
 5b6:	3a 0b                	cmp    (%ebx),%cl
 5b8:	3b 0b                	cmp    (%ebx),%ecx
 5ba:	39 0b                	cmp    %ecx,(%ebx)
 5bc:	11 01                	adc    %eax,(%ecx)
 5be:	12 06                	adc    (%esi),%al
 5c0:	40                   	inc    %eax
 5c1:	18 7c 19 00          	sbb    %bh,0x0(%ecx,%ebx,1)
 5c5:	00 1e                	add    %bl,(%esi)
 5c7:	2e 01 03             	add    %eax,%cs:(%ebx)
 5ca:	0e                   	push   %cs
 5cb:	3a 0b                	cmp    (%ebx),%cl
 5cd:	3b 0b                	cmp    (%ebx),%ecx
 5cf:	39 0b                	cmp    %ecx,(%ebx)
 5d1:	27                   	daa
 5d2:	19 11                	sbb    %edx,(%ecx)
 5d4:	01 12                	add    %edx,(%edx)
 5d6:	06                   	push   %es
 5d7:	40                   	inc    %eax
 5d8:	18 7c 19 01          	sbb    %bh,0x1(%ecx,%ebx,1)
 5dc:	13 00                	adc    (%eax),%eax
 5de:	00 1f                	add    %bl,(%edi)
 5e0:	2e 01 03             	add    %eax,%cs:(%ebx)
 5e3:	0e                   	push   %cs
 5e4:	3a 0b                	cmp    (%ebx),%cl
 5e6:	3b 0b                	cmp    (%ebx),%ecx
 5e8:	39 0b                	cmp    %ecx,(%ebx)
 5ea:	27                   	daa
 5eb:	19 11                	sbb    %edx,(%ecx)
 5ed:	01 12                	add    %edx,(%edx)
 5ef:	06                   	push   %es
 5f0:	40                   	inc    %eax
 5f1:	18 7a 19             	sbb    %bh,0x19(%edx)
 5f4:	00 00                	add    %al,(%eax)
 5f6:	00 01                	add    %al,(%ecx)
 5f8:	0d 00 03 0e 3a       	or     $0x3a0e0300,%eax
 5fd:	21 02                	and    %eax,(%edx)
 5ff:	3b 0b                	cmp    (%ebx),%ecx
 601:	39 0b                	cmp    %ecx,(%ebx)
 603:	49                   	dec    %ecx
 604:	13 0d 0b 6b 0b 00    	adc    0xb6b0b,%ecx
 60a:	00 02                	add    %al,(%edx)
 60c:	24 00                	and    $0x0,%al
 60e:	0b 0b                	or     (%ebx),%ecx
 610:	3e 0b 03             	or     %ds:(%ebx),%eax
 613:	0e                   	push   %cs
 614:	00 00                	add    %al,(%eax)
 616:	03 16                	add    (%esi),%edx
 618:	00 03                	add    %al,(%ebx)
 61a:	0e                   	push   %cs
 61b:	3a 0b                	cmp    (%ebx),%cl
 61d:	3b 0b                	cmp    (%ebx),%ecx
 61f:	39 0b                	cmp    %ecx,(%ebx)
 621:	49                   	dec    %ecx
 622:	13 00                	adc    (%eax),%eax
 624:	00 04 13             	add    %al,(%ebx,%edx,1)
 627:	01 0b                	add    %ecx,(%ebx)
 629:	21 01                	and    %eax,(%ecx)
 62b:	3a 21                	cmp    (%ecx),%ah
 62d:	02 3b                	add    (%ebx),%bh
 62f:	0b 39                	or     (%ecx),%edi
 631:	21 04 01             	and    %eax,(%ecx,%eax,1)
 634:	13 00                	adc    (%eax),%eax
 636:	00 05 0d 00 03 08    	add    %al,0x803000d
 63c:	3a 21                	cmp    (%ecx),%ah
 63e:	02 3b                	add    (%ebx),%bh
 640:	0b 39                	or     (%ecx),%edi
 642:	21 11                	and    %edx,(%ecx)
 644:	49                   	dec    %ecx
 645:	13 0d 0b 6b 0b 00    	adc    0xb6b0b,%ecx
 64b:	00 06                	add    %al,(%esi)
 64d:	17                   	pop    %ss
 64e:	01 03                	add    %eax,(%ebx)
 650:	0e                   	push   %cs
 651:	0b 21                	or     (%ecx),%esp
 653:	01 3a                	add    %edi,(%edx)
 655:	21 02                	and    %eax,(%edx)
 657:	3b 0b                	cmp    (%ebx),%ecx
 659:	39 21                	cmp    %esp,(%ecx)
 65b:	0f 01 13             	lgdtl  (%ebx)
 65e:	00 00                	add    %al,(%eax)
 660:	07                   	pop    %es
 661:	0d 00 03 08 3a       	or     $0x3a080300,%eax
 666:	21 02                	and    %eax,(%edx)
 668:	3b 0b                	cmp    (%ebx),%ecx
 66a:	39 0b                	cmp    %ecx,(%ebx)
 66c:	49                   	dec    %ecx
 66d:	13 00                	adc    (%eax),%eax
 66f:	00 08                	add    %cl,(%eax)
 671:	34 00                	xor    $0x0,%al
 673:	03 0e                	add    (%esi),%ecx
 675:	3a 21                	cmp    (%ecx),%ah
 677:	01 3b                	add    %edi,(%ebx)
 679:	0b 39                	or     (%ecx),%edi
 67b:	21 11                	and    %edx,(%ecx)
 67d:	49                   	dec    %ecx
 67e:	13 02                	adc    (%edx),%eax
 680:	18 00                	sbb    %al,(%eax)
 682:	00 09                	add    %cl,(%ecx)
 684:	0d 00 49 13 00       	or     $0x134900,%eax
 689:	00 0a                	add    %cl,(%edx)
 68b:	0d 00 03 0e 3a       	or     $0x3a0e0300,%eax
 690:	21 02                	and    %eax,(%edx)
 692:	3b 0b                	cmp    (%ebx),%ecx
 694:	39 21                	cmp    %esp,(%ecx)
 696:	06                   	push   %es
 697:	49                   	dec    %ecx
 698:	13 00                	adc    (%eax),%eax
 69a:	00 0b                	add    %cl,(%ebx)
 69c:	11 01                	adc    %eax,(%ecx)
 69e:	25 0e 13 0b 03       	and    $0x30b130e,%eax
 6a3:	1f                   	pop    %ds
 6a4:	1b 1f                	sbb    (%edi),%ebx
 6a6:	11 01                	adc    %eax,(%ecx)
 6a8:	12 06                	adc    (%esi),%al
 6aa:	10 17                	adc    %dl,(%edi)
 6ac:	00 00                	add    %al,(%eax)
 6ae:	0c 24                	or     $0x24,%al
 6b0:	00 0b                	add    %cl,(%ebx)
 6b2:	0b 3e                	or     (%esi),%edi
 6b4:	0b 03                	or     (%ebx),%eax
 6b6:	08 00                	or     %al,(%eax)
 6b8:	00 0d 2e 01 3f 19    	add    %cl,0x193f012e
 6be:	03 0e                	add    (%esi),%ecx
 6c0:	3a 0b                	cmp    (%ebx),%cl
 6c2:	3b 0b                	cmp    (%ebx),%ecx
 6c4:	39 0b                	cmp    %ecx,(%ebx)
 6c6:	11 01                	adc    %eax,(%ecx)
 6c8:	12 06                	adc    (%esi),%al
 6ca:	40                   	inc    %eax
 6cb:	18 7a 19             	sbb    %bh,0x19(%edx)
 6ce:	00 00                	add    %al,(%eax)
 6d0:	00 01                	add    %al,(%ecx)
 6d2:	0d 00 03 08 3a       	or     $0x3a080300,%eax
 6d7:	0b 3b                	or     (%ebx),%edi
 6d9:	0b 39                	or     (%ecx),%edi
 6db:	0b 49 13             	or     0x13(%ecx),%ecx
 6de:	0d 0b 6b 0b 00       	or     $0xb6b0b,%eax
 6e3:	00 02                	add    %al,(%edx)
 6e5:	16                   	push   %ss
 6e6:	00 03                	add    %al,(%ebx)
 6e8:	0e                   	push   %cs
 6e9:	3a 0b                	cmp    (%ebx),%cl
 6eb:	3b 0b                	cmp    (%ebx),%ecx
 6ed:	39 0b                	cmp    %ecx,(%ebx)
 6ef:	49                   	dec    %ecx
 6f0:	13 00                	adc    (%eax),%eax
 6f2:	00 03                	add    %al,(%ebx)
 6f4:	0d 00 49 13 00       	or     $0x134900,%eax
 6f9:	00 04 0d 00 03 0e 3a 	add    %al,0x3a0e0300(,%ecx,1)
 700:	0b 3b                	or     (%ebx),%edi
 702:	0b 39                	or     (%ecx),%edi
 704:	0b 49 13             	or     0x13(%ecx),%ecx
 707:	38 0b                	cmp    %cl,(%ebx)
 709:	00 00                	add    %al,(%eax)
 70b:	05 0d 00 03 08       	add    $0x803000d,%eax
 710:	3a 0b                	cmp    (%ebx),%cl
 712:	3b 0b                	cmp    (%ebx),%ecx
 714:	39 0b                	cmp    %ecx,(%ebx)
 716:	49                   	dec    %ecx
 717:	13 38                	adc    (%eax),%edi
 719:	0b 00                	or     (%eax),%eax
 71b:	00 06                	add    %al,(%esi)
 71d:	13 01                	adc    (%ecx),%eax
 71f:	0b 0b                	or     (%ebx),%ecx
 721:	3a 0b                	cmp    (%ebx),%cl
 723:	3b 0b                	cmp    (%ebx),%ecx
 725:	39 0b                	cmp    %ecx,(%ebx)
 727:	01 13                	add    %edx,(%ebx)
 729:	00 00                	add    %al,(%eax)
 72b:	07                   	pop    %es
 72c:	0d 00 03 0e 3a       	or     $0x3a0e0300,%eax
 731:	0b 3b                	or     (%ebx),%edi
 733:	0b 39                	or     (%ecx),%edi
 735:	0b 49 13             	or     0x13(%ecx),%ecx
 738:	00 00                	add    %al,(%eax)
 73a:	08 24 00             	or     %ah,(%eax,%eax,1)
 73d:	0b 0b                	or     (%ebx),%ecx
 73f:	3e 0b 03             	or     %ds:(%ebx),%eax
 742:	0e                   	push   %cs
 743:	00 00                	add    %al,(%eax)
 745:	09 17                	or     %edx,(%edi)
 747:	01 03                	add    %eax,(%ebx)
 749:	0e                   	push   %cs
 74a:	0b 0b                	or     (%ebx),%ecx
 74c:	3a 0b                	cmp    (%ebx),%cl
 74e:	3b 0b                	cmp    (%ebx),%ecx
 750:	39 21                	cmp    %esp,(%ecx)
 752:	0f 01 13             	lgdtl  (%ebx)
 755:	00 00                	add    %al,(%eax)
 757:	0a 0d 00 03 08 3a    	or     0x3a080300,%cl
 75d:	0b 3b                	or     (%ebx),%edi
 75f:	0b 39                	or     (%ecx),%edi
 761:	0b 49 13             	or     0x13(%ecx),%ecx
 764:	00 00                	add    %al,(%eax)
 766:	0b 0d 00 03 0e 3a    	or     0x3a0e0300,%ecx
 76c:	0b 3b                	or     (%ebx),%edi
 76e:	0b 39                	or     (%ecx),%edi
 770:	0b 49 13             	or     0x13(%ecx),%ecx
 773:	0d 0b 6b 0b 00       	or     $0xb6b0b,%eax
 778:	00 0c 01             	add    %cl,(%ecx,%eax,1)
 77b:	01 49 13             	add    %ecx,0x13(%ecx)
 77e:	01 13                	add    %edx,(%ebx)
 780:	00 00                	add    %al,(%eax)
 782:	0d 21 00 49 13       	or     $0x13490021,%eax
 787:	2f                   	das
 788:	0b 00                	or     (%eax),%eax
 78a:	00 0e                	add    %cl,(%esi)
 78c:	0d 00 49 13 38       	or     $0x38134900,%eax
 791:	0b 00                	or     (%eax),%eax
 793:	00 0f                	add    %cl,(%edi)
 795:	17                   	pop    %ss
 796:	01 0b                	add    %ecx,(%ebx)
 798:	0b 3a                	or     (%edx),%edi
 79a:	0b 3b                	or     (%ebx),%edi
 79c:	0b 39                	or     (%ecx),%edi
 79e:	0b 01                	or     (%ecx),%eax
 7a0:	13 00                	adc    (%eax),%eax
 7a2:	00 10                	add    %dl,(%eax)
 7a4:	13 01                	adc    (%ecx),%eax
 7a6:	03 0e                	add    (%esi),%ecx
 7a8:	0b 0b                	or     (%ebx),%ecx
 7aa:	3a 0b                	cmp    (%ebx),%cl
 7ac:	3b 0b                	cmp    (%ebx),%ecx
 7ae:	39 21                	cmp    %esp,(%ecx)
 7b0:	10 01                	adc    %al,(%ecx)
 7b2:	13 00                	adc    (%eax),%eax
 7b4:	00 11                	add    %dl,(%ecx)
 7b6:	0f 00 0b             	str    (%ebx)
 7b9:	21 04 49             	and    %eax,(%ecx,%ecx,2)
 7bc:	13 00                	adc    (%eax),%eax
 7be:	00 12                	add    %dl,(%edx)
 7c0:	34 00                	xor    $0x0,%al
 7c2:	03 08                	add    (%eax),%ecx
 7c4:	3a 21                	cmp    (%ecx),%ah
 7c6:	01 3b                	add    %edi,(%ebx)
 7c8:	0b 39                	or     (%ecx),%edi
 7ca:	0b 49 13             	or     0x13(%ecx),%ecx
 7cd:	02 18                	add    (%eax),%bl
 7cf:	00 00                	add    %al,(%eax)
 7d1:	13 34 00             	adc    (%eax,%eax,1),%esi
 7d4:	03 0e                	add    (%esi),%ecx
 7d6:	3a 21                	cmp    (%ecx),%ah
 7d8:	01 3b                	add    %edi,(%ebx)
 7da:	0b 39                	or     (%ecx),%edi
 7dc:	0b 49 13             	or     0x13(%ecx),%ecx
 7df:	02 18                	add    (%eax),%bl
 7e1:	00 00                	add    %al,(%eax)
 7e3:	14 05                	adc    $0x5,%al
 7e5:	00 49 13             	add    %cl,0x13(%ecx)
 7e8:	00 00                	add    %al,(%eax)
 7ea:	15 18 00 00 00       	adc    $0x18,%eax
 7ef:	16                   	push   %ss
 7f0:	11 01                	adc    %eax,(%ecx)
 7f2:	25 0e 13 0b 03       	and    $0x30b130e,%eax
 7f7:	1f                   	pop    %ds
 7f8:	1b 1f                	sbb    (%edi),%ebx
 7fa:	11 01                	adc    %eax,(%ecx)
 7fc:	12 06                	adc    (%esi),%al
 7fe:	10 17                	adc    %dl,(%edi)
 800:	00 00                	add    %al,(%eax)
 802:	17                   	pop    %ss
 803:	24 00                	and    $0x0,%al
 805:	0b 0b                	or     (%ebx),%ecx
 807:	3e 0b 03             	or     %ds:(%ebx),%eax
 80a:	08 00                	or     %al,(%eax)
 80c:	00 18                	add    %bl,(%eax)
 80e:	26 00 49 13          	add    %cl,%es:0x13(%ecx)
 812:	00 00                	add    %al,(%eax)
 814:	19 2e                	sbb    %ebp,(%esi)
 816:	01 3f                	add    %edi,(%edi)
 818:	19 03                	sbb    %eax,(%ebx)
 81a:	0e                   	push   %cs
 81b:	3a 0b                	cmp    (%ebx),%cl
 81d:	3b 0b                	cmp    (%ebx),%ecx
 81f:	39 0b                	cmp    %ecx,(%ebx)
 821:	27                   	daa
 822:	19 3c 19             	sbb    %edi,(%ecx,%ebx,1)
 825:	01 13                	add    %edx,(%ebx)
 827:	00 00                	add    %al,(%eax)
 829:	1a 2e                	sbb    (%esi),%ch
 82b:	01 3f                	add    %edi,(%edi)
 82d:	19 03                	sbb    %eax,(%ebx)
 82f:	0e                   	push   %cs
 830:	3a 0b                	cmp    (%ebx),%cl
 832:	3b 0b                	cmp    (%ebx),%ecx
 834:	39 0b                	cmp    %ecx,(%ebx)
 836:	27                   	daa
 837:	19 49 13             	sbb    %ecx,0x13(%ecx)
 83a:	3c 19                	cmp    $0x19,%al
 83c:	01 13                	add    %edx,(%ebx)
 83e:	00 00                	add    %al,(%eax)
 840:	1b 2e                	sbb    (%esi),%ebp
 842:	01 3f                	add    %edi,(%edi)
 844:	19 03                	sbb    %eax,(%ebx)
 846:	0e                   	push   %cs
 847:	3a 0b                	cmp    (%ebx),%cl
 849:	3b 0b                	cmp    (%ebx),%ecx
 84b:	39 0b                	cmp    %ecx,(%ebx)
 84d:	3c 19                	cmp    $0x19,%al
 84f:	01 13                	add    %edx,(%ebx)
 851:	00 00                	add    %al,(%eax)
 853:	1c 2e                	sbb    $0x2e,%al
 855:	01 3f                	add    %edi,(%edi)
 857:	19 03                	sbb    %eax,(%ebx)
 859:	0e                   	push   %cs
 85a:	3a 0b                	cmp    (%ebx),%cl
 85c:	3b 0b                	cmp    (%ebx),%ecx
 85e:	39 0b                	cmp    %ecx,(%ebx)
 860:	27                   	daa
 861:	19 11                	sbb    %edx,(%ecx)
 863:	01 12                	add    %edx,(%edx)
 865:	06                   	push   %es
 866:	40                   	inc    %eax
 867:	18 7c 19 01          	sbb    %bh,0x1(%ecx,%ebx,1)
 86b:	13 00                	adc    (%eax),%eax
 86d:	00 1d 05 00 03 08    	add    %bl,0x8030005
 873:	3a 0b                	cmp    (%ebx),%cl
 875:	3b 0b                	cmp    (%ebx),%ecx
 877:	39 0b                	cmp    %ecx,(%ebx)
 879:	49                   	dec    %ecx
 87a:	13 02                	adc    (%edx),%eax
 87c:	18 00                	sbb    %al,(%eax)
 87e:	00 1e                	add    %bl,(%esi)
 880:	2e 01 3f             	add    %edi,%cs:(%edi)
 883:	19 03                	sbb    %eax,(%ebx)
 885:	0e                   	push   %cs
 886:	3a 0b                	cmp    (%ebx),%cl
 888:	3b 0b                	cmp    (%ebx),%ecx
 88a:	39 0b                	cmp    %ecx,(%ebx)
 88c:	11 01                	adc    %eax,(%ecx)
 88e:	12 06                	adc    (%esi),%al
 890:	40                   	inc    %eax
 891:	18 7a 19             	sbb    %bh,0x19(%edx)
 894:	00 00                	add    %al,(%eax)
 896:	1f                   	pop    %ds
 897:	0b 01                	or     (%ecx),%eax
 899:	11 01                	adc    %eax,(%ecx)
 89b:	12 06                	adc    (%esi),%al
 89d:	00 00                	add    %al,(%eax)
 89f:	00 01                	add    %al,(%ecx)
 8a1:	11 00                	adc    %eax,(%eax)
 8a3:	10 17                	adc    %dl,(%edi)
 8a5:	55                   	push   %ebp
 8a6:	17                   	pop    %ss
 8a7:	03 0e                	add    (%esi),%ecx
 8a9:	1b 0e                	sbb    (%esi),%ecx
 8ab:	25 0e 13 05 00       	and    $0x5130e,%eax
 8b0:	00 00                	add    %al,(%eax)
 8b2:	01 0d 00 03 08 3a    	add    %ecx,0x3a080300
 8b8:	0b 3b                	or     (%ebx),%edi
 8ba:	0b 39                	or     (%ecx),%edi
 8bc:	0b 49 13             	or     0x13(%ecx),%ecx
 8bf:	0d 0b 6b 0b 00       	or     $0xb6b0b,%eax
 8c4:	00 02                	add    %al,(%edx)
 8c6:	16                   	push   %ss
 8c7:	00 03                	add    %al,(%ebx)
 8c9:	0e                   	push   %cs
 8ca:	3a 0b                	cmp    (%ebx),%cl
 8cc:	3b 0b                	cmp    (%ebx),%ecx
 8ce:	39 0b                	cmp    %ecx,(%ebx)
 8d0:	49                   	dec    %ecx
 8d1:	13 00                	adc    (%eax),%eax
 8d3:	00 03                	add    %al,(%ebx)
 8d5:	0d 00 03 08 3a       	or     $0x3a080300,%eax
 8da:	0b 3b                	or     (%ebx),%edi
 8dc:	0b 39                	or     (%ecx),%edi
 8de:	0b 49 13             	or     0x13(%ecx),%ecx
 8e1:	38 0b                	cmp    %cl,(%ebx)
 8e3:	00 00                	add    %al,(%eax)
 8e5:	04 0d                	add    $0xd,%al
 8e7:	00 49 13             	add    %cl,0x13(%ecx)
 8ea:	00 00                	add    %al,(%eax)
 8ec:	05 24 00 0b 0b       	add    $0xb0b0024,%eax
 8f1:	3e 0b 03             	or     %ds:(%ebx),%eax
 8f4:	0e                   	push   %cs
 8f5:	00 00                	add    %al,(%eax)
 8f7:	06                   	push   %es
 8f8:	0d 00 03 0e 3a       	or     $0x3a0e0300,%eax
 8fd:	0b 3b                	or     (%ebx),%edi
 8ff:	0b 39                	or     (%ecx),%edi
 901:	0b 49 13             	or     0x13(%ecx),%ecx
 904:	38 0b                	cmp    %cl,(%ebx)
 906:	00 00                	add    %al,(%eax)
 908:	07                   	pop    %es
 909:	13 01                	adc    (%ecx),%eax
 90b:	0b 0b                	or     (%ebx),%ecx
 90d:	3a 0b                	cmp    (%ebx),%cl
 90f:	3b 0b                	cmp    (%ebx),%ecx
 911:	39 0b                	cmp    %ecx,(%ebx)
 913:	01 13                	add    %edx,(%ebx)
 915:	00 00                	add    %al,(%eax)
 917:	08 17                	or     %dl,(%edi)
 919:	01 03                	add    %eax,(%ebx)
 91b:	0e                   	push   %cs
 91c:	0b 0b                	or     (%ebx),%ecx
 91e:	3a 0b                	cmp    (%ebx),%cl
 920:	3b 0b                	cmp    (%ebx),%ecx
 922:	39 21                	cmp    %esp,(%ecx)
 924:	0f 01 13             	lgdtl  (%ebx)
 927:	00 00                	add    %al,(%eax)
 929:	09 0d 00 03 08 3a    	or     %ecx,0x3a080300
 92f:	0b 3b                	or     (%ebx),%edi
 931:	0b 39                	or     (%ecx),%edi
 933:	0b 49 13             	or     0x13(%ecx),%ecx
 936:	00 00                	add    %al,(%eax)
 938:	0a 0d 00 03 0e 3a    	or     0x3a0e0300,%cl
 93e:	21 02                	and    %eax,(%edx)
 940:	3b 0b                	cmp    (%ebx),%ecx
 942:	39 0b                	cmp    %ecx,(%ebx)
 944:	49                   	dec    %ecx
 945:	13 00                	adc    (%eax),%eax
 947:	00 0b                	add    %cl,(%ebx)
 949:	01 01                	add    %eax,(%ecx)
 94b:	49                   	dec    %ecx
 94c:	13 01                	adc    (%ecx),%eax
 94e:	13 00                	adc    (%eax),%eax
 950:	00 0c 21             	add    %cl,(%ecx,%eiz,1)
 953:	00 49 13             	add    %cl,0x13(%ecx)
 956:	2f                   	das
 957:	0b 00                	or     (%eax),%eax
 959:	00 0d 0f 00 0b 21    	add    %cl,0x210b000f
 95f:	04 49                	add    $0x49,%al
 961:	13 00                	adc    (%eax),%eax
 963:	00 0e                	add    %cl,(%esi)
 965:	13 01                	adc    (%ecx),%eax
 967:	03 0e                	add    (%esi),%ecx
 969:	0b 0b                	or     (%ebx),%ecx
 96b:	3a 0b                	cmp    (%ebx),%cl
 96d:	3b 0b                	cmp    (%ebx),%ecx
 96f:	39 21                	cmp    %esp,(%ecx)
 971:	10 01                	adc    %al,(%ecx)
 973:	13 00                	adc    (%eax),%eax
 975:	00 0f                	add    %cl,(%edi)
 977:	05 00 49 13 00       	add    $0x134900,%eax
 97c:	00 10                	add    %dl,(%eax)
 97e:	34 00                	xor    $0x0,%al
 980:	03 08                	add    (%eax),%ecx
 982:	3a 21                	cmp    (%ecx),%ah
 984:	01 3b                	add    %edi,(%ebx)
 986:	0b 39                	or     (%ecx),%edi
 988:	0b 49 13             	or     0x13(%ecx),%ecx
 98b:	02 18                	add    (%eax),%bl
 98d:	00 00                	add    %al,(%eax)
 98f:	11 0d 00 49 13 38    	adc    %ecx,0x38134900
 995:	0b 00                	or     (%eax),%eax
 997:	00 12                	add    %dl,(%edx)
 999:	2e 01 3f             	add    %edi,%cs:(%edi)
 99c:	19 03                	sbb    %eax,(%ebx)
 99e:	0e                   	push   %cs
 99f:	3a 0b                	cmp    (%ebx),%cl
 9a1:	3b 0b                	cmp    (%ebx),%ecx
 9a3:	39 0b                	cmp    %ecx,(%ebx)
 9a5:	27                   	daa
 9a6:	19 3c 19             	sbb    %edi,(%ecx,%ebx,1)
 9a9:	01 13                	add    %edx,(%ebx)
 9ab:	00 00                	add    %al,(%eax)
 9ad:	13 18                	adc    (%eax),%ebx
 9af:	00 00                	add    %al,(%eax)
 9b1:	00 14 0b             	add    %dl,(%ebx,%ecx,1)
 9b4:	01 11                	add    %edx,(%ecx)
 9b6:	01 12                	add    %edx,(%edx)
 9b8:	06                   	push   %es
 9b9:	01 13                	add    %edx,(%ebx)
 9bb:	00 00                	add    %al,(%eax)
 9bd:	15 11 01 25 0e       	adc    $0xe250111,%eax
 9c2:	13 0b                	adc    (%ebx),%ecx
 9c4:	03 1f                	add    (%edi),%ebx
 9c6:	1b 1f                	sbb    (%edi),%ebx
 9c8:	11 01                	adc    %eax,(%ecx)
 9ca:	12 06                	adc    (%esi),%al
 9cc:	10 17                	adc    %dl,(%edi)
 9ce:	00 00                	add    %al,(%eax)
 9d0:	16                   	push   %ss
 9d1:	24 00                	and    $0x0,%al
 9d3:	0b 0b                	or     (%ebx),%ecx
 9d5:	3e 0b 03             	or     %ds:(%ebx),%eax
 9d8:	08 00                	or     %al,(%eax)
 9da:	00 17                	add    %dl,(%edi)
 9dc:	26 00 49 13          	add    %cl,%es:0x13(%ecx)
 9e0:	00 00                	add    %al,(%eax)
 9e2:	18 17                	sbb    %dl,(%edi)
 9e4:	01 0b                	add    %ecx,(%ebx)
 9e6:	0b 3a                	or     (%edx),%edi
 9e8:	0b 3b                	or     (%ebx),%edi
 9ea:	0b 39                	or     (%ecx),%edi
 9ec:	0b 01                	or     (%ecx),%eax
 9ee:	13 00                	adc    (%eax),%eax
 9f0:	00 19                	add    %bl,(%ecx)
 9f2:	0d 00 03 0e 3a       	or     $0x3a0e0300,%eax
 9f7:	0b 3b                	or     (%ebx),%edi
 9f9:	0b 39                	or     (%ecx),%edi
 9fb:	0b 49 13             	or     0x13(%ecx),%ecx
 9fe:	0d 0b 6b 0b 00       	or     $0xb6b0b,%eax
 a03:	00 1a                	add    %bl,(%edx)
 a05:	34 00                	xor    $0x0,%al
 a07:	03 0e                	add    (%esi),%ecx
 a09:	3a 0b                	cmp    (%ebx),%cl
 a0b:	3b 0b                	cmp    (%ebx),%ecx
 a0d:	39 0b                	cmp    %ecx,(%ebx)
 a0f:	49                   	dec    %ecx
 a10:	13 02                	adc    (%edx),%eax
 a12:	18 00                	sbb    %al,(%eax)
 a14:	00 1b                	add    %bl,(%ebx)
 a16:	2e 01 3f             	add    %edi,%cs:(%edi)
 a19:	19 03                	sbb    %eax,(%ebx)
 a1b:	0e                   	push   %cs
 a1c:	3a 0b                	cmp    (%ebx),%cl
 a1e:	3b 0b                	cmp    (%ebx),%ecx
 a20:	39 0b                	cmp    %ecx,(%ebx)
 a22:	27                   	daa
 a23:	19 49 13             	sbb    %ecx,0x13(%ecx)
 a26:	3c 19                	cmp    $0x19,%al
 a28:	01 13                	add    %edx,(%ebx)
 a2a:	00 00                	add    %al,(%eax)
 a2c:	1c 2e                	sbb    $0x2e,%al
 a2e:	01 3f                	add    %edi,(%edi)
 a30:	19 03                	sbb    %eax,(%ebx)
 a32:	0e                   	push   %cs
 a33:	3a 0b                	cmp    (%ebx),%cl
 a35:	3b 0b                	cmp    (%ebx),%ecx
 a37:	39 0b                	cmp    %ecx,(%ebx)
 a39:	27                   	daa
 a3a:	19 11                	sbb    %edx,(%ecx)
 a3c:	01 12                	add    %edx,(%edx)
 a3e:	06                   	push   %es
 a3f:	40                   	inc    %eax
 a40:	18 7c 19 00          	sbb    %bh,0x0(%ecx,%ebx,1)
 a44:	00 1d 05 00 03 08    	add    %bl,0x8030005
 a4a:	3a 0b                	cmp    (%ebx),%cl
 a4c:	3b 0b                	cmp    (%ebx),%ecx
 a4e:	39 0b                	cmp    %ecx,(%ebx)
 a50:	49                   	dec    %ecx
 a51:	13 02                	adc    (%edx),%eax
 a53:	18 00                	sbb    %al,(%eax)
 a55:	00 1e                	add    %bl,(%esi)
 a57:	0b 01                	or     (%ecx),%eax
 a59:	11 01                	adc    %eax,(%ecx)
 a5b:	12 06                	adc    (%esi),%al
 a5d:	00 00                	add    %al,(%eax)
 a5f:	00 01                	add    %al,(%ecx)
 a61:	24 00                	and    $0x0,%al
 a63:	0b 0b                	or     (%ebx),%ecx
 a65:	3e 0b 03             	or     %ds:(%ebx),%eax
 a68:	0e                   	push   %cs
 a69:	00 00                	add    %al,(%eax)
 a6b:	02 16                	add    (%esi),%dl
 a6d:	00 03                	add    %al,(%ebx)
 a6f:	0e                   	push   %cs
 a70:	3a 21                	cmp    (%ecx),%ah
 a72:	02 3b                	add    (%ebx),%bh
 a74:	0b 39                	or     (%ecx),%edi
 a76:	21 20                	and    %esp,(%eax)
 a78:	49                   	dec    %ecx
 a79:	13 00                	adc    (%eax),%eax
 a7b:	00 03                	add    %al,(%ebx)
 a7d:	0f 00 0b             	str    (%ebx)
 a80:	21 04 49             	and    %eax,(%ecx,%ecx,2)
 a83:	13 00                	adc    (%eax),%eax
 a85:	00 04 34             	add    %al,(%esp,%esi,1)
 a88:	00 03                	add    %al,(%ebx)
 a8a:	08 3a                	or     %bh,(%edx)
 a8c:	21 01                	and    %eax,(%ecx)
 a8e:	3b 21                	cmp    (%ecx),%esp
 a90:	0a 39                	or     (%ecx),%bh
 a92:	0b 49 13             	or     0x13(%ecx),%ecx
 a95:	02 18                	add    (%eax),%bl
 a97:	00 00                	add    %al,(%eax)
 a99:	05 11 01 25 0e       	add    $0xe250111,%eax
 a9e:	13 0b                	adc    (%ebx),%ecx
 aa0:	03 1f                	add    (%edi),%ebx
 aa2:	1b 1f                	sbb    (%edi),%ebx
 aa4:	11 01                	adc    %eax,(%ecx)
 aa6:	12 06                	adc    (%esi),%al
 aa8:	10 17                	adc    %dl,(%edi)
 aaa:	00 00                	add    %al,(%eax)
 aac:	06                   	push   %es
 aad:	24 00                	and    $0x0,%al
 aaf:	0b 0b                	or     (%ebx),%ecx
 ab1:	3e 0b 03             	or     %ds:(%ebx),%eax
 ab4:	08 00                	or     %al,(%eax)
 ab6:	00 07                	add    %al,(%edi)
 ab8:	26 00 49 13          	add    %cl,%es:0x13(%ecx)
 abc:	00 00                	add    %al,(%eax)
 abe:	08 34 00             	or     %dh,(%eax,%eax,1)
 ac1:	03 0e                	add    (%esi),%ecx
 ac3:	3a 0b                	cmp    (%ebx),%cl
 ac5:	3b 0b                	cmp    (%ebx),%ecx
 ac7:	39 0b                	cmp    %ecx,(%ebx)
 ac9:	49                   	dec    %ecx
 aca:	13 3f                	adc    (%edi),%edi
 acc:	19 3c 19             	sbb    %edi,(%ecx,%ebx,1)
 acf:	00 00                	add    %al,(%eax)
 ad1:	09 2e                	or     %ebp,(%esi)
 ad3:	01 3f                	add    %edi,(%edi)
 ad5:	19 03                	sbb    %eax,(%ebx)
 ad7:	0e                   	push   %cs
 ad8:	3a 0b                	cmp    (%ebx),%cl
 ada:	3b 0b                	cmp    (%ebx),%ecx
 adc:	39 0b                	cmp    %ecx,(%ebx)
 ade:	27                   	daa
 adf:	19 49 13             	sbb    %ecx,0x13(%ecx)
 ae2:	3c 19                	cmp    $0x19,%al
 ae4:	01 13                	add    %edx,(%ebx)
 ae6:	00 00                	add    %al,(%eax)
 ae8:	0a 05 00 49 13 00    	or     0x134900,%al
 aee:	00 0b                	add    %cl,(%ebx)
 af0:	18 00                	sbb    %al,(%eax)
 af2:	00 00                	add    %al,(%eax)
 af4:	0c 2e                	or     $0x2e,%al
 af6:	01 3f                	add    %edi,(%edi)
 af8:	19 03                	sbb    %eax,(%ebx)
 afa:	0e                   	push   %cs
 afb:	3a 0b                	cmp    (%ebx),%cl
 afd:	3b 0b                	cmp    (%ebx),%ecx
 aff:	39 0b                	cmp    %ecx,(%ebx)
 b01:	27                   	daa
 b02:	19 11                	sbb    %edx,(%ecx)
 b04:	01 12                	add    %edx,(%edx)
 b06:	06                   	push   %es
 b07:	40                   	inc    %eax
 b08:	18 7c 19 01          	sbb    %bh,0x1(%ecx,%ebx,1)
 b0c:	13 00                	adc    (%eax),%eax
 b0e:	00 0d 05 00 03 0e    	add    %cl,0xe030005
 b14:	3a 0b                	cmp    (%ebx),%cl
 b16:	3b 0b                	cmp    (%ebx),%ecx
 b18:	39 0b                	cmp    %ecx,(%ebx)
 b1a:	49                   	dec    %ecx
 b1b:	13 02                	adc    (%edx),%eax
 b1d:	18 00                	sbb    %al,(%eax)
 b1f:	00 00                	add    %al,(%eax)
 b21:	01 16                	add    %edx,(%esi)
 b23:	00 03                	add    %al,(%ebx)
 b25:	0e                   	push   %cs
 b26:	3a 0b                	cmp    (%ebx),%cl
 b28:	3b 0b                	cmp    (%ebx),%ecx
 b2a:	39 0b                	cmp    %ecx,(%ebx)
 b2c:	49                   	dec    %ecx
 b2d:	13 00                	adc    (%eax),%eax
 b2f:	00 02                	add    %al,(%edx)
 b31:	0d 00 03 0e 3a       	or     $0x3a0e0300,%eax
 b36:	0b 3b                	or     (%ebx),%edi
 b38:	0b 39                	or     (%ecx),%edi
 b3a:	0b 49 13             	or     0x13(%ecx),%ecx
 b3d:	38 0b                	cmp    %cl,(%ebx)
 b3f:	00 00                	add    %al,(%eax)
 b41:	03 0d 00 03 0e 3a    	add    0x3a0e0300,%ecx
 b47:	0b 3b                	or     (%ebx),%edi
 b49:	0b 39                	or     (%ecx),%edi
 b4b:	0b 49 13             	or     0x13(%ecx),%ecx
 b4e:	00 00                	add    %al,(%eax)
 b50:	04 0d                	add    $0xd,%al
 b52:	00 49 13             	add    %cl,0x13(%ecx)
 b55:	00 00                	add    %al,(%eax)
 b57:	05 24 00 0b 0b       	add    $0xb0b0024,%eax
 b5c:	3e 0b 03             	or     %ds:(%ebx),%eax
 b5f:	0e                   	push   %cs
 b60:	00 00                	add    %al,(%eax)
 b62:	06                   	push   %es
 b63:	13 01                	adc    (%ecx),%eax
 b65:	0b 0b                	or     (%ebx),%ecx
 b67:	3a 0b                	cmp    (%ebx),%cl
 b69:	3b 0b                	cmp    (%ebx),%ecx
 b6b:	39 0b                	cmp    %ecx,(%ebx)
 b6d:	01 13                	add    %edx,(%ebx)
 b6f:	00 00                	add    %al,(%eax)
 b71:	07                   	pop    %es
 b72:	0d 00 03 0e 3a       	or     $0x3a0e0300,%eax
 b77:	21 03                	and    %eax,(%ebx)
 b79:	3b 0b                	cmp    (%ebx),%ecx
 b7b:	39 21                	cmp    %esp,(%ecx)
 b7d:	11 49 13             	adc    %ecx,0x13(%ecx)
 b80:	0d 0b 6b 0b 00       	or     $0xb6b0b,%eax
 b85:	00 08                	add    %cl,(%eax)
 b87:	17                   	pop    %ss
 b88:	01 03                	add    %eax,(%ebx)
 b8a:	0e                   	push   %cs
 b8b:	0b 0b                	or     (%ebx),%ecx
 b8d:	3a 0b                	cmp    (%ebx),%cl
 b8f:	3b 0b                	cmp    (%ebx),%ecx
 b91:	39 21                	cmp    %esp,(%ecx)
 b93:	0f 01 13             	lgdtl  (%ebx)
 b96:	00 00                	add    %al,(%eax)
 b98:	09 0d 00 03 08 3a    	or     %ecx,0x3a080300
 b9e:	21 02                	and    %eax,(%edx)
 ba0:	3b 0b                	cmp    (%ebx),%ecx
 ba2:	39 0b                	cmp    %ecx,(%ebx)
 ba4:	49                   	dec    %ecx
 ba5:	13 00                	adc    (%eax),%eax
 ba7:	00 0a                	add    %cl,(%edx)
 ba9:	17                   	pop    %ss
 baa:	01 0b                	add    %ecx,(%ebx)
 bac:	0b 3a                	or     (%edx),%edi
 bae:	0b 3b                	or     (%ebx),%edi
 bb0:	0b 39                	or     (%ecx),%edi
 bb2:	0b 01                	or     (%ecx),%eax
 bb4:	13 00                	adc    (%eax),%eax
 bb6:	00 0b                	add    %cl,(%ebx)
 bb8:	0d 00 49 13 38       	or     $0x38134900,%eax
 bbd:	0b 00                	or     (%eax),%eax
 bbf:	00 0c 01             	add    %cl,(%ecx,%eax,1)
 bc2:	01 49 13             	add    %ecx,0x13(%ecx)
 bc5:	01 13                	add    %edx,(%ebx)
 bc7:	00 00                	add    %al,(%eax)
 bc9:	0d 21 00 49 13       	or     $0x13490021,%eax
 bce:	2f                   	das
 bcf:	0b 00                	or     (%eax),%eax
 bd1:	00 0e                	add    %cl,(%esi)
 bd3:	0d 00 03 08 3a       	or     $0x3a080300,%eax
 bd8:	21 03                	and    %eax,(%ebx)
 bda:	3b 0b                	cmp    (%ebx),%ecx
 bdc:	39 21                	cmp    %esp,(%ecx)
 bde:	11 49 13             	adc    %ecx,0x13(%ecx)
 be1:	0d 0b 6b 0b 00       	or     $0xb6b0b,%eax
 be6:	00 0f                	add    %cl,(%edi)
 be8:	0f 00 0b             	str    (%ebx)
 beb:	21 04 49             	and    %eax,(%ecx,%ecx,2)
 bee:	13 00                	adc    (%eax),%eax
 bf0:	00 10                	add    %dl,(%eax)
 bf2:	34 00                	xor    $0x0,%al
 bf4:	03 0e                	add    (%esi),%ecx
 bf6:	3a 21                	cmp    (%ecx),%ah
 bf8:	01 3b                	add    %edi,(%ebx)
 bfa:	0b 39                	or     (%ecx),%edi
 bfc:	0b 49 13             	or     0x13(%ecx),%ecx
 bff:	02 18                	add    (%eax),%bl
 c01:	00 00                	add    %al,(%eax)
 c03:	11 11                	adc    %edx,(%ecx)
 c05:	01 25 0e 13 0b 03    	add    %esp,0x30b130e
 c0b:	1f                   	pop    %ds
 c0c:	1b 1f                	sbb    (%edi),%ebx
 c0e:	11 01                	adc    %eax,(%ecx)
 c10:	12 06                	adc    (%esi),%al
 c12:	10 17                	adc    %dl,(%edi)
 c14:	00 00                	add    %al,(%eax)
 c16:	12 24 00             	adc    (%eax,%eax,1),%ah
 c19:	0b 0b                	or     (%ebx),%ecx
 c1b:	3e 0b 03             	or     %ds:(%ebx),%eax
 c1e:	08 00                	or     %al,(%eax)
 c20:	00 13                	add    %dl,(%ebx)
 c22:	26 00 49 13          	add    %cl,%es:0x13(%ecx)
 c26:	00 00                	add    %al,(%eax)
 c28:	14 13                	adc    $0x13,%al
 c2a:	01 03                	add    %eax,(%ebx)
 c2c:	0e                   	push   %cs
 c2d:	0b 0b                	or     (%ebx),%ecx
 c2f:	3a 0b                	cmp    (%ebx),%cl
 c31:	3b 0b                	cmp    (%ebx),%ecx
 c33:	39 0b                	cmp    %ecx,(%ebx)
 c35:	01 13                	add    %edx,(%ebx)
 c37:	00 00                	add    %al,(%eax)
 c39:	15 2e 01 3f 19       	adc    $0x193f012e,%eax
 c3e:	03 0e                	add    (%esi),%ecx
 c40:	3a 0b                	cmp    (%ebx),%cl
 c42:	3b 0b                	cmp    (%ebx),%ecx
 c44:	39 0b                	cmp    %ecx,(%ebx)
 c46:	27                   	daa
 c47:	19 49 13             	sbb    %ecx,0x13(%ecx)
 c4a:	3c 19                	cmp    $0x19,%al
 c4c:	01 13                	add    %edx,(%ebx)
 c4e:	00 00                	add    %al,(%eax)
 c50:	16                   	push   %ss
 c51:	05 00 49 13 00       	add    $0x134900,%eax
 c56:	00 17                	add    %dl,(%edi)
 c58:	18 00                	sbb    %al,(%eax)
 c5a:	00 00                	add    %al,(%eax)
 c5c:	18 2e                	sbb    %ch,(%esi)
 c5e:	01 3f                	add    %edi,(%edi)
 c60:	19 03                	sbb    %eax,(%ebx)
 c62:	08 3a                	or     %bh,(%edx)
 c64:	0b 3b                	or     (%ebx),%edi
 c66:	0b 39                	or     (%ecx),%edi
 c68:	0b 11                	or     (%ecx),%edx
 c6a:	01 12                	add    %edx,(%edx)
 c6c:	06                   	push   %es
 c6d:	40                   	inc    %eax
 c6e:	18 7c 19 01          	sbb    %bh,0x1(%ecx,%ebx,1)
 c72:	13 00                	adc    (%eax),%eax
 c74:	00 19                	add    %bl,(%ecx)
 c76:	0b 01                	or     (%ecx),%eax
 c78:	11 01                	adc    %eax,(%ecx)
 c7a:	12 06                	adc    (%esi),%al
 c7c:	00 00                	add    %al,(%eax)
 c7e:	1a 2e                	sbb    (%esi),%ch
 c80:	00 3f                	add    %bh,(%edi)
 c82:	19 03                	sbb    %eax,(%ebx)
 c84:	0e                   	push   %cs
 c85:	3a 0b                	cmp    (%ebx),%cl
 c87:	3b 0b                	cmp    (%ebx),%ecx
 c89:	39 0b                	cmp    %ecx,(%ebx)
 c8b:	11 01                	adc    %eax,(%ecx)
 c8d:	12 06                	adc    (%esi),%al
 c8f:	40                   	inc    %eax
 c90:	18 7a 19             	sbb    %bh,0x19(%edx)
 c93:	00 00                	add    %al,(%eax)
 c95:	1b 2e                	sbb    (%esi),%ebp
 c97:	01 3f                	add    %edi,(%edi)
 c99:	19 03                	sbb    %eax,(%ebx)
 c9b:	0e                   	push   %cs
 c9c:	3a 0b                	cmp    (%ebx),%cl
 c9e:	3b 0b                	cmp    (%ebx),%ecx
 ca0:	39 0b                	cmp    %ecx,(%ebx)
 ca2:	11 01                	adc    %eax,(%ecx)
 ca4:	12 06                	adc    (%esi),%al
 ca6:	40                   	inc    %eax
 ca7:	18 7c 19 00          	sbb    %bh,0x0(%ecx,%ebx,1)
 cab:	00 1c 34             	add    %bl,(%esp,%esi,1)
 cae:	00 03                	add    %al,(%ebx)
 cb0:	08 3a                	or     %bh,(%edx)
 cb2:	0b 3b                	or     (%ebx),%edi
 cb4:	0b 39                	or     (%ecx),%edi
 cb6:	0b 49 13             	or     0x13(%ecx),%ecx
 cb9:	02 18                	add    (%eax),%bl
 cbb:	00 00                	add    %al,(%eax)
	...

Déassemblage de la section .debug_aranges :

00000000 <.debug_aranges>:
   0:	1c 00                	sbb    $0x0,%al
   2:	00 00                	add    %al,(%eax)
   4:	02 00                	add    (%eax),%al
   6:	00 00                	add    %al,(%eax)
   8:	00 00                	add    %al,(%eax)
   a:	04 00                	add    $0x0,%al
   c:	00 00                	add    %al,(%eax)
   e:	00 00                	add    %al,(%eax)
  10:	10 30                	adc    %dh,(%eax)
  12:	30 00                	xor    %al,(%eax)
  14:	13 00                	adc    (%eax),%eax
	...
  1e:	00 00                	add    %al,(%eax)
  20:	1c 00                	sbb    $0x0,%al
  22:	00 00                	add    %al,(%eax)
  24:	02 00                	add    (%eax),%al
  26:	24 00                	and    $0x0,%al
  28:	00 00                	add    %al,(%eax)
  2a:	04 00                	add    $0x0,%al
  2c:	00 00                	add    %al,(%eax)
  2e:	00 00                	add    %al,(%eax)
  30:	23 30                	and    (%eax),%esi
  32:	30 00                	xor    %al,(%eax)
  34:	4a                   	dec    %edx
	...
  3d:	00 00                	add    %al,(%eax)
  3f:	00 1c 00             	add    %bl,(%eax,%eax,1)
  42:	00 00                	add    %al,(%eax)
  44:	02 00                	add    (%eax),%al
  46:	99                   	cltd
  47:	04 00                	add    $0x0,%al
  49:	00 04 00             	add    %al,(%eax,%eax,1)
  4c:	00 00                	add    %al,(%eax)
  4e:	00 00                	add    %al,(%eax)
  50:	6d                   	insl   (%dx),%es:(%edi)
  51:	30 30                	xor    %dh,(%eax)
  53:	00 32                	add    %dh,(%edx)
  55:	08 00                	or     %al,(%eax)
	...
  5f:	00 1c 00             	add    %bl,(%eax,%eax,1)
  62:	00 00                	add    %al,(%eax)
  64:	02 00                	add    (%eax),%al
  66:	54                   	push   %esp
  67:	0f 00 00             	sldt   (%eax)
  6a:	04 00                	add    $0x0,%al
  6c:	00 00                	add    %al,(%eax)
  6e:	00 00                	add    %al,(%eax)
  70:	9f                   	lahf
  71:	38 30                	cmp    %dh,(%eax)
  73:	00 a5 02 00 00 00    	add    %ah,0x2(%ebp)
  79:	00 00                	add    %al,(%eax)
  7b:	00 00                	add    %al,(%eax)
  7d:	00 00                	add    %al,(%eax)
  7f:	00 1c 00             	add    %bl,(%eax,%eax,1)
  82:	00 00                	add    %al,(%eax)
  84:	02 00                	add    (%eax),%al
  86:	68 18 00 00 04       	push   $0x4000018
  8b:	00 00                	add    %al,(%eax)
  8d:	00 00                	add    %al,(%eax)
  8f:	00 44 3b 30          	add    %al,0x30(%ebx,%edi,1)
  93:	00 88 00 00 00 00    	add    %cl,0x0(%eax)
  99:	00 00                	add    %al,(%eax)
  9b:	00 00                	add    %al,(%eax)
  9d:	00 00                	add    %al,(%eax)
  9f:	00 1c 00             	add    %bl,(%eax,%eax,1)
  a2:	00 00                	add    %al,(%eax)
  a4:	02 00                	add    (%eax),%al
  a6:	28 1b                	sub    %bl,(%ebx)
  a8:	00 00                	add    %al,(%eax)
  aa:	04 00                	add    $0x0,%al
  ac:	00 00                	add    %al,(%eax)
  ae:	00 00                	add    %al,(%eax)
  b0:	cc                   	int3
  b1:	3b 30                	cmp    (%eax),%esi
  b3:	00 ad 01 00 00 00    	add    %ch,0x1(%ebp)
  b9:	00 00                	add    %al,(%eax)
  bb:	00 00                	add    %al,(%eax)
  bd:	00 00                	add    %al,(%eax)
  bf:	00 24 00             	add    %ah,(%eax,%eax,1)
  c2:	00 00                	add    %al,(%eax)
  c4:	02 00                	add    (%eax),%al
  c6:	10 24 00             	adc    %ah,(%eax,%eax,1)
  c9:	00 04 00             	add    %al,(%eax,%eax,1)
  cc:	00 00                	add    %al,(%eax)
  ce:	00 00                	add    %al,(%eax)
  d0:	79 3d                	jns    10f <mbh-0x2ffef1>
  d2:	30 00                	xor    %al,(%eax)
  d4:	1a 00                	sbb    (%eax),%al
  d6:	00 00                	add    %al,(%eax)
  d8:	10 20                	adc    %ah,(%eax)
  da:	30 00                	xor    %al,(%eax)
  dc:	fc                   	cld
  dd:	0f 00 00             	sldt   (%eax)
	...
  e8:	1c 00                	sbb    $0x0,%al
  ea:	00 00                	add    %al,(%eax)
  ec:	02 00                	add    (%eax),%al
  ee:	33 24 00             	xor    (%eax,%eax,1),%esp
  f1:	00 04 00             	add    %al,(%eax,%eax,1)
  f4:	00 00                	add    %al,(%eax)
  f6:	00 00                	add    %al,(%eax)
  f8:	93                   	xchg   %eax,%ebx
  f9:	3d 30 00 7c 01       	cmp    $0x17c0030,%eax
	...
 106:	00 00                	add    %al,(%eax)
 108:	1c 00                	sbb    $0x0,%al
 10a:	00 00                	add    %al,(%eax)
 10c:	02 00                	add    (%eax),%al
 10e:	de 2a                	fisubrs (%edx)
 110:	00 00                	add    %al,(%eax)
 112:	04 00                	add    $0x0,%al
 114:	00 00                	add    %al,(%eax)
 116:	00 00                	add    %al,(%eax)
 118:	0f 3f                	(bad)
 11a:	30 00                	xor    %al,(%eax)
 11c:	56                   	push   %esi
	...
 125:	00 00                	add    %al,(%eax)
 127:	00 1c 00             	add    %bl,(%eax,%eax,1)
 12a:	00 00                	add    %al,(%eax)
 12c:	02 00                	add    (%eax),%al
 12e:	d1 2b                	shrl   $1,(%ebx)
 130:	00 00                	add    %al,(%eax)
 132:	04 00                	add    $0x0,%al
 134:	00 00                	add    %al,(%eax)
 136:	00 00                	add    %al,(%eax)
 138:	65 3f                	gs aas
 13a:	30 00                	xor    %al,(%eax)
 13c:	e4 00                	in     $0x0,%al
	...

Déassemblage de la section .debug_str :

00000000 <.debug_str>:
   0:	2e 2e 2f             	cs cs das
   3:	6b 65 72 6e          	imul   $0x6e,0x72(%ebp),%esp
   7:	65 6c                	gs insb (%dx),%es:(%edi)
   9:	2f                   	das
   a:	63 6f 72             	arpl   %ebp,0x72(%edi)
   d:	65 2f                	gs das
   f:	65 6e                	outsb  %gs:(%esi),(%dx)
  11:	74 72                	je     85 <mbh-0x2fff7b>
  13:	79 2e                	jns    43 <mbh-0x2fffbd>
  15:	73 00                	jae    17 <mbh-0x2fffe9>
  17:	2f                   	das
  18:	68 6f 6d 65 2f       	push   $0x2f656d6f
  1d:	73 61                	jae    80 <mbh-0x2fff80>
  1f:	6e                   	outsb  %ds:(%esi),(%dx)
  20:	69 6d 2f 74 6c 73 2d 	imul   $0x2d736c74,0x2f(%ebp),%ebp
  27:	73 65                	jae    8e <mbh-0x2fff72>
  29:	63 2f                	arpl   %ebp,(%edi)
  2b:	73 65                	jae    92 <mbh-0x2fff6e>
  2d:	63 6f 73             	arpl   %ebp,0x73(%edi)
  30:	2d 6e 67 2f 74       	sub    $0x742f676e,%eax
  35:	70 32                	jo     69 <mbh-0x2fff97>
  37:	00 47 4e             	add    %al,0x4e(%edi)
  3a:	55                   	push   %ebp
  3b:	20 41 53             	and    %al,0x53(%ecx)
  3e:	20 32                	and    %dh,(%edx)
  40:	2e 34 32             	cs xor $0x32,%al
  43:	00 75 61             	add    %dh,0x61(%ebp)
  46:	72 74                	jb     bc <mbh-0x2fff44>
  48:	5f                   	pop    %edi
  49:	69 6e 69 74 00 66 72 	imul   $0x72660074,0x69(%esi),%ebp
  50:	61                   	popa
  51:	6d                   	insl   (%dx),%es:(%edi)
  52:	65 62 75 66          	bound  %esi,%gs:0x66(%ebp)
  56:	66 65 72 5f          	data16 gs jb b9 <mbh-0x2fff47>
  5a:	62 6c 75 65          	bound  %ebp,0x65(%ebp,%esi,2)
  5e:	5f                   	pop    %edi
  5f:	6d                   	insl   (%dx),%es:(%edi)
  60:	61                   	popa
  61:	73 6b                	jae    ce <mbh-0x2fff32>
  63:	5f                   	pop    %edi
  64:	73 69                	jae    cf <mbh-0x2fff31>
  66:	7a 65                	jp     cd <mbh-0x2fff33>
  68:	00 6d 6d             	add    %ch,0x6d(%ebp)
  6b:	61                   	popa
  6c:	70 5f                	jo     cd <mbh-0x2fff33>
  6e:	61                   	popa
  6f:	64 64 72 00          	fs fs jb 73 <mbh-0x2fff8d>
  73:	66 72 61             	data16 jb d7 <mbh-0x2fff29>
  76:	6d                   	insl   (%dx),%es:(%edi)
  77:	65 62 75 66          	bound  %esi,%gs:0x66(%ebp)
  7b:	66 65 72 5f          	data16 gs jb de <mbh-0x2fff22>
  7f:	61                   	popa
  80:	64 64 72 00          	fs fs jb 84 <mbh-0x2fff7c>
  84:	76 62                	jbe    e8 <mbh-0x2fff18>
  86:	65 5f                	gs pop %edi
  88:	69 6e 74 65 72 66 61 	imul   $0x61667265,0x74(%esi),%ebp
  8f:	63 65 5f             	arpl   %esp,0x5f(%ebp)
  92:	6f                   	outsl  %ds:(%esi),(%dx)
  93:	66 66 00 6d 75       	data16 data16 add %ch,0x75(%ebp)
  98:	6c                   	insb   (%dx),%es:(%edi)
  99:	74 69                	je     104 <mbh-0x2ffefc>
  9b:	62 6f 6f             	bound  %ebp,0x6f(%edi)
  9e:	74 5f                	je     ff <mbh-0x2fff01>
  a0:	75 69                	jne    10b <mbh-0x2ffef5>
  a2:	6e                   	outsb  %ds:(%esi),(%dx)
  a3:	74 33                	je     d8 <mbh-0x2fff28>
  a5:	32 5f 74             	xor    0x74(%edi),%bl
  a8:	00 73 68             	add    %dh,0x68(%ebx)
  ab:	6f                   	outsl  %ds:(%esi),(%dx)
  ac:	72 74                	jb     122 <mbh-0x2ffede>
  ae:	20 69 6e             	and    %ch,0x6e(%ecx)
  b1:	74 00                	je     b3 <mbh-0x2fff4d>
  b3:	73 69                	jae    11e <mbh-0x2ffee2>
  b5:	7a 65                	jp     11c <mbh-0x2ffee4>
  b7:	5f                   	pop    %edi
  b8:	74 00                	je     ba <mbh-0x2fff46>
  ba:	66 72 61             	data16 jb 11e <mbh-0x2ffee2>
  bd:	6d                   	insl   (%dx),%es:(%edi)
  be:	65 62 75 66          	bound  %esi,%gs:0x66(%ebp)
  c2:	66 65 72 5f          	data16 gs jb 125 <mbh-0x2ffedb>
  c6:	72 65                	jb     12d <mbh-0x2ffed3>
  c8:	64 5f                	fs pop %edi
  ca:	66 69 65 6c 64 5f    	imul   $0x5f64,0x6c(%ebp),%sp
  d0:	70 6f                	jo     141 <mbh-0x2ffebf>
  d2:	73 69                	jae    13d <mbh-0x2ffec3>
  d4:	74 69                	je     13f <mbh-0x2ffec1>
  d6:	6f                   	outsl  %ds:(%esi),(%dx)
  d7:	6e                   	outsb  %ds:(%esi),(%dx)
  d8:	00 5f 5f             	add    %bl,0x5f(%edi)
  db:	69 6e 66 6f 00 64 72 	imul   $0x7264006f,0x66(%esi),%ebp
  e2:	69 76 65 73 5f 61 64 	imul   $0x64615f73,0x65(%esi),%esi
  e9:	64 72 00             	fs jb  ec <mbh-0x2fff14>
  ec:	63 6d 64             	arpl   %ebp,0x64(%ebp)
  ef:	6c                   	insb   (%dx),%es:(%edi)
  f0:	69 6e 65 00 70 61 6e 	imul   $0x6e617000,0x65(%esi),%ebp
  f7:	69 63 00 61 6f 75 74 	imul   $0x74756f61,0x0(%ebx),%esp
  fe:	5f                   	pop    %edi
  ff:	73 79                	jae    17a <mbh-0x2ffe86>
 101:	6d                   	insl   (%dx),%es:(%edi)
 102:	00 6d 6f             	add    %ch,0x6f(%ebp)
 105:	64 73 5f             	fs jae 167 <mbh-0x2ffe99>
 108:	61                   	popa
 109:	64 64 72 00          	fs fs jb 10d <mbh-0x2ffef3>
 10d:	6d                   	insl   (%dx),%es:(%edi)
 10e:	75 6c                	jne    17c <mbh-0x2ffe84>
 110:	74 69                	je     17b <mbh-0x2ffe85>
 112:	62 6f 6f             	bound  %ebp,0x6f(%edi)
 115:	74 5f                	je     176 <mbh-0x2ffe8a>
 117:	75 69                	jne    182 <mbh-0x2ffe7e>
 119:	6e                   	outsb  %ds:(%esi),(%dx)
 11a:	74 31                	je     14d <mbh-0x2ffeb3>
 11c:	36 5f                	ss pop %edi
 11e:	74 00                	je     120 <mbh-0x2ffee0>
 120:	73 74                	jae    196 <mbh-0x2ffe6a>
 122:	72 73                	jb     197 <mbh-0x2ffe69>
 124:	69 7a 65 00 70 69 63 	imul   $0x63697000,0x65(%edx),%edi
 12b:	5f                   	pop    %edi
 12c:	69 6e 69 74 00 6d 75 	imul   $0x756d0074,0x69(%esi),%ebp
 133:	6c                   	insb   (%dx),%es:(%edi)
 134:	74 69                	je     19f <mbh-0x2ffe61>
 136:	62 6f 6f             	bound  %ebp,0x6f(%edi)
 139:	74 5f                	je     19a <mbh-0x2ffe66>
 13b:	65 6c                	gs insb (%dx),%es:(%edi)
 13d:	66 5f                	pop    %di
 13f:	73 65                	jae    1a6 <mbh-0x2ffe5a>
 141:	63 74 69 6f          	arpl   %esi,0x6f(%ecx,%ebp,2)
 145:	6e                   	outsb  %ds:(%esi),(%dx)
 146:	5f                   	pop    %edi
 147:	68 65 61 64 65       	push   $0x65646165
 14c:	72 5f                	jb     1ad <mbh-0x2ffe53>
 14e:	74 61                	je     1b1 <mbh-0x2ffe4f>
 150:	62 6c 65 5f          	bound  %ebp,0x5f(%ebp,%eiz,2)
 154:	74 00                	je     156 <mbh-0x2ffeaa>
 156:	73 68                	jae    1c0 <mbh-0x2ffe40>
 158:	6e                   	outsb  %ds:(%esi),(%dx)
 159:	64 78 00             	fs js  15c <mbh-0x2ffea4>
 15c:	61                   	popa
 15d:	70 6d                	jo     1cc <mbh-0x2ffe34>
 15f:	5f                   	pop    %edi
 160:	74 61                	je     1c3 <mbh-0x2ffe3d>
 162:	62 6c 65 00          	bound  %ebp,0x0(%ebp,%eiz,2)
 166:	6c                   	insb   (%dx),%es:(%edi)
 167:	6f                   	outsl  %ds:(%esi),(%dx)
 168:	6e                   	outsb  %ds:(%esi),(%dx)
 169:	67 20 6c 6f          	and    %ch,0x6f(%si)
 16d:	6e                   	outsb  %ds:(%esi),(%dx)
 16e:	67 20 69 6e          	and    %ch,0x6e(%bx,%di)
 172:	74 00                	je     174 <mbh-0x2ffe8c>
 174:	6d                   	insl   (%dx),%es:(%edi)
 175:	62 69 5f             	bound  %ebp,0x5f(%ecx)
 178:	74 00                	je     17a <mbh-0x2ffe86>
 17a:	66 72 61             	data16 jb 1de <mbh-0x2ffe22>
 17d:	6d                   	insl   (%dx),%es:(%edi)
 17e:	65 62 75 66          	bound  %esi,%gs:0x66(%ebp)
 182:	66 65 72 5f          	data16 gs jb 1e5 <mbh-0x2ffe1b>
 186:	70 61                	jo     1e9 <mbh-0x2ffe17>
 188:	6c                   	insb   (%dx),%es:(%edi)
 189:	65 74 74             	gs je  200 <mbh-0x2ffe00>
 18c:	65 5f                	gs pop %edi
 18e:	6e                   	outsb  %ds:(%esi),(%dx)
 18f:	75 6d                	jne    1fe <mbh-0x2ffe02>
 191:	5f                   	pop    %edi
 192:	63 6f 6c             	arpl   %ebp,0x6c(%edi)
 195:	6f                   	outsl  %ds:(%esi),(%dx)
 196:	72 73                	jb     20b <mbh-0x2ffdf5>
 198:	00 66 72             	add    %ah,0x72(%esi)
 19b:	61                   	popa
 19c:	6d                   	insl   (%dx),%es:(%edi)
 19d:	65 62 75 66          	bound  %esi,%gs:0x66(%ebp)
 1a1:	66 65 72 5f          	data16 gs jb 204 <mbh-0x2ffdfc>
 1a5:	62 6c 75 65          	bound  %ebp,0x65(%ebp,%esi,2)
 1a9:	5f                   	pop    %edi
 1aa:	66 69 65 6c 64 5f    	imul   $0x5f64,0x6c(%ebp),%sp
 1b0:	70 6f                	jo     221 <mbh-0x2ffddf>
 1b2:	73 69                	jae    21d <mbh-0x2ffde3>
 1b4:	74 69                	je     21f <mbh-0x2ffde1>
 1b6:	6f                   	outsl  %ds:(%esi),(%dx)
 1b7:	6e                   	outsb  %ds:(%esi),(%dx)
 1b8:	00 66 72             	add    %ah,0x72(%esi)
 1bb:	61                   	popa
 1bc:	6d                   	insl   (%dx),%es:(%edi)
 1bd:	65 62 75 66          	bound  %esi,%gs:0x66(%ebp)
 1c1:	66 65 72 5f          	data16 gs jb 224 <mbh-0x2ffddc>
 1c5:	62 70 70             	bound  %esi,0x70(%eax)
 1c8:	00 76 62             	add    %dh,0x62(%esi)
 1cb:	65 5f                	gs pop %edi
 1cd:	6d                   	insl   (%dx),%es:(%edi)
 1ce:	6f                   	outsl  %ds:(%esi),(%dx)
 1cf:	64 65 5f             	fs gs pop %edi
 1d2:	69 6e 66 6f 00 75 6e 	imul   $0x6e75006f,0x66(%esi),%ebp
 1d9:	73 69                	jae    244 <mbh-0x2ffdbc>
 1db:	67 6e                	outsb  %ds:(%si),(%dx)
 1dd:	65 64 20 63 68       	gs and %ah,%fs:0x68(%ebx)
 1e2:	61                   	popa
 1e3:	72 00                	jb     1e5 <mbh-0x2ffe1b>
 1e5:	76 62                	jbe    249 <mbh-0x2ffdb7>
 1e7:	65 5f                	gs pop %edi
 1e9:	63 6f 6e             	arpl   %ebp,0x6e(%edi)
 1ec:	74 72                	je     260 <mbh-0x2ffda0>
 1ee:	6f                   	outsl  %ds:(%esi),(%dx)
 1ef:	6c                   	insb   (%dx),%es:(%edi)
 1f0:	5f                   	pop    %edi
 1f1:	69 6e 66 6f 00 65 6c 	imul   $0x6c65006f,0x66(%esi),%ebp
 1f8:	66 5f                	pop    %di
 1fa:	73 65                	jae    261 <mbh-0x2ffd9f>
 1fc:	63 00                	arpl   %eax,(%eax)
 1fe:	6d                   	insl   (%dx),%es:(%edi)
 1ff:	65 6d                	gs insl (%dx),%es:(%edi)
 201:	5f                   	pop    %edi
 202:	6c                   	insb   (%dx),%es:(%edi)
 203:	6f                   	outsl  %ds:(%esi),(%dx)
 204:	77 65                	ja     26b <mbh-0x2ffd95>
 206:	72 00                	jb     208 <mbh-0x2ffdf8>
 208:	76 62                	jbe    26c <mbh-0x2ffd94>
 20a:	65 5f                	gs pop %edi
 20c:	6d                   	insl   (%dx),%es:(%edi)
 20d:	6f                   	outsl  %ds:(%esi),(%dx)
 20e:	64 65 00 6c 6f 6e    	fs add %ch,%gs:0x6e(%edi,%ebp,2)
 214:	67 20 6c 6f          	and    %ch,0x6f(%si)
 218:	6e                   	outsb  %ds:(%esi),(%dx)
 219:	67 20 75 6e          	and    %dh,0x6e(%di)
 21d:	73 69                	jae    288 <mbh-0x2ffd78>
 21f:	67 6e                	outsb  %ds:(%si),(%dx)
 221:	65 64 20 69 6e       	gs and %ch,%fs:0x6e(%ecx)
 226:	74 00                	je     228 <mbh-0x2ffdd8>
 228:	66 72 61             	data16 jb 28c <mbh-0x2ffd74>
 22b:	6d                   	insl   (%dx),%es:(%edi)
 22c:	65 62 75 66          	bound  %esi,%gs:0x66(%ebp)
 230:	66 65 72 5f          	data16 gs jb 293 <mbh-0x2ffd6d>
 234:	77 69                	ja     29f <mbh-0x2ffd61>
 236:	64 74 68             	fs je  2a1 <mbh-0x2ffd5f>
 239:	00 6d 6d             	add    %ch,0x6d(%ebp)
 23c:	61                   	popa
 23d:	70 5f                	jo     29e <mbh-0x2ffd62>
 23f:	6c                   	insb   (%dx),%es:(%edi)
 240:	65 6e                	outsb  %gs:(%esi),(%dx)
 242:	67 74 68             	addr16 je 2ad <mbh-0x2ffd53>
 245:	00 66 72             	add    %ah,0x72(%esi)
 248:	61                   	popa
 249:	6d                   	insl   (%dx),%es:(%edi)
 24a:	65 62 75 66          	bound  %esi,%gs:0x66(%ebp)
 24e:	66 65 72 5f          	data16 gs jb 2b1 <mbh-0x2ffd4f>
 252:	67 72 65             	addr16 jb 2ba <mbh-0x2ffd46>
 255:	65 6e                	outsb  %gs:(%esi),(%dx)
 257:	5f                   	pop    %edi
 258:	66 69 65 6c 64 5f    	imul   $0x5f64,0x6c(%ebp),%sp
 25e:	70 6f                	jo     2cf <mbh-0x2ffd31>
 260:	73 69                	jae    2cb <mbh-0x2ffd35>
 262:	74 69                	je     2cd <mbh-0x2ffd33>
 264:	6f                   	outsl  %ds:(%esi),(%dx)
 265:	6e                   	outsb  %ds:(%esi),(%dx)
 266:	00 69 6e             	add    %ch,0x6e(%ecx)
 269:	66 6f                	outsw  %ds:(%esi),(%dx)
 26b:	72 6d                	jb     2da <mbh-0x2ffd26>
 26d:	61                   	popa
 26e:	74 69                	je     2d9 <mbh-0x2ffd27>
 270:	6f                   	outsl  %ds:(%esi),(%dx)
 271:	6e                   	outsb  %ds:(%esi),(%dx)
 272:	00 73 74             	add    %dh,0x74(%ebx)
 275:	61                   	popa
 276:	72 74                	jb     2ec <mbh-0x2ffd14>
 278:	00 73 68             	add    %dh,0x68(%ebx)
 27b:	6f                   	outsl  %ds:(%esi),(%dx)
 27c:	72 74                	jb     2f2 <mbh-0x2ffd0e>
 27e:	20 75 6e             	and    %dh,0x6e(%ebp)
 281:	73 69                	jae    2ec <mbh-0x2ffd14>
 283:	67 6e                	outsb  %ds:(%si),(%dx)
 285:	65 64 20 69 6e       	gs and %ch,%fs:0x6e(%ecx)
 28a:	74 00                	je     28c <mbh-0x2ffd74>
 28c:	6d                   	insl   (%dx),%es:(%edi)
 28d:	75 6c                	jne    2fb <mbh-0x2ffd05>
 28f:	74 69                	je     2fa <mbh-0x2ffd06>
 291:	62 6f 6f             	bound  %ebp,0x6f(%edi)
 294:	74 5f                	je     2f5 <mbh-0x2ffd0b>
 296:	75 69                	jne    301 <mbh-0x2ffcff>
 298:	6e                   	outsb  %ds:(%esi),(%dx)
 299:	74 36                	je     2d1 <mbh-0x2ffd2f>
 29b:	34 5f                	xor    $0x5f,%al
 29d:	74 00                	je     29f <mbh-0x2ffd61>
 29f:	69 6e 74 72 5f 69 6e 	imul   $0x6e695f72,0x74(%esi),%ebp
 2a6:	69 74 00 62 6f 6f 74 	imul   $0x5f746f6f,0x62(%eax,%eax,1),%esi
 2ad:	5f 
 2ae:	64 65 76 69          	fs gs jbe 31b <mbh-0x2ffce5>
 2b2:	63 65 00             	arpl   %esp,0x0(%ebp)
 2b5:	6d                   	insl   (%dx),%es:(%edi)
 2b6:	75 6c                	jne    324 <mbh-0x2ffcdc>
 2b8:	74 69                	je     323 <mbh-0x2ffcdd>
 2ba:	62 6f 6f             	bound  %ebp,0x6f(%edi)
 2bd:	74 5f                	je     31e <mbh-0x2ffce2>
 2bf:	69 6e 66 6f 00 6d 75 	imul   $0x756d006f,0x66(%esi),%ebp
 2c6:	6c                   	insb   (%dx),%es:(%edi)
 2c7:	74 69                	je     332 <mbh-0x2ffcce>
 2c9:	62 6f 6f             	bound  %ebp,0x6f(%edi)
 2cc:	74 5f                	je     32d <mbh-0x2ffcd3>
 2ce:	65 6c                	gs insb (%dx),%es:(%edi)
 2d0:	66 5f                	pop    %di
 2d2:	73 65                	jae    339 <mbh-0x2ffcc7>
 2d4:	63 74 69 6f          	arpl   %esi,0x6f(%ecx,%ebp,2)
 2d8:	6e                   	outsb  %ds:(%esi),(%dx)
 2d9:	5f                   	pop    %edi
 2da:	68 65 61 64 65       	push   $0x65646165
 2df:	72 5f                	jb     340 <mbh-0x2ffcc0>
 2e1:	74 61                	je     344 <mbh-0x2ffcbc>
 2e3:	62 6c 65 00          	bound  %ebp,0x0(%ebp,%eiz,2)
 2e7:	66 72 61             	data16 jb 34b <mbh-0x2ffcb5>
 2ea:	6d                   	insl   (%dx),%es:(%edi)
 2eb:	65 62 75 66          	bound  %esi,%gs:0x66(%ebp)
 2ef:	66 65 72 5f          	data16 gs jb 352 <mbh-0x2ffcae>
 2f3:	70 69                	jo     35e <mbh-0x2ffca2>
 2f5:	74 63                	je     35a <mbh-0x2ffca6>
 2f7:	68 00 66 72 61       	push   $0x61726600
 2fc:	6d                   	insl   (%dx),%es:(%edi)
 2fd:	65 62 75 66          	bound  %esi,%gs:0x66(%ebp)
 301:	66 65 72 5f          	data16 gs jb 364 <mbh-0x2ffc9c>
 305:	74 79                	je     380 <mbh-0x2ffc80>
 307:	70 65                	jo     36e <mbh-0x2ffc92>
 309:	00 6d 75             	add    %ch,0x75(%ebp)
 30c:	6c                   	insb   (%dx),%es:(%edi)
 30d:	74 69                	je     378 <mbh-0x2ffc88>
 30f:	62 6f 6f             	bound  %ebp,0x6f(%edi)
 312:	74 5f                	je     373 <mbh-0x2ffc8d>
 314:	61                   	popa
 315:	6f                   	outsl  %ds:(%esi),(%dx)
 316:	75 74                	jne    38c <mbh-0x2ffc74>
 318:	5f                   	pop    %edi
 319:	73 79                	jae    394 <mbh-0x2ffc6c>
 31b:	6d                   	insl   (%dx),%es:(%edi)
 31c:	62 6f 6c             	bound  %ebp,0x6c(%edi)
 31f:	5f                   	pop    %edi
 320:	74 61                	je     383 <mbh-0x2ffc7d>
 322:	62 6c 65 5f          	bound  %ebp,0x5f(%ebp,%eiz,2)
 326:	74 00                	je     328 <mbh-0x2ffcd8>
 328:	76 62                	jbe    38c <mbh-0x2ffc74>
 32a:	65 5f                	gs pop %edi
 32c:	69 6e 74 65 72 66 61 	imul   $0x61667265,0x74(%esi),%ebp
 333:	63 65 5f             	arpl   %esp,0x5f(%ebp)
 336:	6c                   	insb   (%dx),%es:(%edi)
 337:	65 6e                	outsb  %gs:(%esi),(%dx)
 339:	00 74 61 62          	add    %dh,0x62(%ecx,%eiz,2)
 33d:	73 69                	jae    3a8 <mbh-0x2ffc58>
 33f:	7a 65                	jp     3a6 <mbh-0x2ffc5a>
 341:	00 66 72             	add    %ah,0x72(%esi)
 344:	61                   	popa
 345:	6d                   	insl   (%dx),%es:(%edi)
 346:	65 62 75 66          	bound  %esi,%gs:0x66(%ebp)
 34a:	66 65 72 5f          	data16 gs jb 3ad <mbh-0x2ffc53>
 34e:	72 65                	jb     3b5 <mbh-0x2ffc4b>
 350:	64 5f                	fs pop %edi
 352:	6d                   	insl   (%dx),%es:(%edi)
 353:	61                   	popa
 354:	73 6b                	jae    3c1 <mbh-0x2ffc3f>
 356:	5f                   	pop    %edi
 357:	73 69                	jae    3c2 <mbh-0x2ffc3e>
 359:	7a 65                	jp     3c0 <mbh-0x2ffc40>
 35b:	00 64 72 69          	add    %ah,0x69(%edx,%esi,2)
 35f:	76 65                	jbe    3c6 <mbh-0x2ffc3a>
 361:	73 5f                	jae    3c2 <mbh-0x2ffc3e>
 363:	6c                   	insb   (%dx),%es:(%edi)
 364:	65 6e                	outsb  %gs:(%esi),(%dx)
 366:	67 74 68             	addr16 je 3d1 <mbh-0x2ffc2f>
 369:	00 6d 65             	add    %ch,0x65(%ebp)
 36c:	6d                   	insl   (%dx),%es:(%edi)
 36d:	5f                   	pop    %edi
 36e:	75 70                	jne    3e0 <mbh-0x2ffc20>
 370:	70 65                	jo     3d7 <mbh-0x2ffc29>
 372:	72 00                	jb     374 <mbh-0x2ffc8c>
 374:	63 6f 6e             	arpl   %ebp,0x6e(%edi)
 377:	66 69 67 5f 74 61    	imul   $0x6174,0x5f(%edi),%sp
 37d:	62 6c 65 00          	bound  %ebp,0x0(%ebp,%eiz,2)
 381:	66 72 61             	data16 jb 3e5 <mbh-0x2ffc1b>
 384:	6d                   	insl   (%dx),%es:(%edi)
 385:	65 62 75 66          	bound  %esi,%gs:0x66(%ebp)
 389:	66 65 72 5f          	data16 gs jb 3ec <mbh-0x2ffc14>
 38d:	67 72 65             	addr16 jb 3f5 <mbh-0x2ffc0b>
 390:	65 6e                	outsb  %gs:(%esi),(%dx)
 392:	5f                   	pop    %edi
 393:	6d                   	insl   (%dx),%es:(%edi)
 394:	61                   	popa
 395:	73 6b                	jae    402 <mbh-0x2ffbfe>
 397:	5f                   	pop    %edi
 398:	73 69                	jae    403 <mbh-0x2ffbfd>
 39a:	7a 65                	jp     401 <mbh-0x2ffbff>
 39c:	00 6d 75             	add    %ch,0x75(%ebp)
 39f:	6c                   	insb   (%dx),%es:(%edi)
 3a0:	74 69                	je     40b <mbh-0x2ffbf5>
 3a2:	62 6f 6f             	bound  %ebp,0x6f(%edi)
 3a5:	74 5f                	je     406 <mbh-0x2ffbfa>
 3a7:	69 6e 66 6f 5f 74 00 	imul   $0x745f6f,0x66(%esi),%ebp
 3ae:	66 72 61             	data16 jb 412 <mbh-0x2ffbee>
 3b1:	6d                   	insl   (%dx),%es:(%edi)
 3b2:	65 62 75 66          	bound  %esi,%gs:0x66(%ebp)
 3b6:	66 65 72 5f          	data16 gs jb 419 <mbh-0x2ffbe7>
 3ba:	68 65 69 67 68       	push   $0x68676965
 3bf:	74 00                	je     3c1 <mbh-0x2ffc3f>
 3c1:	6d                   	insl   (%dx),%es:(%edi)
 3c2:	75 6c                	jne    430 <mbh-0x2ffbd0>
 3c4:	74 69                	je     42f <mbh-0x2ffbd1>
 3c6:	62 6f 6f             	bound  %ebp,0x6f(%edi)
 3c9:	74 5f                	je     42a <mbh-0x2ffbd6>
 3cb:	61                   	popa
 3cc:	6f                   	outsl  %ds:(%esi),(%dx)
 3cd:	75 74                	jne    443 <mbh-0x2ffbbd>
 3cf:	5f                   	pop    %edi
 3d0:	73 79                	jae    44b <mbh-0x2ffbb5>
 3d2:	6d                   	insl   (%dx),%es:(%edi)
 3d3:	62 6f 6c             	bound  %ebp,0x6c(%edi)
 3d6:	5f                   	pop    %edi
 3d7:	74 61                	je     43a <mbh-0x2ffbc6>
 3d9:	62 6c 65 00          	bound  %ebp,0x0(%ebp,%eiz,2)
 3dd:	6d                   	insl   (%dx),%es:(%edi)
 3de:	6f                   	outsl  %ds:(%esi),(%dx)
 3df:	64 73 5f             	fs jae 441 <mbh-0x2ffbbf>
 3e2:	63 6f 75             	arpl   %ebp,0x75(%edi)
 3e5:	6e                   	outsb  %ds:(%esi),(%dx)
 3e6:	74 00                	je     3e8 <mbh-0x2ffc18>
 3e8:	6d                   	insl   (%dx),%es:(%edi)
 3e9:	75 6c                	jne    457 <mbh-0x2ffba9>
 3eb:	74 69                	je     456 <mbh-0x2ffbaa>
 3ed:	62 6f 6f             	bound  %ebp,0x6f(%edi)
 3f0:	74 5f                	je     451 <mbh-0x2ffbaf>
 3f2:	75 69                	jne    45d <mbh-0x2ffba3>
 3f4:	6e                   	outsb  %ds:(%esi),(%dx)
 3f5:	74 38                	je     42f <mbh-0x2ffbd1>
 3f7:	5f                   	pop    %edi
 3f8:	74 00                	je     3fa <mbh-0x2ffc06>
 3fa:	62 6f 6f             	bound  %ebp,0x6f(%edi)
 3fd:	74 5f                	je     45e <mbh-0x2ffba2>
 3ff:	6c                   	insb   (%dx),%es:(%edi)
 400:	6f                   	outsl  %ds:(%esi),(%dx)
 401:	61                   	popa
 402:	64 65 72 5f          	fs gs jb 465 <mbh-0x2ffb9b>
 406:	6e                   	outsb  %ds:(%esi),(%dx)
 407:	61                   	popa
 408:	6d                   	insl   (%dx),%es:(%edi)
 409:	65 00 76 62          	add    %dh,%gs:0x62(%esi)
 40d:	65 5f                	gs pop %edi
 40f:	69 6e 74 65 72 66 61 	imul   $0x61667265,0x74(%esi),%ebp
 416:	63 65 5f             	arpl   %esp,0x5f(%ebp)
 419:	73 65                	jae    480 <mbh-0x2ffb80>
 41b:	67 00 47 4e          	add    %al,0x4e(%bx)
 41f:	55                   	push   %ebp
 420:	20 43 31             	and    %al,0x31(%ebx)
 423:	37                   	aaa
 424:	20 31                	and    %dh,(%ecx)
 426:	33 2e                	xor    (%esi),%ebp
 428:	32 2e                	xor    (%esi),%ch
 42a:	30 20                	xor    %ah,(%eax)
 42c:	2d 6d 6e 6f 2d       	sub    $0x2d6f6e6d,%eax
 431:	6d                   	insl   (%dx),%es:(%edi)
 432:	6d                   	insl   (%dx),%es:(%edi)
 433:	78 20                	js     455 <mbh-0x2ffbab>
 435:	2d 6d 6e 6f 2d       	sub    $0x2d6f6e6d,%eax
 43a:	73 73                	jae    4af <mbh-0x2ffb51>
 43c:	65 20 2d 6d 6e 6f 2d 	and    %ch,%gs:0x2d6f6e6d
 443:	73 73                	jae    4b8 <mbh-0x2ffb48>
 445:	65 32 20             	xor    %gs:(%eax),%ah
 448:	2d 6d 6e 6f 2d       	sub    $0x2d6f6e6d,%eax
 44d:	73 73                	jae    4c2 <mbh-0x2ffb3e>
 44f:	65 33 20             	xor    %gs:(%eax),%esp
 452:	2d 6d 6e 6f 2d       	sub    $0x2d6f6e6d,%eax
 457:	73 73                	jae    4cc <mbh-0x2ffb34>
 459:	73 65                	jae    4c0 <mbh-0x2ffb40>
 45b:	33 20                	xor    (%eax),%esp
 45d:	2d 6d 6e 6f 2d       	sub    $0x2d6f6e6d,%eax
 462:	73 73                	jae    4d7 <mbh-0x2ffb29>
 464:	65 34 2e             	gs xor $0x2e,%al
 467:	31 20                	xor    %esp,(%eax)
 469:	2d 6d 6e 6f 2d       	sub    $0x2d6f6e6d,%eax
 46e:	73 73                	jae    4e3 <mbh-0x2ffb1d>
 470:	65 34 2e             	gs xor $0x2e,%al
 473:	32 20                	xor    (%eax),%ah
 475:	2d 6d 6e 6f 2d       	sub    $0x2d6f6e6d,%eax
 47a:	73 73                	jae    4ef <mbh-0x2ffb11>
 47c:	65 34 20             	gs xor $0x20,%al
 47f:	2d 6d 6e 6f 2d       	sub    $0x2d6f6e6d,%eax
 484:	61                   	popa
 485:	76 78                	jbe    4ff <mbh-0x2ffb01>
 487:	20 2d 6d 6e 6f 2d    	and    %ch,0x2d6f6e6d
 48d:	61                   	popa
 48e:	76 78                	jbe    508 <mbh-0x2ffaf8>
 490:	32 20                	xor    (%eax),%ah
 492:	2d 6d 6e 6f 2d       	sub    $0x2d6f6e6d,%eax
 497:	61                   	popa
 498:	65 73 20             	gs jae 4bb <mbh-0x2ffb45>
 49b:	2d 6d 6e 6f 2d       	sub    $0x2d6f6e6d,%eax
 4a0:	70 63                	jo     505 <mbh-0x2ffafb>
 4a2:	6c                   	insb   (%dx),%es:(%edi)
 4a3:	6d                   	insl   (%dx),%es:(%edi)
 4a4:	75 6c                	jne    512 <mbh-0x2ffaee>
 4a6:	20 2d 6d 6e 6f 2d    	and    %ch,0x2d6f6e6d
 4ac:	66 73 67             	data16 jae 516 <mbh-0x2ffaea>
 4af:	73 62                	jae    513 <mbh-0x2ffaed>
 4b1:	61                   	popa
 4b2:	73 65                	jae    519 <mbh-0x2ffae7>
 4b4:	20 2d 6d 6e 6f 2d    	and    %ch,0x2d6f6e6d
 4ba:	72 64                	jb     520 <mbh-0x2ffae0>
 4bc:	72 6e                	jb     52c <mbh-0x2ffad4>
 4be:	64 20 2d 6d 6e 6f 2d 	and    %ch,%fs:0x2d6f6e6d
 4c5:	66 31 36             	xor    %si,(%esi)
 4c8:	63 20                	arpl   %esp,(%eax)
 4ca:	2d 6d 6e 6f 2d       	sub    $0x2d6f6e6d,%eax
 4cf:	66 6d                	insw   (%dx),%es:(%edi)
 4d1:	61                   	popa
 4d2:	20 2d 6d 6e 6f 2d    	and    %ch,0x2d6f6e6d
 4d8:	73 73                	jae    54d <mbh-0x2ffab3>
 4da:	65 34 61             	gs xor $0x61,%al
 4dd:	20 2d 6d 6e 6f 2d    	and    %ch,0x2d6f6e6d
 4e3:	66 6d                	insw   (%dx),%es:(%edi)
 4e5:	61                   	popa
 4e6:	34 20                	xor    $0x20,%al
 4e8:	2d 6d 6e 6f 2d       	sub    $0x2d6f6e6d,%eax
 4ed:	78 6f                	js     55e <mbh-0x2ffaa2>
 4ef:	70 20                	jo     511 <mbh-0x2ffaef>
 4f1:	2d 6d 6e 6f 2d       	sub    $0x2d6f6e6d,%eax
 4f6:	6c                   	insb   (%dx),%es:(%edi)
 4f7:	77 70                	ja     569 <mbh-0x2ffa97>
 4f9:	20 2d 6d 6e 6f 2d    	and    %ch,0x2d6f6e6d
 4ff:	33 64 6e 6f          	xor    0x6f(%esi,%ebp,2),%esp
 503:	77 20                	ja     525 <mbh-0x2ffadb>
 505:	2d 6d 6e 6f 2d       	sub    $0x2d6f6e6d,%eax
 50a:	70 6f                	jo     57b <mbh-0x2ffa85>
 50c:	70 63                	jo     571 <mbh-0x2ffa8f>
 50e:	6e                   	outsb  %ds:(%esi),(%dx)
 50f:	74 20                	je     531 <mbh-0x2ffacf>
 511:	2d 6d 6e 6f 2d       	sub    $0x2d6f6e6d,%eax
 516:	61                   	popa
 517:	62 6d 20             	bound  %ebp,0x20(%ebp)
 51a:	2d 6d 6e 6f 2d       	sub    $0x2d6f6e6d,%eax
 51f:	62 6d 69             	bound  %ebp,0x69(%ebp)
 522:	20 2d 6d 6e 6f 2d    	and    %ch,0x2d6f6e6d
 528:	62 6d 69             	bound  %ebp,0x69(%ebp)
 52b:	32 20                	xor    (%eax),%ah
 52d:	2d 6d 6e 6f 2d       	sub    $0x2d6f6e6d,%eax
 532:	6c                   	insb   (%dx),%es:(%edi)
 533:	7a 63                	jp     598 <mbh-0x2ffa68>
 535:	6e                   	outsb  %ds:(%esi),(%dx)
 536:	74 20                	je     558 <mbh-0x2ffaa8>
 538:	2d 6d 6e 6f 2d       	sub    $0x2d6f6e6d,%eax
 53d:	74 62                	je     5a1 <mbh-0x2ffa5f>
 53f:	6d                   	insl   (%dx),%es:(%edi)
 540:	20 2d 6d 33 32 20    	and    %ch,0x2032336d
 546:	2d 6d 74 75 6e       	sub    $0x6e75746d,%eax
 54b:	65 3d 67 65 6e 65    	gs cmp $0x656e6567,%eax
 551:	72 69                	jb     5bc <mbh-0x2ffa44>
 553:	63 20                	arpl   %esp,(%eax)
 555:	2d 6d 61 72 63       	sub    $0x6372616d,%eax
 55a:	68 3d 69 36 38       	push   $0x3836693d
 55f:	36 20 2d 67 20 2d 66 	and    %ch,%ss:0x662d2067
 566:	66 72 65             	data16 jb 5ce <mbh-0x2ffa32>
 569:	65 73 74             	gs jae 5e0 <mbh-0x2ffa20>
 56c:	61                   	popa
 56d:	6e                   	outsb  %ds:(%esi),(%dx)
 56e:	64 69 6e 67 20 2d 66 	imul   $0x6d662d20,%fs:0x67(%esi),%ebp
 575:	6d 
 576:	73 2d                	jae    5a5 <mbh-0x2ffa5b>
 578:	65 78 74             	gs js  5ef <mbh-0x2ffa11>
 57b:	65 6e                	outsb  %gs:(%esi),(%dx)
 57d:	73 69                	jae    5e8 <mbh-0x2ffa18>
 57f:	6f                   	outsl  %ds:(%esi),(%dx)
 580:	6e                   	outsb  %ds:(%esi),(%dx)
 581:	73 20                	jae    5a3 <mbh-0x2ffa5d>
 583:	2d 66 6e 6f 2d       	sub    $0x2d6f6e66,%eax
 588:	73 74                	jae    5fe <mbh-0x2ffa02>
 58a:	61                   	popa
 58b:	63 6b 2d             	arpl   %ebp,0x2d(%ebx)
 58e:	70 72                	jo     602 <mbh-0x2ff9fe>
 590:	6f                   	outsl  %ds:(%esi),(%dx)
 591:	74 65                	je     5f8 <mbh-0x2ffa08>
 593:	63 74 6f 72          	arpl   %esi,0x72(%edi,%ebp,2)
 597:	20 2d 66 6e 6f 2d    	and    %ch,0x2d6f6e66
 59d:	70 69                	jo     608 <mbh-0x2ff9f8>
 59f:	63 20                	arpl   %esp,(%eax)
 5a1:	2d 66 61 73 79       	sub    $0x79736166,%eax
 5a6:	6e                   	outsb  %ds:(%esi),(%dx)
 5a7:	63 68 72             	arpl   %ebp,0x72(%eax)
 5aa:	6f                   	outsl  %ds:(%esi),(%dx)
 5ab:	6e                   	outsb  %ds:(%esi),(%dx)
 5ac:	6f                   	outsl  %ds:(%esi),(%dx)
 5ad:	75 73                	jne    622 <mbh-0x2ff9de>
 5af:	2d 75 6e 77 69       	sub    $0x69776e75,%eax
 5b4:	6e                   	outsb  %ds:(%esi),(%dx)
 5b5:	64 2d 74 61 62 6c    	fs sub $0x6c626174,%eax
 5bb:	65 73 20             	gs jae 5de <mbh-0x2ffa22>
 5be:	2d 66 73 74 61       	sub    $0x61747366,%eax
 5c3:	63 6b 2d             	arpl   %ebp,0x2d(%ebx)
 5c6:	63 6c 61 73          	arpl   %ebp,0x73(%ecx,%eiz,2)
 5ca:	68 2d 70 72 6f       	push   $0x6f72702d
 5cf:	74 65                	je     636 <mbh-0x2ff9ca>
 5d1:	63 74 69 6f          	arpl   %esi,0x6f(%ecx,%ebp,2)
 5d5:	6e                   	outsb  %ds:(%esi),(%dx)
 5d6:	00 72 65             	add    %dh,0x65(%edx)
 5d9:	73 65                	jae    640 <mbh-0x2ff9c0>
 5db:	72 76                	jb     653 <mbh-0x2ff9ad>
 5dd:	65 64 00 66 72       	gs add %ah,%fs:0x72(%esi)
 5e2:	61                   	popa
 5e3:	6d                   	insl   (%dx),%es:(%edi)
 5e4:	65 62 75 66          	bound  %esi,%gs:0x66(%ebp)
 5e8:	66 65 72 5f          	data16 gs jb 64b <mbh-0x2ff9b5>
 5ec:	70 61                	jo     64f <mbh-0x2ff9b1>
 5ee:	6c                   	insb   (%dx),%es:(%edi)
 5ef:	65 74 74             	gs je  666 <mbh-0x2ff99a>
 5f2:	65 5f                	gs pop %edi
 5f4:	61                   	popa
 5f5:	64 64 72 00          	fs fs jb 5f9 <mbh-0x2ffa07>
 5f9:	62 6c 6f 77          	bound  %ebp,0x77(%edi,%ebp,2)
 5fd:	00 75 61             	add    %dh,0x61(%ebp)
 600:	72 74                	jb     676 <mbh-0x2ff98a>
 602:	5f                   	pop    %edi
 603:	66 6c                	data16 insb (%dx),%es:(%edi)
 605:	75 73                	jne    67a <mbh-0x2ff986>
 607:	68 00 73 69 6e       	push   $0x6e697300
 60c:	74 33                	je     641 <mbh-0x2ff9bf>
 60e:	32 5f 74             	xor    0x74(%edi),%bl
 611:	00 73 74             	add    %dh,0x74(%ebx)
 614:	72 69                	jb     67f <mbh-0x2ff981>
 616:	6e                   	outsb  %ds:(%esi),(%dx)
 617:	67 00 76 70          	add    %dh,0x70(%bp)
 61b:	72 69                	jb     686 <mbh-0x2ff97a>
 61d:	6e                   	outsb  %ds:(%esi),(%dx)
 61e:	74 5f                	je     67f <mbh-0x2ff981>
 620:	62 75 66             	bound  %esi,0x66(%ebp)
 623:	66 65 72 00          	data16 gs jb 627 <mbh-0x2ff9d9>
 627:	66 61                	popaw
 629:	72 5f                	jb     68a <mbh-0x2ff976>
 62b:	70 74                	jo     6a1 <mbh-0x2ff95f>
 62d:	72 36                	jb     665 <mbh-0x2ff99b>
 62f:	34 00                	xor    $0x0,%al
 631:	72 61                	jb     694 <mbh-0x2ff96c>
 633:	77 5f                	ja     694 <mbh-0x2ff96c>
 635:	31 36                	xor    %esi,(%esi)
 637:	5f                   	pop    %edi
 638:	62 69 74             	bound  %ebp,0x74(%ecx)
 63b:	73 5f                	jae    69c <mbh-0x2ff964>
 63d:	65 6e                	outsb  %gs:(%esi),(%dx)
 63f:	74 72                	je     6b3 <mbh-0x2ff94d>
 641:	79 00                	jns    643 <mbh-0x2ff9bd>
 643:	66 70 74             	data16 jo 6ba <mbh-0x2ff946>
 646:	72 33                	jb     67b <mbh-0x2ff985>
 648:	32 5f 74             	xor    0x74(%edi),%bl
 64b:	00 6c 69 6e          	add    %ch,0x6e(%ecx,%ebp,2)
 64f:	65 61                	gs popa
 651:	72 00                	jb     653 <mbh-0x2ff9ad>
 653:	62 75 66             	bound  %esi,0x66(%ebp)
 656:	66 00 62 6f          	data16 add %ah,0x6f(%edx)
 65a:	6f                   	outsl  %ds:(%esi),(%dx)
 65b:	6c                   	insb   (%dx),%es:(%edi)
 65c:	5f                   	pop    %edi
 65d:	74 00                	je     65f <mbh-0x2ff9a1>
 65f:	72 61                	jb     6c2 <mbh-0x2ff93e>
 661:	77 31                	ja     694 <mbh-0x2ff96c>
 663:	36 5f                	ss pop %edi
 665:	74 00                	je     667 <mbh-0x2ff999>
 667:	69 6e 74 65 72 70 00 	imul   $0x707265,0x74(%esi),%ebp
 66e:	5f                   	pop    %edi
 66f:	5f                   	pop    %edi
 670:	62 75 69             	bound  %esi,0x69(%ebp)
 673:	6c                   	insb   (%dx),%es:(%edi)
 674:	74 69                	je     6df <mbh-0x2ff921>
 676:	6e                   	outsb  %ds:(%esi),(%dx)
 677:	5f                   	pop    %edi
 678:	76 61                	jbe    6db <mbh-0x2ff925>
 67a:	5f                   	pop    %edi
 67b:	6c                   	insb   (%dx),%es:(%edi)
 67c:	69 73 74 00 72 61 77 	imul   $0x77617200,0x74(%ebx),%esi
 683:	5f                   	pop    %edi
 684:	36 34 5f             	ss xor $0x5f,%al
 687:	62 69 74             	bound  %ebp,0x74(%ecx)
 68a:	73 5f                	jae    6eb <mbh-0x2ff915>
 68c:	65 6e                	outsb  %gs:(%esi),(%dx)
 68e:	74 72                	je     702 <mbh-0x2ff8fe>
 690:	79 00                	jns    692 <mbh-0x2ff96e>
 692:	72 65                	jb     6f9 <mbh-0x2ff907>
 694:	74 76                	je     70c <mbh-0x2ff8f4>
 696:	61                   	popa
 697:	6c                   	insb   (%dx),%es:(%edi)
 698:	00 5f 5f             	add    %bl,0x5f(%edi)
 69b:	66 6f                	outsw  %ds:(%esi),(%dx)
 69d:	72 6d                	jb     70c <mbh-0x2ff8f4>
 69f:	61                   	popa
 6a0:	74 5f                	je     701 <mbh-0x2ff8ff>
 6a2:	61                   	popa
 6a3:	64 64 5f             	fs fs pop %edi
 6a6:	75 64                	jne    70c <mbh-0x2ff8f4>
 6a8:	65 63 00             	arpl   %eax,%gs:(%eax)
 6ab:	5f                   	pop    %edi
 6ac:	5f                   	pop    %edi
 6ad:	76 73                	jbe    722 <mbh-0x2ff8de>
 6af:	6e                   	outsb  %ds:(%esi),(%dx)
 6b0:	70 72                	jo     724 <mbh-0x2ff8dc>
 6b2:	69 6e 74 66 00 62 79 	imul   $0x79620066,0x74(%esi),%ebp
 6b9:	74 65                	je     720 <mbh-0x2ff8e0>
 6bb:	00 73 65             	add    %dh,0x65(%ebx)
 6be:	67 6d                	insl   (%dx),%es:(%di)
 6c0:	65 6e                	outsb  %gs:(%esi),(%dx)
 6c2:	74 00                	je     6c4 <mbh-0x2ff93c>
 6c4:	62 75 66             	bound  %esi,0x66(%ebp)
 6c7:	66 65 72 5f          	data16 gs jb 72a <mbh-0x2ff8d6>
 6cb:	74 00                	je     6cd <mbh-0x2ff933>
 6cd:	76 61                	jbe    730 <mbh-0x2ff8d0>
 6cf:	6c                   	insb   (%dx),%es:(%edi)
 6d0:	75 65                	jne    737 <mbh-0x2ff8c9>
 6d2:	00 5f 5f             	add    %bl,0x5f(%edi)
 6d5:	66 6f                	outsw  %ds:(%esi),(%dx)
 6d7:	72 6d                	jb     746 <mbh-0x2ff8ba>
 6d9:	61                   	popa
 6da:	74 5f                	je     73b <mbh-0x2ff8c5>
 6dc:	61                   	popa
 6dd:	64 64 5f             	fs fs pop %edi
 6e0:	69 64 65 63 00 5f 6c 	imul   $0x6f6c5f00,0x63(%ebp,%eiz,2),%esp
 6e7:	6f 
 6e8:	77 00                	ja     6ea <mbh-0x2ff916>
 6ea:	5f                   	pop    %edi
 6eb:	5f                   	pop    %edi
 6ec:	62 75 66             	bound  %esi,0x66(%ebp)
 6ef:	5f                   	pop    %edi
 6f0:	61                   	popa
 6f1:	64 64 00 73 69       	fs add %dh,%fs:0x69(%ebx)
 6f6:	6e                   	outsb  %ds:(%esi),(%dx)
 6f7:	74 36                	je     72f <mbh-0x2ff8d1>
 6f9:	34 5f                	xor    $0x5f,%al
 6fb:	74 00                	je     6fd <mbh-0x2ff903>
 6fd:	62 68 69             	bound  %ebp,0x69(%eax)
 700:	67 68 00 5f 77 6c    	addr16 push $0x6c775f00
 706:	6f                   	outsl  %ds:(%esi),(%dx)
 707:	77 00                	ja     709 <mbh-0x2ff8f7>
 709:	64 61                	fs popa
 70b:	74 61                	je     76e <mbh-0x2ff892>
 70d:	00 66 61             	add    %ah,0x61(%esi)
 710:	72 5f                	jb     771 <mbh-0x2ff88f>
 712:	70 74                	jo     788 <mbh-0x2ff878>
 714:	72 31                	jb     747 <mbh-0x2ff8b9>
 716:	36 00 72 61          	add    %dh,%ss:0x61(%edx)
 71a:	77 5f                	ja     77b <mbh-0x2ff885>
 71c:	33 32                	xor    (%edx),%esi
 71e:	5f                   	pop    %edi
 71f:	62 69 74             	bound  %ebp,0x74(%ecx)
 722:	73 5f                	jae    783 <mbh-0x2ff87d>
 724:	65 6e                	outsb  %gs:(%esi),(%dx)
 726:	74 72                	je     79a <mbh-0x2ff866>
 728:	79 00                	jns    72a <mbh-0x2ff8d6>
 72a:	75 69                	jne    795 <mbh-0x2ff86b>
 72c:	6e                   	outsb  %ds:(%esi),(%dx)
 72d:	74 36                	je     765 <mbh-0x2ff89b>
 72f:	34 5f                	xor    $0x5f,%al
 731:	74 6f                	je     7a2 <mbh-0x2ff85e>
 733:	5f                   	pop    %edi
 734:	68 65 78 00 5f       	push   $0x5f007865
 739:	68 69 67 68 00       	push   $0x686769
 73e:	73 72                	jae    7b2 <mbh-0x2ff84e>
 740:	61                   	popa
 741:	77 00                	ja     743 <mbh-0x2ff8bd>
 743:	5f                   	pop    %edi
 744:	5f                   	pop    %edi
 745:	66 6f                	outsw  %ds:(%esi),(%dx)
 747:	72 6d                	jb     7b6 <mbh-0x2ff84a>
 749:	61                   	popa
 74a:	74 5f                	je     7ab <mbh-0x2ff855>
 74c:	61                   	popa
 74d:	64 64 5f             	fs fs pop %edi
 750:	73 74                	jae    7c6 <mbh-0x2ff83a>
 752:	72 00                	jb     754 <mbh-0x2ff8ac>
 754:	73 69                	jae    7bf <mbh-0x2ff841>
 756:	6e                   	outsb  %ds:(%esi),(%dx)
 757:	74 31                	je     78a <mbh-0x2ff876>
 759:	36 5f                	ss pop %edi
 75b:	74 00                	je     75d <mbh-0x2ff8a3>
 75d:	5f                   	pop    %edi
 75e:	5f                   	pop    %edi
 75f:	66 6f                	outsw  %ds:(%esi),(%dx)
 761:	72 6d                	jb     7d0 <mbh-0x2ff830>
 763:	61                   	popa
 764:	74 5f                	je     7c5 <mbh-0x2ff83b>
 766:	61                   	popa
 767:	64 64 5f             	fs fs pop %edi
 76a:	68 65 78 00 5f       	push   $0x5f007865
 76f:	5f                   	pop    %edi
 770:	68 65 78 74 61       	push   $0x61747865
 775:	62 6c 65 00          	bound  %ebp,0x0(%ebp,%eiz,2)
 779:	66 70 74             	data16 jo 7f0 <mbh-0x2ff810>
 77c:	72 36                	jb     7b4 <mbh-0x2ff84c>
 77e:	34 5f                	xor    $0x5f,%al
 780:	74 00                	je     782 <mbh-0x2ff87e>
 782:	72 61                	jb     7e5 <mbh-0x2ff81b>
 784:	77 33                	ja     7b9 <mbh-0x2ff847>
 786:	32 5f 74             	xor    0x74(%edi),%bl
 789:	00 66 61             	add    %ah,0x61(%esi)
 78c:	72 5f                	jb     7ed <mbh-0x2ff813>
 78e:	70 74                	jo     804 <mbh-0x2ff7fc>
 790:	72 33                	jb     7c5 <mbh-0x2ff83b>
 792:	32 00                	xor    (%eax),%al
 794:	66 61                	popaw
 796:	6c                   	insb   (%dx),%es:(%edi)
 797:	73 65                	jae    7fe <mbh-0x2ff802>
 799:	00 66 6f             	add    %ah,0x6f(%esi)
 79c:	72 6d                	jb     80b <mbh-0x2ff7f5>
 79e:	61                   	popa
 79f:	74 00                	je     7a1 <mbh-0x2ff85f>
 7a1:	5f                   	pop    %edi
 7a2:	5f                   	pop    %edi
 7a3:	76 70                	jbe    815 <mbh-0x2ff7eb>
 7a5:	72 69                	jb     810 <mbh-0x2ff7f0>
 7a7:	6e                   	outsb  %ds:(%esi),(%dx)
 7a8:	74 66                	je     810 <mbh-0x2ff7f0>
 7aa:	00 6c 6f 63          	add    %ch,0x63(%edi,%ebp,2)
 7ae:	61                   	popa
 7af:	74 69                	je     81a <mbh-0x2ff7e6>
 7b1:	6f                   	outsl  %ds:(%esi),(%dx)
 7b2:	6e                   	outsb  %ds:(%esi),(%dx)
 7b3:	00 6f 66             	add    %ch,0x66(%edi)
 7b6:	66 73 65             	data16 jae 81e <mbh-0x2ff7e2>
 7b9:	74 5f                	je     81a <mbh-0x2ff7e6>
 7bb:	74 00                	je     7bd <mbh-0x2ff843>
 7bd:	70 61                	jo     820 <mbh-0x2ff7e0>
 7bf:	72 61                	jb     822 <mbh-0x2ff7de>
 7c1:	6d                   	insl   (%dx),%es:(%edi)
 7c2:	73 00                	jae    7c4 <mbh-0x2ff83c>
 7c4:	70 72                	jo     838 <mbh-0x2ff7c8>
 7c6:	65 63 69 73          	arpl   %ebp,%gs:0x73(%ecx)
 7ca:	69 6f 6e 00 6f 66 66 	imul   $0x66666f00,0x6e(%edi),%ebp
 7d1:	73 65                	jae    838 <mbh-0x2ff7c8>
 7d3:	74 00                	je     7d5 <mbh-0x2ff82b>
 7d5:	5f                   	pop    %edi
 7d6:	5f                   	pop    %edi
 7d7:	66 6f                	outsw  %ds:(%esi),(%dx)
 7d9:	72 6d                	jb     848 <mbh-0x2ff7b8>
 7db:	61                   	popa
 7dc:	74 5f                	je     83d <mbh-0x2ff7c3>
 7de:	61                   	popa
 7df:	64 64 5f             	fs fs pop %edi
 7e2:	62 69 6e             	bound  %ebp,0x6e(%ecx)
 7e5:	00 5f 5f             	add    %bl,0x5f(%edi)
 7e8:	66 6f                	outsw  %ds:(%esi),(%dx)
 7ea:	72 6d                	jb     859 <mbh-0x2ff7a7>
 7ec:	61                   	popa
 7ed:	74 5f                	je     84e <mbh-0x2ff7b2>
 7ef:	61                   	popa
 7f0:	64 64 5f             	fs fs pop %edi
 7f3:	63 68 72             	arpl   %ebp,0x72(%eax)
 7f6:	00 66 70             	add    %ah,0x70(%esi)
 7f9:	74 72                	je     86d <mbh-0x2ff793>
 7fb:	31 36                	xor    %esi,(%esi)
 7fd:	5f                   	pop    %edi
 7fe:	74 00                	je     800 <mbh-0x2ff800>
 800:	5f                   	pop    %edi
 801:	77 68                	ja     86b <mbh-0x2ff795>
 803:	69 67 68 00 73 69 6e 	imul   $0x6e697300,0x68(%edi),%esp
 80a:	74 38                	je     844 <mbh-0x2ff7bc>
 80c:	5f                   	pop    %edi
 80d:	74 00                	je     80f <mbh-0x2ff7f1>
 80f:	6c                   	insb   (%dx),%es:(%edi)
 810:	6f                   	outsl  %ds:(%esi),(%dx)
 811:	63 5f 74             	arpl   %ebx,0x74(%edi)
 814:	00 72 61             	add    %dh,0x61(%edx)
 817:	77 36                	ja     84f <mbh-0x2ff7b1>
 819:	34 5f                	xor    $0x5f,%al
 81b:	74 00                	je     81d <mbh-0x2ff7e3>
 81d:	74 72                	je     891 <mbh-0x2ff76f>
 81f:	75 65                	jne    886 <mbh-0x2ff77a>
 821:	00 73 65             	add    %dh,0x65(%ebx)
 824:	72 69                	jb     88f <mbh-0x2ff771>
 826:	61                   	popa
 827:	6c                   	insb   (%dx),%es:(%edi)
 828:	5f                   	pop    %edi
 829:	6c                   	insb   (%dx),%es:(%edi)
 82a:	63 72 5f             	arpl   %esi,0x5f(%edx)
 82d:	72 65                	jb     894 <mbh-0x2ff76c>
 82f:	67 69 73 74 65 72 00 	imul   $0x74007265,0x74(%bp,%di),%esi
 836:	74 
 837:	68 72 65 00 78       	push   $0x78006572
 83c:	6f                   	outsl  %ds:(%esi),(%dx)
 83d:	66 66 00 5f 5f       	data16 data16 add %bl,0x5f(%edi)
 842:	75 61                	jne    8a5 <mbh-0x2ff75b>
 844:	72 74                	jb     8ba <mbh-0x2ff746>
 846:	5f                   	pop    %edi
 847:	66 6c                	data16 insb (%dx),%es:(%edi)
 849:	75 73                	jne    8be <mbh-0x2ff742>
 84b:	68 5f 72 65 63       	push   $0x6365725f
 850:	76 00                	jbe    852 <mbh-0x2ff7ae>
 852:	72 78                	jb     8cc <mbh-0x2ff734>
 854:	5f                   	pop    %edi
 855:	74 72                	je     8c9 <mbh-0x2ff737>
 857:	69 67 67 65 72 00 73 	imul   $0x73007265,0x67(%edi),%esp
 85e:	65 72 69             	gs jb  8ca <mbh-0x2ff736>
 861:	61                   	popa
 862:	6c                   	insb   (%dx),%es:(%edi)
 863:	5f                   	pop    %edi
 864:	69 65 72 5f 72 65 67 	imul   $0x6765725f,0x72(%ebp),%esp
 86b:	69 73 74 65 72 00 5f 	imul   $0x5f007265,0x74(%ebx),%esi
 872:	5f                   	pop    %edi
 873:	75 61                	jne    8d6 <mbh-0x2ff72a>
 875:	72 74                	jb     8eb <mbh-0x2ff715>
 877:	5f                   	pop    %edi
 878:	63 6f 6d             	arpl   %ebp,0x6d(%edi)
 87b:	6d                   	insl   (%dx),%es:(%edi)
 87c:	6f                   	outsl  %ds:(%esi),(%dx)
 87d:	6e                   	outsb  %ds:(%esi),(%dx)
 87e:	5f                   	pop    %edi
 87f:	69 6e 69 74 00 5f 5f 	imul   $0x5f5f0074,0x69(%esi),%ebp
 886:	75 61                	jne    8e9 <mbh-0x2ff717>
 888:	72 74                	jb     8fe <mbh-0x2ff702>
 88a:	5f                   	pop    %edi
 88b:	77 72                	ja     8ff <mbh-0x2ff701>
 88d:	69 74 65 00 73 65 72 	imul   $0x69726573,0x0(%ebp,%eiz,2),%esi
 894:	69 
 895:	61                   	popa
 896:	6c                   	insb   (%dx),%es:(%edi)
 897:	5f                   	pop    %edi
 898:	66 63 72 5f          	arpl   %si,0x5f(%edx)
 89c:	72 65                	jb     903 <mbh-0x2ff6fd>
 89e:	67 69 73 74 65 72 00 	imul   $0x73007265,0x74(%bp,%di),%esi
 8a5:	73 
 8a6:	65 72 69             	gs jb  912 <mbh-0x2ff6ee>
 8a9:	61                   	popa
 8aa:	6c                   	insb   (%dx),%es:(%edi)
 8ab:	5f                   	pop    %edi
 8ac:	66 63 72 5f          	arpl   %si,0x5f(%edx)
 8b0:	72 65                	jb     917 <mbh-0x2ff6e9>
 8b2:	67 5f                	addr16 pop %edi
 8b4:	74 00                	je     8b6 <mbh-0x2ff74a>
 8b6:	70 61                	jo     919 <mbh-0x2ff6e7>
 8b8:	72 69                	jb     923 <mbh-0x2ff6dd>
 8ba:	74 79                	je     935 <mbh-0x2ff6cb>
 8bc:	00 73 65             	add    %dh,0x65(%ebx)
 8bf:	72 69                	jb     92a <mbh-0x2ff6d6>
 8c1:	61                   	popa
 8c2:	6c                   	insb   (%dx),%es:(%edi)
 8c3:	5f                   	pop    %edi
 8c4:	65 66 72 5f          	gs data16 jb 927 <mbh-0x2ff6d9>
 8c8:	72 65                	jb     92f <mbh-0x2ff6d1>
 8ca:	67 69 73 74 65 72 00 	imul   $0x73007265,0x74(%bp,%di),%esi
 8d1:	73 
 8d2:	6c                   	insb   (%dx),%es:(%edi)
 8d3:	65 65 70 00          	gs gs jo 8d7 <mbh-0x2ff729>
 8d7:	73 74                	jae    94d <mbh-0x2ff6b3>
 8d9:	6f                   	outsl  %ds:(%esi),(%dx)
 8da:	70 00                	jo     8dc <mbh-0x2ff724>
 8dc:	61                   	popa
 8dd:	5f                   	pop    %edi
 8de:	63 74 73 00          	arpl   %esi,0x0(%ebx,%esi,2)
 8e2:	73 65                	jae    949 <mbh-0x2ff6b7>
 8e4:	72 69                	jb     94f <mbh-0x2ff6b1>
 8e6:	61                   	popa
 8e7:	6c                   	insb   (%dx),%es:(%edi)
 8e8:	5f                   	pop    %edi
 8e9:	65 66 72 5f          	gs data16 jb 94c <mbh-0x2ff6b4>
 8ed:	72 65                	jb     954 <mbh-0x2ff6ac>
 8ef:	67 5f                	addr16 pop %edi
 8f1:	74 00                	je     8f3 <mbh-0x2ff70d>
 8f3:	65 6e                	outsb  %gs:(%esi),(%dx)
 8f5:	61                   	popa
 8f6:	62 6c 65 00          	bound  %ebp,0x0(%ebp,%eiz,2)
 8fa:	5f                   	pop    %edi
 8fb:	5f                   	pop    %edi
 8fc:	75 61                	jne    95f <mbh-0x2ff6a1>
 8fe:	72 74                	jb     974 <mbh-0x2ff68c>
 900:	5f                   	pop    %edi
 901:	66 69 66 6f 5f 69    	imul   $0x695f,0x6f(%esi),%sp
 907:	6e                   	outsb  %ds:(%esi),(%dx)
 908:	69 74 00 70 6f 72 74 	imul   $0x74726f,0x70(%eax,%eax,1),%esi
 90f:	00 
 910:	73 65                	jae    977 <mbh-0x2ff689>
 912:	72 69                	jb     97d <mbh-0x2ff683>
 914:	61                   	popa
 915:	6c                   	insb   (%dx),%es:(%edi)
 916:	5f                   	pop    %edi
 917:	6c                   	insb   (%dx),%es:(%edi)
 918:	63 72 5f             	arpl   %esi,0x5f(%edx)
 91b:	72 65                	jb     982 <mbh-0x2ff67e>
 91d:	67 5f                	addr16 pop %edi
 91f:	74 00                	je     921 <mbh-0x2ff6df>
 921:	66 6c                	data16 insb (%dx),%es:(%edi)
 923:	6f                   	outsl  %ds:(%esi),(%dx)
 924:	77 5f                	ja     985 <mbh-0x2ff67b>
 926:	63 74 6c 00          	arpl   %esi,0x0(%esp,%ebp,2)
 92a:	73 65                	jae    991 <mbh-0x2ff66f>
 92c:	72 69                	jb     997 <mbh-0x2ff669>
 92e:	61                   	popa
 92f:	6c                   	insb   (%dx),%es:(%edi)
 930:	5f                   	pop    %edi
 931:	69 65 72 5f 72 65 67 	imul   $0x6765725f,0x72(%ebp),%esp
 938:	5f                   	pop    %edi
 939:	74 00                	je     93b <mbh-0x2ff6c5>
 93b:	61                   	popa
 93c:	5f                   	pop    %edi
 93d:	72 74                	jb     9b3 <mbh-0x2ff64d>
 93f:	73 00                	jae    941 <mbh-0x2ff6bf>
 941:	5f                   	pop    %edi
 942:	5f                   	pop    %edi
 943:	75 61                	jne    9a6 <mbh-0x2ff65a>
 945:	72 74                	jb     9bb <mbh-0x2ff645>
 947:	5f                   	pop    %edi
 948:	72 65                	jb     9af <mbh-0x2ff651>
 94a:	61                   	popa
 94b:	64 00 77 6f          	add    %dh,%fs:0x6f(%edi)
 94f:	72 64                	jb     9b5 <mbh-0x2ff64b>
 951:	5f                   	pop    %edi
 952:	6c                   	insb   (%dx),%es:(%edi)
 953:	65 6e                	outsb  %gs:(%esi),(%dx)
 955:	00 74 78 5f          	add    %dh,0x5f(%eax,%edi,2)
 959:	74 72                	je     9cd <mbh-0x2ff633>
 95b:	69 67 67 65 72 00 70 	imul   $0x70007265,0x67(%edi),%esp
 962:	69 63 5f 69 63 77 31 	imul   $0x31776369,0x5f(%ebx),%esp
 969:	5f                   	pop    %edi
 96a:	74 00                	je     96c <mbh-0x2ff694>
 96c:	70 69                	jo     9d7 <mbh-0x2ff629>
 96e:	63 5f 69             	arpl   %ebx,0x69(%edi)
 971:	6e                   	outsb  %ds:(%esi),(%dx)
 972:	69 74 5f 63 6f 6d 6d 	imul   $0x616d6d6f,0x63(%edi,%ebx,2),%esi
 979:	61 
 97a:	6e                   	outsb  %ds:(%esi),(%dx)
 97b:	64 5f                	fs pop %edi
 97d:	77 6f                	ja     9ee <mbh-0x2ff612>
 97f:	72 64                	jb     9e5 <mbh-0x2ff61b>
 981:	5f                   	pop    %edi
 982:	31 00                	xor    %eax,(%eax)
 984:	70 69                	jo     9ef <mbh-0x2ff611>
 986:	63 5f 69             	arpl   %ebx,0x69(%edi)
 989:	6e                   	outsb  %ds:(%esi),(%dx)
 98a:	69 74 5f 63 6f 6d 6d 	imul   $0x616d6d6f,0x63(%edi,%ebx,2),%esi
 991:	61 
 992:	6e                   	outsb  %ds:(%esi),(%dx)
 993:	64 5f                	fs pop %edi
 995:	77 6f                	ja     a06 <mbh-0x2ff5fa>
 997:	72 64                	jb     9fd <mbh-0x2ff603>
 999:	5f                   	pop    %edi
 99a:	32 00                	xor    (%eax),%al
 99c:	69 72 71 30 00 69 72 	imul   $0x72690030,0x71(%edx),%esi
 9a3:	71 31                	jno    9d6 <mbh-0x2ff62a>
 9a5:	00 69 72             	add    %ch,0x72(%ecx)
 9a8:	71 32                	jno    9dc <mbh-0x2ff624>
 9aa:	00 69 72             	add    %ch,0x72(%ecx)
 9ad:	71 33                	jno    9e2 <mbh-0x2ff61e>
 9af:	00 69 72             	add    %ch,0x72(%ecx)
 9b2:	71 34                	jno    9e8 <mbh-0x2ff618>
 9b4:	00 69 72             	add    %ch,0x72(%ecx)
 9b7:	71 35                	jno    9ee <mbh-0x2ff612>
 9b9:	00 69 72             	add    %ch,0x72(%ecx)
 9bc:	71 36                	jno    9f4 <mbh-0x2ff60c>
 9be:	00 69 72             	add    %ch,0x72(%ecx)
 9c1:	71 37                	jno    9fa <mbh-0x2ff606>
 9c3:	00 61 65             	add    %ah,0x65(%ecx)
 9c6:	6f                   	outsl  %ds:(%esi),(%dx)
 9c7:	69 00 73 69 6e 67    	imul   $0x676e6973,(%eax),%eax
 9cd:	6c                   	insb   (%dx),%es:(%edi)
 9ce:	65 00 69 63          	add    %ch,%gs:0x63(%ecx)
 9d2:	77 32                	ja     a06 <mbh-0x2ff5fa>
 9d4:	00 69 63             	add    %ch,0x63(%ecx)
 9d7:	77 33                	ja     a0c <mbh-0x2ff5f4>
 9d9:	00 69 63             	add    %ch,0x63(%ecx)
 9dc:	77 34                	ja     a12 <mbh-0x2ff5ee>
 9de:	00 6d 61             	add    %ch,0x61(%ebp)
 9e1:	73 74                	jae    a57 <mbh-0x2ff5a9>
 9e3:	65 72 00             	gs jb  9e6 <mbh-0x2ff61a>
 9e6:	69 72 71 5f 62 61 73 	imul   $0x7361625f,0x71(%edx),%esi
 9ed:	65 00 73 6c          	add    %dh,%gs:0x6c(%ebx)
 9f1:	61                   	popa
 9f2:	76 65                	jbe    a59 <mbh-0x2ff5a7>
 9f4:	00 70 69             	add    %dh,0x69(%eax)
 9f7:	63 5f 69             	arpl   %ebx,0x69(%edi)
 9fa:	6e                   	outsb  %ds:(%esi),(%dx)
 9fb:	69 74 5f 63 6f 6d 6d 	imul   $0x616d6d6f,0x63(%edi,%ebx,2),%esi
 a02:	61 
 a03:	6e                   	outsb  %ds:(%esi),(%dx)
 a04:	64 5f                	fs pop %edi
 a06:	77 6f                	ja     a77 <mbh-0x2ff589>
 a08:	72 64                	jb     a6e <mbh-0x2ff592>
 a0a:	5f                   	pop    %edi
 a0b:	33 00                	xor    (%eax),%eax
 a0d:	70 69                	jo     a78 <mbh-0x2ff588>
 a0f:	63 5f 69             	arpl   %ebx,0x69(%edi)
 a12:	6e                   	outsb  %ds:(%esi),(%dx)
 a13:	69 74 5f 63 6f 6d 6d 	imul   $0x616d6d6f,0x63(%edi,%ebx,2),%esi
 a1a:	61 
 a1b:	6e                   	outsb  %ds:(%esi),(%dx)
 a1c:	64 5f                	fs pop %edi
 a1e:	77 6f                	ja     a8f <mbh-0x2ff571>
 a20:	72 64                	jb     a86 <mbh-0x2ff57a>
 a22:	5f                   	pop    %edi
 a23:	34 00                	xor    $0x0,%al
 a25:	6c                   	insb   (%dx),%es:(%edi)
 a26:	74 69                	je     a91 <mbh-0x2ff56f>
 a28:	6d                   	insl   (%dx),%es:(%edi)
 a29:	00 70 69             	add    %dh,0x69(%eax)
 a2c:	63 5f 69             	arpl   %ebx,0x69(%edi)
 a2f:	63 77 34             	arpl   %esi,0x34(%edi)
 a32:	5f                   	pop    %edi
 a33:	74 00                	je     a35 <mbh-0x2ff5cb>
 a35:	70 69                	jo     aa0 <mbh-0x2ff560>
 a37:	63 5f 69             	arpl   %ebx,0x69(%edi)
 a3a:	63 77 33             	arpl   %esi,0x33(%edi)
 a3d:	5f                   	pop    %edi
 a3e:	74 00                	je     a40 <mbh-0x2ff5c0>
 a40:	70 69                	jo     aab <mbh-0x2ff555>
 a42:	63 5f 69             	arpl   %ebx,0x69(%edi)
 a45:	63 77 32             	arpl   %esi,0x32(%edi)
 a48:	5f                   	pop    %edi
 a49:	74 00                	je     a4b <mbh-0x2ff5b5>
 a4b:	69 63 77 31 00 76 65 	imul   $0x65760031,0x77(%ebx),%esp
 a52:	63 74 00 75          	arpl   %esi,0x75(%eax,%eax,1)
 a56:	6e                   	outsb  %ds:(%esi),(%dx)
 a57:	75 73                	jne    acc <mbh-0x2ff534>
 a59:	65 64 00 73 66       	gs add %dh,%fs:0x66(%ebx)
 a5e:	6e                   	outsb  %ds:(%esi),(%dx)
 a5f:	6d                   	insl   (%dx),%es:(%edi)
 a60:	00 7a 65             	add    %bh,0x65(%edx)
 a63:	72 6f                	jb     ad4 <mbh-0x2ff52c>
 a65:	00 69 64             	add    %ch,0x64(%ecx)
 a68:	74 5f                	je     ac9 <mbh-0x2ff537>
 a6a:	72 65                	jb     ad1 <mbh-0x2ff52f>
 a6c:	67 5f                	addr16 pop %edi
 a6e:	74 00                	je     a70 <mbh-0x2ff590>
 a70:	76 65                	jbe    ad7 <mbh-0x2ff529>
 a72:	63 74 6f 72          	arpl   %esi,0x72(%edi,%ebp,2)
 a76:	00 70 61             	add    %dh,0x61(%eax)
 a79:	67 65 5f             	addr16 gs pop %edi
 a7c:	66 61                	popaw
 a7e:	75 6c                	jne    aec <mbh-0x2ff514>
 a80:	74 5f                	je     ae1 <mbh-0x2ff51f>
 a82:	65 72 72             	gs jb  af7 <mbh-0x2ff509>
 a85:	6f                   	outsl  %ds:(%esi),(%dx)
 a86:	72 5f                	jb     ae7 <mbh-0x2ff519>
 a88:	63 6f 64             	arpl   %ebp,0x64(%edi)
 a8b:	65 00 65 66          	add    %ah,%gs:0x66(%ebp)
 a8f:	6c                   	insb   (%dx),%es:(%edi)
 a90:	61                   	popa
 a91:	67 73 5f             	addr16 jae af3 <mbh-0x2ff50d>
 a94:	72 65                	jb     afb <mbh-0x2ff505>
 a96:	67 5f                	addr16 pop %edi
 a98:	74 00                	je     a9a <mbh-0x2ff566>
 a9a:	70 66                	jo     b02 <mbh-0x2ff4fe>
 a9c:	5f                   	pop    %edi
 a9d:	65 72 72             	gs jb  b12 <mbh-0x2ff4ee>
 aa0:	5f                   	pop    %edi
 aa1:	74 00                	je     aa3 <mbh-0x2ff55d>
 aa3:	65 78 63             	gs js  b09 <mbh-0x2ff4f7>
 aa6:	70 5f                	jo     b07 <mbh-0x2ff4f9>
 aa8:	65 72 72             	gs jb  b1d <mbh-0x2ff4e3>
 aab:	5f                   	pop    %edi
 aac:	63 6f 64             	arpl   %ebp,0x64(%edi)
 aaf:	65 5f                	gs pop %edi
 ab1:	74 00                	je     ab3 <mbh-0x2ff54d>
 ab3:	67 65 6e             	outsb  %gs:(%si),(%dx)
 ab6:	65 72 61             	gs jb  b1a <mbh-0x2ff4e6>
 ab9:	6c                   	insb   (%dx),%es:(%edi)
 aba:	5f                   	pop    %edi
 abb:	70 75                	jo     b32 <mbh-0x2ff4ce>
 abd:	72 70                	jb     b2f <mbh-0x2ff4d1>
 abf:	6f                   	outsl  %ds:(%esi),(%dx)
 ac0:	73 65                	jae    b27 <mbh-0x2ff4d9>
 ac2:	5f                   	pop    %edi
 ac3:	72 65                	jb     b2a <mbh-0x2ff4d6>
 ac5:	67 69 73 74 65 72 73 	imul   $0x5f737265,0x74(%bp,%di),%esi
 acc:	5f 
 acd:	63 6f 6e             	arpl   %ebp,0x6e(%edi)
 ad0:	74 65                	je     b37 <mbh-0x2ff4c9>
 ad2:	78 74                	js     b48 <mbh-0x2ff4b8>
 ad4:	00 69 6e             	add    %ch,0x6e(%ecx)
 ad7:	74 65                	je     b3e <mbh-0x2ff4c2>
 ad9:	72 72                	jb     b4d <mbh-0x2ff4b3>
 adb:	75 70                	jne    b4d <mbh-0x2ff4b3>
 add:	74 5f                	je     b3e <mbh-0x2ff4c2>
 adf:	64 65 73 63          	fs gs jae b46 <mbh-0x2ff4ba>
 ae3:	72 69                	jb     b4e <mbh-0x2ff4b2>
 ae5:	70 74                	jo     b5b <mbh-0x2ff4a5>
 ae7:	6f                   	outsl  %ds:(%esi),(%dx)
 ae8:	72 00                	jb     aea <mbh-0x2ff516>
 aea:	65 78 63             	gs js  b50 <mbh-0x2ff4b0>
 aed:	65 70 74             	gs jo  b64 <mbh-0x2ff49c>
 af0:	69 6f 6e 33 32 5f 65 	imul   $0x655f3233,0x6e(%edi),%ebp
 af7:	72 72                	jb     b6b <mbh-0x2ff495>
 af9:	6f                   	outsl  %ds:(%esi),(%dx)
 afa:	72 5f                	jb     b5b <mbh-0x2ff4a5>
 afc:	63 6f 64             	arpl   %ebp,0x64(%edi)
 aff:	65 00 69 64          	add    %ch,%gs:0x64(%ecx)
 b03:	74 72                	je     b77 <mbh-0x2ff489>
 b05:	00 6c 69 6d          	add    %ch,0x6d(%ecx,%ebp,2)
 b09:	69 74 00 69 6e 74 65 	imul   $0x7265746e,0x69(%eax,%eax,1),%esi
 b10:	72 
 b11:	72 75                	jb     b88 <mbh-0x2ff478>
 b13:	70 74                	jo     b89 <mbh-0x2ff477>
 b15:	5f                   	pop    %edi
 b16:	64 65 73 63          	fs gs jae b7d <mbh-0x2ff483>
 b1a:	72 69                	jb     b85 <mbh-0x2ff47b>
 b1c:	70 74                	jo     b92 <mbh-0x2ff46e>
 b1e:	6f                   	outsl  %ds:(%esi),(%dx)
 b1f:	72 5f                	jb     b80 <mbh-0x2ff480>
 b21:	74 61                	je     b84 <mbh-0x2ff47c>
 b23:	62 6c 65 5f          	bound  %ebp,0x5f(%ebp,%eiz,2)
 b27:	72 65                	jb     b8e <mbh-0x2ff472>
 b29:	67 69 73 74 65 72 00 	imul   $0x69007265,0x74(%bp,%di),%esi
 b30:	69 
 b31:	6e                   	outsb  %ds:(%esi),(%dx)
 b32:	74 5f                	je     b93 <mbh-0x2ff46d>
 b34:	63 74 78 5f          	arpl   %esi,0x5f(%eax,%edi,2)
 b38:	74 00                	je     b3a <mbh-0x2ff4c6>
 b3a:	63 70 75             	arpl   %esi,0x75(%eax)
 b3d:	5f                   	pop    %edi
 b3e:	63 74 78 5f          	arpl   %esi,0x5f(%eax,%edi,2)
 b42:	74 00                	je     b44 <mbh-0x2ff4bc>
 b44:	64 65 73 63          	fs gs jae bab <mbh-0x2ff455>
 b48:	00 65 66             	add    %ah,0x66(%ebp)
 b4b:	6c                   	insb   (%dx),%es:(%edi)
 b4c:	61                   	popa
 b4d:	67 73 00             	addr16 jae b50 <mbh-0x2ff4b0>
 b50:	69 64 74 5f 74 72 61 	imul   $0x6d617274,0x5f(%esp,%esi,2),%esp
 b57:	6d 
 b58:	70 6f                	jo     bc9 <mbh-0x2ff437>
 b5a:	6c                   	insb   (%dx),%es:(%edi)
 b5b:	69 6e 65 00 67 70 72 	imul   $0x72706700,0x65(%esi),%ebp
 b62:	5f                   	pop    %edi
 b63:	63 74 78 5f          	arpl   %esi,0x5f(%eax,%edi,2)
 b67:	74 00                	je     b69 <mbh-0x2ff497>
 b69:	73 65                	jae    bd0 <mbh-0x2ff430>
 b6b:	6c                   	insb   (%dx),%es:(%edi)
 b6c:	65 63 74 6f 72       	arpl   %esi,%gs:0x72(%edi,%ebp,2)
 b71:	5f                   	pop    %edi
 b72:	65 72 72             	gs jb  be7 <mbh-0x2ff419>
 b75:	6f                   	outsl  %ds:(%esi),(%dx)
 b76:	72 5f                	jb     bd7 <mbh-0x2ff429>
 b78:	63 6f 64             	arpl   %ebp,0x64(%edi)
 b7b:	65 00 65 66          	add    %ah,%gs:0x66(%ebp)
 b7f:	6c                   	insb   (%dx),%es:(%edi)
 b80:	61                   	popa
 b81:	67 73 5f             	addr16 jae be3 <mbh-0x2ff41d>
 b84:	72 65                	jb     beb <mbh-0x2ff415>
 b86:	67 5f                	addr16 pop %edi
 b88:	66 69 65 6c 64 73    	imul   $0x7364,0x6c(%ebp),%sp
 b8e:	5f                   	pop    %edi
 b8f:	74 00                	je     b91 <mbh-0x2ff46f>
 b91:	73 6c                	jae    bff <mbh-0x2ff401>
 b93:	5f                   	pop    %edi
 b94:	65 72 72             	gs jb  c09 <mbh-0x2ff3f7>
 b97:	5f                   	pop    %edi
 b98:	74 00                	je     b9a <mbh-0x2ff466>
 b9a:	6f                   	outsl  %ds:(%esi),(%dx)
 b9b:	66 66 73 65          	data16 data16 jae c04 <mbh-0x2ff3fc>
 b9f:	74 5f                	je     c00 <mbh-0x2ff400>
 ba1:	31 00                	xor    %eax,(%eax)
 ba3:	6f                   	outsl  %ds:(%esi),(%dx)
 ba4:	66 66 73 65          	data16 data16 jae c0d <mbh-0x2ff3f3>
 ba8:	74 5f                	je     c09 <mbh-0x2ff3f7>
 baa:	32 00                	xor    (%eax),%al
 bac:	69 6e 74 5f 64 65 73 	imul   $0x7365645f,0x74(%esi),%ebp
 bb3:	63 5f 74             	arpl   %ebx,0x74(%edi)
 bb6:	00 69 6e             	add    %ch,0x6e(%ecx)
 bb9:	74 65                	je     c20 <mbh-0x2ff3e0>
 bbb:	72 72                	jb     c2f <mbh-0x2ff3d1>
 bbd:	75 70                	jne    c2f <mbh-0x2ff3d1>
 bbf:	74 5f                	je     c20 <mbh-0x2ff3e0>
 bc1:	63 6f 6e             	arpl   %ebp,0x6e(%edi)
 bc4:	74 65                	je     c2b <mbh-0x2ff3d5>
 bc6:	78 74                	js     c3c <mbh-0x2ff3c4>
 bc8:	00 63 70             	add    %ah,0x70(%ebx)
 bcb:	75 5f                	jne    c2c <mbh-0x2ff3d4>
 bcd:	65 66 6c             	gs data16 insb (%dx),%es:(%edi)
 bd0:	61                   	popa
 bd1:	67 73 5f             	addr16 jae c33 <mbh-0x2ff3cd>
 bd4:	72 65                	jb     c3b <mbh-0x2ff3c5>
 bd6:	67 69 73 74 65 72 00 	imul   $0x63007265,0x74(%bp,%di),%esi
 bdd:	63 
 bde:	70 75                	jo     c55 <mbh-0x2ff3ab>
 be0:	5f                   	pop    %edi
 be1:	65 66 6c             	gs data16 insb (%dx),%es:(%edi)
 be4:	61                   	popa
 be5:	67 73 5f             	addr16 jae c47 <mbh-0x2ff3b9>
 be8:	72 65                	jb     c4f <mbh-0x2ff3b1>
 bea:	67 69 73 74 65 72 5f 	imul   $0x665f7265,0x74(%bp,%di),%esi
 bf1:	66 
 bf2:	69 65 6c 64 73 00 69 	imul   $0x69007364,0x6c(%ebp),%esp
 bf9:	6e                   	outsb  %ds:(%esi),(%dx)
 bfa:	74 72                	je     c6e <mbh-0x2ff392>
 bfc:	5f                   	pop    %edi
 bfd:	68 64 6c 72 00       	push   $0x726c64
 c02:	63 70 75             	arpl   %esi,0x75(%eax)
 c05:	5f                   	pop    %edi
 c06:	63 6f 6e             	arpl   %ebp,0x6e(%edi)
 c09:	74 65                	je     c70 <mbh-0x2ff390>
 c0b:	78 74                	js     c81 <mbh-0x2ff37f>
 c0d:	00 69 6f             	add    %ch,0x6f(%ecx)
 c10:	70 6c                	jo     c7e <mbh-0x2ff382>
 c12:	00 65 78             	add    %ah,0x78(%ebp)
 c15:	63 70 5f             	arpl   %esi,0x5f(%eax)
 c18:	68 64 6c 72 00       	push   $0x726c64
 c1d:	73 65                	jae    c84 <mbh-0x2ff37c>
 c1f:	6c                   	insb   (%dx),%es:(%edi)
 c20:	65 63 74 6f 72       	arpl   %esi,%gs:0x72(%edi,%ebp,2)
 c25:	00 7a 65             	add    %bh,0x65(%edx)
 c28:	72 6f                	jb     c99 <mbh-0x2ff367>
 c2a:	5f                   	pop    %edi
 c2b:	31 00                	xor    %eax,(%eax)
 c2d:	7a 65                	jp     c94 <mbh-0x2ff36c>
 c2f:	72 6f                	jb     ca0 <mbh-0x2ff360>
 c31:	5f                   	pop    %edi
 c32:	32 00                	xor    (%eax),%al
 c34:	2e 2e 2f             	cs cs das
 c37:	6b 65 72 6e          	imul   $0x6e,0x72(%ebp),%esp
 c3b:	65 6c                	gs insb (%dx),%es:(%edi)
 c3d:	2f                   	das
 c3e:	63 6f 72             	arpl   %ebp,0x72(%edi)
 c41:	65 2f                	gs das
 c43:	69 64 74 2e 73 00 65 	imul   $0x78650073,0x2e(%esp,%esi,2),%esp
 c4a:	78 
 c4b:	63 65 70             	arpl   %esp,0x70(%ebp)
 c4e:	74 69                	je     cb9 <mbh-0x2ff347>
 c50:	6f                   	outsl  %ds:(%esi),(%dx)
 c51:	6e                   	outsb  %ds:(%esi),(%dx)
 c52:	5f                   	pop    %edi
 c53:	6e                   	outsb  %ds:(%esi),(%dx)
 c54:	61                   	popa
 c55:	6d                   	insl   (%dx),%es:(%edi)
 c56:	65 73 00             	gs jae c59 <mbh-0x2ff3a7>
 c59:	73 74                	jae    ccf <mbh-0x2ff331>
 c5b:	61                   	popa
 c5c:	63 6b 5f             	arpl   %ebp,0x5f(%ebx)
 c5f:	74 72                	je     cd3 <mbh-0x2ff32d>
 c61:	61                   	popa
 c62:	63 65 00             	arpl   %esp,0x0(%ebp)
 c65:	5f                   	pop    %edi
 c66:	5f                   	pop    %edi
 c67:	6b 65 72 6e          	imul   $0x6e,0x72(%ebp),%esp
 c6b:	65 6c                	gs insb (%dx),%es:(%edi)
 c6d:	5f                   	pop    %edi
 c6e:	73 74                	jae    ce4 <mbh-0x2ff31c>
 c70:	61                   	popa
 c71:	72 74                	jb     ce7 <mbh-0x2ff319>
 c73:	5f                   	pop    %edi
 c74:	5f                   	pop    %edi
 c75:	00 66 72             	add    %ah,0x72(%esi)
 c78:	6f                   	outsl  %ds:(%esi),(%dx)
 c79:	6d                   	insl   (%dx),%es:(%edi)
 c7a:	00 62 70             	add    %ah,0x70(%edx)
 c7d:	5f                   	pop    %edi
 c7e:	74 72                	je     cf2 <mbh-0x2ff30e>
 c80:	69 67 67 65 72 00 62 	imul   $0x62007265,0x67(%edi),%esp
 c87:	70 5f                	jo     ce8 <mbh-0x2ff318>
 c89:	68 61 6e 64 6c       	push   $0x6c646e61
 c8e:	65 72 00             	gs jb  c91 <mbh-0x2ff36f>

Déassemblage de la section .debug_rnglists :

00000000 <.debug_rnglists>:
   0:	13 00                	adc    (%eax),%eax
   2:	00 00                	add    %al,(%eax)
   4:	05 00 04 00 00       	add    $0x400,%eax
   9:	00 00                	add    %al,(%eax)
   b:	00 04 a3             	add    %al,(%ebx,%eiz,4)
   e:	0c af                	or     $0xaf,%al
  10:	0d 04 b4 0d ce       	or     $0xce0db404,%eax
  15:	0d 00 16 00 00       	or     $0x1600,%eax
  1a:	00 05 00 04 00 00    	add    %al,0x400
  20:	00 00                	add    %al,(%eax)
  22:	00 07                	add    %al,(%edi)
  24:	79 3d                	jns    63 <mbh-0x2fff9d>
  26:	30 00                	xor    %al,(%eax)
  28:	1a 07                	sbb    (%edi),%al
  2a:	10 20                	adc    %ah,(%eax)
  2c:	30 00                	xor    %al,(%eax)
  2e:	fc                   	cld
  2f:	1f                   	pop    %ds
	...
