
kernel.elf:     format de fichier elf32-i386


Déassemblage de la section .mbh :

00300000 <mbh>:
  300000:	02 b0 ad 1b 03 00    	add    0x31bad(%eax),%dh
  300006:	00 00                	add    %al,(%eax)
  300008:	fb                   	sti
  300009:	4f                   	dec    %edi
  30000a:	52                   	push   %edx
  30000b:	e4                   	.byte 0xe4

Déassemblage de la section .idt_jmp :

00302010 <idt_trampoline>:
  302010:	6a ff                	push   $0xffffffff
  302012:	6a 00                	push   $0x0
  302014:	e9 6d 1d 00 00       	jmp    303d86 <idt_common>
  302019:	8d b4 26 00 00 00 00 	lea    0x0(%esi,%eiz,1),%esi
  302020:	6a ff                	push   $0xffffffff
  302022:	6a 01                	push   $0x1
  302024:	e9 5d 1d 00 00       	jmp    303d86 <idt_common>
  302029:	8d b4 26 00 00 00 00 	lea    0x0(%esi,%eiz,1),%esi
  302030:	6a ff                	push   $0xffffffff
  302032:	6a 02                	push   $0x2
  302034:	e9 4d 1d 00 00       	jmp    303d86 <idt_common>
  302039:	8d b4 26 00 00 00 00 	lea    0x0(%esi,%eiz,1),%esi
  302040:	6a ff                	push   $0xffffffff
  302042:	6a 03                	push   $0x3
  302044:	e9 3d 1d 00 00       	jmp    303d86 <idt_common>
  302049:	8d b4 26 00 00 00 00 	lea    0x0(%esi,%eiz,1),%esi
  302050:	6a ff                	push   $0xffffffff
  302052:	6a 04                	push   $0x4
  302054:	e9 2d 1d 00 00       	jmp    303d86 <idt_common>
  302059:	8d b4 26 00 00 00 00 	lea    0x0(%esi,%eiz,1),%esi
  302060:	6a ff                	push   $0xffffffff
  302062:	6a 05                	push   $0x5
  302064:	e9 1d 1d 00 00       	jmp    303d86 <idt_common>
  302069:	8d b4 26 00 00 00 00 	lea    0x0(%esi,%eiz,1),%esi
  302070:	6a ff                	push   $0xffffffff
  302072:	6a 06                	push   $0x6
  302074:	e9 0d 1d 00 00       	jmp    303d86 <idt_common>
  302079:	8d b4 26 00 00 00 00 	lea    0x0(%esi,%eiz,1),%esi
  302080:	6a ff                	push   $0xffffffff
  302082:	6a 07                	push   $0x7
  302084:	e9 fd 1c 00 00       	jmp    303d86 <idt_common>
  302089:	8d b4 26 00 00 00 00 	lea    0x0(%esi,%eiz,1),%esi
  302090:	6a 08                	push   $0x8
  302092:	e9 ef 1c 00 00       	jmp    303d86 <idt_common>
  302097:	2e 8d b4 26 00 00 00 	lea    %cs:0x0(%esi,%eiz,1),%esi
  30209e:	00 
  30209f:	90                   	nop
  3020a0:	6a ff                	push   $0xffffffff
  3020a2:	6a 09                	push   $0x9
  3020a4:	e9 dd 1c 00 00       	jmp    303d86 <idt_common>
  3020a9:	8d b4 26 00 00 00 00 	lea    0x0(%esi,%eiz,1),%esi
  3020b0:	6a 0a                	push   $0xa
  3020b2:	e9 cf 1c 00 00       	jmp    303d86 <idt_common>
  3020b7:	2e 8d b4 26 00 00 00 	lea    %cs:0x0(%esi,%eiz,1),%esi
  3020be:	00 
  3020bf:	90                   	nop
  3020c0:	6a 0b                	push   $0xb
  3020c2:	e9 bf 1c 00 00       	jmp    303d86 <idt_common>
  3020c7:	2e 8d b4 26 00 00 00 	lea    %cs:0x0(%esi,%eiz,1),%esi
  3020ce:	00 
  3020cf:	90                   	nop
  3020d0:	6a 0c                	push   $0xc
  3020d2:	e9 af 1c 00 00       	jmp    303d86 <idt_common>
  3020d7:	2e 8d b4 26 00 00 00 	lea    %cs:0x0(%esi,%eiz,1),%esi
  3020de:	00 
  3020df:	90                   	nop
  3020e0:	6a 0d                	push   $0xd
  3020e2:	e9 9f 1c 00 00       	jmp    303d86 <idt_common>
  3020e7:	2e 8d b4 26 00 00 00 	lea    %cs:0x0(%esi,%eiz,1),%esi
  3020ee:	00 
  3020ef:	90                   	nop
  3020f0:	6a 0e                	push   $0xe
  3020f2:	e9 8f 1c 00 00       	jmp    303d86 <idt_common>
  3020f7:	2e 8d b4 26 00 00 00 	lea    %cs:0x0(%esi,%eiz,1),%esi
  3020fe:	00 
  3020ff:	90                   	nop
  302100:	6a ff                	push   $0xffffffff
  302102:	6a 0f                	push   $0xf
  302104:	e9 7d 1c 00 00       	jmp    303d86 <idt_common>
  302109:	8d b4 26 00 00 00 00 	lea    0x0(%esi,%eiz,1),%esi
  302110:	6a ff                	push   $0xffffffff
  302112:	6a 10                	push   $0x10
  302114:	e9 6d 1c 00 00       	jmp    303d86 <idt_common>
  302119:	8d b4 26 00 00 00 00 	lea    0x0(%esi,%eiz,1),%esi
  302120:	6a 11                	push   $0x11
  302122:	e9 5f 1c 00 00       	jmp    303d86 <idt_common>
  302127:	2e 8d b4 26 00 00 00 	lea    %cs:0x0(%esi,%eiz,1),%esi
  30212e:	00 
  30212f:	90                   	nop
  302130:	6a ff                	push   $0xffffffff
  302132:	6a 12                	push   $0x12
  302134:	e9 4d 1c 00 00       	jmp    303d86 <idt_common>
  302139:	8d b4 26 00 00 00 00 	lea    0x0(%esi,%eiz,1),%esi
  302140:	6a ff                	push   $0xffffffff
  302142:	6a 13                	push   $0x13
  302144:	e9 3d 1c 00 00       	jmp    303d86 <idt_common>
  302149:	8d b4 26 00 00 00 00 	lea    0x0(%esi,%eiz,1),%esi
  302150:	cf                   	iret
  302151:	2e 8d b4 26 00 00 00 	lea    %cs:0x0(%esi,%eiz,1),%esi
  302158:	00 
  302159:	8d b4 26 00 00 00 00 	lea    0x0(%esi,%eiz,1),%esi
  302160:	cf                   	iret
  302161:	2e 8d b4 26 00 00 00 	lea    %cs:0x0(%esi,%eiz,1),%esi
  302168:	00 
  302169:	8d b4 26 00 00 00 00 	lea    0x0(%esi,%eiz,1),%esi
  302170:	cf                   	iret
  302171:	2e 8d b4 26 00 00 00 	lea    %cs:0x0(%esi,%eiz,1),%esi
  302178:	00 
  302179:	8d b4 26 00 00 00 00 	lea    0x0(%esi,%eiz,1),%esi
  302180:	cf                   	iret
  302181:	2e 8d b4 26 00 00 00 	lea    %cs:0x0(%esi,%eiz,1),%esi
  302188:	00 
  302189:	8d b4 26 00 00 00 00 	lea    0x0(%esi,%eiz,1),%esi
  302190:	cf                   	iret
  302191:	2e 8d b4 26 00 00 00 	lea    %cs:0x0(%esi,%eiz,1),%esi
  302198:	00 
  302199:	8d b4 26 00 00 00 00 	lea    0x0(%esi,%eiz,1),%esi
  3021a0:	cf                   	iret
  3021a1:	2e 8d b4 26 00 00 00 	lea    %cs:0x0(%esi,%eiz,1),%esi
  3021a8:	00 
  3021a9:	8d b4 26 00 00 00 00 	lea    0x0(%esi,%eiz,1),%esi
  3021b0:	cf                   	iret
  3021b1:	2e 8d b4 26 00 00 00 	lea    %cs:0x0(%esi,%eiz,1),%esi
  3021b8:	00 
  3021b9:	8d b4 26 00 00 00 00 	lea    0x0(%esi,%eiz,1),%esi
  3021c0:	cf                   	iret
  3021c1:	2e 8d b4 26 00 00 00 	lea    %cs:0x0(%esi,%eiz,1),%esi
  3021c8:	00 
  3021c9:	8d b4 26 00 00 00 00 	lea    0x0(%esi,%eiz,1),%esi
  3021d0:	cf                   	iret
  3021d1:	2e 8d b4 26 00 00 00 	lea    %cs:0x0(%esi,%eiz,1),%esi
  3021d8:	00 
  3021d9:	8d b4 26 00 00 00 00 	lea    0x0(%esi,%eiz,1),%esi
  3021e0:	cf                   	iret
  3021e1:	2e 8d b4 26 00 00 00 	lea    %cs:0x0(%esi,%eiz,1),%esi
  3021e8:	00 
  3021e9:	8d b4 26 00 00 00 00 	lea    0x0(%esi,%eiz,1),%esi
  3021f0:	cf                   	iret
  3021f1:	2e 8d b4 26 00 00 00 	lea    %cs:0x0(%esi,%eiz,1),%esi
  3021f8:	00 
  3021f9:	8d b4 26 00 00 00 00 	lea    0x0(%esi,%eiz,1),%esi
  302200:	cf                   	iret
  302201:	2e 8d b4 26 00 00 00 	lea    %cs:0x0(%esi,%eiz,1),%esi
  302208:	00 
  302209:	8d b4 26 00 00 00 00 	lea    0x0(%esi,%eiz,1),%esi
  302210:	6a ff                	push   $0xffffffff
  302212:	6a 20                	push   $0x20
  302214:	e9 67 1b 00 00       	jmp    303d80 <ack_pic1>
  302219:	8d b4 26 00 00 00 00 	lea    0x0(%esi,%eiz,1),%esi
  302220:	6a ff                	push   $0xffffffff
  302222:	6a 21                	push   $0x21
  302224:	e9 57 1b 00 00       	jmp    303d80 <ack_pic1>
  302229:	8d b4 26 00 00 00 00 	lea    0x0(%esi,%eiz,1),%esi
  302230:	6a ff                	push   $0xffffffff
  302232:	6a 22                	push   $0x22
  302234:	e9 47 1b 00 00       	jmp    303d80 <ack_pic1>
  302239:	8d b4 26 00 00 00 00 	lea    0x0(%esi,%eiz,1),%esi
  302240:	6a ff                	push   $0xffffffff
  302242:	6a 23                	push   $0x23
  302244:	e9 37 1b 00 00       	jmp    303d80 <ack_pic1>
  302249:	8d b4 26 00 00 00 00 	lea    0x0(%esi,%eiz,1),%esi
  302250:	6a ff                	push   $0xffffffff
  302252:	6a 24                	push   $0x24
  302254:	e9 27 1b 00 00       	jmp    303d80 <ack_pic1>
  302259:	8d b4 26 00 00 00 00 	lea    0x0(%esi,%eiz,1),%esi
  302260:	6a ff                	push   $0xffffffff
  302262:	6a 25                	push   $0x25
  302264:	e9 17 1b 00 00       	jmp    303d80 <ack_pic1>
  302269:	8d b4 26 00 00 00 00 	lea    0x0(%esi,%eiz,1),%esi
  302270:	6a ff                	push   $0xffffffff
  302272:	6a 26                	push   $0x26
  302274:	e9 07 1b 00 00       	jmp    303d80 <ack_pic1>
  302279:	8d b4 26 00 00 00 00 	lea    0x0(%esi,%eiz,1),%esi
  302280:	6a ff                	push   $0xffffffff
  302282:	6a 27                	push   $0x27
  302284:	e9 f7 1a 00 00       	jmp    303d80 <ack_pic1>
  302289:	8d b4 26 00 00 00 00 	lea    0x0(%esi,%eiz,1),%esi
  302290:	6a ff                	push   $0xffffffff
  302292:	6a 28                	push   $0x28
  302294:	e9 e0 1a 00 00       	jmp    303d79 <ack_pic2>
  302299:	8d b4 26 00 00 00 00 	lea    0x0(%esi,%eiz,1),%esi
  3022a0:	6a ff                	push   $0xffffffff
  3022a2:	6a 29                	push   $0x29
  3022a4:	e9 d0 1a 00 00       	jmp    303d79 <ack_pic2>
  3022a9:	8d b4 26 00 00 00 00 	lea    0x0(%esi,%eiz,1),%esi
  3022b0:	6a ff                	push   $0xffffffff
  3022b2:	6a 2a                	push   $0x2a
  3022b4:	e9 c0 1a 00 00       	jmp    303d79 <ack_pic2>
  3022b9:	8d b4 26 00 00 00 00 	lea    0x0(%esi,%eiz,1),%esi
  3022c0:	6a ff                	push   $0xffffffff
  3022c2:	6a 2b                	push   $0x2b
  3022c4:	e9 b0 1a 00 00       	jmp    303d79 <ack_pic2>
  3022c9:	8d b4 26 00 00 00 00 	lea    0x0(%esi,%eiz,1),%esi
  3022d0:	6a ff                	push   $0xffffffff
  3022d2:	6a 2c                	push   $0x2c
  3022d4:	e9 a0 1a 00 00       	jmp    303d79 <ack_pic2>
  3022d9:	8d b4 26 00 00 00 00 	lea    0x0(%esi,%eiz,1),%esi
  3022e0:	6a ff                	push   $0xffffffff
  3022e2:	6a 2d                	push   $0x2d
  3022e4:	e9 90 1a 00 00       	jmp    303d79 <ack_pic2>
  3022e9:	8d b4 26 00 00 00 00 	lea    0x0(%esi,%eiz,1),%esi
  3022f0:	6a ff                	push   $0xffffffff
  3022f2:	6a 2e                	push   $0x2e
  3022f4:	e9 80 1a 00 00       	jmp    303d79 <ack_pic2>
  3022f9:	8d b4 26 00 00 00 00 	lea    0x0(%esi,%eiz,1),%esi
  302300:	6a ff                	push   $0xffffffff
  302302:	6a 2f                	push   $0x2f
  302304:	e9 70 1a 00 00       	jmp    303d79 <ack_pic2>
  302309:	8d b4 26 00 00 00 00 	lea    0x0(%esi,%eiz,1),%esi
  302310:	6a ff                	push   $0xffffffff
  302312:	6a 30                	push   $0x30
  302314:	e9 6d 1a 00 00       	jmp    303d86 <idt_common>
  302319:	8d b4 26 00 00 00 00 	lea    0x0(%esi,%eiz,1),%esi
  302320:	6a ff                	push   $0xffffffff
  302322:	6a 31                	push   $0x31
  302324:	e9 5d 1a 00 00       	jmp    303d86 <idt_common>
  302329:	8d b4 26 00 00 00 00 	lea    0x0(%esi,%eiz,1),%esi
  302330:	6a ff                	push   $0xffffffff
  302332:	6a 32                	push   $0x32
  302334:	e9 4d 1a 00 00       	jmp    303d86 <idt_common>
  302339:	8d b4 26 00 00 00 00 	lea    0x0(%esi,%eiz,1),%esi
  302340:	6a ff                	push   $0xffffffff
  302342:	6a 33                	push   $0x33
  302344:	e9 3d 1a 00 00       	jmp    303d86 <idt_common>
  302349:	8d b4 26 00 00 00 00 	lea    0x0(%esi,%eiz,1),%esi
  302350:	6a ff                	push   $0xffffffff
  302352:	6a 34                	push   $0x34
  302354:	e9 2d 1a 00 00       	jmp    303d86 <idt_common>
  302359:	8d b4 26 00 00 00 00 	lea    0x0(%esi,%eiz,1),%esi
  302360:	6a ff                	push   $0xffffffff
  302362:	6a 35                	push   $0x35
  302364:	e9 1d 1a 00 00       	jmp    303d86 <idt_common>
  302369:	8d b4 26 00 00 00 00 	lea    0x0(%esi,%eiz,1),%esi
  302370:	6a ff                	push   $0xffffffff
  302372:	6a 36                	push   $0x36
  302374:	e9 0d 1a 00 00       	jmp    303d86 <idt_common>
  302379:	8d b4 26 00 00 00 00 	lea    0x0(%esi,%eiz,1),%esi
  302380:	6a ff                	push   $0xffffffff
  302382:	6a 37                	push   $0x37
  302384:	e9 fd 19 00 00       	jmp    303d86 <idt_common>
  302389:	8d b4 26 00 00 00 00 	lea    0x0(%esi,%eiz,1),%esi
  302390:	6a ff                	push   $0xffffffff
  302392:	6a 38                	push   $0x38
  302394:	e9 ed 19 00 00       	jmp    303d86 <idt_common>
  302399:	8d b4 26 00 00 00 00 	lea    0x0(%esi,%eiz,1),%esi
  3023a0:	6a ff                	push   $0xffffffff
  3023a2:	6a 39                	push   $0x39
  3023a4:	e9 dd 19 00 00       	jmp    303d86 <idt_common>
  3023a9:	8d b4 26 00 00 00 00 	lea    0x0(%esi,%eiz,1),%esi
  3023b0:	6a ff                	push   $0xffffffff
  3023b2:	6a 3a                	push   $0x3a
  3023b4:	e9 cd 19 00 00       	jmp    303d86 <idt_common>
  3023b9:	8d b4 26 00 00 00 00 	lea    0x0(%esi,%eiz,1),%esi
  3023c0:	6a ff                	push   $0xffffffff
  3023c2:	6a 3b                	push   $0x3b
  3023c4:	e9 bd 19 00 00       	jmp    303d86 <idt_common>
  3023c9:	8d b4 26 00 00 00 00 	lea    0x0(%esi,%eiz,1),%esi
  3023d0:	6a ff                	push   $0xffffffff
  3023d2:	6a 3c                	push   $0x3c
  3023d4:	e9 ad 19 00 00       	jmp    303d86 <idt_common>
  3023d9:	8d b4 26 00 00 00 00 	lea    0x0(%esi,%eiz,1),%esi
  3023e0:	6a ff                	push   $0xffffffff
  3023e2:	6a 3d                	push   $0x3d
  3023e4:	e9 9d 19 00 00       	jmp    303d86 <idt_common>
  3023e9:	8d b4 26 00 00 00 00 	lea    0x0(%esi,%eiz,1),%esi
  3023f0:	6a ff                	push   $0xffffffff
  3023f2:	6a 3e                	push   $0x3e
  3023f4:	e9 8d 19 00 00       	jmp    303d86 <idt_common>
  3023f9:	8d b4 26 00 00 00 00 	lea    0x0(%esi,%eiz,1),%esi
  302400:	6a ff                	push   $0xffffffff
  302402:	6a 3f                	push   $0x3f
  302404:	e9 7d 19 00 00       	jmp    303d86 <idt_common>
  302409:	8d b4 26 00 00 00 00 	lea    0x0(%esi,%eiz,1),%esi
  302410:	6a ff                	push   $0xffffffff
  302412:	6a 40                	push   $0x40
  302414:	e9 6d 19 00 00       	jmp    303d86 <idt_common>
  302419:	8d b4 26 00 00 00 00 	lea    0x0(%esi,%eiz,1),%esi
  302420:	6a ff                	push   $0xffffffff
  302422:	6a 41                	push   $0x41
  302424:	e9 5d 19 00 00       	jmp    303d86 <idt_common>
  302429:	8d b4 26 00 00 00 00 	lea    0x0(%esi,%eiz,1),%esi
  302430:	6a ff                	push   $0xffffffff
  302432:	6a 42                	push   $0x42
  302434:	e9 4d 19 00 00       	jmp    303d86 <idt_common>
  302439:	8d b4 26 00 00 00 00 	lea    0x0(%esi,%eiz,1),%esi
  302440:	6a ff                	push   $0xffffffff
  302442:	6a 43                	push   $0x43
  302444:	e9 3d 19 00 00       	jmp    303d86 <idt_common>
  302449:	8d b4 26 00 00 00 00 	lea    0x0(%esi,%eiz,1),%esi
  302450:	6a ff                	push   $0xffffffff
  302452:	6a 44                	push   $0x44
  302454:	e9 2d 19 00 00       	jmp    303d86 <idt_common>
  302459:	8d b4 26 00 00 00 00 	lea    0x0(%esi,%eiz,1),%esi
  302460:	6a ff                	push   $0xffffffff
  302462:	6a 45                	push   $0x45
  302464:	e9 1d 19 00 00       	jmp    303d86 <idt_common>
  302469:	8d b4 26 00 00 00 00 	lea    0x0(%esi,%eiz,1),%esi
  302470:	6a ff                	push   $0xffffffff
  302472:	6a 46                	push   $0x46
  302474:	e9 0d 19 00 00       	jmp    303d86 <idt_common>
  302479:	8d b4 26 00 00 00 00 	lea    0x0(%esi,%eiz,1),%esi
  302480:	6a ff                	push   $0xffffffff
  302482:	6a 47                	push   $0x47
  302484:	e9 fd 18 00 00       	jmp    303d86 <idt_common>
  302489:	8d b4 26 00 00 00 00 	lea    0x0(%esi,%eiz,1),%esi
  302490:	6a ff                	push   $0xffffffff
  302492:	6a 48                	push   $0x48
  302494:	e9 ed 18 00 00       	jmp    303d86 <idt_common>
  302499:	8d b4 26 00 00 00 00 	lea    0x0(%esi,%eiz,1),%esi
  3024a0:	6a ff                	push   $0xffffffff
  3024a2:	6a 49                	push   $0x49
  3024a4:	e9 dd 18 00 00       	jmp    303d86 <idt_common>
  3024a9:	8d b4 26 00 00 00 00 	lea    0x0(%esi,%eiz,1),%esi
  3024b0:	6a ff                	push   $0xffffffff
  3024b2:	6a 4a                	push   $0x4a
  3024b4:	e9 cd 18 00 00       	jmp    303d86 <idt_common>
  3024b9:	8d b4 26 00 00 00 00 	lea    0x0(%esi,%eiz,1),%esi
  3024c0:	6a ff                	push   $0xffffffff
  3024c2:	6a 4b                	push   $0x4b
  3024c4:	e9 bd 18 00 00       	jmp    303d86 <idt_common>
  3024c9:	8d b4 26 00 00 00 00 	lea    0x0(%esi,%eiz,1),%esi
  3024d0:	6a ff                	push   $0xffffffff
  3024d2:	6a 4c                	push   $0x4c
  3024d4:	e9 ad 18 00 00       	jmp    303d86 <idt_common>
  3024d9:	8d b4 26 00 00 00 00 	lea    0x0(%esi,%eiz,1),%esi
  3024e0:	6a ff                	push   $0xffffffff
  3024e2:	6a 4d                	push   $0x4d
  3024e4:	e9 9d 18 00 00       	jmp    303d86 <idt_common>
  3024e9:	8d b4 26 00 00 00 00 	lea    0x0(%esi,%eiz,1),%esi
  3024f0:	6a ff                	push   $0xffffffff
  3024f2:	6a 4e                	push   $0x4e
  3024f4:	e9 8d 18 00 00       	jmp    303d86 <idt_common>
  3024f9:	8d b4 26 00 00 00 00 	lea    0x0(%esi,%eiz,1),%esi
  302500:	6a ff                	push   $0xffffffff
  302502:	6a 4f                	push   $0x4f
  302504:	e9 7d 18 00 00       	jmp    303d86 <idt_common>
  302509:	8d b4 26 00 00 00 00 	lea    0x0(%esi,%eiz,1),%esi
  302510:	6a ff                	push   $0xffffffff
  302512:	6a 50                	push   $0x50
  302514:	e9 6d 18 00 00       	jmp    303d86 <idt_common>
  302519:	8d b4 26 00 00 00 00 	lea    0x0(%esi,%eiz,1),%esi
  302520:	6a ff                	push   $0xffffffff
  302522:	6a 51                	push   $0x51
  302524:	e9 5d 18 00 00       	jmp    303d86 <idt_common>
  302529:	8d b4 26 00 00 00 00 	lea    0x0(%esi,%eiz,1),%esi
  302530:	6a ff                	push   $0xffffffff
  302532:	6a 52                	push   $0x52
  302534:	e9 4d 18 00 00       	jmp    303d86 <idt_common>
  302539:	8d b4 26 00 00 00 00 	lea    0x0(%esi,%eiz,1),%esi
  302540:	6a ff                	push   $0xffffffff
  302542:	6a 53                	push   $0x53
  302544:	e9 3d 18 00 00       	jmp    303d86 <idt_common>
  302549:	8d b4 26 00 00 00 00 	lea    0x0(%esi,%eiz,1),%esi
  302550:	6a ff                	push   $0xffffffff
  302552:	6a 54                	push   $0x54
  302554:	e9 2d 18 00 00       	jmp    303d86 <idt_common>
  302559:	8d b4 26 00 00 00 00 	lea    0x0(%esi,%eiz,1),%esi
  302560:	6a ff                	push   $0xffffffff
  302562:	6a 55                	push   $0x55
  302564:	e9 1d 18 00 00       	jmp    303d86 <idt_common>
  302569:	8d b4 26 00 00 00 00 	lea    0x0(%esi,%eiz,1),%esi
  302570:	6a ff                	push   $0xffffffff
  302572:	6a 56                	push   $0x56
  302574:	e9 0d 18 00 00       	jmp    303d86 <idt_common>
  302579:	8d b4 26 00 00 00 00 	lea    0x0(%esi,%eiz,1),%esi
  302580:	6a ff                	push   $0xffffffff
  302582:	6a 57                	push   $0x57
  302584:	e9 fd 17 00 00       	jmp    303d86 <idt_common>
  302589:	8d b4 26 00 00 00 00 	lea    0x0(%esi,%eiz,1),%esi
  302590:	6a ff                	push   $0xffffffff
  302592:	6a 58                	push   $0x58
  302594:	e9 ed 17 00 00       	jmp    303d86 <idt_common>
  302599:	8d b4 26 00 00 00 00 	lea    0x0(%esi,%eiz,1),%esi
  3025a0:	6a ff                	push   $0xffffffff
  3025a2:	6a 59                	push   $0x59
  3025a4:	e9 dd 17 00 00       	jmp    303d86 <idt_common>
  3025a9:	8d b4 26 00 00 00 00 	lea    0x0(%esi,%eiz,1),%esi
  3025b0:	6a ff                	push   $0xffffffff
  3025b2:	6a 5a                	push   $0x5a
  3025b4:	e9 cd 17 00 00       	jmp    303d86 <idt_common>
  3025b9:	8d b4 26 00 00 00 00 	lea    0x0(%esi,%eiz,1),%esi
  3025c0:	6a ff                	push   $0xffffffff
  3025c2:	6a 5b                	push   $0x5b
  3025c4:	e9 bd 17 00 00       	jmp    303d86 <idt_common>
  3025c9:	8d b4 26 00 00 00 00 	lea    0x0(%esi,%eiz,1),%esi
  3025d0:	6a ff                	push   $0xffffffff
  3025d2:	6a 5c                	push   $0x5c
  3025d4:	e9 ad 17 00 00       	jmp    303d86 <idt_common>
  3025d9:	8d b4 26 00 00 00 00 	lea    0x0(%esi,%eiz,1),%esi
  3025e0:	6a ff                	push   $0xffffffff
  3025e2:	6a 5d                	push   $0x5d
  3025e4:	e9 9d 17 00 00       	jmp    303d86 <idt_common>
  3025e9:	8d b4 26 00 00 00 00 	lea    0x0(%esi,%eiz,1),%esi
  3025f0:	6a ff                	push   $0xffffffff
  3025f2:	6a 5e                	push   $0x5e
  3025f4:	e9 8d 17 00 00       	jmp    303d86 <idt_common>
  3025f9:	8d b4 26 00 00 00 00 	lea    0x0(%esi,%eiz,1),%esi
  302600:	6a ff                	push   $0xffffffff
  302602:	6a 5f                	push   $0x5f
  302604:	e9 7d 17 00 00       	jmp    303d86 <idt_common>
  302609:	8d b4 26 00 00 00 00 	lea    0x0(%esi,%eiz,1),%esi
  302610:	6a ff                	push   $0xffffffff
  302612:	6a 60                	push   $0x60
  302614:	e9 6d 17 00 00       	jmp    303d86 <idt_common>
  302619:	8d b4 26 00 00 00 00 	lea    0x0(%esi,%eiz,1),%esi
  302620:	6a ff                	push   $0xffffffff
  302622:	6a 61                	push   $0x61
  302624:	e9 5d 17 00 00       	jmp    303d86 <idt_common>
  302629:	8d b4 26 00 00 00 00 	lea    0x0(%esi,%eiz,1),%esi
  302630:	6a ff                	push   $0xffffffff
  302632:	6a 62                	push   $0x62
  302634:	e9 4d 17 00 00       	jmp    303d86 <idt_common>
  302639:	8d b4 26 00 00 00 00 	lea    0x0(%esi,%eiz,1),%esi
  302640:	6a ff                	push   $0xffffffff
  302642:	6a 63                	push   $0x63
  302644:	e9 3d 17 00 00       	jmp    303d86 <idt_common>
  302649:	8d b4 26 00 00 00 00 	lea    0x0(%esi,%eiz,1),%esi
  302650:	6a ff                	push   $0xffffffff
  302652:	6a 64                	push   $0x64
  302654:	e9 2d 17 00 00       	jmp    303d86 <idt_common>
  302659:	8d b4 26 00 00 00 00 	lea    0x0(%esi,%eiz,1),%esi
  302660:	6a ff                	push   $0xffffffff
  302662:	6a 65                	push   $0x65
  302664:	e9 1d 17 00 00       	jmp    303d86 <idt_common>
  302669:	8d b4 26 00 00 00 00 	lea    0x0(%esi,%eiz,1),%esi
  302670:	6a ff                	push   $0xffffffff
  302672:	6a 66                	push   $0x66
  302674:	e9 0d 17 00 00       	jmp    303d86 <idt_common>
  302679:	8d b4 26 00 00 00 00 	lea    0x0(%esi,%eiz,1),%esi
  302680:	6a ff                	push   $0xffffffff
  302682:	6a 67                	push   $0x67
  302684:	e9 fd 16 00 00       	jmp    303d86 <idt_common>
  302689:	8d b4 26 00 00 00 00 	lea    0x0(%esi,%eiz,1),%esi
  302690:	6a ff                	push   $0xffffffff
  302692:	6a 68                	push   $0x68
  302694:	e9 ed 16 00 00       	jmp    303d86 <idt_common>
  302699:	8d b4 26 00 00 00 00 	lea    0x0(%esi,%eiz,1),%esi
  3026a0:	6a ff                	push   $0xffffffff
  3026a2:	6a 69                	push   $0x69
  3026a4:	e9 dd 16 00 00       	jmp    303d86 <idt_common>
  3026a9:	8d b4 26 00 00 00 00 	lea    0x0(%esi,%eiz,1),%esi
  3026b0:	6a ff                	push   $0xffffffff
  3026b2:	6a 6a                	push   $0x6a
  3026b4:	e9 cd 16 00 00       	jmp    303d86 <idt_common>
  3026b9:	8d b4 26 00 00 00 00 	lea    0x0(%esi,%eiz,1),%esi
  3026c0:	6a ff                	push   $0xffffffff
  3026c2:	6a 6b                	push   $0x6b
  3026c4:	e9 bd 16 00 00       	jmp    303d86 <idt_common>
  3026c9:	8d b4 26 00 00 00 00 	lea    0x0(%esi,%eiz,1),%esi
  3026d0:	6a ff                	push   $0xffffffff
  3026d2:	6a 6c                	push   $0x6c
  3026d4:	e9 ad 16 00 00       	jmp    303d86 <idt_common>
  3026d9:	8d b4 26 00 00 00 00 	lea    0x0(%esi,%eiz,1),%esi
  3026e0:	6a ff                	push   $0xffffffff
  3026e2:	6a 6d                	push   $0x6d
  3026e4:	e9 9d 16 00 00       	jmp    303d86 <idt_common>
  3026e9:	8d b4 26 00 00 00 00 	lea    0x0(%esi,%eiz,1),%esi
  3026f0:	6a ff                	push   $0xffffffff
  3026f2:	6a 6e                	push   $0x6e
  3026f4:	e9 8d 16 00 00       	jmp    303d86 <idt_common>
  3026f9:	8d b4 26 00 00 00 00 	lea    0x0(%esi,%eiz,1),%esi
  302700:	6a ff                	push   $0xffffffff
  302702:	6a 6f                	push   $0x6f
  302704:	e9 7d 16 00 00       	jmp    303d86 <idt_common>
  302709:	8d b4 26 00 00 00 00 	lea    0x0(%esi,%eiz,1),%esi
  302710:	6a ff                	push   $0xffffffff
  302712:	6a 70                	push   $0x70
  302714:	e9 6d 16 00 00       	jmp    303d86 <idt_common>
  302719:	8d b4 26 00 00 00 00 	lea    0x0(%esi,%eiz,1),%esi
  302720:	6a ff                	push   $0xffffffff
  302722:	6a 71                	push   $0x71
  302724:	e9 5d 16 00 00       	jmp    303d86 <idt_common>
  302729:	8d b4 26 00 00 00 00 	lea    0x0(%esi,%eiz,1),%esi
  302730:	6a ff                	push   $0xffffffff
  302732:	6a 72                	push   $0x72
  302734:	e9 4d 16 00 00       	jmp    303d86 <idt_common>
  302739:	8d b4 26 00 00 00 00 	lea    0x0(%esi,%eiz,1),%esi
  302740:	6a ff                	push   $0xffffffff
  302742:	6a 73                	push   $0x73
  302744:	e9 3d 16 00 00       	jmp    303d86 <idt_common>
  302749:	8d b4 26 00 00 00 00 	lea    0x0(%esi,%eiz,1),%esi
  302750:	6a ff                	push   $0xffffffff
  302752:	6a 74                	push   $0x74
  302754:	e9 2d 16 00 00       	jmp    303d86 <idt_common>
  302759:	8d b4 26 00 00 00 00 	lea    0x0(%esi,%eiz,1),%esi
  302760:	6a ff                	push   $0xffffffff
  302762:	6a 75                	push   $0x75
  302764:	e9 1d 16 00 00       	jmp    303d86 <idt_common>
  302769:	8d b4 26 00 00 00 00 	lea    0x0(%esi,%eiz,1),%esi
  302770:	6a ff                	push   $0xffffffff
  302772:	6a 76                	push   $0x76
  302774:	e9 0d 16 00 00       	jmp    303d86 <idt_common>
  302779:	8d b4 26 00 00 00 00 	lea    0x0(%esi,%eiz,1),%esi
  302780:	6a ff                	push   $0xffffffff
  302782:	6a 77                	push   $0x77
  302784:	e9 fd 15 00 00       	jmp    303d86 <idt_common>
  302789:	8d b4 26 00 00 00 00 	lea    0x0(%esi,%eiz,1),%esi
  302790:	6a ff                	push   $0xffffffff
  302792:	6a 78                	push   $0x78
  302794:	e9 ed 15 00 00       	jmp    303d86 <idt_common>
  302799:	8d b4 26 00 00 00 00 	lea    0x0(%esi,%eiz,1),%esi
  3027a0:	6a ff                	push   $0xffffffff
  3027a2:	6a 79                	push   $0x79
  3027a4:	e9 dd 15 00 00       	jmp    303d86 <idt_common>
  3027a9:	8d b4 26 00 00 00 00 	lea    0x0(%esi,%eiz,1),%esi
  3027b0:	6a ff                	push   $0xffffffff
  3027b2:	6a 7a                	push   $0x7a
  3027b4:	e9 cd 15 00 00       	jmp    303d86 <idt_common>
  3027b9:	8d b4 26 00 00 00 00 	lea    0x0(%esi,%eiz,1),%esi
  3027c0:	6a ff                	push   $0xffffffff
  3027c2:	6a 7b                	push   $0x7b
  3027c4:	e9 bd 15 00 00       	jmp    303d86 <idt_common>
  3027c9:	8d b4 26 00 00 00 00 	lea    0x0(%esi,%eiz,1),%esi
  3027d0:	6a ff                	push   $0xffffffff
  3027d2:	6a 7c                	push   $0x7c
  3027d4:	e9 ad 15 00 00       	jmp    303d86 <idt_common>
  3027d9:	8d b4 26 00 00 00 00 	lea    0x0(%esi,%eiz,1),%esi
  3027e0:	6a ff                	push   $0xffffffff
  3027e2:	6a 7d                	push   $0x7d
  3027e4:	e9 9d 15 00 00       	jmp    303d86 <idt_common>
  3027e9:	8d b4 26 00 00 00 00 	lea    0x0(%esi,%eiz,1),%esi
  3027f0:	6a ff                	push   $0xffffffff
  3027f2:	6a 7e                	push   $0x7e
  3027f4:	e9 8d 15 00 00       	jmp    303d86 <idt_common>
  3027f9:	8d b4 26 00 00 00 00 	lea    0x0(%esi,%eiz,1),%esi
  302800:	6a ff                	push   $0xffffffff
  302802:	6a 7f                	push   $0x7f
  302804:	e9 7d 15 00 00       	jmp    303d86 <idt_common>
  302809:	8d b4 26 00 00 00 00 	lea    0x0(%esi,%eiz,1),%esi
  302810:	6a ff                	push   $0xffffffff
  302812:	68 80 00 00 00       	push   $0x80
  302817:	e9 6a 15 00 00       	jmp    303d86 <idt_common>
  30281c:	8d 74 26 00          	lea    0x0(%esi,%eiz,1),%esi
  302820:	6a ff                	push   $0xffffffff
  302822:	68 81 00 00 00       	push   $0x81
  302827:	e9 5a 15 00 00       	jmp    303d86 <idt_common>
  30282c:	8d 74 26 00          	lea    0x0(%esi,%eiz,1),%esi
  302830:	6a ff                	push   $0xffffffff
  302832:	68 82 00 00 00       	push   $0x82
  302837:	e9 4a 15 00 00       	jmp    303d86 <idt_common>
  30283c:	8d 74 26 00          	lea    0x0(%esi,%eiz,1),%esi
  302840:	6a ff                	push   $0xffffffff
  302842:	68 83 00 00 00       	push   $0x83
  302847:	e9 3a 15 00 00       	jmp    303d86 <idt_common>
  30284c:	8d 74 26 00          	lea    0x0(%esi,%eiz,1),%esi
  302850:	6a ff                	push   $0xffffffff
  302852:	68 84 00 00 00       	push   $0x84
  302857:	e9 2a 15 00 00       	jmp    303d86 <idt_common>
  30285c:	8d 74 26 00          	lea    0x0(%esi,%eiz,1),%esi
  302860:	6a ff                	push   $0xffffffff
  302862:	68 85 00 00 00       	push   $0x85
  302867:	e9 1a 15 00 00       	jmp    303d86 <idt_common>
  30286c:	8d 74 26 00          	lea    0x0(%esi,%eiz,1),%esi
  302870:	6a ff                	push   $0xffffffff
  302872:	68 86 00 00 00       	push   $0x86
  302877:	e9 0a 15 00 00       	jmp    303d86 <idt_common>
  30287c:	8d 74 26 00          	lea    0x0(%esi,%eiz,1),%esi
  302880:	6a ff                	push   $0xffffffff
  302882:	68 87 00 00 00       	push   $0x87
  302887:	e9 fa 14 00 00       	jmp    303d86 <idt_common>
  30288c:	8d 74 26 00          	lea    0x0(%esi,%eiz,1),%esi
  302890:	6a ff                	push   $0xffffffff
  302892:	68 88 00 00 00       	push   $0x88
  302897:	e9 ea 14 00 00       	jmp    303d86 <idt_common>
  30289c:	8d 74 26 00          	lea    0x0(%esi,%eiz,1),%esi
  3028a0:	6a ff                	push   $0xffffffff
  3028a2:	68 89 00 00 00       	push   $0x89
  3028a7:	e9 da 14 00 00       	jmp    303d86 <idt_common>
  3028ac:	8d 74 26 00          	lea    0x0(%esi,%eiz,1),%esi
  3028b0:	6a ff                	push   $0xffffffff
  3028b2:	68 8a 00 00 00       	push   $0x8a
  3028b7:	e9 ca 14 00 00       	jmp    303d86 <idt_common>
  3028bc:	8d 74 26 00          	lea    0x0(%esi,%eiz,1),%esi
  3028c0:	6a ff                	push   $0xffffffff
  3028c2:	68 8b 00 00 00       	push   $0x8b
  3028c7:	e9 ba 14 00 00       	jmp    303d86 <idt_common>
  3028cc:	8d 74 26 00          	lea    0x0(%esi,%eiz,1),%esi
  3028d0:	6a ff                	push   $0xffffffff
  3028d2:	68 8c 00 00 00       	push   $0x8c
  3028d7:	e9 aa 14 00 00       	jmp    303d86 <idt_common>
  3028dc:	8d 74 26 00          	lea    0x0(%esi,%eiz,1),%esi
  3028e0:	6a ff                	push   $0xffffffff
  3028e2:	68 8d 00 00 00       	push   $0x8d
  3028e7:	e9 9a 14 00 00       	jmp    303d86 <idt_common>
  3028ec:	8d 74 26 00          	lea    0x0(%esi,%eiz,1),%esi
  3028f0:	6a ff                	push   $0xffffffff
  3028f2:	68 8e 00 00 00       	push   $0x8e
  3028f7:	e9 8a 14 00 00       	jmp    303d86 <idt_common>
  3028fc:	8d 74 26 00          	lea    0x0(%esi,%eiz,1),%esi
  302900:	6a ff                	push   $0xffffffff
  302902:	68 8f 00 00 00       	push   $0x8f
  302907:	e9 7a 14 00 00       	jmp    303d86 <idt_common>
  30290c:	8d 74 26 00          	lea    0x0(%esi,%eiz,1),%esi
  302910:	6a ff                	push   $0xffffffff
  302912:	68 90 00 00 00       	push   $0x90
  302917:	e9 6a 14 00 00       	jmp    303d86 <idt_common>
  30291c:	8d 74 26 00          	lea    0x0(%esi,%eiz,1),%esi
  302920:	6a ff                	push   $0xffffffff
  302922:	68 91 00 00 00       	push   $0x91
  302927:	e9 5a 14 00 00       	jmp    303d86 <idt_common>
  30292c:	8d 74 26 00          	lea    0x0(%esi,%eiz,1),%esi
  302930:	6a ff                	push   $0xffffffff
  302932:	68 92 00 00 00       	push   $0x92
  302937:	e9 4a 14 00 00       	jmp    303d86 <idt_common>
  30293c:	8d 74 26 00          	lea    0x0(%esi,%eiz,1),%esi
  302940:	6a ff                	push   $0xffffffff
  302942:	68 93 00 00 00       	push   $0x93
  302947:	e9 3a 14 00 00       	jmp    303d86 <idt_common>
  30294c:	8d 74 26 00          	lea    0x0(%esi,%eiz,1),%esi
  302950:	6a ff                	push   $0xffffffff
  302952:	68 94 00 00 00       	push   $0x94
  302957:	e9 2a 14 00 00       	jmp    303d86 <idt_common>
  30295c:	8d 74 26 00          	lea    0x0(%esi,%eiz,1),%esi
  302960:	6a ff                	push   $0xffffffff
  302962:	68 95 00 00 00       	push   $0x95
  302967:	e9 1a 14 00 00       	jmp    303d86 <idt_common>
  30296c:	8d 74 26 00          	lea    0x0(%esi,%eiz,1),%esi
  302970:	6a ff                	push   $0xffffffff
  302972:	68 96 00 00 00       	push   $0x96
  302977:	e9 0a 14 00 00       	jmp    303d86 <idt_common>
  30297c:	8d 74 26 00          	lea    0x0(%esi,%eiz,1),%esi
  302980:	6a ff                	push   $0xffffffff
  302982:	68 97 00 00 00       	push   $0x97
  302987:	e9 fa 13 00 00       	jmp    303d86 <idt_common>
  30298c:	8d 74 26 00          	lea    0x0(%esi,%eiz,1),%esi
  302990:	6a ff                	push   $0xffffffff
  302992:	68 98 00 00 00       	push   $0x98
  302997:	e9 ea 13 00 00       	jmp    303d86 <idt_common>
  30299c:	8d 74 26 00          	lea    0x0(%esi,%eiz,1),%esi
  3029a0:	6a ff                	push   $0xffffffff
  3029a2:	68 99 00 00 00       	push   $0x99
  3029a7:	e9 da 13 00 00       	jmp    303d86 <idt_common>
  3029ac:	8d 74 26 00          	lea    0x0(%esi,%eiz,1),%esi
  3029b0:	6a ff                	push   $0xffffffff
  3029b2:	68 9a 00 00 00       	push   $0x9a
  3029b7:	e9 ca 13 00 00       	jmp    303d86 <idt_common>
  3029bc:	8d 74 26 00          	lea    0x0(%esi,%eiz,1),%esi
  3029c0:	6a ff                	push   $0xffffffff
  3029c2:	68 9b 00 00 00       	push   $0x9b
  3029c7:	e9 ba 13 00 00       	jmp    303d86 <idt_common>
  3029cc:	8d 74 26 00          	lea    0x0(%esi,%eiz,1),%esi
  3029d0:	6a ff                	push   $0xffffffff
  3029d2:	68 9c 00 00 00       	push   $0x9c
  3029d7:	e9 aa 13 00 00       	jmp    303d86 <idt_common>
  3029dc:	8d 74 26 00          	lea    0x0(%esi,%eiz,1),%esi
  3029e0:	6a ff                	push   $0xffffffff
  3029e2:	68 9d 00 00 00       	push   $0x9d
  3029e7:	e9 9a 13 00 00       	jmp    303d86 <idt_common>
  3029ec:	8d 74 26 00          	lea    0x0(%esi,%eiz,1),%esi
  3029f0:	6a ff                	push   $0xffffffff
  3029f2:	68 9e 00 00 00       	push   $0x9e
  3029f7:	e9 8a 13 00 00       	jmp    303d86 <idt_common>
  3029fc:	8d 74 26 00          	lea    0x0(%esi,%eiz,1),%esi
  302a00:	6a ff                	push   $0xffffffff
  302a02:	68 9f 00 00 00       	push   $0x9f
  302a07:	e9 7a 13 00 00       	jmp    303d86 <idt_common>
  302a0c:	8d 74 26 00          	lea    0x0(%esi,%eiz,1),%esi
  302a10:	6a ff                	push   $0xffffffff
  302a12:	68 a0 00 00 00       	push   $0xa0
  302a17:	e9 6a 13 00 00       	jmp    303d86 <idt_common>
  302a1c:	8d 74 26 00          	lea    0x0(%esi,%eiz,1),%esi
  302a20:	6a ff                	push   $0xffffffff
  302a22:	68 a1 00 00 00       	push   $0xa1
  302a27:	e9 5a 13 00 00       	jmp    303d86 <idt_common>
  302a2c:	8d 74 26 00          	lea    0x0(%esi,%eiz,1),%esi
  302a30:	6a ff                	push   $0xffffffff
  302a32:	68 a2 00 00 00       	push   $0xa2
  302a37:	e9 4a 13 00 00       	jmp    303d86 <idt_common>
  302a3c:	8d 74 26 00          	lea    0x0(%esi,%eiz,1),%esi
  302a40:	6a ff                	push   $0xffffffff
  302a42:	68 a3 00 00 00       	push   $0xa3
  302a47:	e9 3a 13 00 00       	jmp    303d86 <idt_common>
  302a4c:	8d 74 26 00          	lea    0x0(%esi,%eiz,1),%esi
  302a50:	6a ff                	push   $0xffffffff
  302a52:	68 a4 00 00 00       	push   $0xa4
  302a57:	e9 2a 13 00 00       	jmp    303d86 <idt_common>
  302a5c:	8d 74 26 00          	lea    0x0(%esi,%eiz,1),%esi
  302a60:	6a ff                	push   $0xffffffff
  302a62:	68 a5 00 00 00       	push   $0xa5
  302a67:	e9 1a 13 00 00       	jmp    303d86 <idt_common>
  302a6c:	8d 74 26 00          	lea    0x0(%esi,%eiz,1),%esi
  302a70:	6a ff                	push   $0xffffffff
  302a72:	68 a6 00 00 00       	push   $0xa6
  302a77:	e9 0a 13 00 00       	jmp    303d86 <idt_common>
  302a7c:	8d 74 26 00          	lea    0x0(%esi,%eiz,1),%esi
  302a80:	6a ff                	push   $0xffffffff
  302a82:	68 a7 00 00 00       	push   $0xa7
  302a87:	e9 fa 12 00 00       	jmp    303d86 <idt_common>
  302a8c:	8d 74 26 00          	lea    0x0(%esi,%eiz,1),%esi
  302a90:	6a ff                	push   $0xffffffff
  302a92:	68 a8 00 00 00       	push   $0xa8
  302a97:	e9 ea 12 00 00       	jmp    303d86 <idt_common>
  302a9c:	8d 74 26 00          	lea    0x0(%esi,%eiz,1),%esi
  302aa0:	6a ff                	push   $0xffffffff
  302aa2:	68 a9 00 00 00       	push   $0xa9
  302aa7:	e9 da 12 00 00       	jmp    303d86 <idt_common>
  302aac:	8d 74 26 00          	lea    0x0(%esi,%eiz,1),%esi
  302ab0:	6a ff                	push   $0xffffffff
  302ab2:	68 aa 00 00 00       	push   $0xaa
  302ab7:	e9 ca 12 00 00       	jmp    303d86 <idt_common>
  302abc:	8d 74 26 00          	lea    0x0(%esi,%eiz,1),%esi
  302ac0:	6a ff                	push   $0xffffffff
  302ac2:	68 ab 00 00 00       	push   $0xab
  302ac7:	e9 ba 12 00 00       	jmp    303d86 <idt_common>
  302acc:	8d 74 26 00          	lea    0x0(%esi,%eiz,1),%esi
  302ad0:	6a ff                	push   $0xffffffff
  302ad2:	68 ac 00 00 00       	push   $0xac
  302ad7:	e9 aa 12 00 00       	jmp    303d86 <idt_common>
  302adc:	8d 74 26 00          	lea    0x0(%esi,%eiz,1),%esi
  302ae0:	6a ff                	push   $0xffffffff
  302ae2:	68 ad 00 00 00       	push   $0xad
  302ae7:	e9 9a 12 00 00       	jmp    303d86 <idt_common>
  302aec:	8d 74 26 00          	lea    0x0(%esi,%eiz,1),%esi
  302af0:	6a ff                	push   $0xffffffff
  302af2:	68 ae 00 00 00       	push   $0xae
  302af7:	e9 8a 12 00 00       	jmp    303d86 <idt_common>
  302afc:	8d 74 26 00          	lea    0x0(%esi,%eiz,1),%esi
  302b00:	6a ff                	push   $0xffffffff
  302b02:	68 af 00 00 00       	push   $0xaf
  302b07:	e9 7a 12 00 00       	jmp    303d86 <idt_common>
  302b0c:	8d 74 26 00          	lea    0x0(%esi,%eiz,1),%esi
  302b10:	6a ff                	push   $0xffffffff
  302b12:	68 b0 00 00 00       	push   $0xb0
  302b17:	e9 6a 12 00 00       	jmp    303d86 <idt_common>
  302b1c:	8d 74 26 00          	lea    0x0(%esi,%eiz,1),%esi
  302b20:	6a ff                	push   $0xffffffff
  302b22:	68 b1 00 00 00       	push   $0xb1
  302b27:	e9 5a 12 00 00       	jmp    303d86 <idt_common>
  302b2c:	8d 74 26 00          	lea    0x0(%esi,%eiz,1),%esi
  302b30:	6a ff                	push   $0xffffffff
  302b32:	68 b2 00 00 00       	push   $0xb2
  302b37:	e9 4a 12 00 00       	jmp    303d86 <idt_common>
  302b3c:	8d 74 26 00          	lea    0x0(%esi,%eiz,1),%esi
  302b40:	6a ff                	push   $0xffffffff
  302b42:	68 b3 00 00 00       	push   $0xb3
  302b47:	e9 3a 12 00 00       	jmp    303d86 <idt_common>
  302b4c:	8d 74 26 00          	lea    0x0(%esi,%eiz,1),%esi
  302b50:	6a ff                	push   $0xffffffff
  302b52:	68 b4 00 00 00       	push   $0xb4
  302b57:	e9 2a 12 00 00       	jmp    303d86 <idt_common>
  302b5c:	8d 74 26 00          	lea    0x0(%esi,%eiz,1),%esi
  302b60:	6a ff                	push   $0xffffffff
  302b62:	68 b5 00 00 00       	push   $0xb5
  302b67:	e9 1a 12 00 00       	jmp    303d86 <idt_common>
  302b6c:	8d 74 26 00          	lea    0x0(%esi,%eiz,1),%esi
  302b70:	6a ff                	push   $0xffffffff
  302b72:	68 b6 00 00 00       	push   $0xb6
  302b77:	e9 0a 12 00 00       	jmp    303d86 <idt_common>
  302b7c:	8d 74 26 00          	lea    0x0(%esi,%eiz,1),%esi
  302b80:	6a ff                	push   $0xffffffff
  302b82:	68 b7 00 00 00       	push   $0xb7
  302b87:	e9 fa 11 00 00       	jmp    303d86 <idt_common>
  302b8c:	8d 74 26 00          	lea    0x0(%esi,%eiz,1),%esi
  302b90:	6a ff                	push   $0xffffffff
  302b92:	68 b8 00 00 00       	push   $0xb8
  302b97:	e9 ea 11 00 00       	jmp    303d86 <idt_common>
  302b9c:	8d 74 26 00          	lea    0x0(%esi,%eiz,1),%esi
  302ba0:	6a ff                	push   $0xffffffff
  302ba2:	68 b9 00 00 00       	push   $0xb9
  302ba7:	e9 da 11 00 00       	jmp    303d86 <idt_common>
  302bac:	8d 74 26 00          	lea    0x0(%esi,%eiz,1),%esi
  302bb0:	6a ff                	push   $0xffffffff
  302bb2:	68 ba 00 00 00       	push   $0xba
  302bb7:	e9 ca 11 00 00       	jmp    303d86 <idt_common>
  302bbc:	8d 74 26 00          	lea    0x0(%esi,%eiz,1),%esi
  302bc0:	6a ff                	push   $0xffffffff
  302bc2:	68 bb 00 00 00       	push   $0xbb
  302bc7:	e9 ba 11 00 00       	jmp    303d86 <idt_common>
  302bcc:	8d 74 26 00          	lea    0x0(%esi,%eiz,1),%esi
  302bd0:	6a ff                	push   $0xffffffff
  302bd2:	68 bc 00 00 00       	push   $0xbc
  302bd7:	e9 aa 11 00 00       	jmp    303d86 <idt_common>
  302bdc:	8d 74 26 00          	lea    0x0(%esi,%eiz,1),%esi
  302be0:	6a ff                	push   $0xffffffff
  302be2:	68 bd 00 00 00       	push   $0xbd
  302be7:	e9 9a 11 00 00       	jmp    303d86 <idt_common>
  302bec:	8d 74 26 00          	lea    0x0(%esi,%eiz,1),%esi
  302bf0:	6a ff                	push   $0xffffffff
  302bf2:	68 be 00 00 00       	push   $0xbe
  302bf7:	e9 8a 11 00 00       	jmp    303d86 <idt_common>
  302bfc:	8d 74 26 00          	lea    0x0(%esi,%eiz,1),%esi
  302c00:	6a ff                	push   $0xffffffff
  302c02:	68 bf 00 00 00       	push   $0xbf
  302c07:	e9 7a 11 00 00       	jmp    303d86 <idt_common>
  302c0c:	8d 74 26 00          	lea    0x0(%esi,%eiz,1),%esi
  302c10:	6a ff                	push   $0xffffffff
  302c12:	68 c0 00 00 00       	push   $0xc0
  302c17:	e9 6a 11 00 00       	jmp    303d86 <idt_common>
  302c1c:	8d 74 26 00          	lea    0x0(%esi,%eiz,1),%esi
  302c20:	6a ff                	push   $0xffffffff
  302c22:	68 c1 00 00 00       	push   $0xc1
  302c27:	e9 5a 11 00 00       	jmp    303d86 <idt_common>
  302c2c:	8d 74 26 00          	lea    0x0(%esi,%eiz,1),%esi
  302c30:	6a ff                	push   $0xffffffff
  302c32:	68 c2 00 00 00       	push   $0xc2
  302c37:	e9 4a 11 00 00       	jmp    303d86 <idt_common>
  302c3c:	8d 74 26 00          	lea    0x0(%esi,%eiz,1),%esi
  302c40:	6a ff                	push   $0xffffffff
  302c42:	68 c3 00 00 00       	push   $0xc3
  302c47:	e9 3a 11 00 00       	jmp    303d86 <idt_common>
  302c4c:	8d 74 26 00          	lea    0x0(%esi,%eiz,1),%esi
  302c50:	6a ff                	push   $0xffffffff
  302c52:	68 c4 00 00 00       	push   $0xc4
  302c57:	e9 2a 11 00 00       	jmp    303d86 <idt_common>
  302c5c:	8d 74 26 00          	lea    0x0(%esi,%eiz,1),%esi
  302c60:	6a ff                	push   $0xffffffff
  302c62:	68 c5 00 00 00       	push   $0xc5
  302c67:	e9 1a 11 00 00       	jmp    303d86 <idt_common>
  302c6c:	8d 74 26 00          	lea    0x0(%esi,%eiz,1),%esi
  302c70:	6a ff                	push   $0xffffffff
  302c72:	68 c6 00 00 00       	push   $0xc6
  302c77:	e9 0a 11 00 00       	jmp    303d86 <idt_common>
  302c7c:	8d 74 26 00          	lea    0x0(%esi,%eiz,1),%esi
  302c80:	6a ff                	push   $0xffffffff
  302c82:	68 c7 00 00 00       	push   $0xc7
  302c87:	e9 fa 10 00 00       	jmp    303d86 <idt_common>
  302c8c:	8d 74 26 00          	lea    0x0(%esi,%eiz,1),%esi
  302c90:	6a ff                	push   $0xffffffff
  302c92:	68 c8 00 00 00       	push   $0xc8
  302c97:	e9 ea 10 00 00       	jmp    303d86 <idt_common>
  302c9c:	8d 74 26 00          	lea    0x0(%esi,%eiz,1),%esi
  302ca0:	6a ff                	push   $0xffffffff
  302ca2:	68 c9 00 00 00       	push   $0xc9
  302ca7:	e9 da 10 00 00       	jmp    303d86 <idt_common>
  302cac:	8d 74 26 00          	lea    0x0(%esi,%eiz,1),%esi
  302cb0:	6a ff                	push   $0xffffffff
  302cb2:	68 ca 00 00 00       	push   $0xca
  302cb7:	e9 ca 10 00 00       	jmp    303d86 <idt_common>
  302cbc:	8d 74 26 00          	lea    0x0(%esi,%eiz,1),%esi
  302cc0:	6a ff                	push   $0xffffffff
  302cc2:	68 cb 00 00 00       	push   $0xcb
  302cc7:	e9 ba 10 00 00       	jmp    303d86 <idt_common>
  302ccc:	8d 74 26 00          	lea    0x0(%esi,%eiz,1),%esi
  302cd0:	6a ff                	push   $0xffffffff
  302cd2:	68 cc 00 00 00       	push   $0xcc
  302cd7:	e9 aa 10 00 00       	jmp    303d86 <idt_common>
  302cdc:	8d 74 26 00          	lea    0x0(%esi,%eiz,1),%esi
  302ce0:	6a ff                	push   $0xffffffff
  302ce2:	68 cd 00 00 00       	push   $0xcd
  302ce7:	e9 9a 10 00 00       	jmp    303d86 <idt_common>
  302cec:	8d 74 26 00          	lea    0x0(%esi,%eiz,1),%esi
  302cf0:	6a ff                	push   $0xffffffff
  302cf2:	68 ce 00 00 00       	push   $0xce
  302cf7:	e9 8a 10 00 00       	jmp    303d86 <idt_common>
  302cfc:	8d 74 26 00          	lea    0x0(%esi,%eiz,1),%esi
  302d00:	6a ff                	push   $0xffffffff
  302d02:	68 cf 00 00 00       	push   $0xcf
  302d07:	e9 7a 10 00 00       	jmp    303d86 <idt_common>
  302d0c:	8d 74 26 00          	lea    0x0(%esi,%eiz,1),%esi
  302d10:	6a ff                	push   $0xffffffff
  302d12:	68 d0 00 00 00       	push   $0xd0
  302d17:	e9 6a 10 00 00       	jmp    303d86 <idt_common>
  302d1c:	8d 74 26 00          	lea    0x0(%esi,%eiz,1),%esi
  302d20:	6a ff                	push   $0xffffffff
  302d22:	68 d1 00 00 00       	push   $0xd1
  302d27:	e9 5a 10 00 00       	jmp    303d86 <idt_common>
  302d2c:	8d 74 26 00          	lea    0x0(%esi,%eiz,1),%esi
  302d30:	6a ff                	push   $0xffffffff
  302d32:	68 d2 00 00 00       	push   $0xd2
  302d37:	e9 4a 10 00 00       	jmp    303d86 <idt_common>
  302d3c:	8d 74 26 00          	lea    0x0(%esi,%eiz,1),%esi
  302d40:	6a ff                	push   $0xffffffff
  302d42:	68 d3 00 00 00       	push   $0xd3
  302d47:	e9 3a 10 00 00       	jmp    303d86 <idt_common>
  302d4c:	8d 74 26 00          	lea    0x0(%esi,%eiz,1),%esi
  302d50:	6a ff                	push   $0xffffffff
  302d52:	68 d4 00 00 00       	push   $0xd4
  302d57:	e9 2a 10 00 00       	jmp    303d86 <idt_common>
  302d5c:	8d 74 26 00          	lea    0x0(%esi,%eiz,1),%esi
  302d60:	6a ff                	push   $0xffffffff
  302d62:	68 d5 00 00 00       	push   $0xd5
  302d67:	e9 1a 10 00 00       	jmp    303d86 <idt_common>
  302d6c:	8d 74 26 00          	lea    0x0(%esi,%eiz,1),%esi
  302d70:	6a ff                	push   $0xffffffff
  302d72:	68 d6 00 00 00       	push   $0xd6
  302d77:	e9 0a 10 00 00       	jmp    303d86 <idt_common>
  302d7c:	8d 74 26 00          	lea    0x0(%esi,%eiz,1),%esi
  302d80:	6a ff                	push   $0xffffffff
  302d82:	68 d7 00 00 00       	push   $0xd7
  302d87:	e9 fa 0f 00 00       	jmp    303d86 <idt_common>
  302d8c:	8d 74 26 00          	lea    0x0(%esi,%eiz,1),%esi
  302d90:	6a ff                	push   $0xffffffff
  302d92:	68 d8 00 00 00       	push   $0xd8
  302d97:	e9 ea 0f 00 00       	jmp    303d86 <idt_common>
  302d9c:	8d 74 26 00          	lea    0x0(%esi,%eiz,1),%esi
  302da0:	6a ff                	push   $0xffffffff
  302da2:	68 d9 00 00 00       	push   $0xd9
  302da7:	e9 da 0f 00 00       	jmp    303d86 <idt_common>
  302dac:	8d 74 26 00          	lea    0x0(%esi,%eiz,1),%esi
  302db0:	6a ff                	push   $0xffffffff
  302db2:	68 da 00 00 00       	push   $0xda
  302db7:	e9 ca 0f 00 00       	jmp    303d86 <idt_common>
  302dbc:	8d 74 26 00          	lea    0x0(%esi,%eiz,1),%esi
  302dc0:	6a ff                	push   $0xffffffff
  302dc2:	68 db 00 00 00       	push   $0xdb
  302dc7:	e9 ba 0f 00 00       	jmp    303d86 <idt_common>
  302dcc:	8d 74 26 00          	lea    0x0(%esi,%eiz,1),%esi
  302dd0:	6a ff                	push   $0xffffffff
  302dd2:	68 dc 00 00 00       	push   $0xdc
  302dd7:	e9 aa 0f 00 00       	jmp    303d86 <idt_common>
  302ddc:	8d 74 26 00          	lea    0x0(%esi,%eiz,1),%esi
  302de0:	6a ff                	push   $0xffffffff
  302de2:	68 dd 00 00 00       	push   $0xdd
  302de7:	e9 9a 0f 00 00       	jmp    303d86 <idt_common>
  302dec:	8d 74 26 00          	lea    0x0(%esi,%eiz,1),%esi
  302df0:	6a ff                	push   $0xffffffff
  302df2:	68 de 00 00 00       	push   $0xde
  302df7:	e9 8a 0f 00 00       	jmp    303d86 <idt_common>
  302dfc:	8d 74 26 00          	lea    0x0(%esi,%eiz,1),%esi
  302e00:	6a ff                	push   $0xffffffff
  302e02:	68 df 00 00 00       	push   $0xdf
  302e07:	e9 7a 0f 00 00       	jmp    303d86 <idt_common>
  302e0c:	8d 74 26 00          	lea    0x0(%esi,%eiz,1),%esi
  302e10:	6a ff                	push   $0xffffffff
  302e12:	68 e0 00 00 00       	push   $0xe0
  302e17:	e9 6a 0f 00 00       	jmp    303d86 <idt_common>
  302e1c:	8d 74 26 00          	lea    0x0(%esi,%eiz,1),%esi
  302e20:	6a ff                	push   $0xffffffff
  302e22:	68 e1 00 00 00       	push   $0xe1
  302e27:	e9 5a 0f 00 00       	jmp    303d86 <idt_common>
  302e2c:	8d 74 26 00          	lea    0x0(%esi,%eiz,1),%esi
  302e30:	6a ff                	push   $0xffffffff
  302e32:	68 e2 00 00 00       	push   $0xe2
  302e37:	e9 4a 0f 00 00       	jmp    303d86 <idt_common>
  302e3c:	8d 74 26 00          	lea    0x0(%esi,%eiz,1),%esi
  302e40:	6a ff                	push   $0xffffffff
  302e42:	68 e3 00 00 00       	push   $0xe3
  302e47:	e9 3a 0f 00 00       	jmp    303d86 <idt_common>
  302e4c:	8d 74 26 00          	lea    0x0(%esi,%eiz,1),%esi
  302e50:	6a ff                	push   $0xffffffff
  302e52:	68 e4 00 00 00       	push   $0xe4
  302e57:	e9 2a 0f 00 00       	jmp    303d86 <idt_common>
  302e5c:	8d 74 26 00          	lea    0x0(%esi,%eiz,1),%esi
  302e60:	6a ff                	push   $0xffffffff
  302e62:	68 e5 00 00 00       	push   $0xe5
  302e67:	e9 1a 0f 00 00       	jmp    303d86 <idt_common>
  302e6c:	8d 74 26 00          	lea    0x0(%esi,%eiz,1),%esi
  302e70:	6a ff                	push   $0xffffffff
  302e72:	68 e6 00 00 00       	push   $0xe6
  302e77:	e9 0a 0f 00 00       	jmp    303d86 <idt_common>
  302e7c:	8d 74 26 00          	lea    0x0(%esi,%eiz,1),%esi
  302e80:	6a ff                	push   $0xffffffff
  302e82:	68 e7 00 00 00       	push   $0xe7
  302e87:	e9 fa 0e 00 00       	jmp    303d86 <idt_common>
  302e8c:	8d 74 26 00          	lea    0x0(%esi,%eiz,1),%esi
  302e90:	6a ff                	push   $0xffffffff
  302e92:	68 e8 00 00 00       	push   $0xe8
  302e97:	e9 ea 0e 00 00       	jmp    303d86 <idt_common>
  302e9c:	8d 74 26 00          	lea    0x0(%esi,%eiz,1),%esi
  302ea0:	6a ff                	push   $0xffffffff
  302ea2:	68 e9 00 00 00       	push   $0xe9
  302ea7:	e9 da 0e 00 00       	jmp    303d86 <idt_common>
  302eac:	8d 74 26 00          	lea    0x0(%esi,%eiz,1),%esi
  302eb0:	6a ff                	push   $0xffffffff
  302eb2:	68 ea 00 00 00       	push   $0xea
  302eb7:	e9 ca 0e 00 00       	jmp    303d86 <idt_common>
  302ebc:	8d 74 26 00          	lea    0x0(%esi,%eiz,1),%esi
  302ec0:	6a ff                	push   $0xffffffff
  302ec2:	68 eb 00 00 00       	push   $0xeb
  302ec7:	e9 ba 0e 00 00       	jmp    303d86 <idt_common>
  302ecc:	8d 74 26 00          	lea    0x0(%esi,%eiz,1),%esi
  302ed0:	6a ff                	push   $0xffffffff
  302ed2:	68 ec 00 00 00       	push   $0xec
  302ed7:	e9 aa 0e 00 00       	jmp    303d86 <idt_common>
  302edc:	8d 74 26 00          	lea    0x0(%esi,%eiz,1),%esi
  302ee0:	6a ff                	push   $0xffffffff
  302ee2:	68 ed 00 00 00       	push   $0xed
  302ee7:	e9 9a 0e 00 00       	jmp    303d86 <idt_common>
  302eec:	8d 74 26 00          	lea    0x0(%esi,%eiz,1),%esi
  302ef0:	6a ff                	push   $0xffffffff
  302ef2:	68 ee 00 00 00       	push   $0xee
  302ef7:	e9 8a 0e 00 00       	jmp    303d86 <idt_common>
  302efc:	8d 74 26 00          	lea    0x0(%esi,%eiz,1),%esi
  302f00:	6a ff                	push   $0xffffffff
  302f02:	68 ef 00 00 00       	push   $0xef
  302f07:	e9 7a 0e 00 00       	jmp    303d86 <idt_common>
  302f0c:	8d 74 26 00          	lea    0x0(%esi,%eiz,1),%esi
  302f10:	6a ff                	push   $0xffffffff
  302f12:	68 f0 00 00 00       	push   $0xf0
  302f17:	e9 6a 0e 00 00       	jmp    303d86 <idt_common>
  302f1c:	8d 74 26 00          	lea    0x0(%esi,%eiz,1),%esi
  302f20:	6a ff                	push   $0xffffffff
  302f22:	68 f1 00 00 00       	push   $0xf1
  302f27:	e9 5a 0e 00 00       	jmp    303d86 <idt_common>
  302f2c:	8d 74 26 00          	lea    0x0(%esi,%eiz,1),%esi
  302f30:	6a ff                	push   $0xffffffff
  302f32:	68 f2 00 00 00       	push   $0xf2
  302f37:	e9 4a 0e 00 00       	jmp    303d86 <idt_common>
  302f3c:	8d 74 26 00          	lea    0x0(%esi,%eiz,1),%esi
  302f40:	6a ff                	push   $0xffffffff
  302f42:	68 f3 00 00 00       	push   $0xf3
  302f47:	e9 3a 0e 00 00       	jmp    303d86 <idt_common>
  302f4c:	8d 74 26 00          	lea    0x0(%esi,%eiz,1),%esi
  302f50:	6a ff                	push   $0xffffffff
  302f52:	68 f4 00 00 00       	push   $0xf4
  302f57:	e9 2a 0e 00 00       	jmp    303d86 <idt_common>
  302f5c:	8d 74 26 00          	lea    0x0(%esi,%eiz,1),%esi
  302f60:	6a ff                	push   $0xffffffff
  302f62:	68 f5 00 00 00       	push   $0xf5
  302f67:	e9 1a 0e 00 00       	jmp    303d86 <idt_common>
  302f6c:	8d 74 26 00          	lea    0x0(%esi,%eiz,1),%esi
  302f70:	6a ff                	push   $0xffffffff
  302f72:	68 f6 00 00 00       	push   $0xf6
  302f77:	e9 0a 0e 00 00       	jmp    303d86 <idt_common>
  302f7c:	8d 74 26 00          	lea    0x0(%esi,%eiz,1),%esi
  302f80:	6a ff                	push   $0xffffffff
  302f82:	68 f7 00 00 00       	push   $0xf7
  302f87:	e9 fa 0d 00 00       	jmp    303d86 <idt_common>
  302f8c:	8d 74 26 00          	lea    0x0(%esi,%eiz,1),%esi
  302f90:	6a ff                	push   $0xffffffff
  302f92:	68 f8 00 00 00       	push   $0xf8
  302f97:	e9 ea 0d 00 00       	jmp    303d86 <idt_common>
  302f9c:	8d 74 26 00          	lea    0x0(%esi,%eiz,1),%esi
  302fa0:	6a ff                	push   $0xffffffff
  302fa2:	68 f9 00 00 00       	push   $0xf9
  302fa7:	e9 da 0d 00 00       	jmp    303d86 <idt_common>
  302fac:	8d 74 26 00          	lea    0x0(%esi,%eiz,1),%esi
  302fb0:	6a ff                	push   $0xffffffff
  302fb2:	68 fa 00 00 00       	push   $0xfa
  302fb7:	e9 ca 0d 00 00       	jmp    303d86 <idt_common>
  302fbc:	8d 74 26 00          	lea    0x0(%esi,%eiz,1),%esi
  302fc0:	6a ff                	push   $0xffffffff
  302fc2:	68 fb 00 00 00       	push   $0xfb
  302fc7:	e9 ba 0d 00 00       	jmp    303d86 <idt_common>
  302fcc:	8d 74 26 00          	lea    0x0(%esi,%eiz,1),%esi
  302fd0:	6a ff                	push   $0xffffffff
  302fd2:	68 fc 00 00 00       	push   $0xfc
  302fd7:	e9 aa 0d 00 00       	jmp    303d86 <idt_common>
  302fdc:	8d 74 26 00          	lea    0x0(%esi,%eiz,1),%esi
  302fe0:	6a ff                	push   $0xffffffff
  302fe2:	68 fd 00 00 00       	push   $0xfd
  302fe7:	e9 9a 0d 00 00       	jmp    303d86 <idt_common>
  302fec:	8d 74 26 00          	lea    0x0(%esi,%eiz,1),%esi
  302ff0:	6a ff                	push   $0xffffffff
  302ff2:	68 fe 00 00 00       	push   $0xfe
  302ff7:	e9 8a 0d 00 00       	jmp    303d86 <idt_common>
  302ffc:	8d 74 26 00          	lea    0x0(%esi,%eiz,1),%esi
  303000:	6a ff                	push   $0xffffffff
  303002:	68 ff 00 00 00       	push   $0xff
  303007:	e9 7a 0d 00 00       	jmp    303d86 <idt_common>

Déassemblage de la section .text :

00303010 <entry>:
  303010:	fa                   	cli
  303011:	bc 10 20 30 00       	mov    $0x302010,%esp
  303016:	6a 00                	push   $0x0
  303018:	9d                   	popf
  303019:	89 d8                	mov    %ebx,%eax
  30301b:	e8 03 00 00 00       	call   303023 <start>

00303020 <halt>:
  303020:	f4                   	hlt
  303021:	eb fd                	jmp    303020 <halt>

00303023 <start>:
  303023:	55                   	push   %ebp
  303024:	89 e5                	mov    %esp,%ebp
  303026:	83 ec 18             	sub    $0x18,%esp
  303029:	89 45 f4             	mov    %eax,-0xc(%ebp)
  30302c:	a1 00 49 30 00       	mov    0x304900,%eax
  303031:	8b 55 f4             	mov    -0xc(%ebp),%edx
  303034:	89 10                	mov    %edx,(%eax)
  303036:	e8 09 0b 00 00       	call   303b44 <pic_init>
  30303b:	e8 8a 09 00 00       	call   3039ca <uart_init>
  303040:	e8 87 0b 00 00       	call   303bcc <intr_init>
  303045:	83 ec 0c             	sub    $0xc,%esp
  303048:	68 90 45 30 00       	push   $0x304590
  30304d:	e8 7e 00 00 00       	call   3030d0 <printf>
  303052:	83 c4 10             	add    $0x10,%esp
  303055:	e8 37 0f 00 00       	call   303f91 <tp>
  30305a:	83 ec 0c             	sub    $0xc,%esp
  30305d:	68 b3 45 30 00       	push   $0x3045b3
  303062:	e8 41 00 00 00       	call   3030a8 <panic>
  303067:	83 c4 10             	add    $0x10,%esp
  30306a:	90                   	nop
  30306b:	c9                   	leave
  30306c:	c3                   	ret

0030306d <__buf_add>:
  30306d:	55                   	push   %ebp
  30306e:	89 e5                	mov    %esp,%ebp
  303070:	53                   	push   %ebx
  303071:	83 ec 04             	sub    $0x4,%esp
  303074:	8b 45 10             	mov    0x10(%ebp),%eax
  303077:	88 45 f8             	mov    %al,-0x8(%ebp)
  30307a:	8b 45 08             	mov    0x8(%ebp),%eax
  30307d:	8b 40 08             	mov    0x8(%eax),%eax
  303080:	3b 45 0c             	cmp    0xc(%ebp),%eax
  303083:	73 1d                	jae    3030a2 <__buf_add+0x35>
  303085:	8b 45 08             	mov    0x8(%ebp),%eax
  303088:	8b 18                	mov    (%eax),%ebx
  30308a:	8b 45 08             	mov    0x8(%ebp),%eax
  30308d:	8b 40 08             	mov    0x8(%eax),%eax
  303090:	8d 48 01             	lea    0x1(%eax),%ecx
  303093:	8b 55 08             	mov    0x8(%ebp),%edx
  303096:	89 4a 08             	mov    %ecx,0x8(%edx)
  303099:	8d 14 03             	lea    (%ebx,%eax,1),%edx
  30309c:	0f b6 45 f8          	movzbl -0x8(%ebp),%eax
  3030a0:	88 02                	mov    %al,(%edx)
  3030a2:	90                   	nop
  3030a3:	8b 5d fc             	mov    -0x4(%ebp),%ebx
  3030a6:	c9                   	leave
  3030a7:	c3                   	ret

003030a8 <panic>:
  3030a8:	55                   	push   %ebp
  3030a9:	89 e5                	mov    %esp,%ebp
  3030ab:	83 ec 18             	sub    $0x18,%esp
  3030ae:	fa                   	cli
  3030af:	8d 45 0c             	lea    0xc(%ebp),%eax
  3030b2:	89 45 f4             	mov    %eax,-0xc(%ebp)
  3030b5:	8b 45 f4             	mov    -0xc(%ebp),%eax
  3030b8:	83 ec 08             	sub    $0x8,%esp
  3030bb:	50                   	push   %eax
  3030bc:	ff 75 08             	push   0x8(%ebp)
  3030bf:	e8 5b 00 00 00       	call   30311f <__vprintf>
  3030c4:	83 c4 10             	add    $0x10,%esp
  3030c7:	e8 37 0a 00 00       	call   303b03 <uart_flush>
  3030cc:	fa                   	cli
  3030cd:	f4                   	hlt
  3030ce:	eb fc                	jmp    3030cc <panic+0x24>

003030d0 <printf>:
  3030d0:	55                   	push   %ebp
  3030d1:	89 e5                	mov    %esp,%ebp
  3030d3:	83 ec 18             	sub    $0x18,%esp
  3030d6:	8d 45 0c             	lea    0xc(%ebp),%eax
  3030d9:	89 45 f0             	mov    %eax,-0x10(%ebp)
  3030dc:	8b 45 f0             	mov    -0x10(%ebp),%eax
  3030df:	83 ec 08             	sub    $0x8,%esp
  3030e2:	50                   	push   %eax
  3030e3:	ff 75 08             	push   0x8(%ebp)
  3030e6:	e8 34 00 00 00       	call   30311f <__vprintf>
  3030eb:	83 c4 10             	add    $0x10,%esp
  3030ee:	89 45 f4             	mov    %eax,-0xc(%ebp)
  3030f1:	8b 45 f4             	mov    -0xc(%ebp),%eax
  3030f4:	c9                   	leave
  3030f5:	c3                   	ret

003030f6 <snprintf>:
  3030f6:	55                   	push   %ebp
  3030f7:	89 e5                	mov    %esp,%ebp
  3030f9:	83 ec 18             	sub    $0x18,%esp
  3030fc:	8d 45 14             	lea    0x14(%ebp),%eax
  3030ff:	89 45 f0             	mov    %eax,-0x10(%ebp)
  303102:	8b 45 f0             	mov    -0x10(%ebp),%eax
  303105:	50                   	push   %eax
  303106:	ff 75 10             	push   0x10(%ebp)
  303109:	ff 75 0c             	push   0xc(%ebp)
  30310c:	ff 75 08             	push   0x8(%ebp)
  30310f:	e8 88 03 00 00       	call   30349c <__vsnprintf>
  303114:	83 c4 10             	add    $0x10,%esp
  303117:	89 45 f4             	mov    %eax,-0xc(%ebp)
  30311a:	8b 45 f4             	mov    -0xc(%ebp),%eax
  30311d:	c9                   	leave
  30311e:	c3                   	ret

0030311f <__vprintf>:
  30311f:	55                   	push   %ebp
  303120:	89 e5                	mov    %esp,%ebp
  303122:	83 ec 18             	sub    $0x18,%esp
  303125:	ff 75 0c             	push   0xc(%ebp)
  303128:	ff 75 08             	push   0x8(%ebp)
  30312b:	68 00 04 00 00       	push   $0x400
  303130:	68 a0 49 30 00       	push   $0x3049a0
  303135:	e8 62 03 00 00       	call   30349c <__vsnprintf>
  30313a:	83 c4 10             	add    $0x10,%esp
  30313d:	89 45 f4             	mov    %eax,-0xc(%ebp)
  303140:	8b 45 f4             	mov    -0xc(%ebp),%eax
  303143:	83 e8 01             	sub    $0x1,%eax
  303146:	83 ec 08             	sub    $0x8,%esp
  303149:	50                   	push   %eax
  30314a:	68 a0 49 30 00       	push   $0x3049a0
  30314f:	e8 83 09 00 00       	call   303ad7 <uart_write>
  303154:	83 c4 10             	add    $0x10,%esp
  303157:	8b 45 f4             	mov    -0xc(%ebp),%eax
  30315a:	c9                   	leave
  30315b:	c3                   	ret

0030315c <__format_add_str>:
  30315c:	55                   	push   %ebp
  30315d:	89 e5                	mov    %esp,%ebp
  30315f:	eb 1e                	jmp    30317f <__format_add_str+0x23>
  303161:	8b 45 10             	mov    0x10(%ebp),%eax
  303164:	8d 50 01             	lea    0x1(%eax),%edx
  303167:	89 55 10             	mov    %edx,0x10(%ebp)
  30316a:	0f b6 00             	movzbl (%eax),%eax
  30316d:	0f be c0             	movsbl %al,%eax
  303170:	50                   	push   %eax
  303171:	ff 75 0c             	push   0xc(%ebp)
  303174:	ff 75 08             	push   0x8(%ebp)
  303177:	e8 f1 fe ff ff       	call   30306d <__buf_add>
  30317c:	83 c4 0c             	add    $0xc,%esp
  30317f:	8b 45 10             	mov    0x10(%ebp),%eax
  303182:	0f b6 00             	movzbl (%eax),%eax
  303185:	84 c0                	test   %al,%al
  303187:	75 d8                	jne    303161 <__format_add_str+0x5>
  303189:	90                   	nop
  30318a:	90                   	nop
  30318b:	c9                   	leave
  30318c:	c3                   	ret

0030318d <__format_add_chr>:
  30318d:	55                   	push   %ebp
  30318e:	89 e5                	mov    %esp,%ebp
  303190:	8b 45 10             	mov    0x10(%ebp),%eax
  303193:	0f be c0             	movsbl %al,%eax
  303196:	50                   	push   %eax
  303197:	ff 75 0c             	push   0xc(%ebp)
  30319a:	ff 75 08             	push   0x8(%ebp)
  30319d:	e8 cb fe ff ff       	call   30306d <__buf_add>
  3031a2:	83 c4 0c             	add    $0xc,%esp
  3031a5:	90                   	nop
  3031a6:	c9                   	leave
  3031a7:	c3                   	ret

003031a8 <__format_add_bin>:
  3031a8:	55                   	push   %ebp
  3031a9:	89 e5                	mov    %esp,%ebp
  3031ab:	83 ec 18             	sub    $0x18,%esp
  3031ae:	8b 45 10             	mov    0x10(%ebp),%eax
  3031b1:	89 45 e8             	mov    %eax,-0x18(%ebp)
  3031b4:	8b 45 14             	mov    0x14(%ebp),%eax
  3031b7:	89 45 ec             	mov    %eax,-0x14(%ebp)
  3031ba:	c7 45 fc 00 00 00 00 	movl   $0x0,-0x4(%ebp)
  3031c1:	eb 48                	jmp    30320b <__format_add_bin+0x63>
  3031c3:	8b 45 18             	mov    0x18(%ebp),%eax
  3031c6:	2b 45 fc             	sub    -0x4(%ebp),%eax
  3031c9:	8d 48 ff             	lea    -0x1(%eax),%ecx
  3031cc:	8b 45 e8             	mov    -0x18(%ebp),%eax
  3031cf:	8b 55 ec             	mov    -0x14(%ebp),%edx
  3031d2:	0f ad d0             	shrd   %cl,%edx,%eax
  3031d5:	d3 ea                	shr    %cl,%edx
  3031d7:	f6 c1 20             	test   $0x20,%cl
  3031da:	74 04                	je     3031e0 <__format_add_bin+0x38>
  3031dc:	89 d0                	mov    %edx,%eax
  3031de:	31 d2                	xor    %edx,%edx
  3031e0:	83 e0 01             	and    $0x1,%eax
  3031e3:	89 45 f8             	mov    %eax,-0x8(%ebp)
  3031e6:	83 7d f8 00          	cmpl   $0x0,-0x8(%ebp)
  3031ea:	74 07                	je     3031f3 <__format_add_bin+0x4b>
  3031ec:	b8 31 00 00 00       	mov    $0x31,%eax
  3031f1:	eb 05                	jmp    3031f8 <__format_add_bin+0x50>
  3031f3:	b8 30 00 00 00       	mov    $0x30,%eax
  3031f8:	50                   	push   %eax
  3031f9:	ff 75 0c             	push   0xc(%ebp)
  3031fc:	ff 75 08             	push   0x8(%ebp)
  3031ff:	e8 69 fe ff ff       	call   30306d <__buf_add>
  303204:	83 c4 0c             	add    $0xc,%esp
  303207:	83 45 fc 01          	addl   $0x1,-0x4(%ebp)
  30320b:	8b 45 fc             	mov    -0x4(%ebp),%eax
  30320e:	3b 45 18             	cmp    0x18(%ebp),%eax
  303211:	72 b0                	jb     3031c3 <__format_add_bin+0x1b>
  303213:	90                   	nop
  303214:	90                   	nop
  303215:	c9                   	leave
  303216:	c3                   	ret

00303217 <__format_add_idec>:
  303217:	55                   	push   %ebp
  303218:	89 e5                	mov    %esp,%ebp
  30321a:	53                   	push   %ebx
  30321b:	83 ec 44             	sub    $0x44,%esp
  30321e:	8b 45 10             	mov    0x10(%ebp),%eax
  303221:	89 45 c0             	mov    %eax,-0x40(%ebp)
  303224:	8b 45 14             	mov    0x14(%ebp),%eax
  303227:	89 45 c4             	mov    %eax,-0x3c(%ebp)
  30322a:	8b 45 c0             	mov    -0x40(%ebp),%eax
  30322d:	0b 45 c4             	or     -0x3c(%ebp),%eax
  303230:	75 15                	jne    303247 <__format_add_idec+0x30>
  303232:	6a 30                	push   $0x30
  303234:	ff 75 0c             	push   0xc(%ebp)
  303237:	ff 75 08             	push   0x8(%ebp)
  30323a:	e8 2e fe ff ff       	call   30306d <__buf_add>
  30323f:	83 c4 0c             	add    $0xc,%esp
  303242:	e9 a9 00 00 00       	jmp    3032f0 <__format_add_idec+0xd9>
  303247:	8d 45 e0             	lea    -0x20(%ebp),%eax
  30324a:	89 45 d4             	mov    %eax,-0x2c(%ebp)
  30324d:	c7 45 dc 00 00 00 00 	movl   $0x0,-0x24(%ebp)
  303254:	83 7d c4 00          	cmpl   $0x0,-0x3c(%ebp)
  303258:	79 5f                	jns    3032b9 <__format_add_idec+0xa2>
  30325a:	6a 2d                	push   $0x2d
  30325c:	ff 75 0c             	push   0xc(%ebp)
  30325f:	ff 75 08             	push   0x8(%ebp)
  303262:	e8 06 fe ff ff       	call   30306d <__buf_add>
  303267:	83 c4 0c             	add    $0xc,%esp
  30326a:	f7 5d c0             	negl   -0x40(%ebp)
  30326d:	83 55 c4 00          	adcl   $0x0,-0x3c(%ebp)
  303271:	f7 5d c4             	negl   -0x3c(%ebp)
  303274:	eb 43                	jmp    3032b9 <__format_add_idec+0xa2>
  303276:	8b 45 c0             	mov    -0x40(%ebp),%eax
  303279:	8b 55 c4             	mov    -0x3c(%ebp),%edx
  30327c:	6a 00                	push   $0x0
  30327e:	6a 0a                	push   $0xa
  303280:	52                   	push   %edx
  303281:	50                   	push   %eax
  303282:	e8 09 0f 00 00       	call   304190 <__moddi3>
  303287:	83 c4 10             	add    $0x10,%esp
  30328a:	8d 58 30             	lea    0x30(%eax),%ebx
  30328d:	8b 4d d4             	mov    -0x2c(%ebp),%ecx
  303290:	8b 45 dc             	mov    -0x24(%ebp),%eax
  303293:	8d 50 01             	lea    0x1(%eax),%edx
  303296:	89 55 dc             	mov    %edx,-0x24(%ebp)
  303299:	01 c8                	add    %ecx,%eax
  30329b:	89 da                	mov    %ebx,%edx
  30329d:	88 10                	mov    %dl,(%eax)
  30329f:	8b 45 c0             	mov    -0x40(%ebp),%eax
  3032a2:	8b 55 c4             	mov    -0x3c(%ebp),%edx
  3032a5:	6a 00                	push   $0x0
  3032a7:	6a 0a                	push   $0xa
  3032a9:	52                   	push   %edx
  3032aa:	50                   	push   %eax
  3032ab:	e8 a0 0d 00 00       	call   304050 <__divdi3>
  3032b0:	83 c4 10             	add    $0x10,%esp
  3032b3:	89 45 c0             	mov    %eax,-0x40(%ebp)
  3032b6:	89 55 c4             	mov    %edx,-0x3c(%ebp)
  3032b9:	8b 45 c0             	mov    -0x40(%ebp),%eax
  3032bc:	0b 45 c4             	or     -0x3c(%ebp),%eax
  3032bf:	75 b5                	jne    303276 <__format_add_idec+0x5f>
  3032c1:	eb 20                	jmp    3032e3 <__format_add_idec+0xcc>
  3032c3:	8b 55 d4             	mov    -0x2c(%ebp),%edx
  3032c6:	8b 45 dc             	mov    -0x24(%ebp),%eax
  3032c9:	01 d0                	add    %edx,%eax
  3032cb:	0f b6 00             	movzbl (%eax),%eax
  3032ce:	0f be c0             	movsbl %al,%eax
  3032d1:	83 ec 04             	sub    $0x4,%esp
  3032d4:	50                   	push   %eax
  3032d5:	ff 75 0c             	push   0xc(%ebp)
  3032d8:	ff 75 08             	push   0x8(%ebp)
  3032db:	e8 8d fd ff ff       	call   30306d <__buf_add>
  3032e0:	83 c4 10             	add    $0x10,%esp
  3032e3:	8b 45 dc             	mov    -0x24(%ebp),%eax
  3032e6:	8d 50 ff             	lea    -0x1(%eax),%edx
  3032e9:	89 55 dc             	mov    %edx,-0x24(%ebp)
  3032ec:	85 c0                	test   %eax,%eax
  3032ee:	75 d3                	jne    3032c3 <__format_add_idec+0xac>
  3032f0:	8b 5d fc             	mov    -0x4(%ebp),%ebx
  3032f3:	c9                   	leave
  3032f4:	c3                   	ret

003032f5 <__format_add_udec>:
  3032f5:	55                   	push   %ebp
  3032f6:	89 e5                	mov    %esp,%ebp
  3032f8:	53                   	push   %ebx
  3032f9:	83 ec 44             	sub    $0x44,%esp
  3032fc:	8b 45 10             	mov    0x10(%ebp),%eax
  3032ff:	89 45 c0             	mov    %eax,-0x40(%ebp)
  303302:	8b 45 14             	mov    0x14(%ebp),%eax
  303305:	89 45 c4             	mov    %eax,-0x3c(%ebp)
  303308:	8b 45 c0             	mov    -0x40(%ebp),%eax
  30330b:	0b 45 c4             	or     -0x3c(%ebp),%eax
  30330e:	75 15                	jne    303325 <__format_add_udec+0x30>
  303310:	6a 30                	push   $0x30
  303312:	ff 75 0c             	push   0xc(%ebp)
  303315:	ff 75 08             	push   0x8(%ebp)
  303318:	e8 50 fd ff ff       	call   30306d <__buf_add>
  30331d:	83 c4 0c             	add    $0xc,%esp
  303320:	e9 89 00 00 00       	jmp    3033ae <__format_add_udec+0xb9>
  303325:	8d 45 e0             	lea    -0x20(%ebp),%eax
  303328:	89 45 d4             	mov    %eax,-0x2c(%ebp)
  30332b:	c7 45 dc 00 00 00 00 	movl   $0x0,-0x24(%ebp)
  303332:	eb 43                	jmp    303377 <__format_add_udec+0x82>
  303334:	8b 45 c0             	mov    -0x40(%ebp),%eax
  303337:	8b 55 c4             	mov    -0x3c(%ebp),%edx
  30333a:	6a 00                	push   $0x0
  30333c:	6a 0a                	push   $0xa
  30333e:	52                   	push   %edx
  30333f:	50                   	push   %eax
  303340:	e8 0b 11 00 00       	call   304450 <__umoddi3>
  303345:	83 c4 10             	add    $0x10,%esp
  303348:	8d 58 30             	lea    0x30(%eax),%ebx
  30334b:	8b 4d d4             	mov    -0x2c(%ebp),%ecx
  30334e:	8b 45 dc             	mov    -0x24(%ebp),%eax
  303351:	8d 50 01             	lea    0x1(%eax),%edx
  303354:	89 55 dc             	mov    %edx,-0x24(%ebp)
  303357:	01 c8                	add    %ecx,%eax
  303359:	89 da                	mov    %ebx,%edx
  30335b:	88 10                	mov    %dl,(%eax)
  30335d:	8b 45 c0             	mov    -0x40(%ebp),%eax
  303360:	8b 55 c4             	mov    -0x3c(%ebp),%edx
  303363:	6a 00                	push   $0x0
  303365:	6a 0a                	push   $0xa
  303367:	52                   	push   %edx
  303368:	50                   	push   %eax
  303369:	e8 c2 0f 00 00       	call   304330 <__udivdi3>
  30336e:	83 c4 10             	add    $0x10,%esp
  303371:	89 45 c0             	mov    %eax,-0x40(%ebp)
  303374:	89 55 c4             	mov    %edx,-0x3c(%ebp)
  303377:	8b 45 c0             	mov    -0x40(%ebp),%eax
  30337a:	0b 45 c4             	or     -0x3c(%ebp),%eax
  30337d:	75 b5                	jne    303334 <__format_add_udec+0x3f>
  30337f:	eb 20                	jmp    3033a1 <__format_add_udec+0xac>
  303381:	8b 55 d4             	mov    -0x2c(%ebp),%edx
  303384:	8b 45 dc             	mov    -0x24(%ebp),%eax
  303387:	01 d0                	add    %edx,%eax
  303389:	0f b6 00             	movzbl (%eax),%eax
  30338c:	0f be c0             	movsbl %al,%eax
  30338f:	83 ec 04             	sub    $0x4,%esp
  303392:	50                   	push   %eax
  303393:	ff 75 0c             	push   0xc(%ebp)
  303396:	ff 75 08             	push   0x8(%ebp)
  303399:	e8 cf fc ff ff       	call   30306d <__buf_add>
  30339e:	83 c4 10             	add    $0x10,%esp
  3033a1:	8b 45 dc             	mov    -0x24(%ebp),%eax
  3033a4:	8d 50 ff             	lea    -0x1(%eax),%edx
  3033a7:	89 55 dc             	mov    %edx,-0x24(%ebp)
  3033aa:	85 c0                	test   %eax,%eax
  3033ac:	75 d3                	jne    303381 <__format_add_udec+0x8c>
  3033ae:	8b 5d fc             	mov    -0x4(%ebp),%ebx
  3033b1:	c9                   	leave
  3033b2:	c3                   	ret

003033b3 <uint64_to_hex>:
  3033b3:	55                   	push   %ebp
  3033b4:	89 e5                	mov    %esp,%ebp
  3033b6:	83 ec 28             	sub    $0x28,%esp
  3033b9:	8b 45 10             	mov    0x10(%ebp),%eax
  3033bc:	89 45 d8             	mov    %eax,-0x28(%ebp)
  3033bf:	8b 45 14             	mov    0x14(%ebp),%eax
  3033c2:	89 45 dc             	mov    %eax,-0x24(%ebp)
  3033c5:	c7 45 fc 00 00 00 00 	movl   $0x0,-0x4(%ebp)
  3033cc:	83 7d 18 00          	cmpl   $0x0,0x18(%ebp)
  3033d0:	74 06                	je     3033d8 <uint64_to_hex+0x25>
  3033d2:	83 7d 18 10          	cmpl   $0x10,0x18(%ebp)
  3033d6:	76 44                	jbe    30341c <uint64_to_hex+0x69>
  3033d8:	c7 45 18 ff ff ff ff 	movl   $0xffffffff,0x18(%ebp)
  3033df:	eb 3b                	jmp    30341c <uint64_to_hex+0x69>
  3033e1:	8b 45 d8             	mov    -0x28(%ebp),%eax
  3033e4:	8b 55 dc             	mov    -0x24(%ebp),%edx
  3033e7:	83 e0 0f             	and    $0xf,%eax
  3033ea:	ba 00 00 00 00       	mov    $0x0,%edx
  3033ef:	05 04 49 30 00       	add    $0x304904,%eax
  3033f4:	0f b6 00             	movzbl (%eax),%eax
  3033f7:	8d 4d e8             	lea    -0x18(%ebp),%ecx
  3033fa:	8b 55 fc             	mov    -0x4(%ebp),%edx
  3033fd:	01 ca                	add    %ecx,%edx
  3033ff:	88 02                	mov    %al,(%edx)
  303401:	8b 45 d8             	mov    -0x28(%ebp),%eax
  303404:	8b 55 dc             	mov    -0x24(%ebp),%edx
  303407:	0f ac d0 04          	shrd   $0x4,%edx,%eax
  30340b:	c1 ea 04             	shr    $0x4,%edx
  30340e:	89 45 d8             	mov    %eax,-0x28(%ebp)
  303411:	89 55 dc             	mov    %edx,-0x24(%ebp)
  303414:	83 45 fc 01          	addl   $0x1,-0x4(%ebp)
  303418:	83 6d 18 01          	subl   $0x1,0x18(%ebp)
  30341c:	83 7d 18 00          	cmpl   $0x0,0x18(%ebp)
  303420:	74 14                	je     303436 <uint64_to_hex+0x83>
  303422:	83 7d 18 10          	cmpl   $0x10,0x18(%ebp)
  303426:	76 b9                	jbe    3033e1 <uint64_to_hex+0x2e>
  303428:	8b 45 d8             	mov    -0x28(%ebp),%eax
  30342b:	0b 45 dc             	or     -0x24(%ebp),%eax
  30342e:	75 b1                	jne    3033e1 <uint64_to_hex+0x2e>
  303430:	83 7d fc 00          	cmpl   $0x0,-0x4(%ebp)
  303434:	74 ab                	je     3033e1 <uint64_to_hex+0x2e>
  303436:	8b 45 fc             	mov    -0x4(%ebp),%eax
  303439:	89 45 f8             	mov    %eax,-0x8(%ebp)
  30343c:	eb 1d                	jmp    30345b <uint64_to_hex+0xa8>
  30343e:	8d 55 e8             	lea    -0x18(%ebp),%edx
  303441:	8b 45 fc             	mov    -0x4(%ebp),%eax
  303444:	01 d0                	add    %edx,%eax
  303446:	0f b6 00             	movzbl (%eax),%eax
  303449:	0f be c0             	movsbl %al,%eax
  30344c:	50                   	push   %eax
  30344d:	ff 75 0c             	push   0xc(%ebp)
  303450:	ff 75 08             	push   0x8(%ebp)
  303453:	e8 15 fc ff ff       	call   30306d <__buf_add>
  303458:	83 c4 0c             	add    $0xc,%esp
  30345b:	8b 45 fc             	mov    -0x4(%ebp),%eax
  30345e:	8d 50 ff             	lea    -0x1(%eax),%edx
  303461:	89 55 fc             	mov    %edx,-0x4(%ebp)
  303464:	85 c0                	test   %eax,%eax
  303466:	75 d6                	jne    30343e <uint64_to_hex+0x8b>
  303468:	8b 45 f8             	mov    -0x8(%ebp),%eax
  30346b:	c9                   	leave
  30346c:	c3                   	ret

0030346d <__format_add_hex>:
  30346d:	55                   	push   %ebp
  30346e:	89 e5                	mov    %esp,%ebp
  303470:	83 ec 08             	sub    $0x8,%esp
  303473:	8b 45 10             	mov    0x10(%ebp),%eax
  303476:	89 45 f8             	mov    %eax,-0x8(%ebp)
  303479:	8b 45 14             	mov    0x14(%ebp),%eax
  30347c:	89 45 fc             	mov    %eax,-0x4(%ebp)
  30347f:	83 ec 04             	sub    $0x4,%esp
  303482:	ff 75 18             	push   0x18(%ebp)
  303485:	ff 75 fc             	push   -0x4(%ebp)
  303488:	ff 75 f8             	push   -0x8(%ebp)
  30348b:	ff 75 0c             	push   0xc(%ebp)
  30348e:	ff 75 08             	push   0x8(%ebp)
  303491:	e8 1d ff ff ff       	call   3033b3 <uint64_to_hex>
  303496:	83 c4 18             	add    $0x18,%esp
  303499:	90                   	nop
  30349a:	c9                   	leave
  30349b:	c3                   	ret

0030349c <__vsnprintf>:
  30349c:	55                   	push   %ebp
  30349d:	89 e5                	mov    %esp,%ebp
  30349f:	83 ec 78             	sub    $0x78,%esp
  3034a2:	8b 45 08             	mov    0x8(%ebp),%eax
  3034a5:	89 45 94             	mov    %eax,-0x6c(%ebp)
  3034a8:	c7 45 9c 00 00 00 00 	movl   $0x0,-0x64(%ebp)
  3034af:	c7 45 f0 00 00 00 00 	movl   $0x0,-0x10(%ebp)
  3034b6:	c7 45 ec 00 00 00 00 	movl   $0x0,-0x14(%ebp)
  3034bd:	c7 45 f4 04 00 00 00 	movl   $0x4,-0xc(%ebp)
  3034c4:	83 7d 0c 00          	cmpl   $0x0,0xc(%ebp)
  3034c8:	0f 84 ad 03 00 00    	je     30387b <__vsnprintf+0x3df>
  3034ce:	83 6d 0c 01          	subl   $0x1,0xc(%ebp)
  3034d2:	e9 a4 03 00 00       	jmp    30387b <__vsnprintf+0x3df>
  3034d7:	8b 45 10             	mov    0x10(%ebp),%eax
  3034da:	8d 50 01             	lea    0x1(%eax),%edx
  3034dd:	89 55 10             	mov    %edx,0x10(%ebp)
  3034e0:	0f b6 00             	movzbl (%eax),%eax
  3034e3:	88 45 d7             	mov    %al,-0x29(%ebp)
  3034e6:	83 7d f0 00          	cmpl   $0x0,-0x10(%ebp)
  3034ea:	0f 84 5b 03 00 00    	je     30384b <__vsnprintf+0x3af>
  3034f0:	80 7d d7 6c          	cmpb   $0x6c,-0x29(%ebp)
  3034f4:	75 1e                	jne    303514 <__vsnprintf+0x78>
  3034f6:	83 7d ec 00          	cmpl   $0x0,-0x14(%ebp)
  3034fa:	74 0c                	je     303508 <__vsnprintf+0x6c>
  3034fc:	c7 45 f4 08 00 00 00 	movl   $0x8,-0xc(%ebp)
  303503:	e9 73 03 00 00       	jmp    30387b <__vsnprintf+0x3df>
  303508:	c7 45 ec 01 00 00 00 	movl   $0x1,-0x14(%ebp)
  30350f:	e9 67 03 00 00       	jmp    30387b <__vsnprintf+0x3df>
  303514:	80 7d d7 68          	cmpb   $0x68,-0x29(%ebp)
  303518:	75 0d                	jne    303527 <__vsnprintf+0x8b>
  30351a:	8b 45 f4             	mov    -0xc(%ebp),%eax
  30351d:	d1 e8                	shr    $1,%eax
  30351f:	89 45 f4             	mov    %eax,-0xc(%ebp)
  303522:	e9 54 03 00 00       	jmp    30387b <__vsnprintf+0x3df>
  303527:	80 7d d7 73          	cmpb   $0x73,-0x29(%ebp)
  30352b:	75 25                	jne    303552 <__vsnprintf+0xb6>
  30352d:	8b 45 14             	mov    0x14(%ebp),%eax
  303530:	8d 50 04             	lea    0x4(%eax),%edx
  303533:	89 55 14             	mov    %edx,0x14(%ebp)
  303536:	8b 00                	mov    (%eax),%eax
  303538:	89 45 a0             	mov    %eax,-0x60(%ebp)
  30353b:	ff 75 a0             	push   -0x60(%ebp)
  30353e:	ff 75 0c             	push   0xc(%ebp)
  303541:	8d 45 94             	lea    -0x6c(%ebp),%eax
  303544:	50                   	push   %eax
  303545:	e8 12 fc ff ff       	call   30315c <__format_add_str>
  30354a:	83 c4 0c             	add    $0xc,%esp
  30354d:	e9 e9 02 00 00       	jmp    30383b <__vsnprintf+0x39f>
  303552:	80 7d d7 63          	cmpb   $0x63,-0x29(%ebp)
  303556:	75 25                	jne    30357d <__vsnprintf+0xe1>
  303558:	8b 45 14             	mov    0x14(%ebp),%eax
  30355b:	8d 50 04             	lea    0x4(%eax),%edx
  30355e:	89 55 14             	mov    %edx,0x14(%ebp)
  303561:	8b 00                	mov    (%eax),%eax
  303563:	89 45 a4             	mov    %eax,-0x5c(%ebp)
  303566:	ff 75 a4             	push   -0x5c(%ebp)
  303569:	ff 75 0c             	push   0xc(%ebp)
  30356c:	8d 45 94             	lea    -0x6c(%ebp),%eax
  30356f:	50                   	push   %eax
  303570:	e8 18 fc ff ff       	call   30318d <__format_add_chr>
  303575:	83 c4 0c             	add    $0xc,%esp
  303578:	e9 be 02 00 00       	jmp    30383b <__vsnprintf+0x39f>
  30357d:	80 7d d7 62          	cmpb   $0x62,-0x29(%ebp)
  303581:	75 34                	jne    3035b7 <__vsnprintf+0x11b>
  303583:	8b 45 14             	mov    0x14(%ebp),%eax
  303586:	8d 50 04             	lea    0x4(%eax),%edx
  303589:	89 55 14             	mov    %edx,0x14(%ebp)
  30358c:	8b 00                	mov    (%eax),%eax
  30358e:	89 45 a8             	mov    %eax,-0x58(%ebp)
  303591:	c7 45 ac 00 00 00 00 	movl   $0x0,-0x54(%ebp)
  303598:	83 ec 04             	sub    $0x4,%esp
  30359b:	6a 20                	push   $0x20
  30359d:	ff 75 ac             	push   -0x54(%ebp)
  3035a0:	ff 75 a8             	push   -0x58(%ebp)
  3035a3:	ff 75 0c             	push   0xc(%ebp)
  3035a6:	8d 45 94             	lea    -0x6c(%ebp),%eax
  3035a9:	50                   	push   %eax
  3035aa:	e8 f9 fb ff ff       	call   3031a8 <__format_add_bin>
  3035af:	83 c4 18             	add    $0x18,%esp
  3035b2:	e9 84 02 00 00       	jmp    30383b <__vsnprintf+0x39f>
  3035b7:	80 7d d7 42          	cmpb   $0x42,-0x29(%ebp)
  3035bb:	75 33                	jne    3035f0 <__vsnprintf+0x154>
  3035bd:	8b 45 14             	mov    0x14(%ebp),%eax
  3035c0:	8d 50 08             	lea    0x8(%eax),%edx
  3035c3:	89 55 14             	mov    %edx,0x14(%ebp)
  3035c6:	8b 50 04             	mov    0x4(%eax),%edx
  3035c9:	8b 00                	mov    (%eax),%eax
  3035cb:	89 45 b0             	mov    %eax,-0x50(%ebp)
  3035ce:	89 55 b4             	mov    %edx,-0x4c(%ebp)
  3035d1:	83 ec 04             	sub    $0x4,%esp
  3035d4:	6a 40                	push   $0x40
  3035d6:	ff 75 b4             	push   -0x4c(%ebp)
  3035d9:	ff 75 b0             	push   -0x50(%ebp)
  3035dc:	ff 75 0c             	push   0xc(%ebp)
  3035df:	8d 45 94             	lea    -0x6c(%ebp),%eax
  3035e2:	50                   	push   %eax
  3035e3:	e8 c0 fb ff ff       	call   3031a8 <__format_add_bin>
  3035e8:	83 c4 18             	add    $0x18,%esp
  3035eb:	e9 4b 02 00 00       	jmp    30383b <__vsnprintf+0x39f>
  3035f0:	80 7d d7 64          	cmpb   $0x64,-0x29(%ebp)
  3035f4:	74 0a                	je     303600 <__vsnprintf+0x164>
  3035f6:	80 7d d7 69          	cmpb   $0x69,-0x29(%ebp)
  3035fa:	0f 85 80 00 00 00    	jne    303680 <__vsnprintf+0x1e4>
  303600:	83 7d f4 07          	cmpl   $0x7,-0xc(%ebp)
  303604:	76 16                	jbe    30361c <__vsnprintf+0x180>
  303606:	8b 45 14             	mov    0x14(%ebp),%eax
  303609:	8d 50 08             	lea    0x8(%eax),%edx
  30360c:	89 55 14             	mov    %edx,0x14(%ebp)
  30360f:	8b 50 04             	mov    0x4(%eax),%edx
  303612:	8b 00                	mov    (%eax),%eax
  303614:	89 45 e0             	mov    %eax,-0x20(%ebp)
  303617:	89 55 e4             	mov    %edx,-0x1c(%ebp)
  30361a:	eb 4a                	jmp    303666 <__vsnprintf+0x1ca>
  30361c:	83 7d f4 04          	cmpl   $0x4,-0xc(%ebp)
  303620:	75 14                	jne    303636 <__vsnprintf+0x19a>
  303622:	8b 45 14             	mov    0x14(%ebp),%eax
  303625:	8d 50 04             	lea    0x4(%eax),%edx
  303628:	89 55 14             	mov    %edx,0x14(%ebp)
  30362b:	8b 00                	mov    (%eax),%eax
  30362d:	99                   	cltd
  30362e:	89 45 e0             	mov    %eax,-0x20(%ebp)
  303631:	89 55 e4             	mov    %edx,-0x1c(%ebp)
  303634:	eb 30                	jmp    303666 <__vsnprintf+0x1ca>
  303636:	83 7d f4 02          	cmpl   $0x2,-0xc(%ebp)
  30363a:	75 15                	jne    303651 <__vsnprintf+0x1b5>
  30363c:	8b 45 14             	mov    0x14(%ebp),%eax
  30363f:	8d 50 04             	lea    0x4(%eax),%edx
  303642:	89 55 14             	mov    %edx,0x14(%ebp)
  303645:	8b 00                	mov    (%eax),%eax
  303647:	98                   	cwtl
  303648:	99                   	cltd
  303649:	89 45 e0             	mov    %eax,-0x20(%ebp)
  30364c:	89 55 e4             	mov    %edx,-0x1c(%ebp)
  30364f:	eb 15                	jmp    303666 <__vsnprintf+0x1ca>
  303651:	8b 45 14             	mov    0x14(%ebp),%eax
  303654:	8d 50 04             	lea    0x4(%eax),%edx
  303657:	89 55 14             	mov    %edx,0x14(%ebp)
  30365a:	8b 00                	mov    (%eax),%eax
  30365c:	0f be c0             	movsbl %al,%eax
  30365f:	99                   	cltd
  303660:	89 45 e0             	mov    %eax,-0x20(%ebp)
  303663:	89 55 e4             	mov    %edx,-0x1c(%ebp)
  303666:	ff 75 e4             	push   -0x1c(%ebp)
  303669:	ff 75 e0             	push   -0x20(%ebp)
  30366c:	ff 75 0c             	push   0xc(%ebp)
  30366f:	8d 45 94             	lea    -0x6c(%ebp),%eax
  303672:	50                   	push   %eax
  303673:	e8 9f fb ff ff       	call   303217 <__format_add_idec>
  303678:	83 c4 10             	add    $0x10,%esp
  30367b:	e9 bb 01 00 00       	jmp    30383b <__vsnprintf+0x39f>
  303680:	80 7d d7 75          	cmpb   $0x75,-0x29(%ebp)
  303684:	74 0a                	je     303690 <__vsnprintf+0x1f4>
  303686:	80 7d d7 78          	cmpb   $0x78,-0x29(%ebp)
  30368a:	0f 85 b0 00 00 00    	jne    303740 <__vsnprintf+0x2a4>
  303690:	83 7d f4 07          	cmpl   $0x7,-0xc(%ebp)
  303694:	76 16                	jbe    3036ac <__vsnprintf+0x210>
  303696:	8b 45 14             	mov    0x14(%ebp),%eax
  303699:	8d 50 08             	lea    0x8(%eax),%edx
  30369c:	89 55 14             	mov    %edx,0x14(%ebp)
  30369f:	8b 50 04             	mov    0x4(%eax),%edx
  3036a2:	8b 00                	mov    (%eax),%eax
  3036a4:	89 45 d8             	mov    %eax,-0x28(%ebp)
  3036a7:	89 55 dc             	mov    %edx,-0x24(%ebp)
  3036aa:	eb 55                	jmp    303701 <__vsnprintf+0x265>
  3036ac:	83 7d f4 04          	cmpl   $0x4,-0xc(%ebp)
  3036b0:	75 17                	jne    3036c9 <__vsnprintf+0x22d>
  3036b2:	8b 45 14             	mov    0x14(%ebp),%eax
  3036b5:	8d 50 04             	lea    0x4(%eax),%edx
  3036b8:	89 55 14             	mov    %edx,0x14(%ebp)
  3036bb:	8b 00                	mov    (%eax),%eax
  3036bd:	89 45 d8             	mov    %eax,-0x28(%ebp)
  3036c0:	c7 45 dc 00 00 00 00 	movl   $0x0,-0x24(%ebp)
  3036c7:	eb 38                	jmp    303701 <__vsnprintf+0x265>
  3036c9:	83 7d f4 02          	cmpl   $0x2,-0xc(%ebp)
  3036cd:	75 1a                	jne    3036e9 <__vsnprintf+0x24d>
  3036cf:	8b 45 14             	mov    0x14(%ebp),%eax
  3036d2:	8d 50 04             	lea    0x4(%eax),%edx
  3036d5:	89 55 14             	mov    %edx,0x14(%ebp)
  3036d8:	8b 00                	mov    (%eax),%eax
  3036da:	0f b7 c0             	movzwl %ax,%eax
  3036dd:	89 45 d8             	mov    %eax,-0x28(%ebp)
  3036e0:	c7 45 dc 00 00 00 00 	movl   $0x0,-0x24(%ebp)
  3036e7:	eb 18                	jmp    303701 <__vsnprintf+0x265>
  3036e9:	8b 45 14             	mov    0x14(%ebp),%eax
  3036ec:	8d 50 04             	lea    0x4(%eax),%edx
  3036ef:	89 55 14             	mov    %edx,0x14(%ebp)
  3036f2:	8b 00                	mov    (%eax),%eax
  3036f4:	0f b6 c0             	movzbl %al,%eax
  3036f7:	89 45 d8             	mov    %eax,-0x28(%ebp)
  3036fa:	c7 45 dc 00 00 00 00 	movl   $0x0,-0x24(%ebp)
  303701:	80 7d d7 75          	cmpb   $0x75,-0x29(%ebp)
  303705:	75 1a                	jne    303721 <__vsnprintf+0x285>
  303707:	ff 75 dc             	push   -0x24(%ebp)
  30370a:	ff 75 d8             	push   -0x28(%ebp)
  30370d:	ff 75 0c             	push   0xc(%ebp)
  303710:	8d 45 94             	lea    -0x6c(%ebp),%eax
  303713:	50                   	push   %eax
  303714:	e8 dc fb ff ff       	call   3032f5 <__format_add_udec>
  303719:	83 c4 10             	add    $0x10,%esp
  30371c:	e9 1a 01 00 00       	jmp    30383b <__vsnprintf+0x39f>
  303721:	83 ec 0c             	sub    $0xc,%esp
  303724:	6a 00                	push   $0x0
  303726:	ff 75 dc             	push   -0x24(%ebp)
  303729:	ff 75 d8             	push   -0x28(%ebp)
  30372c:	ff 75 0c             	push   0xc(%ebp)
  30372f:	8d 45 94             	lea    -0x6c(%ebp),%eax
  303732:	50                   	push   %eax
  303733:	e8 35 fd ff ff       	call   30346d <__format_add_hex>
  303738:	83 c4 20             	add    $0x20,%esp
  30373b:	e9 fb 00 00 00       	jmp    30383b <__vsnprintf+0x39f>
  303740:	80 7d d7 44          	cmpb   $0x44,-0x29(%ebp)
  303744:	75 2e                	jne    303774 <__vsnprintf+0x2d8>
  303746:	8b 45 14             	mov    0x14(%ebp),%eax
  303749:	8d 50 08             	lea    0x8(%eax),%edx
  30374c:	89 55 14             	mov    %edx,0x14(%ebp)
  30374f:	8b 50 04             	mov    0x4(%eax),%edx
  303752:	8b 00                	mov    (%eax),%eax
  303754:	89 45 b8             	mov    %eax,-0x48(%ebp)
  303757:	89 55 bc             	mov    %edx,-0x44(%ebp)
  30375a:	ff 75 bc             	push   -0x44(%ebp)
  30375d:	ff 75 b8             	push   -0x48(%ebp)
  303760:	ff 75 0c             	push   0xc(%ebp)
  303763:	8d 45 94             	lea    -0x6c(%ebp),%eax
  303766:	50                   	push   %eax
  303767:	e8 ab fa ff ff       	call   303217 <__format_add_idec>
  30376c:	83 c4 10             	add    $0x10,%esp
  30376f:	e9 c7 00 00 00       	jmp    30383b <__vsnprintf+0x39f>
  303774:	80 7d d7 58          	cmpb   $0x58,-0x29(%ebp)
  303778:	75 33                	jne    3037ad <__vsnprintf+0x311>
  30377a:	8b 45 14             	mov    0x14(%ebp),%eax
  30377d:	8d 50 08             	lea    0x8(%eax),%edx
  303780:	89 55 14             	mov    %edx,0x14(%ebp)
  303783:	8b 50 04             	mov    0x4(%eax),%edx
  303786:	8b 00                	mov    (%eax),%eax
  303788:	89 45 c0             	mov    %eax,-0x40(%ebp)
  30378b:	89 55 c4             	mov    %edx,-0x3c(%ebp)
  30378e:	83 ec 0c             	sub    $0xc,%esp
  303791:	6a 00                	push   $0x0
  303793:	ff 75 c4             	push   -0x3c(%ebp)
  303796:	ff 75 c0             	push   -0x40(%ebp)
  303799:	ff 75 0c             	push   0xc(%ebp)
  30379c:	8d 45 94             	lea    -0x6c(%ebp),%eax
  30379f:	50                   	push   %eax
  3037a0:	e8 c8 fc ff ff       	call   30346d <__format_add_hex>
  3037a5:	83 c4 20             	add    $0x20,%esp
  3037a8:	e9 8e 00 00 00       	jmp    30383b <__vsnprintf+0x39f>
  3037ad:	80 7d d7 70          	cmpb   $0x70,-0x29(%ebp)
  3037b1:	75 48                	jne    3037fb <__vsnprintf+0x35f>
  3037b3:	8b 45 14             	mov    0x14(%ebp),%eax
  3037b6:	8d 50 04             	lea    0x4(%eax),%edx
  3037b9:	89 55 14             	mov    %edx,0x14(%ebp)
  3037bc:	8b 00                	mov    (%eax),%eax
  3037be:	89 45 c8             	mov    %eax,-0x38(%ebp)
  3037c1:	c7 45 cc 00 00 00 00 	movl   $0x0,-0x34(%ebp)
  3037c8:	83 ec 04             	sub    $0x4,%esp
  3037cb:	68 bc 45 30 00       	push   $0x3045bc
  3037d0:	ff 75 0c             	push   0xc(%ebp)
  3037d3:	8d 45 94             	lea    -0x6c(%ebp),%eax
  3037d6:	50                   	push   %eax
  3037d7:	e8 80 f9 ff ff       	call   30315c <__format_add_str>
  3037dc:	83 c4 10             	add    $0x10,%esp
  3037df:	83 ec 0c             	sub    $0xc,%esp
  3037e2:	6a 00                	push   $0x0
  3037e4:	ff 75 cc             	push   -0x34(%ebp)
  3037e7:	ff 75 c8             	push   -0x38(%ebp)
  3037ea:	ff 75 0c             	push   0xc(%ebp)
  3037ed:	8d 45 94             	lea    -0x6c(%ebp),%eax
  3037f0:	50                   	push   %eax
  3037f1:	e8 77 fc ff ff       	call   30346d <__format_add_hex>
  3037f6:	83 c4 20             	add    $0x20,%esp
  3037f9:	eb 40                	jmp    30383b <__vsnprintf+0x39f>
  3037fb:	80 7d d7 2f          	cmpb   $0x2f,-0x29(%ebp)
  3037ff:	7e 06                	jle    303807 <__vsnprintf+0x36b>
  303801:	80 7d d7 39          	cmpb   $0x39,-0x29(%ebp)
  303805:	7e 73                	jle    30387a <__vsnprintf+0x3de>
  303807:	80 7d d7 25          	cmpb   $0x25,-0x29(%ebp)
  30380b:	75 19                	jne    303826 <__vsnprintf+0x38a>
  30380d:	0f be 45 d7          	movsbl -0x29(%ebp),%eax
  303811:	83 ec 04             	sub    $0x4,%esp
  303814:	50                   	push   %eax
  303815:	ff 75 0c             	push   0xc(%ebp)
  303818:	8d 45 94             	lea    -0x6c(%ebp),%eax
  30381b:	50                   	push   %eax
  30381c:	e8 4c f8 ff ff       	call   30306d <__buf_add>
  303821:	83 c4 10             	add    $0x10,%esp
  303824:	eb 15                	jmp    30383b <__vsnprintf+0x39f>
  303826:	0f be 45 d7          	movsbl -0x29(%ebp),%eax
  30382a:	83 ec 08             	sub    $0x8,%esp
  30382d:	50                   	push   %eax
  30382e:	68 bf 45 30 00       	push   $0x3045bf
  303833:	e8 70 f8 ff ff       	call   3030a8 <panic>
  303838:	83 c4 10             	add    $0x10,%esp
  30383b:	c7 45 f0 00 00 00 00 	movl   $0x0,-0x10(%ebp)
  303842:	c7 45 ec 00 00 00 00 	movl   $0x0,-0x14(%ebp)
  303849:	eb 30                	jmp    30387b <__vsnprintf+0x3df>
  30384b:	80 7d d7 25          	cmpb   $0x25,-0x29(%ebp)
  30384f:	75 10                	jne    303861 <__vsnprintf+0x3c5>
  303851:	c7 45 f0 01 00 00 00 	movl   $0x1,-0x10(%ebp)
  303858:	c7 45 f4 04 00 00 00 	movl   $0x4,-0xc(%ebp)
  30385f:	eb 1a                	jmp    30387b <__vsnprintf+0x3df>
  303861:	0f be 45 d7          	movsbl -0x29(%ebp),%eax
  303865:	83 ec 04             	sub    $0x4,%esp
  303868:	50                   	push   %eax
  303869:	ff 75 0c             	push   0xc(%ebp)
  30386c:	8d 45 94             	lea    -0x6c(%ebp),%eax
  30386f:	50                   	push   %eax
  303870:	e8 f8 f7 ff ff       	call   30306d <__buf_add>
  303875:	83 c4 10             	add    $0x10,%esp
  303878:	eb 01                	jmp    30387b <__vsnprintf+0x3df>
  30387a:	90                   	nop
  30387b:	8b 45 10             	mov    0x10(%ebp),%eax
  30387e:	0f b6 00             	movzbl (%eax),%eax
  303881:	84 c0                	test   %al,%al
  303883:	0f 85 4e fc ff ff    	jne    3034d7 <__vsnprintf+0x3b>
  303889:	8b 4d 94             	mov    -0x6c(%ebp),%ecx
  30388c:	8b 45 9c             	mov    -0x64(%ebp),%eax
  30388f:	8d 50 01             	lea    0x1(%eax),%edx
  303892:	89 55 9c             	mov    %edx,-0x64(%ebp)
  303895:	01 c8                	add    %ecx,%eax
  303897:	c6 00 00             	movb   $0x0,(%eax)
  30389a:	8b 45 9c             	mov    -0x64(%ebp),%eax
  30389d:	c9                   	leave
  30389e:	c3                   	ret

0030389f <__uart_flush_recv>:
  30389f:	55                   	push   %ebp
  3038a0:	89 e5                	mov    %esp,%ebp
  3038a2:	83 ec 14             	sub    $0x14,%esp
  3038a5:	8b 45 08             	mov    0x8(%ebp),%eax
  3038a8:	66 89 45 ec          	mov    %ax,-0x14(%ebp)
  3038ac:	eb 0a                	jmp    3038b8 <__uart_flush_recv+0x19>
  3038ae:	0f b7 45 ec          	movzwl -0x14(%ebp),%eax
  3038b2:	89 c2                	mov    %eax,%edx
  3038b4:	ec                   	in     (%dx),%al
  3038b5:	88 45 fe             	mov    %al,-0x2(%ebp)
  3038b8:	0f b7 45 ec          	movzwl -0x14(%ebp),%eax
  3038bc:	83 c0 05             	add    $0x5,%eax
  3038bf:	89 c2                	mov    %eax,%edx
  3038c1:	ec                   	in     (%dx),%al
  3038c2:	88 45 ff             	mov    %al,-0x1(%ebp)
  3038c5:	0f b6 45 ff          	movzbl -0x1(%ebp),%eax
  3038c9:	0f b6 c0             	movzbl %al,%eax
  3038cc:	83 e0 01             	and    $0x1,%eax
  3038cf:	85 c0                	test   %eax,%eax
  3038d1:	75 db                	jne    3038ae <__uart_flush_recv+0xf>
  3038d3:	90                   	nop
  3038d4:	90                   	nop
  3038d5:	c9                   	leave
  3038d6:	c3                   	ret

003038d7 <__uart_fifo_init>:
  3038d7:	55                   	push   %ebp
  3038d8:	89 e5                	mov    %esp,%ebp
  3038da:	83 ec 14             	sub    $0x14,%esp
  3038dd:	8b 45 08             	mov    0x8(%ebp),%eax
  3038e0:	66 89 45 ec          	mov    %ax,-0x14(%ebp)
  3038e4:	0f b7 45 ec          	movzwl -0x14(%ebp),%eax
  3038e8:	8d 50 03             	lea    0x3(%eax),%edx
  3038eb:	b8 bf 00 00 00       	mov    $0xbf,%eax
  3038f0:	ee                   	out    %al,(%dx)
  3038f1:	c6 45 fe 00          	movb   $0x0,-0x2(%ebp)
  3038f5:	0f b6 45 fe          	movzbl -0x2(%ebp),%eax
  3038f9:	83 c8 10             	or     $0x10,%eax
  3038fc:	88 45 fe             	mov    %al,-0x2(%ebp)
  3038ff:	0f b6 45 fe          	movzbl -0x2(%ebp),%eax
  303903:	0f b7 55 ec          	movzwl -0x14(%ebp),%edx
  303907:	83 c2 02             	add    $0x2,%edx
  30390a:	ee                   	out    %al,(%dx)
  30390b:	0f b6 45 ff          	movzbl -0x1(%ebp),%eax
  30390f:	83 e0 fe             	and    $0xfffffffe,%eax
  303912:	88 45 ff             	mov    %al,-0x1(%ebp)
  303915:	0f b6 45 ff          	movzbl -0x1(%ebp),%eax
  303919:	83 e0 f7             	and    $0xfffffff7,%eax
  30391c:	88 45 ff             	mov    %al,-0x1(%ebp)
  30391f:	0f b6 45 ff          	movzbl -0x1(%ebp),%eax
  303923:	0f b7 55 ec          	movzwl -0x14(%ebp),%edx
  303927:	83 c2 02             	add    $0x2,%edx
  30392a:	ee                   	out    %al,(%dx)
  30392b:	0f b7 45 ec          	movzwl -0x14(%ebp),%eax
  30392f:	8d 50 03             	lea    0x3(%eax),%edx
  303932:	b8 00 00 00 00       	mov    $0x0,%eax
  303937:	ee                   	out    %al,(%dx)
  303938:	c6 45 fe 00          	movb   $0x0,-0x2(%ebp)
  30393c:	0f b6 45 fe          	movzbl -0x2(%ebp),%eax
  303940:	83 c8 40             	or     $0x40,%eax
  303943:	88 45 fe             	mov    %al,-0x2(%ebp)
  303946:	0f b6 45 fe          	movzbl -0x2(%ebp),%eax
  30394a:	83 c8 80             	or     $0xffffff80,%eax
  30394d:	88 45 fe             	mov    %al,-0x2(%ebp)
  303950:	0f b6 45 fe          	movzbl -0x2(%ebp),%eax
  303954:	0f b7 55 ec          	movzwl -0x14(%ebp),%edx
  303958:	83 c2 02             	add    $0x2,%edx
  30395b:	ee                   	out    %al,(%dx)
  30395c:	90                   	nop
  30395d:	c9                   	leave
  30395e:	c3                   	ret

0030395f <__uart_common_init>:
  30395f:	55                   	push   %ebp
  303960:	89 e5                	mov    %esp,%ebp
  303962:	83 ec 14             	sub    $0x14,%esp
  303965:	8b 45 08             	mov    0x8(%ebp),%eax
  303968:	66 89 45 ec          	mov    %ax,-0x14(%ebp)
  30396c:	0f b7 45 ec          	movzwl -0x14(%ebp),%eax
  303970:	8d 50 03             	lea    0x3(%eax),%edx
  303973:	b8 80 00 00 00       	mov    $0x80,%eax
  303978:	ee                   	out    %al,(%dx)
  303979:	b8 01 00 00 00       	mov    $0x1,%eax
  30397e:	0f b7 55 ec          	movzwl -0x14(%ebp),%edx
  303982:	ee                   	out    %al,(%dx)
  303983:	0f b7 45 ec          	movzwl -0x14(%ebp),%eax
  303987:	8d 50 01             	lea    0x1(%eax),%edx
  30398a:	b8 00 00 00 00       	mov    $0x0,%eax
  30398f:	ee                   	out    %al,(%dx)
  303990:	c6 45 fe 00          	movb   $0x0,-0x2(%ebp)
  303994:	0f b6 45 fe          	movzbl -0x2(%ebp),%eax
  303998:	83 c8 03             	or     $0x3,%eax
  30399b:	88 45 fe             	mov    %al,-0x2(%ebp)
  30399e:	0f b6 45 fe          	movzbl -0x2(%ebp),%eax
  3039a2:	0f b7 55 ec          	movzwl -0x14(%ebp),%edx
  3039a6:	83 c2 03             	add    $0x3,%edx
  3039a9:	ee                   	out    %al,(%dx)
  3039aa:	c6 45 ff 00          	movb   $0x0,-0x1(%ebp)
  3039ae:	0f b6 45 ff          	movzbl -0x1(%ebp),%eax
  3039b2:	0f b7 55 ec          	movzwl -0x14(%ebp),%edx
  3039b6:	83 c2 01             	add    $0x1,%edx
  3039b9:	ee                   	out    %al,(%dx)
  3039ba:	0f b7 45 ec          	movzwl -0x14(%ebp),%eax
  3039be:	50                   	push   %eax
  3039bf:	e8 db fe ff ff       	call   30389f <__uart_flush_recv>
  3039c4:	83 c4 04             	add    $0x4,%esp
  3039c7:	90                   	nop
  3039c8:	c9                   	leave
  3039c9:	c3                   	ret

003039ca <uart_init>:
  3039ca:	55                   	push   %ebp
  3039cb:	89 e5                	mov    %esp,%ebp
  3039cd:	68 f8 03 00 00       	push   $0x3f8
  3039d2:	e8 00 ff ff ff       	call   3038d7 <__uart_fifo_init>
  3039d7:	83 c4 04             	add    $0x4,%esp
  3039da:	68 f8 03 00 00       	push   $0x3f8
  3039df:	e8 7b ff ff ff       	call   30395f <__uart_common_init>
  3039e4:	83 c4 04             	add    $0x4,%esp
  3039e7:	90                   	nop
  3039e8:	c9                   	leave
  3039e9:	c3                   	ret

003039ea <__uart_read>:
  3039ea:	55                   	push   %ebp
  3039eb:	89 e5                	mov    %esp,%ebp
  3039ed:	83 ec 14             	sub    $0x14,%esp
  3039f0:	8b 45 08             	mov    0x8(%ebp),%eax
  3039f3:	66 89 45 ec          	mov    %ax,-0x14(%ebp)
  3039f7:	eb 2c                	jmp    303a25 <__uart_read+0x3b>
  3039f9:	0f b7 45 ec          	movzwl -0x14(%ebp),%eax
  3039fd:	89 c2                	mov    %eax,%edx
  3039ff:	ec                   	in     (%dx),%al
  303a00:	88 45 fe             	mov    %al,-0x2(%ebp)
  303a03:	0f b6 45 fe          	movzbl -0x2(%ebp),%eax
  303a07:	8b 55 0c             	mov    0xc(%ebp),%edx
  303a0a:	8b 0a                	mov    (%edx),%ecx
  303a0c:	8b 55 0c             	mov    0xc(%ebp),%edx
  303a0f:	8b 52 08             	mov    0x8(%edx),%edx
  303a12:	01 ca                	add    %ecx,%edx
  303a14:	88 02                	mov    %al,(%edx)
  303a16:	8b 45 0c             	mov    0xc(%ebp),%eax
  303a19:	8b 40 08             	mov    0x8(%eax),%eax
  303a1c:	8d 50 01             	lea    0x1(%eax),%edx
  303a1f:	8b 45 0c             	mov    0xc(%ebp),%eax
  303a22:	89 50 08             	mov    %edx,0x8(%eax)
  303a25:	0f b7 45 ec          	movzwl -0x14(%ebp),%eax
  303a29:	83 c0 05             	add    $0x5,%eax
  303a2c:	89 c2                	mov    %eax,%edx
  303a2e:	ec                   	in     (%dx),%al
  303a2f:	88 45 ff             	mov    %al,-0x1(%ebp)
  303a32:	0f b6 45 ff          	movzbl -0x1(%ebp),%eax
  303a36:	0f b6 c0             	movzbl %al,%eax
  303a39:	83 e0 01             	and    $0x1,%eax
  303a3c:	85 c0                	test   %eax,%eax
  303a3e:	74 0b                	je     303a4b <__uart_read+0x61>
  303a40:	8b 45 0c             	mov    0xc(%ebp),%eax
  303a43:	8b 40 08             	mov    0x8(%eax),%eax
  303a46:	3b 45 10             	cmp    0x10(%ebp),%eax
  303a49:	72 ae                	jb     3039f9 <__uart_read+0xf>
  303a4b:	90                   	nop
  303a4c:	c9                   	leave
  303a4d:	c3                   	ret

00303a4e <__uart_write>:
  303a4e:	55                   	push   %ebp
  303a4f:	89 e5                	mov    %esp,%ebp
  303a51:	83 ec 14             	sub    $0x14,%esp
  303a54:	8b 45 08             	mov    0x8(%ebp),%eax
  303a57:	66 89 45 ec          	mov    %ax,-0x14(%ebp)
  303a5b:	eb 3f                	jmp    303a9c <__uart_write+0x4e>
  303a5d:	0f b7 45 ec          	movzwl -0x14(%ebp),%eax
  303a61:	83 c0 05             	add    $0x5,%eax
  303a64:	89 c2                	mov    %eax,%edx
  303a66:	ec                   	in     (%dx),%al
  303a67:	88 45 ff             	mov    %al,-0x1(%ebp)
  303a6a:	0f b6 45 ff          	movzbl -0x1(%ebp),%eax
  303a6e:	0f b6 c0             	movzbl %al,%eax
  303a71:	83 e0 20             	and    $0x20,%eax
  303a74:	85 c0                	test   %eax,%eax
  303a76:	74 24                	je     303a9c <__uart_write+0x4e>
  303a78:	8b 45 0c             	mov    0xc(%ebp),%eax
  303a7b:	8b 10                	mov    (%eax),%edx
  303a7d:	8b 45 0c             	mov    0xc(%ebp),%eax
  303a80:	8b 40 08             	mov    0x8(%eax),%eax
  303a83:	01 d0                	add    %edx,%eax
  303a85:	0f b6 00             	movzbl (%eax),%eax
  303a88:	0f b7 55 ec          	movzwl -0x14(%ebp),%edx
  303a8c:	ee                   	out    %al,(%dx)
  303a8d:	8b 45 0c             	mov    0xc(%ebp),%eax
  303a90:	8b 40 08             	mov    0x8(%eax),%eax
  303a93:	8d 50 01             	lea    0x1(%eax),%edx
  303a96:	8b 45 0c             	mov    0xc(%ebp),%eax
  303a99:	89 50 08             	mov    %edx,0x8(%eax)
  303a9c:	8b 45 0c             	mov    0xc(%ebp),%eax
  303a9f:	8b 40 08             	mov    0x8(%eax),%eax
  303aa2:	3b 45 10             	cmp    0x10(%ebp),%eax
  303aa5:	72 b6                	jb     303a5d <__uart_write+0xf>
  303aa7:	90                   	nop
  303aa8:	90                   	nop
  303aa9:	c9                   	leave
  303aaa:	c3                   	ret

00303aab <uart_read>:
  303aab:	55                   	push   %ebp
  303aac:	89 e5                	mov    %esp,%ebp
  303aae:	83 ec 10             	sub    $0x10,%esp
  303ab1:	8b 45 08             	mov    0x8(%ebp),%eax
  303ab4:	89 45 f4             	mov    %eax,-0xc(%ebp)
  303ab7:	c7 45 fc 00 00 00 00 	movl   $0x0,-0x4(%ebp)
  303abe:	ff 75 0c             	push   0xc(%ebp)
  303ac1:	8d 45 f4             	lea    -0xc(%ebp),%eax
  303ac4:	50                   	push   %eax
  303ac5:	68 f8 03 00 00       	push   $0x3f8
  303aca:	e8 1b ff ff ff       	call   3039ea <__uart_read>
  303acf:	83 c4 0c             	add    $0xc,%esp
  303ad2:	8b 45 fc             	mov    -0x4(%ebp),%eax
  303ad5:	c9                   	leave
  303ad6:	c3                   	ret

00303ad7 <uart_write>:
  303ad7:	55                   	push   %ebp
  303ad8:	89 e5                	mov    %esp,%ebp
  303ada:	83 ec 10             	sub    $0x10,%esp
  303add:	8b 45 08             	mov    0x8(%ebp),%eax
  303ae0:	89 45 f4             	mov    %eax,-0xc(%ebp)
  303ae3:	c7 45 fc 00 00 00 00 	movl   $0x0,-0x4(%ebp)
  303aea:	ff 75 0c             	push   0xc(%ebp)
  303aed:	8d 45 f4             	lea    -0xc(%ebp),%eax
  303af0:	50                   	push   %eax
  303af1:	68 f8 03 00 00       	push   $0x3f8
  303af6:	e8 53 ff ff ff       	call   303a4e <__uart_write>
  303afb:	83 c4 0c             	add    $0xc,%esp
  303afe:	8b 45 fc             	mov    -0x4(%ebp),%eax
  303b01:	c9                   	leave
  303b02:	c3                   	ret

00303b03 <uart_flush>:
  303b03:	55                   	push   %ebp
  303b04:	89 e5                	mov    %esp,%ebp
  303b06:	83 ec 10             	sub    $0x10,%esp
  303b09:	c7 45 fc 10 00 00 00 	movl   $0x10,-0x4(%ebp)
  303b10:	eb 28                	jmp    303b3a <uart_flush+0x37>
  303b12:	b8 fd 03 00 00       	mov    $0x3fd,%eax
  303b17:	89 c2                	mov    %eax,%edx
  303b19:	ec                   	in     (%dx),%al
  303b1a:	88 45 fb             	mov    %al,-0x5(%ebp)
  303b1d:	0f b6 45 fb          	movzbl -0x5(%ebp),%eax
  303b21:	0f b6 c0             	movzbl %al,%eax
  303b24:	83 e0 20             	and    $0x20,%eax
  303b27:	85 c0                	test   %eax,%eax
  303b29:	74 0f                	je     303b3a <uart_flush+0x37>
  303b2b:	b8 00 00 00 00       	mov    $0x0,%eax
  303b30:	ba f8 03 00 00       	mov    $0x3f8,%edx
  303b35:	ee                   	out    %al,(%dx)
  303b36:	83 6d fc 01          	subl   $0x1,-0x4(%ebp)
  303b3a:	83 7d fc 00          	cmpl   $0x0,-0x4(%ebp)
  303b3e:	75 d2                	jne    303b12 <uart_flush+0xf>
  303b40:	90                   	nop
  303b41:	90                   	nop
  303b42:	c9                   	leave
  303b43:	c3                   	ret

00303b44 <pic_init>:
  303b44:	55                   	push   %ebp
  303b45:	89 e5                	mov    %esp,%ebp
  303b47:	83 ec 10             	sub    $0x10,%esp
  303b4a:	c6 45 ff 11          	movb   $0x11,-0x1(%ebp)
  303b4e:	0f b6 45 ff          	movzbl -0x1(%ebp),%eax
  303b52:	ba 20 00 00 00       	mov    $0x20,%edx
  303b57:	ee                   	out    %al,(%dx)
  303b58:	0f b6 45 ff          	movzbl -0x1(%ebp),%eax
  303b5c:	ba a0 00 00 00       	mov    $0xa0,%edx
  303b61:	ee                   	out    %al,(%dx)
  303b62:	c6 45 fe 20          	movb   $0x20,-0x2(%ebp)
  303b66:	0f b6 45 fe          	movzbl -0x2(%ebp),%eax
  303b6a:	ba 21 00 00 00       	mov    $0x21,%edx
  303b6f:	ee                   	out    %al,(%dx)
  303b70:	c6 45 fe 28          	movb   $0x28,-0x2(%ebp)
  303b74:	0f b6 45 fe          	movzbl -0x2(%ebp),%eax
  303b78:	ba a1 00 00 00       	mov    $0xa1,%edx
  303b7d:	ee                   	out    %al,(%dx)
  303b7e:	c6 45 fd 00          	movb   $0x0,-0x3(%ebp)
  303b82:	0f b6 45 fd          	movzbl -0x3(%ebp),%eax
  303b86:	83 c8 04             	or     $0x4,%eax
  303b89:	88 45 fd             	mov    %al,-0x3(%ebp)
  303b8c:	0f b6 45 fd          	movzbl -0x3(%ebp),%eax
  303b90:	ba 21 00 00 00       	mov    $0x21,%edx
  303b95:	ee                   	out    %al,(%dx)
  303b96:	c6 45 fd 00          	movb   $0x0,-0x3(%ebp)
  303b9a:	0f b6 45 fd          	movzbl -0x3(%ebp),%eax
  303b9e:	83 e0 f8             	and    $0xfffffff8,%eax
  303ba1:	83 c8 02             	or     $0x2,%eax
  303ba4:	88 45 fd             	mov    %al,-0x3(%ebp)
  303ba7:	0f b6 45 fd          	movzbl -0x3(%ebp),%eax
  303bab:	ba a1 00 00 00       	mov    $0xa1,%edx
  303bb0:	ee                   	out    %al,(%dx)
  303bb1:	c6 45 fc 01          	movb   $0x1,-0x4(%ebp)
  303bb5:	0f b6 45 fc          	movzbl -0x4(%ebp),%eax
  303bb9:	ba 21 00 00 00       	mov    $0x21,%edx
  303bbe:	ee                   	out    %al,(%dx)
  303bbf:	0f b6 45 fc          	movzbl -0x4(%ebp),%eax
  303bc3:	ba a1 00 00 00       	mov    $0xa1,%edx
  303bc8:	ee                   	out    %al,(%dx)
  303bc9:	90                   	nop
  303bca:	c9                   	leave
  303bcb:	c3                   	ret

00303bcc <intr_init>:
  303bcc:	55                   	push   %ebp
  303bcd:	89 e5                	mov    %esp,%ebp
  303bcf:	83 ec 20             	sub    $0x20,%esp
  303bd2:	c7 45 fc 10 20 30 00 	movl   $0x302010,-0x4(%ebp)
  303bd9:	c7 45 f8 00 00 00 00 	movl   $0x0,-0x8(%ebp)
  303be0:	e9 8d 00 00 00       	jmp    303c72 <intr_init+0xa6>
  303be5:	8b 45 fc             	mov    -0x4(%ebp),%eax
  303be8:	89 45 ee             	mov    %eax,-0x12(%ebp)
  303beb:	0f b7 4d ee          	movzwl -0x12(%ebp),%ecx
  303bef:	0f b7 c1             	movzwl %cx,%eax
  303bf2:	ba 00 00 00 00       	mov    $0x0,%edx
  303bf7:	8b 4d f8             	mov    -0x8(%ebp),%ecx
  303bfa:	89 04 cd a0 4d 30 00 	mov    %eax,0x304da0(,%ecx,8)
  303c01:	89 14 cd a4 4d 30 00 	mov    %edx,0x304da4(,%ecx,8)
  303c08:	8b 45 f8             	mov    -0x8(%ebp),%eax
  303c0b:	0f b7 14 c5 a2 4d 30 	movzwl 0x304da2(,%eax,8),%edx
  303c12:	00 
  303c13:	83 e2 00             	and    $0x0,%edx
  303c16:	83 ca 08             	or     $0x8,%edx
  303c19:	66 89 14 c5 a2 4d 30 	mov    %dx,0x304da2(,%eax,8)
  303c20:	00 
  303c21:	8b 45 f8             	mov    -0x8(%ebp),%eax
  303c24:	0f b6 14 c5 a5 4d 30 	movzbl 0x304da5(,%eax,8),%edx
  303c2b:	00 
  303c2c:	83 e2 f0             	and    $0xfffffff0,%edx
  303c2f:	83 ca 0e             	or     $0xe,%edx
  303c32:	88 14 c5 a5 4d 30 00 	mov    %dl,0x304da5(,%eax,8)
  303c39:	0f b7 4d f0          	movzwl -0x10(%ebp),%ecx
  303c3d:	8b 45 f8             	mov    -0x8(%ebp),%eax
  303c40:	0f b7 14 c5 a6 4d 30 	movzwl 0x304da6(,%eax,8),%edx
  303c47:	00 
  303c48:	83 e2 00             	and    $0x0,%edx
  303c4b:	09 ca                	or     %ecx,%edx
  303c4d:	66 89 14 c5 a6 4d 30 	mov    %dx,0x304da6(,%eax,8)
  303c54:	00 
  303c55:	8b 45 f8             	mov    -0x8(%ebp),%eax
  303c58:	0f b6 14 c5 a5 4d 30 	movzbl 0x304da5(,%eax,8),%edx
  303c5f:	00 
  303c60:	83 ca 80             	or     $0xffffff80,%edx
  303c63:	88 14 c5 a5 4d 30 00 	mov    %dl,0x304da5(,%eax,8)
  303c6a:	83 45 f8 01          	addl   $0x1,-0x8(%ebp)
  303c6e:	83 45 fc 10          	addl   $0x10,-0x4(%ebp)
  303c72:	81 7d f8 ff 00 00 00 	cmpl   $0xff,-0x8(%ebp)
  303c79:	0f 86 66 ff ff ff    	jbe    303be5 <intr_init+0x19>
  303c7f:	c7 45 f4 a0 4d 30 00 	movl   $0x304da0,-0xc(%ebp)
  303c86:	66 c7 45 f2 ff 07    	movw   $0x7ff,-0xe(%ebp)
  303c8c:	0f 01 5d f2          	lidtl  -0xe(%ebp)
  303c90:	90                   	nop
  303c91:	c9                   	leave
  303c92:	c3                   	ret

00303c93 <intr_hdlr>:
  303c93:	55                   	push   %ebp
  303c94:	89 e5                	mov    %esp,%ebp
  303c96:	57                   	push   %edi
  303c97:	56                   	push   %esi
  303c98:	53                   	push   %ebx
  303c99:	83 ec 4c             	sub    $0x4c,%esp
  303c9c:	89 45 d4             	mov    %eax,-0x2c(%ebp)
  303c9f:	8b 45 d4             	mov    -0x2c(%ebp),%eax
  303ca2:	8b 38                	mov    (%eax),%edi
  303ca4:	8b 45 d4             	mov    -0x2c(%ebp),%eax
  303ca7:	8b 40 04             	mov    0x4(%eax),%eax
  303caa:	89 45 d0             	mov    %eax,-0x30(%ebp)
  303cad:	8b 45 d4             	mov    -0x2c(%ebp),%eax
  303cb0:	8b 50 08             	mov    0x8(%eax),%edx
  303cb3:	89 55 cc             	mov    %edx,-0x34(%ebp)
  303cb6:	8b 45 d4             	mov    -0x2c(%ebp),%eax
  303cb9:	8b 48 0c             	mov    0xc(%eax),%ecx
  303cbc:	89 4d c8             	mov    %ecx,-0x38(%ebp)
  303cbf:	8b 45 d4             	mov    -0x2c(%ebp),%eax
  303cc2:	8b 58 10             	mov    0x10(%eax),%ebx
  303cc5:	89 5d c4             	mov    %ebx,-0x3c(%ebp)
  303cc8:	8b 45 d4             	mov    -0x2c(%ebp),%eax
  303ccb:	8b 70 14             	mov    0x14(%eax),%esi
  303cce:	89 75 c0             	mov    %esi,-0x40(%ebp)
  303cd1:	8b 45 d4             	mov    -0x2c(%ebp),%eax
  303cd4:	8b 40 18             	mov    0x18(%eax),%eax
  303cd7:	89 45 bc             	mov    %eax,-0x44(%ebp)
  303cda:	8b 45 d4             	mov    -0x2c(%ebp),%eax
  303cdd:	8b 50 1c             	mov    0x1c(%eax),%edx
  303ce0:	89 55 b8             	mov    %edx,-0x48(%ebp)
  303ce3:	8b 45 d4             	mov    -0x2c(%ebp),%eax
  303ce6:	8b 48 30             	mov    0x30(%eax),%ecx
  303ce9:	89 4d b4             	mov    %ecx,-0x4c(%ebp)
  303cec:	8b 45 d4             	mov    -0x2c(%ebp),%eax
  303cef:	8b 58 34             	mov    0x34(%eax),%ebx
  303cf2:	89 5d b0             	mov    %ebx,-0x50(%ebp)
  303cf5:	8b 45 d4             	mov    -0x2c(%ebp),%eax
  303cf8:	8b 70 38             	mov    0x38(%eax),%esi
  303cfb:	8b 45 d4             	mov    -0x2c(%ebp),%eax
  303cfe:	8b 58 28             	mov    0x28(%eax),%ebx
  303d01:	8b 45 d4             	mov    -0x2c(%ebp),%eax
  303d04:	8b 48 2c             	mov    0x2c(%eax),%ecx
  303d07:	8b 45 d4             	mov    -0x2c(%ebp),%eax
  303d0a:	8b 50 24             	mov    0x24(%eax),%edx
  303d0d:	8b 45 d4             	mov    -0x2c(%ebp),%eax
  303d10:	8b 40 20             	mov    0x20(%eax),%eax
  303d13:	57                   	push   %edi
  303d14:	ff 75 d0             	push   -0x30(%ebp)
  303d17:	ff 75 cc             	push   -0x34(%ebp)
  303d1a:	ff 75 c8             	push   -0x38(%ebp)
  303d1d:	ff 75 c4             	push   -0x3c(%ebp)
  303d20:	ff 75 c0             	push   -0x40(%ebp)
  303d23:	ff 75 bc             	push   -0x44(%ebp)
  303d26:	ff 75 b8             	push   -0x48(%ebp)
  303d29:	ff 75 b4             	push   -0x4c(%ebp)
  303d2c:	ff 75 b0             	push   -0x50(%ebp)
  303d2f:	56                   	push   %esi
  303d30:	53                   	push   %ebx
  303d31:	51                   	push   %ecx
  303d32:	52                   	push   %edx
  303d33:	50                   	push   %eax
  303d34:	68 dc 45 30 00       	push   $0x3045dc
  303d39:	e8 92 f3 ff ff       	call   3030d0 <printf>
  303d3e:	83 c4 40             	add    $0x40,%esp
  303d41:	8b 45 d4             	mov    -0x2c(%ebp),%eax
  303d44:	0f b6 40 20          	movzbl 0x20(%eax),%eax
  303d48:	88 45 e7             	mov    %al,-0x19(%ebp)
  303d4b:	80 7d e7 1f          	cmpb   $0x1f,-0x19(%ebp)
  303d4f:	77 0a                	ja     303d5b <intr_hdlr+0xc8>
  303d51:	8b 45 d4             	mov    -0x2c(%ebp),%eax
  303d54:	e8 3a 00 00 00       	call   303d93 <excp_hdlr>
  303d59:	eb 15                	jmp    303d70 <intr_hdlr+0xdd>
  303d5b:	0f b6 45 e7          	movzbl -0x19(%ebp),%eax
  303d5f:	83 ec 08             	sub    $0x8,%esp
  303d62:	50                   	push   %eax
  303d63:	68 bb 46 30 00       	push   $0x3046bb
  303d68:	e8 63 f3 ff ff       	call   3030d0 <printf>
  303d6d:	83 c4 10             	add    $0x10,%esp
  303d70:	90                   	nop
  303d71:	8d 65 f4             	lea    -0xc(%ebp),%esp
  303d74:	5b                   	pop    %ebx
  303d75:	5e                   	pop    %esi
  303d76:	5f                   	pop    %edi
  303d77:	5d                   	pop    %ebp
  303d78:	c3                   	ret

00303d79 <ack_pic2>:
  303d79:	50                   	push   %eax
  303d7a:	b0 20                	mov    $0x20,%al
  303d7c:	e6 a0                	out    %al,$0xa0
  303d7e:	eb 03                	jmp    303d83 <eoi_pic1>

00303d80 <ack_pic1>:
  303d80:	50                   	push   %eax
  303d81:	b0 20                	mov    $0x20,%al

00303d83 <eoi_pic1>:
  303d83:	e6 20                	out    %al,$0x20
  303d85:	58                   	pop    %eax

00303d86 <idt_common>:
  303d86:	60                   	pusha
  303d87:	89 e0                	mov    %esp,%eax
  303d89:	e8 05 ff ff ff       	call   303c93 <intr_hdlr>

00303d8e <resume_from_intr>:
  303d8e:	61                   	popa
  303d8f:	83 c4 08             	add    $0x8,%esp
  303d92:	cf                   	iret

00303d93 <excp_hdlr>:
  303d93:	55                   	push   %ebp
  303d94:	89 e5                	mov    %esp,%ebp
  303d96:	56                   	push   %esi
  303d97:	53                   	push   %ebx
  303d98:	83 ec 20             	sub    $0x20,%esp
  303d9b:	89 45 e4             	mov    %eax,-0x1c(%ebp)
  303d9e:	8b 45 e4             	mov    -0x1c(%ebp),%eax
  303da1:	0f b6 40 20          	movzbl 0x20(%eax),%eax
  303da5:	0f b6 c0             	movzbl %al,%eax
  303da8:	8b 04 85 20 49 30 00 	mov    0x304920(,%eax,4),%eax
  303daf:	83 ec 08             	sub    $0x8,%esp
  303db2:	50                   	push   %eax
  303db3:	68 05 48 30 00       	push   $0x304805
  303db8:	e8 13 f3 ff ff       	call   3030d0 <printf>
  303dbd:	83 c4 10             	add    $0x10,%esp
  303dc0:	8b 45 e4             	mov    -0x1c(%ebp),%eax
  303dc3:	0f b6 40 20          	movzbl 0x20(%eax),%eax
  303dc7:	0f b6 c0             	movzbl %al,%eax
  303dca:	83 f8 0e             	cmp    $0xe,%eax
  303dcd:	74 2d                	je     303dfc <excp_hdlr+0x69>
  303dcf:	83 f8 0e             	cmp    $0xe,%eax
  303dd2:	0f 8f da 00 00 00    	jg     303eb2 <excp_hdlr+0x11f>
  303dd8:	83 f8 02             	cmp    $0x2,%eax
  303ddb:	74 0a                	je     303de7 <excp_hdlr+0x54>
  303ddd:	83 f8 0d             	cmp    $0xd,%eax
  303de0:	74 76                	je     303e58 <excp_hdlr+0xc5>
  303de2:	e9 cb 00 00 00       	jmp    303eb2 <excp_hdlr+0x11f>
  303de7:	83 ec 0c             	sub    $0xc,%esp
  303dea:	68 15 48 30 00       	push   $0x304815
  303def:	e8 dc f2 ff ff       	call   3030d0 <printf>
  303df4:	83 c4 10             	add    $0x10,%esp
  303df7:	e9 0c 01 00 00       	jmp    303f08 <excp_hdlr+0x175>
  303dfc:	0f 20 d0             	mov    %cr2,%eax
  303dff:	89 45 f4             	mov    %eax,-0xc(%ebp)
  303e02:	8b 75 f4             	mov    -0xc(%ebp),%esi
  303e05:	8b 45 e4             	mov    -0x1c(%ebp),%eax
  303e08:	0f b6 40 24          	movzbl 0x24(%eax),%eax
  303e0c:	c0 e8 04             	shr    $0x4,%al
  303e0f:	83 e0 01             	and    $0x1,%eax
  303e12:	0f b6 d8             	movzbl %al,%ebx
  303e15:	8b 45 e4             	mov    -0x1c(%ebp),%eax
  303e18:	0f b6 40 24          	movzbl 0x24(%eax),%eax
  303e1c:	c0 e8 02             	shr    $0x2,%al
  303e1f:	83 e0 01             	and    $0x1,%eax
  303e22:	0f b6 c8             	movzbl %al,%ecx
  303e25:	8b 45 e4             	mov    -0x1c(%ebp),%eax
  303e28:	0f b6 40 24          	movzbl 0x24(%eax),%eax
  303e2c:	d0 e8                	shr    $1,%al
  303e2e:	83 e0 01             	and    $0x1,%eax
  303e31:	0f b6 d0             	movzbl %al,%edx
  303e34:	8b 45 e4             	mov    -0x1c(%ebp),%eax
  303e37:	0f b6 40 24          	movzbl 0x24(%eax),%eax
  303e3b:	83 e0 01             	and    $0x1,%eax
  303e3e:	0f b6 c0             	movzbl %al,%eax
  303e41:	83 ec 08             	sub    $0x8,%esp
  303e44:	56                   	push   %esi
  303e45:	53                   	push   %ebx
  303e46:	51                   	push   %ecx
  303e47:	52                   	push   %edx
  303e48:	50                   	push   %eax
  303e49:	68 28 48 30 00       	push   $0x304828
  303e4e:	e8 7d f2 ff ff       	call   3030d0 <printf>
  303e53:	83 c4 20             	add    $0x20,%esp
  303e56:	eb 5a                	jmp    303eb2 <excp_hdlr+0x11f>
  303e58:	8b 45 e4             	mov    -0x1c(%ebp),%eax
  303e5b:	0f b6 50 24          	movzbl 0x24(%eax),%edx
  303e5f:	c0 ea 03             	shr    $0x3,%dl
  303e62:	0f b6 d2             	movzbl %dl,%edx
  303e65:	0f b6 40 25          	movzbl 0x25(%eax),%eax
  303e69:	c1 e0 05             	shl    $0x5,%eax
  303e6c:	09 d0                	or     %edx,%eax
  303e6e:	0f b7 d8             	movzwl %ax,%ebx
  303e71:	8b 45 e4             	mov    -0x1c(%ebp),%eax
  303e74:	0f b6 40 24          	movzbl 0x24(%eax),%eax
  303e78:	c0 e8 02             	shr    $0x2,%al
  303e7b:	83 e0 01             	and    $0x1,%eax
  303e7e:	0f b6 c8             	movzbl %al,%ecx
  303e81:	8b 45 e4             	mov    -0x1c(%ebp),%eax
  303e84:	0f b6 40 24          	movzbl 0x24(%eax),%eax
  303e88:	d0 e8                	shr    $1,%al
  303e8a:	83 e0 01             	and    $0x1,%eax
  303e8d:	0f b6 d0             	movzbl %al,%edx
  303e90:	8b 45 e4             	mov    -0x1c(%ebp),%eax
  303e93:	0f b6 40 24          	movzbl 0x24(%eax),%eax
  303e97:	83 e0 01             	and    $0x1,%eax
  303e9a:	0f b6 c0             	movzbl %al,%eax
  303e9d:	83 ec 0c             	sub    $0xc,%esp
  303ea0:	53                   	push   %ebx
  303ea1:	51                   	push   %ecx
  303ea2:	52                   	push   %edx
  303ea3:	50                   	push   %eax
  303ea4:	68 58 48 30 00       	push   $0x304858
  303ea9:	e8 22 f2 ff ff       	call   3030d0 <printf>
  303eae:	83 c4 20             	add    $0x20,%esp
  303eb1:	90                   	nop
  303eb2:	0f 20 c0             	mov    %cr0,%eax
  303eb5:	89 45 f0             	mov    %eax,-0x10(%ebp)
  303eb8:	8b 45 f0             	mov    -0x10(%ebp),%eax
  303ebb:	83 ec 08             	sub    $0x8,%esp
  303ebe:	50                   	push   %eax
  303ebf:	68 83 48 30 00       	push   $0x304883
  303ec4:	e8 07 f2 ff ff       	call   3030d0 <printf>
  303ec9:	83 c4 10             	add    $0x10,%esp
  303ecc:	0f 20 e0             	mov    %cr4,%eax
  303ecf:	89 45 ec             	mov    %eax,-0x14(%ebp)
  303ed2:	8b 45 ec             	mov    -0x14(%ebp),%eax
  303ed5:	83 ec 08             	sub    $0x8,%esp
  303ed8:	50                   	push   %eax
  303ed9:	68 8d 48 30 00       	push   $0x30488d
  303ede:	e8 ed f1 ff ff       	call   3030d0 <printf>
  303ee3:	83 c4 10             	add    $0x10,%esp
  303ee6:	8b 45 e4             	mov    -0x1c(%ebp),%eax
  303ee9:	8b 40 08             	mov    0x8(%eax),%eax
  303eec:	83 ec 0c             	sub    $0xc,%esp
  303eef:	50                   	push   %eax
  303ef0:	e8 1a 00 00 00       	call   303f0f <stack_trace>
  303ef5:	83 c4 10             	add    $0x10,%esp
  303ef8:	83 ec 0c             	sub    $0xc,%esp
  303efb:	68 97 48 30 00       	push   $0x304897
  303f00:	e8 a3 f1 ff ff       	call   3030a8 <panic>
  303f05:	83 c4 10             	add    $0x10,%esp
  303f08:	8d 65 f8             	lea    -0x8(%ebp),%esp
  303f0b:	5b                   	pop    %ebx
  303f0c:	5e                   	pop    %esi
  303f0d:	5d                   	pop    %ebp
  303f0e:	c3                   	ret

00303f0f <stack_trace>:
  303f0f:	55                   	push   %ebp
  303f10:	89 e5                	mov    %esp,%ebp
  303f12:	83 ec 18             	sub    $0x18,%esp
  303f15:	83 ec 0c             	sub    $0xc,%esp
  303f18:	68 aa 48 30 00       	push   $0x3048aa
  303f1d:	e8 ae f1 ff ff       	call   3030d0 <printf>
  303f22:	83 c4 10             	add    $0x10,%esp
  303f25:	8b 45 08             	mov    0x8(%ebp),%eax
  303f28:	89 45 f4             	mov    %eax,-0xc(%ebp)
  303f2b:	eb 26                	jmp    303f53 <stack_trace+0x44>
  303f2d:	8b 45 f4             	mov    -0xc(%ebp),%eax
  303f30:	83 c0 04             	add    $0x4,%eax
  303f33:	8b 00                	mov    (%eax),%eax
  303f35:	89 45 f0             	mov    %eax,-0x10(%ebp)
  303f38:	8b 45 f4             	mov    -0xc(%ebp),%eax
  303f3b:	8b 00                	mov    (%eax),%eax
  303f3d:	89 45 f4             	mov    %eax,-0xc(%ebp)
  303f40:	83 ec 08             	sub    $0x8,%esp
  303f43:	ff 75 f0             	push   -0x10(%ebp)
  303f46:	68 be 48 30 00       	push   $0x3048be
  303f4b:	e8 80 f1 ff ff       	call   3030d0 <printf>
  303f50:	83 c4 10             	add    $0x10,%esp
  303f53:	83 7d f4 00          	cmpl   $0x0,-0xc(%ebp)
  303f57:	74 09                	je     303f62 <stack_trace+0x53>
  303f59:	81 7d f4 10 20 30 00 	cmpl   $0x302010,-0xc(%ebp)
  303f60:	72 cb                	jb     303f2d <stack_trace+0x1e>
  303f62:	90                   	nop
  303f63:	c9                   	leave
  303f64:	c3                   	ret

00303f65 <bp_handler>:
  303f65:	55                   	push   %ebp
  303f66:	89 e5                	mov    %esp,%ebp
  303f68:	83 ec 18             	sub    $0x18,%esp
  303f6b:	60                   	pusha
  303f6c:	8b 45 04             	mov    0x4(%ebp),%eax
  303f6f:	89 45 f4             	mov    %eax,-0xc(%ebp)
  303f72:	83 ec 08             	sub    $0x8,%esp
  303f75:	ff 75 f4             	push   -0xc(%ebp)
  303f78:	68 c4 48 30 00       	push   $0x3048c4
  303f7d:	e8 4e f1 ff ff       	call   3030d0 <printf>
  303f82:	83 c4 10             	add    $0x10,%esp
  303f85:	61                   	popa
  303f86:	cf                   	iret
  303f87:	90                   	nop
  303f88:	c9                   	leave
  303f89:	c3                   	ret

00303f8a <bp_trigger>:
  303f8a:	55                   	push   %ebp
  303f8b:	89 e5                	mov    %esp,%ebp
  303f8d:	cc                   	int3
  303f8e:	90                   	nop
  303f8f:	5d                   	pop    %ebp
  303f90:	c3                   	ret

00303f91 <tp>:
  303f91:	55                   	push   %ebp
  303f92:	89 e5                	mov    %esp,%ebp
  303f94:	53                   	push   %ebx
  303f95:	83 ec 14             	sub    $0x14,%esp
  303f98:	0f 01 4d f2          	sidtl  -0xe(%ebp)
  303f9c:	8b 45 f4             	mov    -0xc(%ebp),%eax
  303f9f:	83 ec 08             	sub    $0x8,%esp
  303fa2:	50                   	push   %eax
  303fa3:	68 e3 48 30 00       	push   $0x3048e3
  303fa8:	e8 23 f1 ff ff       	call   3030d0 <printf>
  303fad:	83 c4 10             	add    $0x10,%esp
  303fb0:	b8 65 3f 30 00       	mov    $0x303f65,%eax
  303fb5:	89 45 ee             	mov    %eax,-0x12(%ebp)
  303fb8:	0f b7 5d ee          	movzwl -0x12(%ebp),%ebx
  303fbc:	8b 45 f4             	mov    -0xc(%ebp),%eax
  303fbf:	8d 48 18             	lea    0x18(%eax),%ecx
  303fc2:	0f b7 c3             	movzwl %bx,%eax
  303fc5:	ba 00 00 00 00       	mov    $0x0,%edx
  303fca:	89 01                	mov    %eax,(%ecx)
  303fcc:	89 51 04             	mov    %edx,0x4(%ecx)
  303fcf:	8b 45 f4             	mov    -0xc(%ebp),%eax
  303fd2:	83 c0 18             	add    $0x18,%eax
  303fd5:	0f b6 50 02          	movzbl 0x2(%eax),%edx
  303fd9:	83 e2 00             	and    $0x0,%edx
  303fdc:	83 ca 08             	or     $0x8,%edx
  303fdf:	88 50 02             	mov    %dl,0x2(%eax)
  303fe2:	0f b6 50 03          	movzbl 0x3(%eax),%edx
  303fe6:	83 e2 00             	and    $0x0,%edx
  303fe9:	88 50 03             	mov    %dl,0x3(%eax)
  303fec:	8b 45 f4             	mov    -0xc(%ebp),%eax
  303fef:	83 c0 18             	add    $0x18,%eax
  303ff2:	0f b6 50 05          	movzbl 0x5(%eax),%edx
  303ff6:	83 e2 f0             	and    $0xfffffff0,%edx
  303ff9:	83 ca 0e             	or     $0xe,%edx
  303ffc:	88 50 05             	mov    %dl,0x5(%eax)
  303fff:	8b 45 f4             	mov    -0xc(%ebp),%eax
  304002:	83 c0 18             	add    $0x18,%eax
  304005:	0f b7 55 f0          	movzwl -0x10(%ebp),%edx
  304009:	0f b7 ca             	movzwl %dx,%ecx
  30400c:	0f b6 d9             	movzbl %cl,%ebx
  30400f:	0f b6 48 06          	movzbl 0x6(%eax),%ecx
  304013:	83 e1 00             	and    $0x0,%ecx
  304016:	09 d9                	or     %ebx,%ecx
  304018:	88 48 06             	mov    %cl,0x6(%eax)
  30401b:	66 c1 ea 08          	shr    $0x8,%dx
  30401f:	0f b7 ca             	movzwl %dx,%ecx
  304022:	0f b6 50 07          	movzbl 0x7(%eax),%edx
  304026:	83 e2 00             	and    $0x0,%edx
  304029:	09 ca                	or     %ecx,%edx
  30402b:	88 50 07             	mov    %dl,0x7(%eax)
  30402e:	8b 45 f4             	mov    -0xc(%ebp),%eax
  304031:	83 c0 18             	add    $0x18,%eax
  304034:	0f b6 50 05          	movzbl 0x5(%eax),%edx
  304038:	83 ca 80             	or     $0xffffff80,%edx
  30403b:	88 50 05             	mov    %dl,0x5(%eax)
  30403e:	e8 47 ff ff ff       	call   303f8a <bp_trigger>
  304043:	90                   	nop
  304044:	8b 5d fc             	mov    -0x4(%ebp),%ebx
  304047:	c9                   	leave
  304048:	c3                   	ret
  304049:	66 90                	xchg   %ax,%ax
  30404b:	66 90                	xchg   %ax,%ax
  30404d:	66 90                	xchg   %ax,%ax
  30404f:	90                   	nop

00304050 <__divdi3>:
  304050:	f3 0f 1e fb          	endbr32
  304054:	55                   	push   %ebp
  304055:	57                   	push   %edi
  304056:	56                   	push   %esi
  304057:	53                   	push   %ebx
  304058:	83 ec 1c             	sub    $0x1c,%esp
  30405b:	8b 5c 24 34          	mov    0x34(%esp),%ebx
  30405f:	8b 4c 24 30          	mov    0x30(%esp),%ecx
  304063:	c7 44 24 08 00 00 00 	movl   $0x0,0x8(%esp)
  30406a:	00 
  30406b:	8b 44 24 38          	mov    0x38(%esp),%eax
  30406f:	8b 54 24 3c          	mov    0x3c(%esp),%edx
  304073:	89 0c 24             	mov    %ecx,(%esp)
  304076:	89 dd                	mov    %ebx,%ebp
  304078:	89 5c 24 04          	mov    %ebx,0x4(%esp)
  30407c:	85 db                	test   %ebx,%ebx
  30407e:	79 18                	jns    304098 <__divdi3+0x48>
  304080:	f7 d9                	neg    %ecx
  304082:	c7 44 24 08 ff ff ff 	movl   $0xffffffff,0x8(%esp)
  304089:	ff 
  30408a:	83 d3 00             	adc    $0x0,%ebx
  30408d:	89 0c 24             	mov    %ecx,(%esp)
  304090:	f7 db                	neg    %ebx
  304092:	89 5c 24 04          	mov    %ebx,0x4(%esp)
  304096:	89 dd                	mov    %ebx,%ebp
  304098:	89 d3                	mov    %edx,%ebx
  30409a:	85 d2                	test   %edx,%edx
  30409c:	79 0d                	jns    3040ab <__divdi3+0x5b>
  30409e:	f7 d8                	neg    %eax
  3040a0:	f7 54 24 08          	notl   0x8(%esp)
  3040a4:	83 d2 00             	adc    $0x0,%edx
  3040a7:	f7 da                	neg    %edx
  3040a9:	89 d3                	mov    %edx,%ebx
  3040ab:	89 c7                	mov    %eax,%edi
  3040ad:	8b 04 24             	mov    (%esp),%eax
  3040b0:	85 db                	test   %ebx,%ebx
  3040b2:	75 14                	jne    3040c8 <__divdi3+0x78>
  3040b4:	39 fd                	cmp    %edi,%ebp
  3040b6:	73 58                	jae    304110 <__divdi3+0xc0>
  3040b8:	89 ea                	mov    %ebp,%edx
  3040ba:	31 f6                	xor    %esi,%esi
  3040bc:	f7 f7                	div    %edi
  3040be:	89 c5                	mov    %eax,%ebp
  3040c0:	eb 0e                	jmp    3040d0 <__divdi3+0x80>
  3040c2:	8d b6 00 00 00 00    	lea    0x0(%esi),%esi
  3040c8:	39 dd                	cmp    %ebx,%ebp
  3040ca:	73 24                	jae    3040f0 <__divdi3+0xa0>
  3040cc:	31 f6                	xor    %esi,%esi
  3040ce:	31 ed                	xor    %ebp,%ebp
  3040d0:	8b 4c 24 08          	mov    0x8(%esp),%ecx
  3040d4:	89 e8                	mov    %ebp,%eax
  3040d6:	89 f2                	mov    %esi,%edx
  3040d8:	85 c9                	test   %ecx,%ecx
  3040da:	74 07                	je     3040e3 <__divdi3+0x93>
  3040dc:	f7 d8                	neg    %eax
  3040de:	83 d2 00             	adc    $0x0,%edx
  3040e1:	f7 da                	neg    %edx
  3040e3:	83 c4 1c             	add    $0x1c,%esp
  3040e6:	5b                   	pop    %ebx
  3040e7:	5e                   	pop    %esi
  3040e8:	5f                   	pop    %edi
  3040e9:	5d                   	pop    %ebp
  3040ea:	c3                   	ret
  3040eb:	2e 8d 74 26 00       	lea    %cs:0x0(%esi,%eiz,1),%esi
  3040f0:	0f bd c3             	bsr    %ebx,%eax
  3040f3:	83 f0 1f             	xor    $0x1f,%eax
  3040f6:	89 c6                	mov    %eax,%esi
  3040f8:	75 36                	jne    304130 <__divdi3+0xe0>
  3040fa:	39 eb                	cmp    %ebp,%ebx
  3040fc:	72 07                	jb     304105 <__divdi3+0xb5>
  3040fe:	31 ed                	xor    %ebp,%ebp
  304100:	39 3c 24             	cmp    %edi,(%esp)
  304103:	72 cb                	jb     3040d0 <__divdi3+0x80>
  304105:	bd 01 00 00 00       	mov    $0x1,%ebp
  30410a:	eb c4                	jmp    3040d0 <__divdi3+0x80>
  30410c:	8d 74 26 00          	lea    0x0(%esi,%eiz,1),%esi
  304110:	85 ff                	test   %edi,%edi
  304112:	75 0b                	jne    30411f <__divdi3+0xcf>
  304114:	b8 01 00 00 00       	mov    $0x1,%eax
  304119:	31 d2                	xor    %edx,%edx
  30411b:	f7 f3                	div    %ebx
  30411d:	89 c7                	mov    %eax,%edi
  30411f:	89 e8                	mov    %ebp,%eax
  304121:	31 d2                	xor    %edx,%edx
  304123:	f7 f7                	div    %edi
  304125:	89 c6                	mov    %eax,%esi
  304127:	8b 04 24             	mov    (%esp),%eax
  30412a:	f7 f7                	div    %edi
  30412c:	89 c5                	mov    %eax,%ebp
  30412e:	eb a0                	jmp    3040d0 <__divdi3+0x80>
  304130:	b8 20 00 00 00       	mov    $0x20,%eax
  304135:	89 f1                	mov    %esi,%ecx
  304137:	89 fa                	mov    %edi,%edx
  304139:	29 f0                	sub    %esi,%eax
  30413b:	d3 e3                	shl    %cl,%ebx
  30413d:	89 c1                	mov    %eax,%ecx
  30413f:	d3 ea                	shr    %cl,%edx
  304141:	89 f1                	mov    %esi,%ecx
  304143:	09 da                	or     %ebx,%edx
  304145:	d3 e7                	shl    %cl,%edi
  304147:	89 eb                	mov    %ebp,%ebx
  304149:	89 c1                	mov    %eax,%ecx
  30414b:	d3 eb                	shr    %cl,%ebx
  30414d:	89 54 24 0c          	mov    %edx,0xc(%esp)
  304151:	89 f1                	mov    %esi,%ecx
  304153:	8b 14 24             	mov    (%esp),%edx
  304156:	d3 e5                	shl    %cl,%ebp
  304158:	89 c1                	mov    %eax,%ecx
  30415a:	d3 ea                	shr    %cl,%edx
  30415c:	09 d5                	or     %edx,%ebp
  30415e:	89 da                	mov    %ebx,%edx
  304160:	89 e8                	mov    %ebp,%eax
  304162:	f7 74 24 0c          	divl   0xc(%esp)
  304166:	89 d3                	mov    %edx,%ebx
  304168:	89 c5                	mov    %eax,%ebp
  30416a:	f7 e7                	mul    %edi
  30416c:	39 d3                	cmp    %edx,%ebx
  30416e:	72 0f                	jb     30417f <__divdi3+0x12f>
  304170:	8b 3c 24             	mov    (%esp),%edi
  304173:	89 f1                	mov    %esi,%ecx
  304175:	d3 e7                	shl    %cl,%edi
  304177:	39 c7                	cmp    %eax,%edi
  304179:	73 07                	jae    304182 <__divdi3+0x132>
  30417b:	39 d3                	cmp    %edx,%ebx
  30417d:	75 03                	jne    304182 <__divdi3+0x132>
  30417f:	83 ed 01             	sub    $0x1,%ebp
  304182:	31 f6                	xor    %esi,%esi
  304184:	e9 47 ff ff ff       	jmp    3040d0 <__divdi3+0x80>
  304189:	66 90                	xchg   %ax,%ax
  30418b:	66 90                	xchg   %ax,%ax
  30418d:	66 90                	xchg   %ax,%ax
  30418f:	90                   	nop

00304190 <__moddi3>:
  304190:	f3 0f 1e fb          	endbr32
  304194:	55                   	push   %ebp
  304195:	57                   	push   %edi
  304196:	56                   	push   %esi
  304197:	53                   	push   %ebx
  304198:	83 ec 2c             	sub    $0x2c,%esp
  30419b:	8b 54 24 44          	mov    0x44(%esp),%edx
  30419f:	8b 44 24 40          	mov    0x40(%esp),%eax
  3041a3:	c7 44 24 0c 00 00 00 	movl   $0x0,0xc(%esp)
  3041aa:	00 
  3041ab:	8b 4c 24 48          	mov    0x48(%esp),%ecx
  3041af:	8b 5c 24 4c          	mov    0x4c(%esp),%ebx
  3041b3:	89 d6                	mov    %edx,%esi
  3041b5:	85 d2                	test   %edx,%edx
  3041b7:	79 11                	jns    3041ca <__moddi3+0x3a>
  3041b9:	f7 d8                	neg    %eax
  3041bb:	c7 44 24 0c ff ff ff 	movl   $0xffffffff,0xc(%esp)
  3041c2:	ff 
  3041c3:	83 d2 00             	adc    $0x0,%edx
  3041c6:	f7 da                	neg    %edx
  3041c8:	89 d6                	mov    %edx,%esi
  3041ca:	89 df                	mov    %ebx,%edi
  3041cc:	85 db                	test   %ebx,%ebx
  3041ce:	0f 88 04 01 00 00    	js     3042d8 <__moddi3+0x148>
  3041d4:	89 44 24 18          	mov    %eax,0x18(%esp)
  3041d8:	89 cb                	mov    %ecx,%ebx
  3041da:	89 fd                	mov    %edi,%ebp
  3041dc:	75 32                	jne    304210 <__moddi3+0x80>
  3041de:	39 de                	cmp    %ebx,%esi
  3041e0:	0f 83 ca 00 00 00    	jae    3042b0 <__moddi3+0x120>
  3041e6:	8b 44 24 18          	mov    0x18(%esp),%eax
  3041ea:	89 f2                	mov    %esi,%edx
  3041ec:	f7 f3                	div    %ebx
  3041ee:	89 d1                	mov    %edx,%ecx
  3041f0:	89 c8                	mov    %ecx,%eax
  3041f2:	31 d2                	xor    %edx,%edx
  3041f4:	8b 4c 24 0c          	mov    0xc(%esp),%ecx
  3041f8:	85 c9                	test   %ecx,%ecx
  3041fa:	74 07                	je     304203 <__moddi3+0x73>
  3041fc:	f7 d8                	neg    %eax
  3041fe:	83 d2 00             	adc    $0x0,%edx
  304201:	f7 da                	neg    %edx
  304203:	83 c4 2c             	add    $0x2c,%esp
  304206:	5b                   	pop    %ebx
  304207:	5e                   	pop    %esi
  304208:	5f                   	pop    %edi
  304209:	5d                   	pop    %ebp
  30420a:	c3                   	ret
  30420b:	2e 8d 74 26 00       	lea    %cs:0x0(%esi,%eiz,1),%esi
  304210:	39 fe                	cmp    %edi,%esi
  304212:	0f 82 07 01 00 00    	jb     30431f <__moddi3+0x18f>
  304218:	0f bd c7             	bsr    %edi,%eax
  30421b:	83 f0 1f             	xor    $0x1f,%eax
  30421e:	89 c7                	mov    %eax,%edi
  304220:	ba 20 00 00 00       	mov    $0x20,%edx
  304225:	89 f9                	mov    %edi,%ecx
  304227:	89 d8                	mov    %ebx,%eax
  304229:	29 fa                	sub    %edi,%edx
  30422b:	d3 e5                	shl    %cl,%ebp
  30422d:	89 d1                	mov    %edx,%ecx
  30422f:	89 54 24 1c          	mov    %edx,0x1c(%esp)
  304233:	d3 e8                	shr    %cl,%eax
  304235:	89 f9                	mov    %edi,%ecx
  304237:	d3 e3                	shl    %cl,%ebx
  304239:	09 c5                	or     %eax,%ebp
  30423b:	89 d1                	mov    %edx,%ecx
  30423d:	89 f0                	mov    %esi,%eax
  30423f:	d3 e8                	shr    %cl,%eax
  304241:	89 5c 24 10          	mov    %ebx,0x10(%esp)
  304245:	89 f9                	mov    %edi,%ecx
  304247:	89 d3                	mov    %edx,%ebx
  304249:	89 c2                	mov    %eax,%edx
  30424b:	8b 44 24 18          	mov    0x18(%esp),%eax
  30424f:	d3 e6                	shl    %cl,%esi
  304251:	89 d9                	mov    %ebx,%ecx
  304253:	d3 e8                	shr    %cl,%eax
  304255:	89 f9                	mov    %edi,%ecx
  304257:	09 f0                	or     %esi,%eax
  304259:	8b 74 24 18          	mov    0x18(%esp),%esi
  30425d:	f7 f5                	div    %ebp
  30425f:	d3 e6                	shl    %cl,%esi
  304261:	89 d3                	mov    %edx,%ebx
  304263:	89 74 24 18          	mov    %esi,0x18(%esp)
  304267:	f7 64 24 10          	mull   0x10(%esp)
  30426b:	89 c6                	mov    %eax,%esi
  30426d:	89 d1                	mov    %edx,%ecx
  30426f:	39 d3                	cmp    %edx,%ebx
  304271:	72 08                	jb     30427b <__moddi3+0xeb>
  304273:	75 10                	jne    304285 <__moddi3+0xf5>
  304275:	39 44 24 18          	cmp    %eax,0x18(%esp)
  304279:	73 0a                	jae    304285 <__moddi3+0xf5>
  30427b:	2b 44 24 10          	sub    0x10(%esp),%eax
  30427f:	19 ea                	sbb    %ebp,%edx
  304281:	89 d1                	mov    %edx,%ecx
  304283:	89 c6                	mov    %eax,%esi
  304285:	8b 6c 24 18          	mov    0x18(%esp),%ebp
  304289:	29 f5                	sub    %esi,%ebp
  30428b:	19 cb                	sbb    %ecx,%ebx
  30428d:	0f b6 4c 24 1c       	movzbl 0x1c(%esp),%ecx
  304292:	89 de                	mov    %ebx,%esi
  304294:	d3 e6                	shl    %cl,%esi
  304296:	89 f9                	mov    %edi,%ecx
  304298:	d3 ed                	shr    %cl,%ebp
  30429a:	d3 eb                	shr    %cl,%ebx
  30429c:	09 ee                	or     %ebp,%esi
  30429e:	89 da                	mov    %ebx,%edx
  3042a0:	89 f0                	mov    %esi,%eax
  3042a2:	e9 4d ff ff ff       	jmp    3041f4 <__moddi3+0x64>
  3042a7:	2e 8d b4 26 00 00 00 	lea    %cs:0x0(%esi,%eiz,1),%esi
  3042ae:	00 
  3042af:	90                   	nop
  3042b0:	85 db                	test   %ebx,%ebx
  3042b2:	75 0b                	jne    3042bf <__moddi3+0x12f>
  3042b4:	b8 01 00 00 00       	mov    $0x1,%eax
  3042b9:	31 d2                	xor    %edx,%edx
  3042bb:	f7 f3                	div    %ebx
  3042bd:	89 c3                	mov    %eax,%ebx
  3042bf:	89 f0                	mov    %esi,%eax
  3042c1:	31 d2                	xor    %edx,%edx
  3042c3:	f7 f3                	div    %ebx
  3042c5:	8b 44 24 18          	mov    0x18(%esp),%eax
  3042c9:	f7 f3                	div    %ebx
  3042cb:	89 d1                	mov    %edx,%ecx
  3042cd:	e9 1e ff ff ff       	jmp    3041f0 <__moddi3+0x60>
  3042d2:	8d b6 00 00 00 00    	lea    0x0(%esi),%esi
  3042d8:	f7 d9                	neg    %ecx
  3042da:	89 44 24 18          	mov    %eax,0x18(%esp)
  3042de:	83 d3 00             	adc    $0x0,%ebx
  3042e1:	89 4c 24 10          	mov    %ecx,0x10(%esp)
  3042e5:	f7 db                	neg    %ebx
  3042e7:	89 5c 24 14          	mov    %ebx,0x14(%esp)
  3042eb:	89 dd                	mov    %ebx,%ebp
  3042ed:	89 cb                	mov    %ecx,%ebx
  3042ef:	0f 84 e9 fe ff ff    	je     3041de <__moddi3+0x4e>
  3042f5:	89 c1                	mov    %eax,%ecx
  3042f7:	39 ee                	cmp    %ebp,%esi
  3042f9:	72 26                	jb     304321 <__moddi3+0x191>
  3042fb:	0f bd c5             	bsr    %ebp,%eax
  3042fe:	83 f0 1f             	xor    $0x1f,%eax
  304301:	89 c7                	mov    %eax,%edi
  304303:	0f 85 17 ff ff ff    	jne    304220 <__moddi3+0x90>
  304309:	39 f5                	cmp    %esi,%ebp
  30430b:	72 06                	jb     304313 <__moddi3+0x183>
  30430d:	39 5c 24 18          	cmp    %ebx,0x18(%esp)
  304311:	72 0e                	jb     304321 <__moddi3+0x191>
  304313:	8b 44 24 18          	mov    0x18(%esp),%eax
  304317:	2b 44 24 10          	sub    0x10(%esp),%eax
  30431b:	1b 74 24 14          	sbb    0x14(%esp),%esi
  30431f:	89 c1                	mov    %eax,%ecx
  304321:	89 c8                	mov    %ecx,%eax
  304323:	89 f2                	mov    %esi,%edx
  304325:	e9 ca fe ff ff       	jmp    3041f4 <__moddi3+0x64>
  30432a:	66 90                	xchg   %ax,%ax
  30432c:	66 90                	xchg   %ax,%ax
  30432e:	66 90                	xchg   %ax,%ax

00304330 <__udivdi3>:
  304330:	f3 0f 1e fb          	endbr32
  304334:	55                   	push   %ebp
  304335:	57                   	push   %edi
  304336:	56                   	push   %esi
  304337:	53                   	push   %ebx
  304338:	83 ec 1c             	sub    $0x1c,%esp
  30433b:	8b 44 24 3c          	mov    0x3c(%esp),%eax
  30433f:	8b 6c 24 30          	mov    0x30(%esp),%ebp
  304343:	8b 74 24 34          	mov    0x34(%esp),%esi
  304347:	8b 5c 24 38          	mov    0x38(%esp),%ebx
  30434b:	85 c0                	test   %eax,%eax
  30434d:	75 19                	jne    304368 <__udivdi3+0x38>
  30434f:	39 de                	cmp    %ebx,%esi
  304351:	73 4d                	jae    3043a0 <__udivdi3+0x70>
  304353:	31 ff                	xor    %edi,%edi
  304355:	89 e8                	mov    %ebp,%eax
  304357:	89 f2                	mov    %esi,%edx
  304359:	f7 f3                	div    %ebx
  30435b:	89 fa                	mov    %edi,%edx
  30435d:	83 c4 1c             	add    $0x1c,%esp
  304360:	5b                   	pop    %ebx
  304361:	5e                   	pop    %esi
  304362:	5f                   	pop    %edi
  304363:	5d                   	pop    %ebp
  304364:	c3                   	ret
  304365:	8d 76 00             	lea    0x0(%esi),%esi
  304368:	39 c6                	cmp    %eax,%esi
  30436a:	73 14                	jae    304380 <__udivdi3+0x50>
  30436c:	31 ff                	xor    %edi,%edi
  30436e:	31 c0                	xor    %eax,%eax
  304370:	89 fa                	mov    %edi,%edx
  304372:	83 c4 1c             	add    $0x1c,%esp
  304375:	5b                   	pop    %ebx
  304376:	5e                   	pop    %esi
  304377:	5f                   	pop    %edi
  304378:	5d                   	pop    %ebp
  304379:	c3                   	ret
  30437a:	8d b6 00 00 00 00    	lea    0x0(%esi),%esi
  304380:	0f bd f8             	bsr    %eax,%edi
  304383:	83 f7 1f             	xor    $0x1f,%edi
  304386:	75 48                	jne    3043d0 <__udivdi3+0xa0>
  304388:	39 f0                	cmp    %esi,%eax
  30438a:	72 06                	jb     304392 <__udivdi3+0x62>
  30438c:	31 c0                	xor    %eax,%eax
  30438e:	39 dd                	cmp    %ebx,%ebp
  304390:	72 de                	jb     304370 <__udivdi3+0x40>
  304392:	b8 01 00 00 00       	mov    $0x1,%eax
  304397:	eb d7                	jmp    304370 <__udivdi3+0x40>
  304399:	8d b4 26 00 00 00 00 	lea    0x0(%esi,%eiz,1),%esi
  3043a0:	89 d9                	mov    %ebx,%ecx
  3043a2:	85 db                	test   %ebx,%ebx
  3043a4:	75 0b                	jne    3043b1 <__udivdi3+0x81>
  3043a6:	b8 01 00 00 00       	mov    $0x1,%eax
  3043ab:	31 d2                	xor    %edx,%edx
  3043ad:	f7 f3                	div    %ebx
  3043af:	89 c1                	mov    %eax,%ecx
  3043b1:	31 d2                	xor    %edx,%edx
  3043b3:	89 f0                	mov    %esi,%eax
  3043b5:	f7 f1                	div    %ecx
  3043b7:	89 c6                	mov    %eax,%esi
  3043b9:	89 e8                	mov    %ebp,%eax
  3043bb:	89 f7                	mov    %esi,%edi
  3043bd:	f7 f1                	div    %ecx
  3043bf:	89 fa                	mov    %edi,%edx
  3043c1:	83 c4 1c             	add    $0x1c,%esp
  3043c4:	5b                   	pop    %ebx
  3043c5:	5e                   	pop    %esi
  3043c6:	5f                   	pop    %edi
  3043c7:	5d                   	pop    %ebp
  3043c8:	c3                   	ret
  3043c9:	8d b4 26 00 00 00 00 	lea    0x0(%esi,%eiz,1),%esi
  3043d0:	89 f9                	mov    %edi,%ecx
  3043d2:	ba 20 00 00 00       	mov    $0x20,%edx
  3043d7:	29 fa                	sub    %edi,%edx
  3043d9:	d3 e0                	shl    %cl,%eax
  3043db:	89 44 24 08          	mov    %eax,0x8(%esp)
  3043df:	89 d1                	mov    %edx,%ecx
  3043e1:	89 d8                	mov    %ebx,%eax
  3043e3:	d3 e8                	shr    %cl,%eax
  3043e5:	89 c1                	mov    %eax,%ecx
  3043e7:	8b 44 24 08          	mov    0x8(%esp),%eax
  3043eb:	09 c1                	or     %eax,%ecx
  3043ed:	89 f0                	mov    %esi,%eax
  3043ef:	89 4c 24 08          	mov    %ecx,0x8(%esp)
  3043f3:	89 f9                	mov    %edi,%ecx
  3043f5:	d3 e3                	shl    %cl,%ebx
  3043f7:	89 d1                	mov    %edx,%ecx
  3043f9:	d3 e8                	shr    %cl,%eax
  3043fb:	89 f9                	mov    %edi,%ecx
  3043fd:	89 5c 24 0c          	mov    %ebx,0xc(%esp)
  304401:	89 eb                	mov    %ebp,%ebx
  304403:	d3 e6                	shl    %cl,%esi
  304405:	89 d1                	mov    %edx,%ecx
  304407:	d3 eb                	shr    %cl,%ebx
  304409:	09 f3                	or     %esi,%ebx
  30440b:	89 c6                	mov    %eax,%esi
  30440d:	89 f2                	mov    %esi,%edx
  30440f:	89 d8                	mov    %ebx,%eax
  304411:	f7 74 24 08          	divl   0x8(%esp)
  304415:	89 d6                	mov    %edx,%esi
  304417:	89 c3                	mov    %eax,%ebx
  304419:	f7 64 24 0c          	mull   0xc(%esp)
  30441d:	39 d6                	cmp    %edx,%esi
  30441f:	72 1f                	jb     304440 <__udivdi3+0x110>
  304421:	89 f9                	mov    %edi,%ecx
  304423:	d3 e5                	shl    %cl,%ebp
  304425:	39 c5                	cmp    %eax,%ebp
  304427:	73 04                	jae    30442d <__udivdi3+0xfd>
  304429:	39 d6                	cmp    %edx,%esi
  30442b:	74 13                	je     304440 <__udivdi3+0x110>
  30442d:	89 d8                	mov    %ebx,%eax
  30442f:	31 ff                	xor    %edi,%edi
  304431:	e9 3a ff ff ff       	jmp    304370 <__udivdi3+0x40>
  304436:	2e 8d b4 26 00 00 00 	lea    %cs:0x0(%esi,%eiz,1),%esi
  30443d:	00 
  30443e:	66 90                	xchg   %ax,%ax
  304440:	8d 43 ff             	lea    -0x1(%ebx),%eax
  304443:	31 ff                	xor    %edi,%edi
  304445:	e9 26 ff ff ff       	jmp    304370 <__udivdi3+0x40>
  30444a:	66 90                	xchg   %ax,%ax
  30444c:	66 90                	xchg   %ax,%ax
  30444e:	66 90                	xchg   %ax,%ax

00304450 <__umoddi3>:
  304450:	f3 0f 1e fb          	endbr32
  304454:	55                   	push   %ebp
  304455:	57                   	push   %edi
  304456:	56                   	push   %esi
  304457:	53                   	push   %ebx
  304458:	83 ec 1c             	sub    $0x1c,%esp
  30445b:	8b 5c 24 34          	mov    0x34(%esp),%ebx
  30445f:	8b 44 24 3c          	mov    0x3c(%esp),%eax
  304463:	8b 74 24 30          	mov    0x30(%esp),%esi
  304467:	8b 7c 24 38          	mov    0x38(%esp),%edi
  30446b:	89 da                	mov    %ebx,%edx
  30446d:	85 c0                	test   %eax,%eax
  30446f:	75 17                	jne    304488 <__umoddi3+0x38>
  304471:	39 fb                	cmp    %edi,%ebx
  304473:	73 53                	jae    3044c8 <__umoddi3+0x78>
  304475:	89 f0                	mov    %esi,%eax
  304477:	f7 f7                	div    %edi
  304479:	89 d0                	mov    %edx,%eax
  30447b:	31 d2                	xor    %edx,%edx
  30447d:	83 c4 1c             	add    $0x1c,%esp
  304480:	5b                   	pop    %ebx
  304481:	5e                   	pop    %esi
  304482:	5f                   	pop    %edi
  304483:	5d                   	pop    %ebp
  304484:	c3                   	ret
  304485:	8d 76 00             	lea    0x0(%esi),%esi
  304488:	89 f1                	mov    %esi,%ecx
  30448a:	39 c3                	cmp    %eax,%ebx
  30448c:	73 12                	jae    3044a0 <__umoddi3+0x50>
  30448e:	89 f0                	mov    %esi,%eax
  304490:	83 c4 1c             	add    $0x1c,%esp
  304493:	5b                   	pop    %ebx
  304494:	5e                   	pop    %esi
  304495:	5f                   	pop    %edi
  304496:	5d                   	pop    %ebp
  304497:	c3                   	ret
  304498:	2e 8d b4 26 00 00 00 	lea    %cs:0x0(%esi,%eiz,1),%esi
  30449f:	00 
  3044a0:	0f bd e8             	bsr    %eax,%ebp
  3044a3:	83 f5 1f             	xor    $0x1f,%ebp
  3044a6:	75 48                	jne    3044f0 <__umoddi3+0xa0>
  3044a8:	39 d8                	cmp    %ebx,%eax
  3044aa:	0f 82 d0 00 00 00    	jb     304580 <__umoddi3+0x130>
  3044b0:	39 fe                	cmp    %edi,%esi
  3044b2:	0f 83 c8 00 00 00    	jae    304580 <__umoddi3+0x130>
  3044b8:	89 c8                	mov    %ecx,%eax
  3044ba:	83 c4 1c             	add    $0x1c,%esp
  3044bd:	5b                   	pop    %ebx
  3044be:	5e                   	pop    %esi
  3044bf:	5f                   	pop    %edi
  3044c0:	5d                   	pop    %ebp
  3044c1:	c3                   	ret
  3044c2:	8d b6 00 00 00 00    	lea    0x0(%esi),%esi
  3044c8:	89 f9                	mov    %edi,%ecx
  3044ca:	85 ff                	test   %edi,%edi
  3044cc:	75 0b                	jne    3044d9 <__umoddi3+0x89>
  3044ce:	b8 01 00 00 00       	mov    $0x1,%eax
  3044d3:	31 d2                	xor    %edx,%edx
  3044d5:	f7 f7                	div    %edi
  3044d7:	89 c1                	mov    %eax,%ecx
  3044d9:	89 d8                	mov    %ebx,%eax
  3044db:	31 d2                	xor    %edx,%edx
  3044dd:	f7 f1                	div    %ecx
  3044df:	89 f0                	mov    %esi,%eax
  3044e1:	f7 f1                	div    %ecx
  3044e3:	89 d0                	mov    %edx,%eax
  3044e5:	31 d2                	xor    %edx,%edx
  3044e7:	eb 94                	jmp    30447d <__umoddi3+0x2d>
  3044e9:	8d b4 26 00 00 00 00 	lea    0x0(%esi,%eiz,1),%esi
  3044f0:	89 e9                	mov    %ebp,%ecx
  3044f2:	ba 20 00 00 00       	mov    $0x20,%edx
  3044f7:	29 ea                	sub    %ebp,%edx
  3044f9:	d3 e0                	shl    %cl,%eax
  3044fb:	89 44 24 08          	mov    %eax,0x8(%esp)
  3044ff:	89 d1                	mov    %edx,%ecx
  304501:	89 f8                	mov    %edi,%eax
  304503:	d3 e8                	shr    %cl,%eax
  304505:	89 54 24 04          	mov    %edx,0x4(%esp)
  304509:	8b 54 24 04          	mov    0x4(%esp),%edx
  30450d:	89 c1                	mov    %eax,%ecx
  30450f:	8b 44 24 08          	mov    0x8(%esp),%eax
  304513:	09 c1                	or     %eax,%ecx
  304515:	89 d8                	mov    %ebx,%eax
  304517:	89 4c 24 08          	mov    %ecx,0x8(%esp)
  30451b:	89 e9                	mov    %ebp,%ecx
  30451d:	d3 e7                	shl    %cl,%edi
  30451f:	89 d1                	mov    %edx,%ecx
  304521:	d3 e8                	shr    %cl,%eax
  304523:	89 e9                	mov    %ebp,%ecx
  304525:	89 7c 24 0c          	mov    %edi,0xc(%esp)
  304529:	d3 e3                	shl    %cl,%ebx
  30452b:	89 c7                	mov    %eax,%edi
  30452d:	89 d1                	mov    %edx,%ecx
  30452f:	89 f0                	mov    %esi,%eax
  304531:	d3 e8                	shr    %cl,%eax
  304533:	89 fa                	mov    %edi,%edx
  304535:	89 e9                	mov    %ebp,%ecx
  304537:	09 d8                	or     %ebx,%eax
  304539:	d3 e6                	shl    %cl,%esi
  30453b:	f7 74 24 08          	divl   0x8(%esp)
  30453f:	89 d3                	mov    %edx,%ebx
  304541:	f7 64 24 0c          	mull   0xc(%esp)
  304545:	89 c7                	mov    %eax,%edi
  304547:	89 d1                	mov    %edx,%ecx
  304549:	39 d3                	cmp    %edx,%ebx
  30454b:	72 06                	jb     304553 <__umoddi3+0x103>
  30454d:	75 10                	jne    30455f <__umoddi3+0x10f>
  30454f:	39 c6                	cmp    %eax,%esi
  304551:	73 0c                	jae    30455f <__umoddi3+0x10f>
  304553:	2b 44 24 0c          	sub    0xc(%esp),%eax
  304557:	1b 54 24 08          	sbb    0x8(%esp),%edx
  30455b:	89 d1                	mov    %edx,%ecx
  30455d:	89 c7                	mov    %eax,%edi
  30455f:	89 f2                	mov    %esi,%edx
  304561:	29 fa                	sub    %edi,%edx
  304563:	19 cb                	sbb    %ecx,%ebx
  304565:	0f b6 4c 24 04       	movzbl 0x4(%esp),%ecx
  30456a:	89 d8                	mov    %ebx,%eax
  30456c:	d3 e0                	shl    %cl,%eax
  30456e:	89 e9                	mov    %ebp,%ecx
  304570:	d3 ea                	shr    %cl,%edx
  304572:	d3 eb                	shr    %cl,%ebx
  304574:	09 d0                	or     %edx,%eax
  304576:	89 da                	mov    %ebx,%edx
  304578:	83 c4 1c             	add    $0x1c,%esp
  30457b:	5b                   	pop    %ebx
  30457c:	5e                   	pop    %esi
  30457d:	5f                   	pop    %edi
  30457e:	5d                   	pop    %ebp
  30457f:	c3                   	ret
  304580:	89 da                	mov    %ebx,%edx
  304582:	89 f1                	mov    %esi,%ecx
  304584:	29 f9                	sub    %edi,%ecx
  304586:	19 c2                	sbb    %eax,%edx
  304588:	89 c8                	mov    %ecx,%eax
  30458a:	e9 2b ff ff ff       	jmp    3044ba <__umoddi3+0x6a>

Déassemblage de la section .rodata :

00304590 <.rodata>:
  304590:	0a 73 65             	or     0x65(%ebx),%dh
  304593:	63 6f 73             	arpl   %ebp,0x73(%edi)
  304596:	2d 39 31 31 66       	sub    $0x66313139,%eax
  30459b:	38 32                	cmp    %dh,(%edx)
  30459d:	64 2d 30 31 65 30    	fs sub $0x30653130,%eax
  3045a3:	30 35 32 20 28 63    	xor    %dh,0x63282032
  3045a9:	29 20                	sub    %esp,(%eax)
  3045ab:	41                   	inc    %ecx
  3045ac:	69 72 62 75 73 0a 00 	imul   $0xa7375,0x62(%edx),%esi
  3045b3:	68 61 6c 74 65       	push   $0x65746c61
  3045b8:	64 20 21             	and    %ah,%fs:(%ecx)
  3045bb:	00 30                	add    %dh,(%eax)
  3045bd:	78 00                	js     3045bf <__umoddi3+0x16f>
  3045bf:	75 6e                	jne    30462f <__umoddi3+0x1df>
  3045c1:	73 75                	jae    304638 <__umoddi3+0x1e8>
  3045c3:	70 70                	jo     304635 <__umoddi3+0x1e5>
  3045c5:	6f                   	outsl  %ds:(%esi),(%dx)
  3045c6:	72 74                	jb     30463c <__umoddi3+0x1ec>
  3045c8:	65 64 20 66 6f       	gs and %ah,%fs:0x6f(%esi)
  3045cd:	72 6d                	jb     30463c <__umoddi3+0x1ec>
  3045cf:	61                   	popa
  3045d0:	74 20                	je     3045f2 <__umoddi3+0x1a2>
  3045d2:	61                   	popa
  3045d3:	72 67                	jb     30463c <__umoddi3+0x1ec>
  3045d5:	20 27                	and    %ah,(%edi)
  3045d7:	25 63 27 0a 00       	and    $0xa2763,%eax
  3045dc:	0a 49 44             	or     0x44(%ecx),%cl
  3045df:	54                   	push   %esp
  3045e0:	20 65 76             	and    %ah,0x76(%ebp)
  3045e3:	65 6e                	outsb  %gs:(%esi),(%dx)
  3045e5:	74 0a                	je     3045f1 <__umoddi3+0x1a1>
  3045e7:	20 2e                	and    %ch,(%esi)
  3045e9:	20 69 6e             	and    %ch,0x6e(%ecx)
  3045ec:	74 20                	je     30460e <__umoddi3+0x1be>
  3045ee:	20 20                	and    %ah,(%eax)
  3045f0:	20 23                	and    %ah,(%ebx)
  3045f2:	25 64 0a 20 2e       	and    $0x2e200a64,%eax
  3045f7:	20 65 72             	and    %ah,0x72(%ebp)
  3045fa:	72 6f                	jb     30466b <__umoddi3+0x21b>
  3045fc:	72 20                	jb     30461e <__umoddi3+0x1ce>
  3045fe:	20 30                	and    %dh,(%eax)
  304600:	78 25                	js     304627 <__umoddi3+0x1d7>
  304602:	78 0a                	js     30460e <__umoddi3+0x1be>
  304604:	20 2e                	and    %ch,(%esi)
  304606:	20 63 73             	and    %ah,0x73(%ebx)
  304609:	3a 65 69             	cmp    0x69(%ebp),%ah
  30460c:	70 20                	jo     30462e <__umoddi3+0x1de>
  30460e:	30 78 25             	xor    %bh,0x25(%eax)
  304611:	78 3a                	js     30464d <__umoddi3+0x1fd>
  304613:	30 78 25             	xor    %bh,0x25(%eax)
  304616:	78 0a                	js     304622 <__umoddi3+0x1d2>
  304618:	20 2e                	and    %ch,(%esi)
  30461a:	20 73 73             	and    %dh,0x73(%ebx)
  30461d:	3a 65 73             	cmp    0x73(%ebp),%ah
  304620:	70 20                	jo     304642 <__umoddi3+0x1f2>
  304622:	30 78 25             	xor    %bh,0x25(%eax)
  304625:	78 3a                	js     304661 <__umoddi3+0x211>
  304627:	30 78 25             	xor    %bh,0x25(%eax)
  30462a:	78 0a                	js     304636 <__umoddi3+0x1e6>
  30462c:	20 2e                	and    %ch,(%esi)
  30462e:	20 65 66             	and    %ah,0x66(%ebp)
  304631:	6c                   	insb   (%dx),%es:(%edi)
  304632:	61                   	popa
  304633:	67 73 20             	addr16 jae 304656 <__umoddi3+0x206>
  304636:	30 78 25             	xor    %bh,0x25(%eax)
  304639:	78 0a                	js     304645 <__umoddi3+0x1f5>
  30463b:	0a 2d 20 47 50 52    	or     0x52504720,%ch
  304641:	0a 65 61             	or     0x61(%ebp),%ah
  304644:	78 20                	js     304666 <__umoddi3+0x216>
  304646:	20 20                	and    %ah,(%eax)
  304648:	20 20                	and    %ah,(%eax)
  30464a:	3a 20                	cmp    (%eax),%ah
  30464c:	30 78 25             	xor    %bh,0x25(%eax)
  30464f:	78 0a                	js     30465b <__umoddi3+0x20b>
  304651:	65 63 78 20          	arpl   %edi,%gs:0x20(%eax)
  304655:	20 20                	and    %ah,(%eax)
  304657:	20 20                	and    %ah,(%eax)
  304659:	3a 20                	cmp    (%eax),%ah
  30465b:	30 78 25             	xor    %bh,0x25(%eax)
  30465e:	78 0a                	js     30466a <__umoddi3+0x21a>
  304660:	65 64 78 20          	gs fs js 304684 <__umoddi3+0x234>
  304664:	20 20                	and    %ah,(%eax)
  304666:	20 20                	and    %ah,(%eax)
  304668:	3a 20                	cmp    (%eax),%ah
  30466a:	30 78 25             	xor    %bh,0x25(%eax)
  30466d:	78 0a                	js     304679 <__umoddi3+0x229>
  30466f:	65 62 78 20          	bound  %edi,%gs:0x20(%eax)
  304673:	20 20                	and    %ah,(%eax)
  304675:	20 20                	and    %ah,(%eax)
  304677:	3a 20                	cmp    (%eax),%ah
  304679:	30 78 25             	xor    %bh,0x25(%eax)
  30467c:	78 0a                	js     304688 <__umoddi3+0x238>
  30467e:	65 73 70             	gs jae 3046f1 <__umoddi3+0x2a1>
  304681:	20 20                	and    %ah,(%eax)
  304683:	20 20                	and    %ah,(%eax)
  304685:	20 3a                	and    %bh,(%edx)
  304687:	20 30                	and    %dh,(%eax)
  304689:	78 25                	js     3046b0 <__umoddi3+0x260>
  30468b:	78 0a                	js     304697 <__umoddi3+0x247>
  30468d:	65 62 70 20          	bound  %esi,%gs:0x20(%eax)
  304691:	20 20                	and    %ah,(%eax)
  304693:	20 20                	and    %ah,(%eax)
  304695:	3a 20                	cmp    (%eax),%ah
  304697:	30 78 25             	xor    %bh,0x25(%eax)
  30469a:	78 0a                	js     3046a6 <__umoddi3+0x256>
  30469c:	65 73 69             	gs jae 304708 <__umoddi3+0x2b8>
  30469f:	20 20                	and    %ah,(%eax)
  3046a1:	20 20                	and    %ah,(%eax)
  3046a3:	20 3a                	and    %bh,(%edx)
  3046a5:	20 30                	and    %dh,(%eax)
  3046a7:	78 25                	js     3046ce <__umoddi3+0x27e>
  3046a9:	78 0a                	js     3046b5 <__umoddi3+0x265>
  3046ab:	65 64 69 20 20 20 20 	gs imul $0x20202020,%fs:(%eax),%esp
  3046b2:	20 
  3046b3:	3a 20                	cmp    (%eax),%ah
  3046b5:	30 78 25             	xor    %bh,0x25(%eax)
  3046b8:	78 0a                	js     3046c4 <__umoddi3+0x274>
  3046ba:	00 69 67             	add    %ch,0x67(%ecx)
  3046bd:	6e                   	outsb  %ds:(%esi),(%dx)
  3046be:	6f                   	outsl  %ds:(%esi),(%dx)
  3046bf:	72 65                	jb     304726 <__umoddi3+0x2d6>
  3046c1:	20 49 52             	and    %cl,0x52(%ecx)
  3046c4:	51                   	push   %ecx
  3046c5:	20 25 64 0a 00 00    	and    %ah,0xa64
  3046cb:	00 44 69 76          	add    %al,0x76(%ecx,%ebp,2)
  3046cf:	69 64 65 20 62 79 20 	imul   $0x7a207962,0x20(%ebp,%eiz,2),%esp
  3046d6:	7a 
  3046d7:	65 72 6f             	gs jb  304749 <__umoddi3+0x2f9>
  3046da:	00 44 65 62          	add    %al,0x62(%ebp,%eiz,2)
  3046de:	75 67                	jne    304747 <__umoddi3+0x2f7>
  3046e0:	00 4e 4d             	add    %cl,0x4d(%esi)
  3046e3:	49                   	dec    %ecx
  3046e4:	20 69 6e             	and    %ch,0x6e(%ecx)
  3046e7:	74 65                	je     30474e <__umoddi3+0x2fe>
  3046e9:	72 72                	jb     30475d <__umoddi3+0x30d>
  3046eb:	75 70                	jne    30475d <__umoddi3+0x30d>
  3046ed:	74 00                	je     3046ef <__umoddi3+0x29f>
  3046ef:	42                   	inc    %edx
  3046f0:	72 65                	jb     304757 <__umoddi3+0x307>
  3046f2:	61                   	popa
  3046f3:	6b 70 6f 69          	imul   $0x69,0x6f(%eax),%esi
  3046f7:	6e                   	outsb  %ds:(%esi),(%dx)
  3046f8:	74 00                	je     3046fa <__umoddi3+0x2aa>
  3046fa:	4f                   	dec    %edi
  3046fb:	76 65                	jbe    304762 <__umoddi3+0x312>
  3046fd:	72 66                	jb     304765 <__umoddi3+0x315>
  3046ff:	6c                   	insb   (%dx),%es:(%edi)
  304700:	6f                   	outsl  %ds:(%esi),(%dx)
  304701:	77 00                	ja     304703 <__umoddi3+0x2b3>
  304703:	42                   	inc    %edx
  304704:	4f                   	dec    %edi
  304705:	55                   	push   %ebp
  304706:	4e                   	dec    %esi
  304707:	44                   	inc    %esp
  304708:	20 72 61             	and    %dh,0x61(%edx)
  30470b:	6e                   	outsb  %ds:(%esi),(%dx)
  30470c:	67 65 20 65 78       	and    %ah,%gs:0x78(%di)
  304711:	63 65 65             	arpl   %esp,0x65(%ebp)
  304714:	64 65 64 00 49 6e    	fs gs add %cl,%fs:0x6e(%ecx)
  30471a:	76 61                	jbe    30477d <__umoddi3+0x32d>
  30471c:	6c                   	insb   (%dx),%es:(%edi)
  30471d:	69 64 20 4f 70 63 6f 	imul   $0x646f6370,0x4f(%eax,%eiz,1),%esp
  304724:	64 
  304725:	65 00 44 65 76       	add    %al,%gs:0x76(%ebp,%eiz,2)
  30472a:	69 63 65 20 6e 6f 74 	imul   $0x746f6e20,0x65(%ebx),%esp
  304731:	20 61 76             	and    %ah,0x76(%ecx)
  304734:	61                   	popa
  304735:	69 6c 61 62 6c 65 00 	imul   $0x4400656c,0x62(%ecx,%eiz,2),%ebp
  30473c:	44 
  30473d:	6f                   	outsl  %ds:(%esi),(%dx)
  30473e:	75 62                	jne    3047a2 <__umoddi3+0x352>
  304740:	6c                   	insb   (%dx),%es:(%edi)
  304741:	65 20 66 61          	and    %ah,%gs:0x61(%esi)
  304745:	75 6c                	jne    3047b3 <__umoddi3+0x363>
  304747:	74 00                	je     304749 <__umoddi3+0x2f9>
  304749:	43                   	inc    %ebx
  30474a:	6f                   	outsl  %ds:(%esi),(%dx)
  30474b:	70 72                	jo     3047bf <__umoddi3+0x36f>
  30474d:	6f                   	outsl  %ds:(%esi),(%dx)
  30474e:	63 65 73             	arpl   %esp,0x73(%ebp)
  304751:	73 6f                	jae    3047c2 <__umoddi3+0x372>
  304753:	72 20                	jb     304775 <__umoddi3+0x325>
  304755:	73 65                	jae    3047bc <__umoddi3+0x36c>
  304757:	67 6d                	insl   (%dx),%es:(%di)
  304759:	65 6e                	outsb  %gs:(%esi),(%dx)
  30475b:	74 20                	je     30477d <__umoddi3+0x32d>
  30475d:	6f                   	outsl  %ds:(%esi),(%dx)
  30475e:	76 65                	jbe    3047c5 <__umoddi3+0x375>
  304760:	72 72                	jb     3047d4 <__umoddi3+0x384>
  304762:	75 6e                	jne    3047d2 <__umoddi3+0x382>
  304764:	00 49 6e             	add    %cl,0x6e(%ecx)
  304767:	76 61                	jbe    3047ca <__umoddi3+0x37a>
  304769:	6c                   	insb   (%dx),%es:(%edi)
  30476a:	69 64 20 54 53 53 00 	imul   $0x53005353,0x54(%eax,%eiz,1),%esp
  304771:	53 
  304772:	65 67 6d             	gs insl (%dx),%es:(%di)
  304775:	65 6e                	outsb  %gs:(%esi),(%dx)
  304777:	74 20                	je     304799 <__umoddi3+0x349>
  304779:	6e                   	outsb  %ds:(%esi),(%dx)
  30477a:	6f                   	outsl  %ds:(%esi),(%dx)
  30477b:	74 20                	je     30479d <__umoddi3+0x34d>
  30477d:	70 72                	jo     3047f1 <__umoddi3+0x3a1>
  30477f:	65 73 65             	gs jae 3047e7 <__umoddi3+0x397>
  304782:	6e                   	outsb  %ds:(%esi),(%dx)
  304783:	74 00                	je     304785 <__umoddi3+0x335>
  304785:	53                   	push   %ebx
  304786:	74 61                	je     3047e9 <__umoddi3+0x399>
  304788:	63 6b 20             	arpl   %ebp,0x20(%ebx)
  30478b:	66 61                	popaw
  30478d:	75 6c                	jne    3047fb <__umoddi3+0x3ab>
  30478f:	74 00                	je     304791 <__umoddi3+0x341>
  304791:	47                   	inc    %edi
  304792:	65 6e                	outsb  %gs:(%esi),(%dx)
  304794:	65 72 61             	gs jb  3047f8 <__umoddi3+0x3a8>
  304797:	6c                   	insb   (%dx),%es:(%edi)
  304798:	20 70 72             	and    %dh,0x72(%eax)
  30479b:	6f                   	outsl  %ds:(%esi),(%dx)
  30479c:	74 65                	je     304803 <__umoddi3+0x3b3>
  30479e:	63 74 69 6f          	arpl   %esi,0x6f(%ecx,%ebp,2)
  3047a2:	6e                   	outsb  %ds:(%esi),(%dx)
  3047a3:	00 50 61             	add    %dl,0x61(%eax)
  3047a6:	67 65 20 66 61       	and    %ah,%gs:0x61(%bp)
  3047ab:	75 6c                	jne    304819 <__umoddi3+0x3c9>
  3047ad:	74 00                	je     3047af <__umoddi3+0x35f>
  3047af:	49                   	dec    %ecx
  3047b0:	6e                   	outsb  %ds:(%esi),(%dx)
  3047b1:	74 65                	je     304818 <__umoddi3+0x3c8>
  3047b3:	6c                   	insb   (%dx),%es:(%edi)
  3047b4:	20 52 65             	and    %dl,0x65(%edx)
  3047b7:	73 65                	jae    30481e <__umoddi3+0x3ce>
  3047b9:	72 76                	jb     304831 <__umoddi3+0x3e1>
  3047bb:	65 64 00 46 6c       	gs add %al,%fs:0x6c(%esi)
  3047c0:	6f                   	outsl  %ds:(%esi),(%dx)
  3047c1:	61                   	popa
  3047c2:	74 69                	je     30482d <__umoddi3+0x3dd>
  3047c4:	6e                   	outsb  %ds:(%esi),(%dx)
  3047c5:	67 20 70 6f          	and    %dh,0x6f(%bx,%si)
  3047c9:	69 6e 74 20 65 72 72 	imul   $0x72726520,0x74(%esi),%ebp
  3047d0:	6f                   	outsl  %ds:(%esi),(%dx)
  3047d1:	72 00                	jb     3047d3 <__umoddi3+0x383>
  3047d3:	41                   	inc    %ecx
  3047d4:	6c                   	insb   (%dx),%es:(%edi)
  3047d5:	69 67 6e 6d 65 6e 74 	imul   $0x746e656d,0x6e(%edi),%esp
  3047dc:	20 63 68             	and    %ah,0x68(%ebx)
  3047df:	65 63 6b 00          	arpl   %ebp,%gs:0x0(%ebx)
  3047e3:	4d                   	dec    %ebp
  3047e4:	61                   	popa
  3047e5:	63 68 69             	arpl   %ebp,0x69(%eax)
  3047e8:	6e                   	outsb  %ds:(%esi),(%dx)
  3047e9:	65 20 63 68          	and    %ah,%gs:0x68(%ebx)
  3047ed:	65 63 6b 00          	arpl   %ebp,%gs:0x0(%ebx)
  3047f1:	53                   	push   %ebx
  3047f2:	49                   	dec    %ecx
  3047f3:	4d                   	dec    %ebp
  3047f4:	44                   	inc    %esp
  3047f5:	20 66 6c             	and    %ah,0x6c(%esi)
  3047f8:	6f                   	outsl  %ds:(%esi),(%dx)
  3047f9:	61                   	popa
  3047fa:	74 69                	je     304865 <__umoddi3+0x415>
  3047fc:	6e                   	outsb  %ds:(%esi),(%dx)
  3047fd:	67 20 70 6f          	and    %dh,0x6f(%bx,%si)
  304801:	69 6e 74 00 0a 45 78 	imul   $0x78450a00,0x74(%esi),%ebp
  304808:	63 65 70             	arpl   %esp,0x70(%ebp)
  30480b:	74 69                	je     304876 <__umoddi3+0x426>
  30480d:	6f                   	outsl  %ds:(%esi),(%dx)
  30480e:	6e                   	outsb  %ds:(%esi),(%dx)
  30480f:	3a 20                	cmp    (%eax),%ah
  304811:	25 73 0a 00 23       	and    $0x23000a73,%eax
  304816:	4e                   	dec    %esi
  304817:	4d                   	dec    %ebp
  304818:	49                   	dec    %ecx
  304819:	20 28                	and    %ch,(%eax)
  30481b:	69 67 6e 6f 72 65 64 	imul   $0x6465726f,0x6e(%edi),%esp
  304822:	29 0a                	sub    %ecx,(%edx)
  304824:	00 00                	add    %al,(%eax)
  304826:	00 00                	add    %al,(%eax)
  304828:	23 50 46             	and    0x46(%eax),%edx
  30482b:	20 64 65 74          	and    %ah,0x74(%ebp,%eiz,2)
  30482f:	61                   	popa
  304830:	69 6c 73 3a 20 70 3a 	imul   $0x253a7020,0x3a(%ebx,%esi,2),%ebp
  304837:	25 
  304838:	64 20 77 72          	and    %dh,%fs:0x72(%edi)
  30483c:	3a 25 64 20 75 73    	cmp    0x73752064,%ah
  304842:	3a 25 64 20 69 64    	cmp    0x64692064,%ah
  304848:	3a 25 64 20 61 64    	cmp    0x64612064,%ah
  30484e:	64 72 20             	fs jb  304871 <__umoddi3+0x421>
  304851:	30 78 25             	xor    %bh,0x25(%eax)
  304854:	78 0a                	js     304860 <__umoddi3+0x410>
  304856:	00 00                	add    %al,(%eax)
  304858:	23 47 50             	and    0x50(%edi),%eax
  30485b:	20 64 65 74          	and    %ah,0x74(%ebp,%eiz,2)
  30485f:	61                   	popa
  304860:	69 6c 73 3a 20 65 78 	imul   $0x74786520,0x3a(%ebx,%esi,2),%ebp
  304867:	74 
  304868:	3a 25 64 20 69 64    	cmp    0x64692064,%ah
  30486e:	74 3a                	je     3048aa <__umoddi3+0x45a>
  304870:	25 64 20 74 69       	and    $0x69742064,%eax
  304875:	3a 25 64 20 69 6e    	cmp    0x6e692064,%ah
  30487b:	64 65 78 3a          	fs gs js 3048b9 <__umoddi3+0x469>
  30487f:	25 64 0a 00 63       	and    $0x63000a64,%eax
  304884:	72 30                	jb     3048b6 <__umoddi3+0x466>
  304886:	20 3d 20 25 70 0a    	and    %bh,0xa702520
  30488c:	00 63 72             	add    %ah,0x72(%ebx)
  30488f:	34 20                	xor    $0x20,%al
  304891:	3d 20 25 70 0a       	cmp    $0xa702520,%eax
  304896:	00 66 61             	add    %ah,0x61(%esi)
  304899:	74 61                	je     3048fc <__umoddi3+0x4ac>
  30489b:	6c                   	insb   (%dx),%es:(%edi)
  30489c:	20 65 78             	and    %ah,0x78(%ebp)
  30489f:	63 65 70             	arpl   %esp,0x70(%ebp)
  3048a2:	74 69                	je     30490d <__hextable+0x9>
  3048a4:	6f                   	outsl  %ds:(%esi),(%dx)
  3048a5:	6e                   	outsb  %ds:(%esi),(%dx)
  3048a6:	20 21                	and    %ah,(%ecx)
  3048a8:	0a 00                	or     (%eax),%al
  3048aa:	0a 2d 3d 20 53 74    	or     0x7453203d,%ch
  3048b0:	61                   	popa
  3048b1:	63 6b 20             	arpl   %ebp,0x20(%ebx)
  3048b4:	54                   	push   %esp
  3048b5:	72 61                	jb     304918 <__hextable+0x14>
  3048b7:	63 65 20             	arpl   %esp,0x20(%ebp)
  3048ba:	3d 2d 0a 00 25       	cmp    $0x25000a2d,%eax
  3048bf:	70 0a                	jo     3048cb <__umoddi3+0x47b>
  3048c1:	00 00                	add    %al,(%eax)
  3048c3:	00 62 70             	add    %ah,0x70(%edx)
  3048c6:	20 68 61             	and    %ch,0x61(%eax)
  3048c9:	6e                   	outsb  %ds:(%esi),(%dx)
  3048ca:	64 6c                	fs insb (%dx),%es:(%edi)
  3048cc:	65 72 20             	gs jb  3048ef <__umoddi3+0x49f>
  3048cf:	63 61 6c             	arpl   %esp,0x6c(%ecx)
  3048d2:	6c                   	insb   (%dx),%es:(%edi)
  3048d3:	65 64 2c 20          	gs fs sub $0x20,%al
  3048d7:	65 62 70 34          	bound  %esi,%gs:0x34(%eax)
  3048db:	3a 28                	cmp    (%eax),%ch
  3048dd:	30 78 25             	xor    %bh,0x25(%eax)
  3048e0:	78 29                	js     30490b <__hextable+0x7>
  3048e2:	00 69 64             	add    %ch,0x64(%ecx)
  3048e5:	74 72                	je     304959 <exception_names+0x39>
  3048e7:	20 61 64             	and    %ah,0x64(%ecx)
  3048ea:	64 72 3a             	fs jb  304927 <exception_names+0x7>
  3048ed:	20                   	.byte 0x20
  3048ee:	25                   	.byte 0x25
  3048ef:	70 0a                	jo     3048fb <__umoddi3+0x4ab>
	...

Déassemblage de la section .data :

00304900 <info>:
  304900:	80 49 30 00          	orb    $0x0,0x30(%ecx)

00304904 <__hextable>:
  304904:	30 31                	xor    %dh,(%ecx)
  304906:	32 33                	xor    (%ebx),%dh
  304908:	34 35                	xor    $0x35,%al
  30490a:	36 37                	ss aaa
  30490c:	38 39                	cmp    %bh,(%ecx)
  30490e:	61                   	popa
  30490f:	62 63 64             	bound  %esp,0x64(%ebx)
  304912:	65 66 00 00          	data16 add %al,%gs:(%eax)
	...

00304920 <exception_names>:
  304920:	cc                   	int3
  304921:	46                   	inc    %esi
  304922:	30 00                	xor    %al,(%eax)
  304924:	db 46 30             	fildl  0x30(%esi)
  304927:	00 e1                	add    %ah,%cl
  304929:	46                   	inc    %esi
  30492a:	30 00                	xor    %al,(%eax)
  30492c:	ef                   	out    %eax,(%dx)
  30492d:	46                   	inc    %esi
  30492e:	30 00                	xor    %al,(%eax)
  304930:	fa                   	cli
  304931:	46                   	inc    %esi
  304932:	30 00                	xor    %al,(%eax)
  304934:	03 47 30             	add    0x30(%edi),%eax
  304937:	00 18                	add    %bl,(%eax)
  304939:	47                   	inc    %edi
  30493a:	30 00                	xor    %al,(%eax)
  30493c:	27                   	daa
  30493d:	47                   	inc    %edi
  30493e:	30 00                	xor    %al,(%eax)
  304940:	3c 47                	cmp    $0x47,%al
  304942:	30 00                	xor    %al,(%eax)
  304944:	49                   	dec    %ecx
  304945:	47                   	inc    %edi
  304946:	30 00                	xor    %al,(%eax)
  304948:	65 47                	gs inc %edi
  30494a:	30 00                	xor    %al,(%eax)
  30494c:	71 47                	jno    304995 <__info+0x15>
  30494e:	30 00                	xor    %al,(%eax)
  304950:	85 47 30             	test   %eax,0x30(%edi)
  304953:	00 91 47 30 00 a4    	add    %dl,-0x5bffcfb9(%ecx)
  304959:	47                   	inc    %edi
  30495a:	30 00                	xor    %al,(%eax)
  30495c:	af                   	scas   %es:(%edi),%eax
  30495d:	47                   	inc    %edi
  30495e:	30 00                	xor    %al,(%eax)
  304960:	be 47 30 00 d3       	mov    $0xd3003047,%esi
  304965:	47                   	inc    %edi
  304966:	30 00                	xor    %al,(%eax)
  304968:	e3 47                	jecxz  3049b1 <vprint_buffer+0x11>
  30496a:	30 00                	xor    %al,(%eax)
  30496c:	f1                   	int1
  30496d:	47                   	inc    %edi
  30496e:	30 00                	xor    %al,(%eax)

Déassemblage de la section .debug_line :

00000000 <.debug_line>:
   0:	4c                   	dec    %esp
   1:	00 00                	add    %al,(%eax)
   3:	00 05 00 04 00 2e    	add    %al,0x2e000400
   9:	00 00                	add    %al,(%eax)
   b:	00 01                	add    %al,(%ecx)
   d:	01 01                	add    %eax,(%ecx)
   f:	fb                   	sti
  10:	0e                   	push   %cs
  11:	0d 00 01 01 01       	or     $0x1010100,%eax
  16:	01 00                	add    %eax,(%eax)
  18:	00 00                	add    %al,(%eax)
  1a:	01 00                	add    %eax,(%eax)
  1c:	00 01                	add    %al,(%ecx)
  1e:	01 01                	add    %eax,(%ecx)
  20:	1f                   	pop    %ds
  21:	02 00                	add    (%eax),%al
  23:	00 00                	add    %al,(%eax)
  25:	00 21                	add    %ah,(%ecx)
  27:	00 00                	add    %al,(%eax)
  29:	00 02                	add    %al,(%edx)
  2b:	01 1f                	add    %ebx,(%edi)
  2d:	02 0f                	add    (%edi),%cl
  2f:	02 30                	add    (%eax),%dh
  31:	00 00                	add    %al,(%eax)
  33:	00 01                	add    %al,(%ecx)
  35:	30 00                	xor    %al,(%eax)
  37:	00 00                	add    %al,(%eax)
  39:	01 00                	add    %eax,(%eax)
  3b:	05 02 10 30 30       	add    $0x30301002,%eax
  40:	00 03                	add    %al,(%ebx)
  42:	0a 01                	or     (%ecx),%al
  44:	21 59 2f             	and    %ebx,0x2f(%ecx)
  47:	21 2f                	and    %ebp,(%edi)
  49:	5b                   	pop    %ebx
  4a:	21 02                	and    %eax,(%edx)
  4c:	02 00                	add    (%eax),%al
  4e:	01 01                	add    %eax,(%ecx)
  50:	89 00                	mov    %eax,(%eax)
  52:	00 00                	add    %al,(%eax)
  54:	05 00 04 00 5f       	add    $0x5f000400,%eax
  59:	00 00                	add    %al,(%eax)
  5b:	00 01                	add    %al,(%ecx)
  5d:	01 01                	add    %eax,(%ecx)
  5f:	fb                   	sti
  60:	0e                   	push   %cs
  61:	0d 00 01 01 01       	or     $0x1010100,%eax
  66:	01 00                	add    %eax,(%eax)
  68:	00 00                	add    %al,(%eax)
  6a:	01 00                	add    %eax,(%eax)
  6c:	00 01                	add    %al,(%ecx)
  6e:	01 01                	add    %eax,(%ecx)
  70:	1f                   	pop    %ds
  71:	03 00                	add    (%eax),%eax
  73:	00 00                	add    %al,(%eax)
  75:	00 21                	add    %ah,(%ecx)
  77:	00 00                	add    %al,(%eax)
  79:	00 4f 00             	add    %cl,0x0(%edi)
  7c:	00 00                	add    %al,(%eax)
  7e:	02 01                	add    (%ecx),%al
  80:	1f                   	pop    %ds
  81:	02 0f                	add    (%edi),%cl
  83:	0b 47 00             	or     0x0(%edi),%eax
  86:	00 00                	add    %al,(%eax)
  88:	01 47 00             	add    %eax,0x0(%edi)
  8b:	00 00                	add    %al,(%eax)
  8d:	01 61 00             	add    %esp,0x0(%ecx)
  90:	00 00                	add    %al,(%eax)
  92:	02 69 00             	add    0x0(%ecx),%ch
  95:	00 00                	add    %al,(%eax)
  97:	02 6e 00             	add    0x0(%esi),%ch
  9a:	00 00                	add    %al,(%eax)
  9c:	02 74 00 00          	add    0x0(%eax,%eax,1),%dh
  a0:	00 02                	add    %al,(%edx)
  a2:	7b 00                	jnp    a4 <mbh-0x2fff5c>
  a4:	00 00                	add    %al,(%eax)
  a6:	02 82 00 00 00 02    	add    0x2000000(%edx),%al
  ac:	89 00                	mov    %eax,(%eax)
  ae:	00 00                	add    %al,(%eax)
  b0:	02 8f 00 00 00 02    	add    0x2000000(%edi),%cl
  b6:	97                   	xchg   %eax,%edi
  b7:	00 00                	add    %al,(%eax)
  b9:	00 02                	add    %al,(%edx)
  bb:	05 01 00 05 02       	add    $0x2050001,%eax
  c0:	23 30                	and    (%eax),%esi
  c2:	30 00                	xor    %al,(%eax)
  c4:	03 12                	add    (%edx),%edx
  c6:	01 05 08 91 05 0e    	add    %eax,0xe059108
  cc:	58                   	pop    %eax
  cd:	05 04 5a 59 59       	add    $0x59595a04,%eax
  d2:	59                   	pop    %ecx
  d3:	f4                   	hlt
  d4:	5a                   	pop    %edx
  d5:	05 01 f3 02 03       	add    $0x302f301,%eax
  da:	00 01                	add    %al,(%ecx)
  dc:	01 84 03 00 00 05 00 	add    %eax,0x50000(%ebx,%eax,1)
  e3:	04 00                	add    $0x0,%al
  e5:	46                   	inc    %esi
  e6:	00 00                	add    %al,(%eax)
  e8:	00 01                	add    %al,(%ecx)
  ea:	01 01                	add    %eax,(%ecx)
  ec:	fb                   	sti
  ed:	0e                   	push   %cs
  ee:	0d 00 01 01 01       	or     $0x1010100,%eax
  f3:	01 00                	add    %eax,(%eax)
  f5:	00 00                	add    %al,(%eax)
  f7:	01 00                	add    %eax,(%eax)
  f9:	00 01                	add    %al,(%ecx)
  fb:	01 01                	add    %eax,(%ecx)
  fd:	1f                   	pop    %ds
  fe:	03 00                	add    (%eax),%eax
 100:	00 00                	add    %al,(%eax)
 102:	00 21                	add    %ah,(%ecx)
 104:	00 00                	add    %al,(%eax)
 106:	00 4f 00             	add    %cl,0x0(%edi)
 109:	00 00                	add    %al,(%eax)
 10b:	02 01                	add    (%ecx),%al
 10d:	1f                   	pop    %ds
 10e:	02 0f                	add    (%edi),%cl
 110:	06                   	push   %es
 111:	ae                   	scas   %es:(%edi),%al
 112:	00 00                	add    %al,(%eax)
 114:	00 01                	add    %al,(%ecx)
 116:	b6 00                	mov    $0x0,%dh
 118:	00 00                	add    %al,(%eax)
 11a:	02 ae 00 00 00 01    	add    0x1000000(%esi),%ch
 120:	61                   	popa
 121:	00 00                	add    %al,(%eax)
 123:	00 02                	add    %al,(%edx)
 125:	8f 00                	pop    (%eax)
 127:	00 00                	add    %al,(%eax)
 129:	02 82 00 00 00 02    	add    0x2000000(%edx),%al
 12f:	05 01 00 05 02       	add    $0x2050001,%eax
 134:	6d                   	insl   (%dx),%es:(%edi)
 135:	30 30                	xor    %dh,(%eax)
 137:	00 03                	add    %al,(%ebx)
 139:	fc                   	cld
 13a:	00 01                	add    %al,(%ecx)
 13c:	05 0a c9 05 06       	add    $0x605c90a,%eax
 141:	66 05 10 59          	add    $0x5910,%ax
 145:	05 18 58 05 1c       	add    $0x1c055818,%eax
 14a:	66 05 14 90          	add    $0x9014,%ax
 14e:	05 20 3c 05 01       	add    $0x1053c20,%eax
 153:	67 04 02             	addr16 add $0x2,%al
 156:	03 8a 7f 66 05 04    	add    0x405667f(%edx),%ecx
 15c:	69 22 67 08 23 05    	imul   $0x5230867,(%edx),%esp
 162:	0e                   	push   %cs
 163:	00 02                	add    %al,(%edx)
 165:	04 01                	add    $0x1,%al
 167:	59                   	pop    %ecx
 168:	05 01 4f 05 04       	add    $0x4054f01,%eax
 16d:	6a 05                	push   $0x5
 16f:	0d 67 05 0b 08       	or     $0x80b0567,%eax
 174:	4d                   	dec    %ebp
 175:	05 01 3d 31 05       	add    $0x5313d01,%eax
 17a:	04 6a                	add    $0x6a,%al
 17c:	05 0d 67 05 0b       	add    $0xb05670d,%eax
 181:	08 77 05             	or     %dh,0x5(%edi)
 184:	01 3d 31 05 0d 69    	add    %edi,0x690d0531
 18a:	05 04 08 9f 05       	add    $0x59f0804,%eax
 18f:	0b 08                	or     (%eax),%ecx
 191:	67 05 01 3d 31 05    	addr16 add $0x5313d01,%eax
 197:	09 3d 05 1d 2f 05    	or     %edi,0x52f1d05
 19d:	1b 90 05 07 3c 05    	sbb    0x53c0705(%eax),%edx
 1a3:	0a 08                	or     (%eax),%cl
 1a5:	1f                   	pop    %ds
 1a6:	05 01 a0 4d 05       	add    $0x54da001,%eax
 1ab:	18 3d 05 04 3c 05    	sbb    %bh,0x53c0405
 1b1:	01 08                	add    %ecx,(%eax)
 1b3:	21 40 05             	and    %eax,0x5(%eax)
 1b6:	09 08                	or     %ecx,(%eax)
 1b8:	23 05 04 74 05 19    	and    0x19057404,%eax
 1be:	30 05 1b 66 05 14    	xor    %al,0x1405661b
 1c4:	3c 05                	cmp    $0x5,%al
 1c6:	0b 08                	or     (%eax),%ecx
 1c8:	3c 05                	cmp    $0x5,%al
 1ca:	07                   	pop    %es
 1cb:	67 00 02             	add    %al,(%bp,%si)
 1ce:	04 01                	add    $0x1,%al
 1d0:	06                   	push   %es
 1d1:	66 00 02             	data16 add %al,(%edx)
 1d4:	04 02                	add    $0x2,%al
 1d6:	74 00                	je     1d8 <mbh-0x2ffe28>
 1d8:	02 04 04             	add    (%esp,%eax,1),%al
 1db:	58                   	pop    %eax
 1dc:	05 15 00 02 04       	add    $0x4020015,%eax
 1e1:	02 06                	add    (%esi),%al
 1e3:	e1 05                	loope  1ea <mbh-0x2ffe16>
 1e5:	0f 00 02             	sldt   (%edx)
 1e8:	04 01                	add    $0x1,%al
 1ea:	4a                   	dec    %edx
 1eb:	05 01 87 4d 05       	add    $0x54d8701,%eax
 1f0:	06                   	push   %es
 1f1:	08 32                	or     %dh,(%edx)
 1f3:	05 0e 83 05 11       	add    $0x1105830e,%eax
 1f8:	08 4c 05 0b          	or     %cl,0xb(%ebp,%eax,1)
 1fc:	67 05 06 76 05 07    	addr16 add $0x7057606,%eax
 202:	68 05 0d f3 05       	push   $0x5f30d05
 207:	09 a1 05 26 30 05    	or     %esp,0x5302605(%ecx)
 20d:	2b 08                	sub    (%eax),%ecx
 20f:	3c 05                	cmp    $0x5,%al
 211:	0f 3c                	(bad)
 213:	05 17 3c 05 1a       	add    $0x1a053c17,%eax
 218:	3c 05                	cmp    $0x5,%al
 21a:	13 66 05             	adc    0x5(%esi),%esp
 21d:	2b 2e                	sub    (%esi),%ebp
 21f:	05 1e 2e 05 0d       	add    $0xd052e1e,%eax
 224:	2f                   	das
 225:	05 0a 08 8d 05       	add    $0x58d080a,%eax
 22a:	09 88 05 23 2f 05    	or     %ecx,0x52f2305(%eax)
 230:	2b 3c 05 27 3c 05 07 	sub    0x7053c27(,%eax,1),%edi
 237:	58                   	pop    %eax
 238:	05 0d 08 49 05       	add    $0x549080d,%eax
 23d:	10 3c 05 0a 66 05 01 	adc    %bh,0x105660a(,%eax,1)
 244:	4c                   	dec    %esp
 245:	5b                   	pop    %ebx
 246:	05 06 08 32 05       	add    $0x5320806,%eax
 24b:	0e                   	push   %cs
 24c:	83 05 11 08 4c 05 0b 	addl   $0xb,0x54c0811
 253:	67 05 09 76 05 26    	addr16 add $0x26057609,%eax
 259:	30 05 2b 08 3c 05    	xor    %al,0x53c082b
 25f:	0f 3c                	(bad)
 261:	05 17 3c 05 1a       	add    $0x1a053c17,%eax
 266:	3c 05                	cmp    $0x5,%al
 268:	13 66 05             	adc    0x5(%esi),%esp
 26b:	2b 2e                	sub    (%esi),%ebp
 26d:	05 1e 2e 05 0d       	add    $0xd052e1e,%eax
 272:	2f                   	das
 273:	05 0a 08 8d 05       	add    $0x58d080a,%eax
 278:	09 88 05 23 2f 05    	or     %ecx,0x52f2305(%eax)
 27e:	2b 3c 05 27 3c 05 07 	sub    0x7053c27(,%eax,1),%edi
 285:	58                   	pop    %eax
 286:	05 0d 08 49 05       	add    $0x549080d,%eax
 28b:	10 3c 05 0a 66 05 01 	adc    %bh,0x105660a(,%eax,1)
 292:	4c                   	dec    %esp
 293:	60                   	pusha
 294:	05 0f 08 22 05       	add    $0x522080f,%eax
 299:	06                   	push   %es
 29a:	76 05                	jbe    2a1 <mbh-0x2ffd5f>
 29c:	12 00                	adc    (%eax),%al
 29e:	02 04 01             	add    (%ecx,%eax,1),%al
 2a1:	66 05 11 67          	add    $0x6711,%ax
 2a5:	05 09 76 05 23       	add    $0x23057609,%eax
 2aa:	30 05 1c d6 05 10    	xor    %al,0x1005d61c
 2b0:	82 05 0d 9f 05 0a 08 	addb   $0x8,0xa059f0d
 2b7:	2f                   	das
 2b8:	05 10 4b 05 14       	add    $0x14054b10,%eax
 2bd:	45                   	inc    %ebp
 2be:	00 02                	add    %al,(%edx)
 2c0:	04 01                	add    $0x1,%al
 2c2:	06                   	push   %es
 2c3:	66 05 28 00          	add    $0x28,%ax
 2c7:	02 04 02             	add    (%edx,%eax,1),%al
 2ca:	06                   	push   %es
 2cb:	66 05 17 00          	add    $0x17,%ax
 2cf:	02 04 03             	add    (%ebx,%eax,1),%al
 2d2:	82 05 07 6e 05 09 67 	addb   $0x67,0x9056e07
 2d9:	05 1e 2f 05 07       	add    $0x7052f1e,%eax
 2de:	ac                   	lods   %ds:(%esi),%al
 2df:	05 0d 08 1f 05       	add    $0x51f080d,%eax
 2e4:	0a 90 05 0b 4d 05    	or     0x54d0b05(%eax),%dl
 2ea:	01 3d 32 05 04 08    	add    %edi,0x8040532
 2f0:	21 05 01 08 91 40    	and    %eax,0x40910801
 2f6:	05 11 6c 05 0b       	add    $0xb056c11,%eax
 2fb:	67 75 05             	addr16 jne 303 <mbh-0x2ffcfd>
 2fe:	08 75 05             	or     %dh,0x5(%ebp)
 301:	09 75 05             	or     %esi,0x5(%ebp)
 304:	06                   	push   %es
 305:	76 05                	jbe    30c <mbh-0x2ffcf4>
 307:	0f 00 02             	sldt   (%edx)
 30a:	04 01                	add    $0x1,%al
 30c:	9e                   	sahf
 30d:	05 09 4c 05 12       	add    $0x12054c09,%eax
 312:	5a                   	pop    %edx
 313:	05 09 90 68 05       	add    $0x5689009,%eax
 318:	0c a1                	or     $0xa1,%al
 31a:	05 0f 67 05 15       	add    $0x1505670f,%eax
 31f:	67 05 0d 77 05 14    	addr16 add $0x1405770d,%eax
 325:	57                   	push   %edi
 326:	05 0d 75 05 13       	add    $0x1305750d,%eax
 32b:	59                   	pop    %ecx
 32c:	05 12 67 05 0d       	add    $0xd056712,%eax
 331:	83 05 0c 5c 05 13 67 	addl   $0x67,0x13055c0c
 338:	05 0d d7 05 13       	add    $0x1305d70d,%eax
 33d:	08 67 05             	or     %ah,0x5(%edi)
 340:	11 67 05             	adc    %esp,0x5(%edi)
 343:	0d d7 05 13 08       	or     $0x81305d7,%eax
 348:	67 05 1e 67 05 16    	addr16 add $0x1605671e,%eax
 34e:	00 02                	add    %al,(%edx)
 350:	04 01                	add    $0x1,%al
 352:	ac                   	lods   %ds:(%esi),%al
 353:	05 0d 9f 05 13       	add    $0x13059f0d,%eax
 358:	08 d7                	or     %dl,%bh
 35a:	05 16 67 05 0d       	add    $0xd056716,%eax
 35f:	08 3d 05 13 08 d9    	or     %bh,0xd9081305
 365:	05 1d 00 02 04       	add    $0x402001d,%eax
 36a:	01 66 05             	add    %esp,0x5(%esi)
 36d:	0f a1                	pop    %fs
 36f:	05 16 67 05 14       	add    $0x14056716,%eax
 374:	08 59 05             	or     %bl,0x5(%ecx)
 377:	18 67 05             	sbb    %ah,0x5(%edi)
 37a:	16                   	push   %ss
 37b:	00 02                	add    %al,(%edx)
 37d:	04 01                	add    $0x1,%al
 37f:	ac                   	lods   %ds:(%esi),%al
 380:	05 14 91 05 22       	add    $0x22059114,%eax
 385:	67 05 16 00 02 04    	addr16 add $0x4020016,%eax
 38b:	01 ac 05 21 a0 05 16 	add    %ebp,0x1605a021(%ebp,%eax,1)
 392:	00 02                	add    %al,(%edx)
 394:	04 01                	add    $0x1,%al
 396:	ac                   	lods   %ds:(%esi),%al
 397:	05 0d a0 05 29       	add    $0x2905a00d,%eax
 39c:	03 74 08 4a          	add    0x4a(%eax,%ecx,1),%esi
 3a0:	05 13 03 0e 58       	add    $0x580e0313,%eax
 3a5:	05 1d 00 02 04       	add    $0x402001d,%eax
 3aa:	01 66 05             	add    %esp,0x5(%esi)
 3ad:	0f a1                	pop    %fs
 3af:	05 16 67 05 14       	add    $0x14056716,%eax
 3b4:	08 59 05             	or     %bl,0x5(%ecx)
 3b7:	18 67 05             	sbb    %ah,0x5(%edi)
 3ba:	16                   	push   %ss
 3bb:	00 02                	add    %al,(%edx)
 3bd:	04 01                	add    $0x1,%al
 3bf:	ac                   	lods   %ds:(%esi),%al
 3c0:	05 14 bb 05 22       	add    $0x2205bb14,%eax
 3c5:	67 05 16 00 02 04    	addr16 add $0x4020016,%eax
 3cb:	01 ac 05 21 e6 05 16 	add    %ebp,0x1605e621(%ebp,%eax,1)
 3d2:	00 02                	add    %al,(%edx)
 3d4:	04 01                	add    $0x1,%al
 3d6:	ac                   	lods   %ds:(%esi),%al
 3d7:	05 0f ca 05 10       	add    $0x1005ca0f,%eax
 3dc:	67 05 29 03 73 08    	addr16 add $0x8730329,%eax
 3e2:	4a                   	dec    %edx
 3e3:	05 10 03 0f 58       	add    $0x580f0310,%eax
 3e8:	05 29 03 71 08       	add    $0x8710329,%eax
 3ed:	90                   	nop
 3ee:	05 13 03 12 58       	add    $0x58120313,%eax
 3f3:	05 16 67 05 0d       	add    $0xd056716,%eax
 3f8:	08 3d 05 13 08 91    	or     %bh,0x91081305
 3fe:	05 16 67 05 0d       	add    $0xd056716,%eax
 403:	08 3d 05 13 08 d9    	or     %bh,0xd9081305
 409:	05 1e 67 05 16       	add    $0x1605671e,%eax
 40e:	00 02                	add    %al,(%edx)
 410:	04 01                	add    $0x1,%al
 412:	ac                   	lods   %ds:(%esi),%al
 413:	05 0d 9f 08 67       	add    $0x67089f0d,%eax
 418:	05 14 08 af 05       	add    $0x5af0814,%eax
 41d:	1e                   	push   %ds
 41e:	00 02                	add    %al,(%edx)
 420:	04 01                	add    $0x1,%al
 422:	66 05 14 6a          	add    $0x6a14,%ax
 426:	05 0d 67 08 86       	add    $0x8608670d,%eax
 42b:	05 11 08 4d 05       	add    $0x54d0811,%eax
 430:	0e                   	push   %cs
 431:	75 92                	jne    3c5 <mbh-0x2ffc3b>
 433:	05 11 68 05 0f       	add    $0xf056811,%eax
 438:	75 05                	jne    43f <mbh-0x2ffbc1>
 43a:	0a 93 05 0d 03 6c    	or     0x6c030d05(%ebx),%dl
 440:	08 82 05 0a 03 b0    	or     %al,-0x4ffcf5fb(%edx)
 446:	7f 20                	jg     468 <mbh-0x2ffb98>
 448:	05 0c 03 e7 00       	add    $0xe7030c,%eax
 44d:	d6                   	(bad)
 44e:	05 14 3c 05 17       	add    $0x17053c14,%eax
 453:	3c 05                	cmp    $0x5,%al
 455:	10 66 05             	adc    %ah,0x5(%esi)
 458:	1b 2e                	sbb    (%esi),%ebp
 45a:	05 0e 3d 05 01       	add    $0x1053d0e,%eax
 45f:	3d 02 02 00 01       	cmp    $0x1000202,%eax
 464:	01 30                	add    %esi,(%eax)
 466:	01 00                	add    %eax,(%eax)
 468:	00 05 00 04 00 3c    	add    %al,0x3c000400
 46e:	00 00                	add    %al,(%eax)
 470:	00 01                	add    %al,(%ecx)
 472:	01 01                	add    %eax,(%ecx)
 474:	fb                   	sti
 475:	0e                   	push   %cs
 476:	0d 00 01 01 01       	or     $0x1010100,%eax
 47b:	01 00                	add    %eax,(%eax)
 47d:	00 00                	add    %al,(%eax)
 47f:	01 00                	add    %eax,(%eax)
 481:	00 01                	add    %al,(%ecx)
 483:	01 01                	add    %eax,(%ecx)
 485:	1f                   	pop    %ds
 486:	03 00                	add    (%eax),%eax
 488:	00 00                	add    %al,(%eax)
 48a:	00 21                	add    %ah,(%ecx)
 48c:	00 00                	add    %al,(%eax)
 48e:	00 4f 00             	add    %cl,0x0(%edi)
 491:	00 00                	add    %al,(%eax)
 493:	02 01                	add    (%ecx),%al
 495:	1f                   	pop    %ds
 496:	02 0f                	add    (%edi),%cl
 498:	04 ce                	add    $0xce,%al
 49a:	00 00                	add    %al,(%eax)
 49c:	00 01                	add    %al,(%ecx)
 49e:	ce                   	into
 49f:	00 00                	add    %al,(%eax)
 4a1:	00 01                	add    %al,(%ecx)
 4a3:	61                   	popa
 4a4:	00 00                	add    %al,(%eax)
 4a6:	00 02                	add    %al,(%edx)
 4a8:	82 00 00             	addb   $0x0,(%eax)
 4ab:	00 02                	add    %al,(%edx)
 4ad:	05 01 00 05 02       	add    $0x2050001,%eax
 4b2:	9f                   	lahf
 4b3:	38 30                	cmp    %dh,(%eax)
 4b5:	00 16                	add    %dl,(%esi)
 4b7:	05 09 c9 05 07       	add    $0x705c909,%eax
 4bc:	2f                   	das
 4bd:	05 0a 9d 05 01       	add    $0x1059d0a,%eax
 4c2:	08 a0 4d 05 04 cc    	or     %ah,-0x33fbfab3(%eax)
 4c8:	05 0c c9 4b 05       	add    $0x54bc90c,%eax
 4cd:	04 9f                	add    $0x9f,%al
 4cf:	05 0f bc 05 0c       	add    $0xc05bc0f,%eax
 4d4:	9f                   	lahf
 4d5:	05 04 9f bc 05       	add    $0x5bc9f04,%eax
 4da:	0c ca                	or     $0xca,%al
 4dc:	05 0e 4b 9f 05       	add    $0x59f4b0e,%eax
 4e1:	04 9f                	add    $0x9f,%al
 4e3:	05 01 bb 3f 05       	add    $0x53fbb01,%eax
 4e8:	04 ce                	add    $0xce,%al
 4ea:	c9                   	leave
 4eb:	9f                   	lahf
 4ec:	05 0c cb 05 11       	add    $0x1105cb0c,%eax
 4f1:	4b                   	dec    %ebx
 4f2:	05 04 9f 05 0c       	add    $0xc059f04,%eax
 4f7:	03 0b                	add    (%ebx),%ecx
 4f9:	ba 05 04 4c bd       	mov    $0xbd4c0405,%edx
 4fe:	05 01 c9 3f 05       	add    $0x53fc901,%eax
 503:	04 3d                	add    $0x3d,%al
 505:	c9                   	leave
 506:	05 01 c9 3f 05       	add    $0x53fc901,%eax
 50b:	09 c9                	or     %ecx,%ecx
 50d:	05 1f 30 05 10       	add    $0x1005301f,%eax
 512:	d6                   	(bad)
 513:	05 17 58 05 13       	add    $0x13055817,%eax
 518:	66 05 1d 2e          	add    $0x2e1d,%ax
 51c:	05 0a 2f 05 0e       	add    $0xe052f0a,%eax
 521:	66 05 0a 8d          	add    $0x8d0a,%ax
 525:	05 20 08 66 05       	add    $0x5660820,%eax
 52a:	26 00 02             	add    %al,%es:(%edx)
 52d:	04 01                	add    $0x1,%al
 52f:	4a                   	dec    %edx
 530:	05 20 00 02 04       	add    $0x4020020,%eax
 535:	01 66 05             	add    %esp,0x5(%esi)
 538:	01 5d 3f             	add    %ebx,0x3f(%ebp)
 53b:	05 09 c9 05 0a       	add    $0xa05c909,%eax
 540:	30 05 09 08 66 05    	xor    %al,0x5660809
 546:	0a 4c 05 0d          	or     0xd(%ebp,%eax,1),%cl
 54a:	08 4b 05             	or     %cl,0x5(%ebx)
 54d:	11 66 05             	adc    %esp,0x5(%esi)
 550:	0d 8b 05 12 66       	or     $0x6612058b,%eax
 555:	05 01 60 4d 05       	add    $0x54d6001,%eax
 55a:	10 69 05             	adc    %ch,0x5(%ecx)
 55d:	0b 67 05             	or     0x5(%edi),%esp
 560:	04 76                	add    $0x76,%al
 562:	05 0e 08 3d 05       	add    $0x53d080e,%eax
 567:	01 3d 31 05 10 69    	add    %edi,0x69100531
 56d:	05 0b 67 05 04       	add    $0x405670b,%eax
 572:	76 05                	jbe    579 <mbh-0x2ffa87>
 574:	0e                   	push   %cs
 575:	08 3d 05 01 3d 31    	or     %bh,0x313d0105
 57b:	05 0b 67 05 09       	add    $0x905670b,%eax
 580:	76 05                	jbe    587 <mbh-0x2ffa79>
 582:	0a 2f                	or     (%edi),%ch
 584:	05 09 08 4a 05       	add    $0x54a0809,%eax
 589:	0a 4c 05 0b          	or     0xb(%ebp,%eax,1),%cl
 58d:	ad                   	lods   %ds:(%esi),%eax
 58e:	05 0a 46 05 01       	add    $0x105460a,%eax
 593:	6c                   	insb   (%dx),%es:(%edi)
 594:	02 04 00             	add    (%eax,%eax,1),%al
 597:	01 01                	add    %eax,(%ecx)
 599:	86 00                	xchg   %al,(%eax)
 59b:	00 00                	add    %al,(%eax)
 59d:	05 00 04 00 3c       	add    $0x3c000400,%eax
 5a2:	00 00                	add    %al,(%eax)
 5a4:	00 01                	add    %al,(%ecx)
 5a6:	01 01                	add    %eax,(%ecx)
 5a8:	fb                   	sti
 5a9:	0e                   	push   %cs
 5aa:	0d 00 01 01 01       	or     $0x1010100,%eax
 5af:	01 00                	add    %eax,(%eax)
 5b1:	00 00                	add    %al,(%eax)
 5b3:	01 00                	add    %eax,(%eax)
 5b5:	00 01                	add    %al,(%ecx)
 5b7:	01 01                	add    %eax,(%ecx)
 5b9:	1f                   	pop    %ds
 5ba:	03 00                	add    (%eax),%eax
 5bc:	00 00                	add    %al,(%eax)
 5be:	00 21                	add    %ah,(%ecx)
 5c0:	00 00                	add    %al,(%eax)
 5c2:	00 4f 00             	add    %cl,0x0(%edi)
 5c5:	00 00                	add    %al,(%eax)
 5c7:	02 01                	add    (%ecx),%al
 5c9:	1f                   	pop    %ds
 5ca:	02 0f                	add    (%edi),%cl
 5cc:	04 e4                	add    $0xe4,%al
 5ce:	00 00                	add    %al,(%eax)
 5d0:	00 01                	add    %al,(%ecx)
 5d2:	e4 00                	in     $0x0,%al
 5d4:	00 00                	add    %al,(%eax)
 5d6:	01 89 00 00 00 02    	add    %ecx,0x2000000(%ecx)
 5dc:	61                   	popa
 5dd:	00 00                	add    %al,(%eax)
 5df:	00 02                	add    %al,(%edx)
 5e1:	05 01 00 05 02       	add    $0x2050001,%eax
 5e6:	44                   	inc    %esp
 5e7:	3b 30                	cmp    (%eax),%esi
 5e9:	00 16                	add    %dl,(%esi)
 5eb:	05 0d 03 0b 66       	add    $0x660b030d,%eax
 5f0:	05 04 4b 9f 05       	add    $0x59f4b04,%eax
 5f5:	0d a5 05 04 4b       	or     $0x4b0405a5,%eax
 5fa:	05 0d a0 05 04       	add    $0x405a00d,%eax
 5ff:	4b                   	dec    %ebx
 600:	05 0d a5 05 15       	add    $0x1505a50d,%eax
 605:	4b                   	dec    %ebx
 606:	05 04 9f 05 0d       	add    $0xd059f04,%eax
 60b:	a0 05 12 4b 05       	mov    0x54b1205,%al
 610:	04 c9                	add    $0xc9,%al
 612:	05 0d 03 09 9e       	add    $0x9e09030d,%eax
 617:	05 04 4b 9f 05       	add    $0x59f4b04,%eax
 61c:	01 9f 02 03 00 01    	add    %ebx,0x1000302(%edi)
 622:	01 ac 00 00 00 05 00 	add    %ebp,0x50000(%eax,%eax,1)
 629:	04 00                	add    $0x0,%al
 62b:	4b                   	dec    %ebx
 62c:	00 00                	add    %al,(%eax)
 62e:	00 01                	add    %al,(%ecx)
 630:	01 01                	add    %eax,(%ecx)
 632:	fb                   	sti
 633:	0e                   	push   %cs
 634:	0d 00 01 01 01       	or     $0x1010100,%eax
 639:	01 00                	add    %eax,(%eax)
 63b:	00 00                	add    %al,(%eax)
 63d:	01 00                	add    %eax,(%eax)
 63f:	00 01                	add    %al,(%ecx)
 641:	01 01                	add    %eax,(%ecx)
 643:	1f                   	pop    %ds
 644:	03 00                	add    (%eax),%eax
 646:	00 00                	add    %al,(%eax)
 648:	00 21                	add    %ah,(%ecx)
 64a:	00 00                	add    %al,(%eax)
 64c:	00 4f 00             	add    %cl,0x0(%edi)
 64f:	00 00                	add    %al,(%eax)
 651:	02 01                	add    (%ecx),%al
 653:	1f                   	pop    %ds
 654:	02 0f                	add    (%edi),%cl
 656:	07                   	pop    %es
 657:	f9                   	stc
 658:	00 00                	add    %al,(%eax)
 65a:	00 01                	add    %al,(%ecx)
 65c:	f9                   	stc
 65d:	00 00                	add    %al,(%eax)
 65f:	00 01                	add    %al,(%ecx)
 661:	61                   	popa
 662:	00 00                	add    %al,(%eax)
 664:	00 02                	add    %al,(%edx)
 666:	00 01                	add    %al,(%ecx)
 668:	00 00                	add    %al,(%eax)
 66a:	02 06                	add    (%esi),%al
 66c:	01 00                	add    %eax,(%eax)
 66e:	00 02                	add    %al,(%edx)
 670:	7b 00                	jnp    672 <mbh-0x2ff98e>
 672:	00 00                	add    %al,(%eax)
 674:	02 8f 00 00 00 02    	add    0x2000000(%edi),%cl
 67a:	05 01 00 05 02       	add    $0x2050001,%eax
 67f:	cc                   	int3
 680:	3b 30                	cmp    (%eax),%esi
 682:	00 03                	add    %al,(%ebx)
 684:	0a 01                	or     (%ecx),%al
 686:	05 08 6b 05 09       	add    $0x9056b08,%eax
 68b:	77 05                	ja     692 <mbh-0x2ff96e>
 68d:	04 74                	add    $0x74,%al
 68f:	05 07 59 05 1f       	add    $0x1f055907,%eax
 694:	00 02                	add    %al,(%edx)
 696:	04 03                	add    $0x3,%al
 698:	02 85 01 11 05 27    	add    0x27051101(%ebp),%al
 69e:	00 02                	add    %al,(%edx)
 6a0:	04 03                	add    $0x3,%al
 6a2:	4a                   	dec    %edx
 6a3:	05 0f 00 02 04       	add    $0x402000f,%eax
 6a8:	01 4a cb             	add    %ecx,-0x35(%edx)
 6ab:	75 05                	jne    6b2 <mbh-0x2ff94e>
 6ad:	04 67                	add    $0x67,%al
 6af:	05 01 4b 3f 05       	add    $0x53f4b01,%eax
 6b4:	04 bb                	add    $0xbb,%al
 6b6:	05 0c 03 1c 02       	add    $0x21c030c,%eax
 6bb:	a2 01 01 05 06       	mov    %al,0x6050101
 6c0:	a0 05 07 67 05       	mov    0x5670705,%al
 6c5:	01 85 05 07 2d 05    	add    %eax,0x52d0705(%ebp)
 6cb:	01 08                	add    %ecx,(%eax)
 6cd:	4b                   	dec    %ebx
 6ce:	02 09                	add    (%ecx),%cl
 6d0:	00 01                	add    %al,(%ecx)
 6d2:	01 3b                	add    %edi,(%ebx)
 6d4:	03 00                	add    (%eax),%eax
 6d6:	00 05 00 04 00 2e    	add    %al,0x2e000400
 6dc:	00 00                	add    %al,(%eax)
 6de:	00 01                	add    %al,(%ecx)
 6e0:	01 01                	add    %eax,(%ecx)
 6e2:	fb                   	sti
 6e3:	0e                   	push   %cs
 6e4:	0d 00 01 01 01       	or     $0x1010100,%eax
 6e9:	01 00                	add    %eax,(%eax)
 6eb:	00 00                	add    %al,(%eax)
 6ed:	01 00                	add    %eax,(%eax)
 6ef:	00 01                	add    %al,(%ecx)
 6f1:	01 01                	add    %eax,(%ecx)
 6f3:	1f                   	pop    %ds
 6f4:	02 00                	add    (%eax),%al
 6f6:	00 00                	add    %al,(%eax)
 6f8:	00 21                	add    %ah,(%ecx)
 6fa:	00 00                	add    %al,(%eax)
 6fc:	00 02                	add    %al,(%edx)
 6fe:	01 1f                	add    %ebx,(%edi)
 700:	02 0f                	add    (%edi),%cl
 702:	02 0d 01 00 00 01    	add    0x1000001,%cl
 708:	0d 01 00 00 01       	or     $0x1000001,%eax
 70d:	00 05 02 79 3d 30    	add    %al,0x303d7902
 713:	00 03                	add    %al,(%ebx)
 715:	0d 01 21 2f 2f       	or     $0x2f2f2101,%eax
 71a:	30 21                	xor    %ah,(%ecx)
 71c:	30 2f                	xor    %ch,(%edi)
 71e:	03 11                	add    (%ecx),%edx
 720:	20 21                	and    %ah,(%ecx)
 722:	2f                   	das
 723:	5b                   	pop    %ebx
 724:	21 3d 02 01 00 01    	and    %edi,0x1000102
 72a:	01 00                	add    %eax,(%eax)
 72c:	05 02 10 20 30       	add    $0x30201002,%eax
 731:	00 03                	add    %al,(%ebx)
 733:	38 01                	cmp    %al,(%ecx)
 735:	2f                   	das
 736:	2f                   	das
 737:	be 2f 2f be 2f       	mov    $0x2fbe2f2f,%esi
 73c:	2f                   	das
 73d:	be 2f 2f be 2f       	mov    $0x2fbe2f2f,%esi
 742:	2f                   	das
 743:	be 2f 2f be 2f       	mov    $0x2fbe2f2f,%esi
 748:	2f                   	das
 749:	be 2f 2f be 2f       	mov    $0x2fbe2f2f,%esi
 74e:	da 2f                	fisubrl (%edi)
 750:	2f                   	das
 751:	be 2f da 2f da       	mov    $0xda2fda2f,%esi
 756:	2f                   	das
 757:	da 2f                	fisubrl (%edi)
 759:	da 2f                	fisubrl (%edi)
 75b:	da 2f                	fisubrl (%edi)
 75d:	2f                   	das
 75e:	be 2f 2f be 2f       	mov    $0x2fbe2f2f,%esi
 763:	da 2f                	fisubrl (%edi)
 765:	2f                   	das
 766:	be 2f 2f bf 02       	mov    $0x2bf2f2f,%esi
 76b:	c0 01 18             	rolb   $0x18,(%ecx)
 76e:	2f                   	das
 76f:	2f                   	das
 770:	b8 2f 2f b8 2f       	mov    $0x2fb82f2f,%eax
 775:	2f                   	das
 776:	b8 2f 2f b8 2f       	mov    $0x2fb82f2f,%eax
 77b:	2f                   	das
 77c:	b8 2f 2f b8 2f       	mov    $0x2fb82f2f,%eax
 781:	2f                   	das
 782:	b8 2f 2f c0 2f       	mov    $0x2fc02f2f,%eax
 787:	2f                   	das
 788:	b8 2f 2f b8 2f       	mov    $0x2fb82f2f,%eax
 78d:	2f                   	das
 78e:	b8 2f 2f b8 2f       	mov    $0x2fb82f2f,%eax
 793:	2f                   	das
 794:	b8 2f 2f b8 2f       	mov    $0x2fb82f2f,%eax
 799:	2f                   	das
 79a:	b8 2f 2f c0 2f       	mov    $0x2fc02f2f,%eax
 79f:	2f                   	das
 7a0:	b8 2f 2f b8 2f       	mov    $0x2fb82f2f,%eax
 7a5:	2f                   	das
 7a6:	b8 2f 2f b8 2f       	mov    $0x2fb82f2f,%eax
 7ab:	2f                   	das
 7ac:	b8 2f 2f b8 2f       	mov    $0x2fb82f2f,%eax
 7b1:	2f                   	das
 7b2:	b8 2f 2f b8 2f       	mov    $0x2fb82f2f,%eax
 7b7:	2f                   	das
 7b8:	b8 2f 2f b8 2f       	mov    $0x2fb82f2f,%eax
 7bd:	2f                   	das
 7be:	b8 2f 2f b8 2f       	mov    $0x2fb82f2f,%eax
 7c3:	2f                   	das
 7c4:	b8 2f 2f b8 2f       	mov    $0x2fb82f2f,%eax
 7c9:	2f                   	das
 7ca:	b8 2f 2f b8 2f       	mov    $0x2fb82f2f,%eax
 7cf:	2f                   	das
 7d0:	b8 2f 2f b8 2f       	mov    $0x2fb82f2f,%eax
 7d5:	2f                   	das
 7d6:	b8 2f 2f b8 2f       	mov    $0x2fb82f2f,%eax
 7db:	2f                   	das
 7dc:	b8 2f 2f b8 2f       	mov    $0x2fb82f2f,%eax
 7e1:	2f                   	das
 7e2:	b8 2f 2f b8 2f       	mov    $0x2fb82f2f,%eax
 7e7:	2f                   	das
 7e8:	b8 2f 2f b8 2f       	mov    $0x2fb82f2f,%eax
 7ed:	2f                   	das
 7ee:	b8 2f 2f b8 2f       	mov    $0x2fb82f2f,%eax
 7f3:	2f                   	das
 7f4:	b8 2f 2f b8 2f       	mov    $0x2fb82f2f,%eax
 7f9:	2f                   	das
 7fa:	b8 2f 2f b8 2f       	mov    $0x2fb82f2f,%eax
 7ff:	2f                   	das
 800:	b8 2f 2f b8 2f       	mov    $0x2fb82f2f,%eax
 805:	2f                   	das
 806:	b8 2f 2f b8 2f       	mov    $0x2fb82f2f,%eax
 80b:	2f                   	das
 80c:	b8 2f 2f b8 2f       	mov    $0x2fb82f2f,%eax
 811:	2f                   	das
 812:	b8 2f 2f b8 2f       	mov    $0x2fb82f2f,%eax
 817:	2f                   	das
 818:	b8 2f 2f b8 2f       	mov    $0x2fb82f2f,%eax
 81d:	2f                   	das
 81e:	b8 2f 2f b8 2f       	mov    $0x2fb82f2f,%eax
 823:	2f                   	das
 824:	b8 2f 2f b8 2f       	mov    $0x2fb82f2f,%eax
 829:	2f                   	das
 82a:	b8 2f 2f b8 2f       	mov    $0x2fb82f2f,%eax
 82f:	2f                   	das
 830:	b8 2f 2f b8 2f       	mov    $0x2fb82f2f,%eax
 835:	2f                   	das
 836:	b8 2f 2f b8 2f       	mov    $0x2fb82f2f,%eax
 83b:	2f                   	das
 83c:	b8 2f 2f b8 2f       	mov    $0x2fb82f2f,%eax
 841:	2f                   	das
 842:	b8 2f 2f b8 2f       	mov    $0x2fb82f2f,%eax
 847:	2f                   	das
 848:	b8 2f 2f b8 2f       	mov    $0x2fb82f2f,%eax
 84d:	2f                   	das
 84e:	b8 2f 2f b8 2f       	mov    $0x2fb82f2f,%eax
 853:	2f                   	das
 854:	b8 2f 2f b8 2f       	mov    $0x2fb82f2f,%eax
 859:	2f                   	das
 85a:	b8 2f 2f b8 2f       	mov    $0x2fb82f2f,%eax
 85f:	2f                   	das
 860:	b8 2f 2f b8 2f       	mov    $0x2fb82f2f,%eax
 865:	2f                   	das
 866:	b8 2f 2f b8 2f       	mov    $0x2fb82f2f,%eax
 86b:	2f                   	das
 86c:	b8 2f 2f b8 2f       	mov    $0x2fb82f2f,%eax
 871:	2f                   	das
 872:	b8 2f 2f b8 2f       	mov    $0x2fb82f2f,%eax
 877:	2f                   	das
 878:	b8 2f 2f b8 2f       	mov    $0x2fb82f2f,%eax
 87d:	2f                   	das
 87e:	b8 2f 2f b8 2f       	mov    $0x2fb82f2f,%eax
 883:	2f                   	das
 884:	b8 2f 2f b8 2f       	mov    $0x2fb82f2f,%eax
 889:	2f                   	das
 88a:	b8 2f 2f b8 2f       	mov    $0x2fb82f2f,%eax
 88f:	59                   	pop    %ecx
 890:	8e 2f                	mov    (%edi),%gs
 892:	59                   	pop    %ecx
 893:	8e 2f                	mov    (%edi),%gs
 895:	59                   	pop    %ecx
 896:	8e 2f                	mov    (%edi),%gs
 898:	59                   	pop    %ecx
 899:	8e 2f                	mov    (%edi),%gs
 89b:	59                   	pop    %ecx
 89c:	8e 2f                	mov    (%edi),%gs
 89e:	59                   	pop    %ecx
 89f:	8e 2f                	mov    (%edi),%gs
 8a1:	59                   	pop    %ecx
 8a2:	8e 2f                	mov    (%edi),%gs
 8a4:	59                   	pop    %ecx
 8a5:	8e 2f                	mov    (%edi),%gs
 8a7:	59                   	pop    %ecx
 8a8:	8e 2f                	mov    (%edi),%gs
 8aa:	59                   	pop    %ecx
 8ab:	8e 2f                	mov    (%edi),%gs
 8ad:	59                   	pop    %ecx
 8ae:	8e 2f                	mov    (%edi),%gs
 8b0:	59                   	pop    %ecx
 8b1:	8e 2f                	mov    (%edi),%gs
 8b3:	59                   	pop    %ecx
 8b4:	8e 2f                	mov    (%edi),%gs
 8b6:	59                   	pop    %ecx
 8b7:	8e 2f                	mov    (%edi),%gs
 8b9:	59                   	pop    %ecx
 8ba:	8e 2f                	mov    (%edi),%gs
 8bc:	59                   	pop    %ecx
 8bd:	8e 2f                	mov    (%edi),%gs
 8bf:	59                   	pop    %ecx
 8c0:	8e 2f                	mov    (%edi),%gs
 8c2:	59                   	pop    %ecx
 8c3:	8e 2f                	mov    (%edi),%gs
 8c5:	59                   	pop    %ecx
 8c6:	8e 2f                	mov    (%edi),%gs
 8c8:	59                   	pop    %ecx
 8c9:	8e 2f                	mov    (%edi),%gs
 8cb:	59                   	pop    %ecx
 8cc:	8e 2f                	mov    (%edi),%gs
 8ce:	59                   	pop    %ecx
 8cf:	8e 2f                	mov    (%edi),%gs
 8d1:	59                   	pop    %ecx
 8d2:	8e 2f                	mov    (%edi),%gs
 8d4:	59                   	pop    %ecx
 8d5:	8e 2f                	mov    (%edi),%gs
 8d7:	59                   	pop    %ecx
 8d8:	8e 2f                	mov    (%edi),%gs
 8da:	59                   	pop    %ecx
 8db:	8e 2f                	mov    (%edi),%gs
 8dd:	59                   	pop    %ecx
 8de:	8e 2f                	mov    (%edi),%gs
 8e0:	59                   	pop    %ecx
 8e1:	8e 2f                	mov    (%edi),%gs
 8e3:	59                   	pop    %ecx
 8e4:	8e 2f                	mov    (%edi),%gs
 8e6:	59                   	pop    %ecx
 8e7:	8e 2f                	mov    (%edi),%gs
 8e9:	59                   	pop    %ecx
 8ea:	8e 2f                	mov    (%edi),%gs
 8ec:	59                   	pop    %ecx
 8ed:	8e 2f                	mov    (%edi),%gs
 8ef:	59                   	pop    %ecx
 8f0:	8e 2f                	mov    (%edi),%gs
 8f2:	59                   	pop    %ecx
 8f3:	8e 2f                	mov    (%edi),%gs
 8f5:	59                   	pop    %ecx
 8f6:	8e 2f                	mov    (%edi),%gs
 8f8:	59                   	pop    %ecx
 8f9:	8e 2f                	mov    (%edi),%gs
 8fb:	59                   	pop    %ecx
 8fc:	8e 2f                	mov    (%edi),%gs
 8fe:	59                   	pop    %ecx
 8ff:	8e 2f                	mov    (%edi),%gs
 901:	59                   	pop    %ecx
 902:	8e 2f                	mov    (%edi),%gs
 904:	59                   	pop    %ecx
 905:	8e 2f                	mov    (%edi),%gs
 907:	59                   	pop    %ecx
 908:	8e 2f                	mov    (%edi),%gs
 90a:	59                   	pop    %ecx
 90b:	8e 2f                	mov    (%edi),%gs
 90d:	59                   	pop    %ecx
 90e:	8e 2f                	mov    (%edi),%gs
 910:	59                   	pop    %ecx
 911:	8e 2f                	mov    (%edi),%gs
 913:	59                   	pop    %ecx
 914:	8e 2f                	mov    (%edi),%gs
 916:	59                   	pop    %ecx
 917:	8e 2f                	mov    (%edi),%gs
 919:	59                   	pop    %ecx
 91a:	8e 2f                	mov    (%edi),%gs
 91c:	59                   	pop    %ecx
 91d:	8e 2f                	mov    (%edi),%gs
 91f:	59                   	pop    %ecx
 920:	8e 2f                	mov    (%edi),%gs
 922:	59                   	pop    %ecx
 923:	8e 2f                	mov    (%edi),%gs
 925:	59                   	pop    %ecx
 926:	8e 2f                	mov    (%edi),%gs
 928:	59                   	pop    %ecx
 929:	8e 2f                	mov    (%edi),%gs
 92b:	59                   	pop    %ecx
 92c:	8e 2f                	mov    (%edi),%gs
 92e:	59                   	pop    %ecx
 92f:	8e 2f                	mov    (%edi),%gs
 931:	59                   	pop    %ecx
 932:	8e 2f                	mov    (%edi),%gs
 934:	59                   	pop    %ecx
 935:	8e 2f                	mov    (%edi),%gs
 937:	59                   	pop    %ecx
 938:	8e 2f                	mov    (%edi),%gs
 93a:	59                   	pop    %ecx
 93b:	8e 2f                	mov    (%edi),%gs
 93d:	59                   	pop    %ecx
 93e:	8e 2f                	mov    (%edi),%gs
 940:	59                   	pop    %ecx
 941:	8e 2f                	mov    (%edi),%gs
 943:	59                   	pop    %ecx
 944:	8e 2f                	mov    (%edi),%gs
 946:	59                   	pop    %ecx
 947:	8e 2f                	mov    (%edi),%gs
 949:	59                   	pop    %ecx
 94a:	8e 2f                	mov    (%edi),%gs
 94c:	59                   	pop    %ecx
 94d:	8e 2f                	mov    (%edi),%gs
 94f:	59                   	pop    %ecx
 950:	8e 2f                	mov    (%edi),%gs
 952:	59                   	pop    %ecx
 953:	8e 2f                	mov    (%edi),%gs
 955:	59                   	pop    %ecx
 956:	8e 2f                	mov    (%edi),%gs
 958:	59                   	pop    %ecx
 959:	8e 2f                	mov    (%edi),%gs
 95b:	59                   	pop    %ecx
 95c:	8e 2f                	mov    (%edi),%gs
 95e:	59                   	pop    %ecx
 95f:	8e 2f                	mov    (%edi),%gs
 961:	59                   	pop    %ecx
 962:	8e 2f                	mov    (%edi),%gs
 964:	59                   	pop    %ecx
 965:	8e 2f                	mov    (%edi),%gs
 967:	59                   	pop    %ecx
 968:	8e 2f                	mov    (%edi),%gs
 96a:	59                   	pop    %ecx
 96b:	8e 2f                	mov    (%edi),%gs
 96d:	59                   	pop    %ecx
 96e:	8e 2f                	mov    (%edi),%gs
 970:	59                   	pop    %ecx
 971:	8e 2f                	mov    (%edi),%gs
 973:	59                   	pop    %ecx
 974:	8e 2f                	mov    (%edi),%gs
 976:	59                   	pop    %ecx
 977:	8e 2f                	mov    (%edi),%gs
 979:	59                   	pop    %ecx
 97a:	8e 2f                	mov    (%edi),%gs
 97c:	59                   	pop    %ecx
 97d:	8e 2f                	mov    (%edi),%gs
 97f:	59                   	pop    %ecx
 980:	8e 2f                	mov    (%edi),%gs
 982:	59                   	pop    %ecx
 983:	8e 2f                	mov    (%edi),%gs
 985:	59                   	pop    %ecx
 986:	8e 2f                	mov    (%edi),%gs
 988:	59                   	pop    %ecx
 989:	8e 2f                	mov    (%edi),%gs
 98b:	59                   	pop    %ecx
 98c:	8e 2f                	mov    (%edi),%gs
 98e:	59                   	pop    %ecx
 98f:	8e 2f                	mov    (%edi),%gs
 991:	59                   	pop    %ecx
 992:	8e 2f                	mov    (%edi),%gs
 994:	59                   	pop    %ecx
 995:	8e 2f                	mov    (%edi),%gs
 997:	59                   	pop    %ecx
 998:	8e 2f                	mov    (%edi),%gs
 99a:	59                   	pop    %ecx
 99b:	8e 2f                	mov    (%edi),%gs
 99d:	59                   	pop    %ecx
 99e:	8e 2f                	mov    (%edi),%gs
 9a0:	59                   	pop    %ecx
 9a1:	8e 2f                	mov    (%edi),%gs
 9a3:	59                   	pop    %ecx
 9a4:	8e 2f                	mov    (%edi),%gs
 9a6:	59                   	pop    %ecx
 9a7:	8e 2f                	mov    (%edi),%gs
 9a9:	59                   	pop    %ecx
 9aa:	8e 2f                	mov    (%edi),%gs
 9ac:	59                   	pop    %ecx
 9ad:	8e 2f                	mov    (%edi),%gs
 9af:	59                   	pop    %ecx
 9b0:	8e 2f                	mov    (%edi),%gs
 9b2:	59                   	pop    %ecx
 9b3:	8e 2f                	mov    (%edi),%gs
 9b5:	59                   	pop    %ecx
 9b6:	8e 2f                	mov    (%edi),%gs
 9b8:	59                   	pop    %ecx
 9b9:	8e 2f                	mov    (%edi),%gs
 9bb:	59                   	pop    %ecx
 9bc:	8e 2f                	mov    (%edi),%gs
 9be:	59                   	pop    %ecx
 9bf:	8e 2f                	mov    (%edi),%gs
 9c1:	59                   	pop    %ecx
 9c2:	8e 2f                	mov    (%edi),%gs
 9c4:	59                   	pop    %ecx
 9c5:	8e 2f                	mov    (%edi),%gs
 9c7:	59                   	pop    %ecx
 9c8:	8e 2f                	mov    (%edi),%gs
 9ca:	59                   	pop    %ecx
 9cb:	8e 2f                	mov    (%edi),%gs
 9cd:	59                   	pop    %ecx
 9ce:	8e 2f                	mov    (%edi),%gs
 9d0:	59                   	pop    %ecx
 9d1:	8e 2f                	mov    (%edi),%gs
 9d3:	59                   	pop    %ecx
 9d4:	8e 2f                	mov    (%edi),%gs
 9d6:	59                   	pop    %ecx
 9d7:	8e 2f                	mov    (%edi),%gs
 9d9:	59                   	pop    %ecx
 9da:	8e 2f                	mov    (%edi),%gs
 9dc:	59                   	pop    %ecx
 9dd:	8e 2f                	mov    (%edi),%gs
 9df:	59                   	pop    %ecx
 9e0:	8e 2f                	mov    (%edi),%gs
 9e2:	59                   	pop    %ecx
 9e3:	8e 2f                	mov    (%edi),%gs
 9e5:	59                   	pop    %ecx
 9e6:	8e 2f                	mov    (%edi),%gs
 9e8:	59                   	pop    %ecx
 9e9:	8e 2f                	mov    (%edi),%gs
 9eb:	59                   	pop    %ecx
 9ec:	8e 2f                	mov    (%edi),%gs
 9ee:	59                   	pop    %ecx
 9ef:	8e 2f                	mov    (%edi),%gs
 9f1:	59                   	pop    %ecx
 9f2:	8e 2f                	mov    (%edi),%gs
 9f4:	59                   	pop    %ecx
 9f5:	8e 2f                	mov    (%edi),%gs
 9f7:	59                   	pop    %ecx
 9f8:	8e 2f                	mov    (%edi),%gs
 9fa:	59                   	pop    %ecx
 9fb:	8e 2f                	mov    (%edi),%gs
 9fd:	59                   	pop    %ecx
 9fe:	8e 2f                	mov    (%edi),%gs
 a00:	59                   	pop    %ecx
 a01:	8e 2f                	mov    (%edi),%gs
 a03:	59                   	pop    %ecx
 a04:	8e 2f                	mov    (%edi),%gs
 a06:	59                   	pop    %ecx
 a07:	8e 2f                	mov    (%edi),%gs
 a09:	59                   	pop    %ecx
 a0a:	8e 2f                	mov    (%edi),%gs
 a0c:	59                   	pop    %ecx
 a0d:	02 05 00 01 01 91    	add    0x91010100,%al
 a13:	00 00                	add    %al,(%eax)
 a15:	00 05 00 04 00 50    	add    %al,0x50000400
 a1b:	00 00                	add    %al,(%eax)
 a1d:	00 01                	add    %al,(%ecx)
 a1f:	01 01                	add    %eax,(%ecx)
 a21:	fb                   	sti
 a22:	0e                   	push   %cs
 a23:	0d 00 01 01 01       	or     $0x1010100,%eax
 a28:	01 00                	add    %eax,(%eax)
 a2a:	00 00                	add    %al,(%eax)
 a2c:	01 00                	add    %eax,(%eax)
 a2e:	00 01                	add    %al,(%ecx)
 a30:	01 01                	add    %eax,(%ecx)
 a32:	1f                   	pop    %ds
 a33:	03 00                	add    (%eax),%eax
 a35:	00 00                	add    %al,(%eax)
 a37:	00 21                	add    %ah,(%ecx)
 a39:	00 00                	add    %al,(%eax)
 a3b:	00 4f 00             	add    %cl,0x0(%edi)
 a3e:	00 00                	add    %al,(%eax)
 a40:	02 01                	add    (%ecx),%al
 a42:	1f                   	pop    %ds
 a43:	02 0f                	add    (%edi),%cl
 a45:	08 22                	or     %ah,(%edx)
 a47:	01 00                	add    %eax,(%eax)
 a49:	00 01                	add    %al,(%ecx)
 a4b:	22 01                	and    (%ecx),%al
 a4d:	00 00                	add    %al,(%eax)
 a4f:	01 61 00             	add    %esp,0x0(%ecx)
 a52:	00 00                	add    %al,(%eax)
 a54:	02 00                	add    (%eax),%al
 a56:	01 00                	add    %eax,(%eax)
 a58:	00 02                	add    %al,(%edx)
 a5a:	06                   	push   %es
 a5b:	01 00                	add    %eax,(%eax)
 a5d:	00 02                	add    %al,(%edx)
 a5f:	7b 00                	jnp    a61 <mbh-0x2ff59f>
 a61:	00 00                	add    %al,(%eax)
 a63:	02 8f 00 00 00 02    	add    0x2000000(%edi),%cl
 a69:	29 01                	sub    %eax,(%ecx)
 a6b:	00 00                	add    %al,(%eax)
 a6d:	02 05 01 00 05 02    	add    0x2050001,%al
 a73:	93                   	xchg   %eax,%ebx
 a74:	3d 30 00 03 20       	cmp    $0x20030030,%eax
 a79:	01 05 04 ad 05 12    	add    %eax,0x1205ad04
 a7f:	02 22                	add    (%edx),%ah
 a81:	14 05                	adc    $0x5,%al
 a83:	04 9e                	add    $0x9e,%al
 a85:	05 07 08 bd f3       	add    $0xf3bd0807,%eax
 a8a:	5c                   	pop    %esp
 a8b:	02 5a 18             	add    0x18(%edx),%bl
 a8e:	31 02                	xor    %eax,(%edx)
 a90:	59                   	pop    %ecx
 a91:	17                   	pop    %ss
 a92:	05 04 23 08 91       	add    $0x91082304,%eax
 a97:	05 1c 08 91 05       	add    $0x591081c,%eax
 a9c:	04 66                	add    $0x66,%al
 a9e:	bb 05 01 f3 02       	mov    $0x2f30105,%ebx
 aa3:	07                   	pop    %es
 aa4:	00 01                	add    %al,(%ecx)
 aa6:	01 7c 00 00          	add    %edi,0x0(%eax,%eax,1)
 aaa:	00 05 00 04 00 3c    	add    %al,0x3c000400
 ab0:	00 00                	add    %al,(%eax)
 ab2:	00 01                	add    %al,(%ecx)
 ab4:	01 01                	add    %eax,(%ecx)
 ab6:	fb                   	sti
 ab7:	0e                   	push   %cs
 ab8:	0d 00 01 01 01       	or     $0x1010100,%eax
 abd:	01 00                	add    %eax,(%eax)
 abf:	00 00                	add    %al,(%eax)
 ac1:	01 00                	add    %eax,(%eax)
 ac3:	00 01                	add    %al,(%ecx)
 ac5:	01 01                	add    %eax,(%ecx)
 ac7:	1f                   	pop    %ds
 ac8:	03 00                	add    (%eax),%eax
 aca:	00 00                	add    %al,(%eax)
 acc:	00 21                	add    %ah,(%ecx)
 ace:	00 00                	add    %al,(%eax)
 ad0:	00 4f 00             	add    %cl,0x0(%edi)
 ad3:	00 00                	add    %al,(%eax)
 ad5:	02 01                	add    (%ecx),%al
 ad7:	1f                   	pop    %ds
 ad8:	02 0f                	add    (%edi),%cl
 ada:	04 40                	add    $0x40,%al
 adc:	01 00                	add    %eax,(%eax)
 ade:	00 01                	add    %al,(%ecx)
 ae0:	40                   	inc    %eax
 ae1:	01 00                	add    %eax,(%eax)
 ae3:	00 01                	add    %al,(%ecx)
 ae5:	61                   	popa
 ae6:	00 00                	add    %al,(%eax)
 ae8:	00 02                	add    %al,(%edx)
 aea:	8f 00                	pop    (%eax)
 aec:	00 00                	add    %al,(%eax)
 aee:	02 05 01 00 05 02    	add    0x2050001,%al
 af4:	0f 3f                	(bad)
 af6:	30 00                	xor    %al,(%eax)
 af8:	1a 05 04 69 05 08    	sbb    0x8056904,%al
 afe:	f4                   	hlt
 aff:	05 09 67 05 1e       	add    $0x1e056709,%eax
 b04:	30 05 19 66 05 0b    	xor    %al,0xb056619
 b0a:	2e 05 19 3d 05 0b    	cs add $0xb053d19,%eax
 b10:	58                   	pop    %eax
 b11:	05 07 3d 05 0e       	add    $0xe053d07,%eax
 b16:	08 2a                	or     %ch,(%edx)
 b18:	00 02                	add    %al,(%edx)
 b1a:	04 01                	add    $0x1,%al
 b1c:	06                   	push   %es
 b1d:	66 05 01 06          	add    $0x601,%ax
 b21:	96                   	xchg   %eax,%esi
 b22:	02 03                	add    (%ebx),%al
 b24:	00 01                	add    %al,(%ecx)
 b26:	01 78 00             	add    %edi,0x0(%eax)
 b29:	00 00                	add    %al,(%eax)
 b2b:	05 00 04 00 3d       	add    $0x3d000400,%eax
 b30:	00 00                	add    %al,(%eax)
 b32:	00 01                	add    %al,(%ecx)
 b34:	01 01                	add    %eax,(%ecx)
 b36:	fb                   	sti
 b37:	0e                   	push   %cs
 b38:	0d 00 01 01 01       	or     $0x1010100,%eax
 b3d:	01 00                	add    %eax,(%eax)
 b3f:	00 00                	add    %al,(%eax)
 b41:	01 00                	add    %eax,(%eax)
 b43:	00 01                	add    %al,(%ecx)
 b45:	01 01                	add    %eax,(%ecx)
 b47:	1f                   	pop    %ds
 b48:	02 00                	add    (%eax),%al
 b4a:	00 00                	add    %al,(%eax)
 b4c:	00 4f 00             	add    %cl,0x0(%edi)
 b4f:	00 00                	add    %al,(%eax)
 b51:	02 01                	add    (%ecx),%al
 b53:	1f                   	pop    %ds
 b54:	02 0f                	add    (%edi),%cl
 b56:	05 48 01 00 00       	add    $0x148,%eax
 b5b:	00 48 01             	add    %cl,0x1(%eax)
 b5e:	00 00                	add    %al,(%eax)
 b60:	00 61 00             	add    %ah,0x0(%ecx)
 b63:	00 00                	add    %al,(%eax)
 b65:	01 7b 00             	add    %edi,0x0(%ebx)
 b68:	00 00                	add    %al,(%eax)
 b6a:	01 8f 00 00 00 01    	add    %ecx,0x1000000(%edi)
 b70:	05 13 00 05 02       	add    $0x2050013,%eax
 b75:	65 3f                	gs aas
 b77:	30 00                	xor    %al,(%eax)
 b79:	18 05 04 68 7a 05    	sbb    %al,0x57a6804
 b7f:	02 08                	add    (%eax),%cl
 b81:	2f                   	das
 b82:	05 01 31 05 13       	add    $0x13053101,%eax
 b87:	3e 05 02 3d 05 01    	ds add $0x1053d02,%eax
 b8d:	21 05 0b 3e 05 02    	and    %eax,0x2053e0b
 b93:	76 4b                	jbe    be0 <mbh-0x2ff420>
 b95:	08 3d 02 8e 01 13    	or     %bh,0x13018e02
 b9b:	05 01 59 02 06       	add    $0x6025901,%eax
 ba0:	00 01                	add    %al,(%ecx)
 ba2:	01                   	.byte 0x1

Déassemblage de la section .debug_line_str :

00000000 <.debug_line_str>:
   0:	2f                   	das
   1:	68 6f 6d 65 2f       	push   $0x2f656d6f
   6:	73 61                	jae    69 <mbh-0x2fff97>
   8:	6e                   	outsb  %ds:(%esi),(%dx)
   9:	69 6d 2f 74 6c 73 2d 	imul   $0x2d736c74,0x2f(%ebp),%ebp
  10:	73 65                	jae    77 <mbh-0x2fff89>
  12:	63 2f                	arpl   %ebp,(%edi)
  14:	73 65                	jae    7b <mbh-0x2fff85>
  16:	63 6f 73             	arpl   %ebp,0x73(%edi)
  19:	2d 6e 67 2f 74       	sub    $0x742f676e,%eax
  1e:	70 32                	jo     52 <mbh-0x2fffae>
  20:	00 2e                	add    %ch,(%esi)
  22:	2e 2f                	cs das
  24:	6b 65 72 6e          	imul   $0x6e,0x72(%ebp),%esp
  28:	65 6c                	gs insb (%dx),%es:(%edi)
  2a:	2f                   	das
  2b:	63 6f 72             	arpl   %ebp,0x72(%edi)
  2e:	65 00 65 6e          	add    %ah,%gs:0x6e(%ebp)
  32:	74 72                	je     a6 <mbh-0x2fff5a>
  34:	79 2e                	jns    64 <mbh-0x2fff9c>
  36:	73 00                	jae    38 <mbh-0x2fffc8>
  38:	2e 2e 2f             	cs cs das
  3b:	6b 65 72 6e          	imul   $0x6e,0x72(%ebp),%esp
  3f:	65 6c                	gs insb (%dx),%es:(%edi)
  41:	2f                   	das
  42:	63 6f 72             	arpl   %ebp,0x72(%edi)
  45:	65 2f                	gs das
  47:	73 74                	jae    bd <mbh-0x2fff43>
  49:	61                   	popa
  4a:	72 74                	jb     c0 <mbh-0x2fff40>
  4c:	2e 63 00             	arpl   %eax,%cs:(%eax)
  4f:	2e 2e 2f             	cs cs das
  52:	6b 65 72 6e          	imul   $0x6e,0x72(%ebp),%esp
  56:	65 6c                	gs insb (%dx),%es:(%edi)
  58:	2f                   	das
  59:	69 6e 63 6c 75 64 65 	imul   $0x6564756c,0x63(%esi),%ebp
  60:	00 74 79 70          	add    %dh,0x70(%ecx,%edi,2)
  64:	65 73 2e             	gs jae 95 <mbh-0x2fff6b>
  67:	68 00 67 72 75       	push   $0x75726700
  6c:	62 5f 6d             	bound  %ebx,0x6d(%edi)
  6f:	62 69 2e             	bound  %ebp,0x2e(%ecx)
  72:	68 00 69 6e 66       	push   $0x666e6900
  77:	6f                   	outsl  %ds:(%esi),(%dx)
  78:	2e 68 00 69 6e 74    	cs push $0x746e6900
  7e:	72 2e                	jb     ae <mbh-0x2fff52>
  80:	68 00 75 61 72       	push   $0x72617500
  85:	74 2e                	je     b5 <mbh-0x2fff4b>
  87:	68 00 70 69 63       	push   $0x63697000
  8c:	2e 68 00 70 72 69    	cs push $0x69727000
  92:	6e                   	outsb  %ds:(%esi),(%dx)
  93:	74 2e                	je     c3 <mbh-0x2fff3d>
  95:	68 00 73 74 61       	push   $0x61747300
  9a:	72 74                	jb     110 <mbh-0x2ffef0>
  9c:	2e 68 00 2e 2e 2f    	cs push $0x2f2e2e00
  a2:	6b 65 72 6e          	imul   $0x6e,0x72(%ebp),%esp
  a6:	65 6c                	gs insb (%dx),%es:(%edi)
  a8:	2f                   	das
  a9:	63 6f 72             	arpl   %ebp,0x72(%edi)
  ac:	65 2f                	gs das
  ae:	70 72                	jo     122 <mbh-0x2ffede>
  b0:	69 6e 74 2e 63 00 73 	imul   $0x7300632e,0x74(%esi),%ebp
  b7:	74 72                	je     12b <mbh-0x2ffed5>
  b9:	69 6e 67 2e 68 00 2e 	imul   $0x2e00682e,0x67(%esi),%ebp
  c0:	2e 2f                	cs das
  c2:	6b 65 72 6e          	imul   $0x6e,0x72(%ebp),%esp
  c6:	65 6c                	gs insb (%dx),%es:(%edi)
  c8:	2f                   	das
  c9:	63 6f 72             	arpl   %ebp,0x72(%edi)
  cc:	65 2f                	gs das
  ce:	75 61                	jne    131 <mbh-0x2ffecf>
  d0:	72 74                	jb     146 <mbh-0x2ffeba>
  d2:	2e 63 00             	arpl   %eax,%cs:(%eax)
  d5:	2e 2e 2f             	cs cs das
  d8:	6b 65 72 6e          	imul   $0x6e,0x72(%ebp),%esp
  dc:	65 6c                	gs insb (%dx),%es:(%edi)
  de:	2f                   	das
  df:	63 6f 72             	arpl   %ebp,0x72(%edi)
  e2:	65 2f                	gs das
  e4:	70 69                	jo     14f <mbh-0x2ffeb1>
  e6:	63 2e                	arpl   %ebp,(%esi)
  e8:	63 00                	arpl   %eax,(%eax)
  ea:	2e 2e 2f             	cs cs das
  ed:	6b 65 72 6e          	imul   $0x6e,0x72(%ebp),%esp
  f1:	65 6c                	gs insb (%dx),%es:(%edi)
  f3:	2f                   	das
  f4:	63 6f 72             	arpl   %ebp,0x72(%edi)
  f7:	65 2f                	gs das
  f9:	69 6e 74 72 2e 63 00 	imul   $0x632e72,0x74(%esi),%ebp
 100:	67 70 72             	addr16 jo 175 <mbh-0x2ffe8b>
 103:	2e 68 00 65 78 63    	cs push $0x63786500
 109:	70 2e                	jo     139 <mbh-0x2ffec7>
 10b:	68 00 69 64 74       	push   $0x74646900
 110:	2e 73 00             	jae,pn 113 <mbh-0x2ffeed>
 113:	2e 2e 2f             	cs cs das
 116:	6b 65 72 6e          	imul   $0x6e,0x72(%ebp),%esp
 11a:	65 6c                	gs insb (%dx),%es:(%edi)
 11c:	2f                   	das
 11d:	63 6f 72             	arpl   %ebp,0x72(%edi)
 120:	65 2f                	gs das
 122:	65 78 63             	gs js  188 <mbh-0x2ffe78>
 125:	70 2e                	jo     155 <mbh-0x2ffeab>
 127:	63 00                	arpl   %eax,(%eax)
 129:	64 65 62 75 67       	fs bound %esi,%gs:0x67(%ebp)
 12e:	2e 68 00 2e 2e 2f    	cs push $0x2f2e2e00
 134:	6b 65 72 6e          	imul   $0x6e,0x72(%ebp),%esp
 138:	65 6c                	gs insb (%dx),%es:(%edi)
 13a:	2f                   	das
 13b:	63 6f 72             	arpl   %ebp,0x72(%edi)
 13e:	65 2f                	gs das
 140:	73 74                	jae    1b6 <mbh-0x2ffe4a>
 142:	61                   	popa
 143:	63 6b 2e             	arpl   %ebp,0x2e(%ebx)
 146:	63 00                	arpl   %eax,(%eax)
 148:	74 70                	je     1ba <mbh-0x2ffe46>
 14a:	2e 63 00             	arpl   %eax,%cs:(%eax)

Déassemblage de la section .debug_info :

00000000 <.debug_info>:
       0:	20 00                	and    %al,(%eax)
       2:	00 00                	add    %al,(%eax)
       4:	05 00 01 04 00       	add    $0x40100,%eax
       9:	00 00                	add    %al,(%eax)
       b:	00 01                	add    %al,(%ecx)
       d:	00 00                	add    %al,(%eax)
       f:	00 00                	add    %al,(%eax)
      11:	10 30                	adc    %dh,(%eax)
      13:	30 00                	xor    %al,(%eax)
      15:	13 00                	adc    (%eax),%eax
      17:	00 00                	add    %al,(%eax)
      19:	00 17                	add    %dl,(%edi)
      1b:	00 00                	add    %al,(%eax)
      1d:	00 38                	add    %bh,(%eax)
      1f:	00 00                	add    %al,(%eax)
      21:	00 01                	add    %al,(%ecx)
      23:	80 71 04 00          	xorb   $0x0,0x4(%ecx)
      27:	00 05 00 01 04 14    	add    %al,0x14040100
      2d:	00 00                	add    %al,(%eax)
      2f:	00 10                	add    %dl,(%eax)
      31:	1d 04 00 00 1d       	sbb    $0x1d000004,%eax
      36:	38 00                	cmp    %al,(%eax)
      38:	00 00                	add    %al,(%eax)
      3a:	00 00                	add    %al,(%eax)
      3c:	00 00                	add    %al,(%eax)
      3e:	23 30                	and    (%eax),%esi
      40:	30 00                	xor    %al,(%eax)
      42:	4a                   	dec    %edx
      43:	00 00                	add    %al,(%eax)
      45:	00 50 00             	add    %dl,0x0(%eax)
      48:	00 00                	add    %al,(%eax)
      4a:	03 01                	add    (%ecx),%eax
      4c:	08 d7                	or     %dl,%bh
      4e:	01 00                	add    %eax,(%eax)
      50:	00 03                	add    %al,(%ebx)
      52:	02 07                	add    (%edi),%al
      54:	79 02                	jns    58 <mbh-0x2fffa8>
      56:	00 00                	add    %al,(%eax)
      58:	02 a0 00 00 00 02    	add    0x2000000(%eax),%ah
      5e:	1c 20                	sbb    $0x20,%al
      60:	4a                   	dec    %edx
      61:	00 00                	add    %al,(%eax)
      63:	00 06                	add    %al,(%esi)
      65:	34 00                	xor    $0x0,%al
      67:	00 00                	add    %al,(%eax)
      69:	09 40 00             	or     %eax,0x0(%eax)
      6c:	00 00                	add    %al,(%eax)
      6e:	03 04 07             	add    (%edi,%eax,1),%eax
      71:	1b 02                	sbb    (%edx),%eax
      73:	00 00                	add    %al,(%eax)
      75:	03 08                	add    (%eax),%ecx
      77:	07                   	pop    %es
      78:	11 02                	adc    %eax,(%edx)
      7a:	00 00                	add    %al,(%eax)
      7c:	03 01                	add    (%ecx),%eax
      7e:	06                   	push   %es
      7f:	d9 01                	flds   (%ecx)
      81:	00 00                	add    %al,(%eax)
      83:	03 02                	add    (%edx),%eax
      85:	05 a9 00 00 00       	add    $0xa9,%eax
      8a:	11 04 05 69 6e 74 00 	adc    %eax,0x746e69(,%eax,1)
      91:	03 08                	add    (%eax),%ecx
      93:	05 66 01 00 00       	add    $0x166,%eax
      98:	03 01                	add    (%ecx),%eax
      9a:	06                   	push   %es
      9b:	e0 01                	loopne 9e <mbh-0x2fff62>
      9d:	00 00                	add    %al,(%eax)
      9f:	06                   	push   %es
      a0:	74 00                	je     a2 <mbh-0x2fff5e>
      a2:	00 00                	add    %al,(%eax)
      a4:	02 b3 00 00 00 02    	add    0x2000000(%ebx),%dh
      aa:	25 20 8c 00 00       	and    $0x8c20,%eax
      af:	00 03                	add    %al,(%ebx)
      b1:	04 07                	add    $0x7,%al
      b3:	16                   	push   %ss
      b4:	02 00                	add    (%eax),%al
      b6:	00 02                	add    %al,(%edx)
      b8:	e8 03 00 00 03       	call   30000c0 <__kernel_end__+0x2cfab20>
      bd:	60                   	pusha
      be:	21 26                	and    %esp,(%esi)
      c0:	00 00                	add    %al,(%eax)
      c2:	00 02                	add    %al,(%edx)
      c4:	0d 01 00 00 03       	or     $0x3000001,%eax
      c9:	61                   	popa
      ca:	21 2d 00 00 00 02    	and    %ebp,0x2000000
      d0:	96                   	xchg   %eax,%esi
      d1:	00 00                	add    %al,(%eax)
      d3:	00 03                	add    %al,(%ebx)
      d5:	62 21                	bound  %esp,(%ecx)
      d7:	4a                   	dec    %edx
      d8:	00 00                	add    %al,(%eax)
      da:	00 02                	add    %al,(%edx)
      dc:	8c 02                	mov    %es,(%edx)
      de:	00 00                	add    %al,(%eax)
      e0:	03 63 21             	add    0x21(%ebx),%esp
      e3:	51                   	push   %ecx
      e4:	00 00                	add    %al,(%eax)
      e6:	00 05 c1 03 00 00    	add    %al,0x3c1
      ec:	10 03                	adc    %al,(%ebx)
      ee:	7f 08                	jg     f8 <mbh-0x2fff08>
      f0:	01 01                	add    %eax,(%ecx)
      f2:	00 00                	add    %al,(%eax)
      f4:	01 3a                	add    %edi,(%edx)
      f6:	03 00                	add    (%eax),%eax
      f8:	00 81 16 ab 00 00    	add    %al,0xab16(%ecx)
      fe:	00 00                	add    %al,(%eax)
     100:	01 20                	add    %esp,(%eax)
     102:	01 00                	add    %eax,(%eax)
     104:	00 82 16 ab 00 00    	add    %al,0xab16(%edx)
     10a:	00 04 01             	add    %al,(%ecx,%eax,1)
     10d:	f4                   	hlt
     10e:	05 00 00 83 16       	add    $0x16830000,%eax
     113:	ab                   	stos   %eax,%es:(%edi)
     114:	00 00                	add    %al,(%eax)
     116:	00 08                	add    %cl,(%eax)
     118:	01 d7                	add    %edx,%edi
     11a:	05 00 00 84 16       	add    $0x16840000,%eax
     11f:	ab                   	stos   %eax,%es:(%edi)
     120:	00 00                	add    %al,(%eax)
     122:	00 0c 00             	add    %cl,(%eax,%eax,1)
     125:	02 0a                	add    (%edx),%cl
     127:	03 00                	add    (%eax),%eax
     129:	00 03                	add    %al,(%ebx)
     12b:	86 2c c3             	xchg   %ch,(%ebx,%eax,8)
     12e:	00 00                	add    %al,(%eax)
     130:	00 05 c4 02 00 00    	add    %al,0x2c4
     136:	10 03                	adc    %al,(%ebx)
     138:	89 08                	mov    %ecx,(%eax)
     13a:	4c                   	dec    %esp
     13b:	01 00                	add    %eax,(%eax)
     13d:	00 07                	add    %al,(%edi)
     13f:	6e                   	outsb  %ds:(%esi),(%dx)
     140:	75 6d                	jne    1af <mbh-0x2ffe51>
     142:	00 03                	add    %al,(%ebx)
     144:	8b 16                	mov    (%esi),%edx
     146:	ab                   	stos   %eax,%es:(%edi)
     147:	00 00                	add    %al,(%eax)
     149:	00 00                	add    %al,(%eax)
     14b:	01 57 03             	add    %edx,0x3(%edi)
     14e:	00 00                	add    %al,(%eax)
     150:	8c 16                	mov    %ss,(%esi)
     152:	ab                   	stos   %eax,%es:(%edi)
     153:	00 00                	add    %al,(%eax)
     155:	00 04 01             	add    %al,(%ecx,%eax,1)
     158:	f4                   	hlt
     159:	05 00 00 8d 16       	add    $0x168d0000,%eax
     15e:	ab                   	stos   %eax,%es:(%edi)
     15f:	00 00                	add    %al,(%eax)
     161:	00 08                	add    %cl,(%eax)
     163:	01 56 01             	add    %edx,0x1(%esi)
     166:	00 00                	add    %al,(%eax)
     168:	8e 16                	mov    (%esi),%ss
     16a:	ab                   	stos   %eax,%es:(%edi)
     16b:	00 00                	add    %al,(%eax)
     16d:	00 0c 00             	add    %cl,(%eax,%eax,1)
     170:	02 31                	add    (%ecx),%dh
     172:	01 00                	add    %eax,(%eax)
     174:	00 03                	add    %al,(%ebx)
     176:	90                   	nop
     177:	33 0d 01 00 00 0a    	xor    0xa000001,%ecx
     17d:	10 a5 76 01 00 00    	adc    %ah,0x176(%ebp)
     183:	0b fa                	or     %edx,%edi
     185:	00 00                	add    %al,(%eax)
     187:	00 a7 23 01 01 00    	add    %ah,0x10123(%edi)
     18d:	00 0b                	add    %cl,(%ebx)
     18f:	f6 01 00             	testb  $0x0,(%ecx)
     192:	00 a8 2a 4c 01 00    	add    %ch,0x14c2a(%eax)
     198:	00 00                	add    %al,(%eax)
     19a:	0c 08                	or     $0x8,%al
     19c:	cf                   	iret
     19d:	96                   	xchg   %eax,%esi
     19e:	01 00                	add    %eax,(%eax)
     1a0:	00 01                	add    %al,(%ecx)
     1a2:	e0 05                	loopne 1a9 <mbh-0x2ffe57>
     1a4:	00 00                	add    %al,(%eax)
     1a6:	d1 1a                	rcrl   $1,(%edx)
     1a8:	ab                   	stos   %eax,%es:(%edi)
     1a9:	00 00                	add    %al,(%eax)
     1ab:	00 00                	add    %al,(%eax)
     1ad:	01 7a 01             	add    %edi,0x1(%edx)
     1b0:	00 00                	add    %al,(%eax)
     1b2:	d2 1a                	rcrb   %cl,(%edx)
     1b4:	9f                   	lahf
     1b5:	00 00                	add    %al,(%eax)
     1b7:	00 04 00             	add    %al,(%eax,%eax,1)
     1ba:	0c 06                	or     $0x6,%al
     1bc:	d4 e6                	aam    $0xe6
     1be:	01 00                	add    %eax,(%eax)
     1c0:	00 01                	add    %al,(%ecx)
     1c2:	ba 00 00 00 d6       	mov    $0xd6000000,%edx
     1c7:	19 93 00 00 00 00    	sbb    %edx,0x0(%ebx)
     1cd:	01 42 03             	add    %eax,0x3(%edx)
     1d0:	00 00                	add    %al,(%eax)
     1d2:	d7                   	xlat   %ds:(%ebx)
     1d3:	19 93 00 00 00 01    	sbb    %edx,0x1000000(%ebx)
     1d9:	01 46 02             	add    %eax,0x2(%esi)
     1dc:	00 00                	add    %al,(%eax)
     1de:	d8 19                	fcomps (%ecx)
     1e0:	93                   	xchg   %eax,%ebx
     1e1:	00 00                	add    %al,(%eax)
     1e3:	00 02                	add    %al,(%edx)
     1e5:	01 81 03 00 00 d9    	add    %eax,-0x26fffffd(%ecx)
     1eb:	19 93 00 00 00 03    	sbb    %edx,0x3000000(%ebx)
     1f1:	01 99 01 00 00 da    	add    %ebx,-0x25ffffff(%ecx)
     1f7:	19 93 00 00 00 04    	sbb    %edx,0x4000000(%ebx)
     1fd:	01 4e 00             	add    %ecx,0x0(%esi)
     200:	00 00                	add    %al,(%eax)
     202:	db 19                	fistpl (%ecx)
     204:	93                   	xchg   %eax,%ebx
     205:	00 00                	add    %al,(%eax)
     207:	00 05 00 0a 08 cd    	add    %al,0xcd080a00
     20d:	f8                   	clc
     20e:	01 00                	add    %eax,(%eax)
     210:	00 0d 76 01 00 00    	add    %cl,0x176
     216:	0d 96 01 00 00       	or     $0x196,%eax
     21b:	00 05 b5 02 00 00    	add    %al,0x2b5
     221:	78 03                	js     226 <mbh-0x2ffdda>
     223:	92                   	xchg   %eax,%edx
     224:	08 4f 03             	or     %cl,0x3(%edi)
     227:	00 00                	add    %al,(%eax)
     229:	01 4a 0b             	add    %ecx,0xb(%edx)
     22c:	00 00                	add    %al,(%eax)
     22e:	95                   	xchg   %eax,%ebp
     22f:	16                   	push   %ss
     230:	ab                   	stos   %eax,%es:(%edi)
     231:	00 00                	add    %al,(%eax)
     233:	00 00                	add    %al,(%eax)
     235:	01 fe                	add    %edi,%esi
     237:	01 00                	add    %eax,(%eax)
     239:	00 98 16 ab 00 00    	add    %bl,0xab16(%eax)
     23f:	00 04 01             	add    %al,(%ecx,%eax,1)
     242:	6a 03                	push   $0x3
     244:	00 00                	add    %al,(%eax)
     246:	99                   	cltd
     247:	16                   	push   %ss
     248:	ab                   	stos   %eax,%es:(%edi)
     249:	00 00                	add    %al,(%eax)
     24b:	00 08                	add    %cl,(%eax)
     24d:	01 a9 02 00 00 9c    	add    %ebp,-0x63fffffe(%ecx)
     253:	16                   	push   %ss
     254:	ab                   	stos   %eax,%es:(%edi)
     255:	00 00                	add    %al,(%eax)
